----------------
IN: 
0x00008000:  e3a0d302      mov	sp, #134217728	; 0x8000000
0x00008004:  eb002cd4      bl	0x1335c

----------------
IN: main
0x0001335c:  e92d4800      push	{fp, lr}
0x00013360:  e28db004      add	fp, sp, #4	; 0x4
0x00013364:  e24dd020      sub	sp, sp, #32	; 0x20
0x00013368:  e303132c      movw	r1, #13100	; 0x332c
0x0001336c:  e3401001      movt	r1, #1	; 0x1
0x00013370:  e3a00000      mov	r0, #0	; 0x0
0x00013374:  ebffd348      bl	0x809c

----------------
IN: init_printf
0x0000809c:  e52db004      push	{fp}		; (str fp, [sp, #-4]!)
0x000080a0:  e28db000      add	fp, sp, #0	; 0x0
0x000080a4:  e24dd00c      sub	sp, sp, #12	; 0xc
0x000080a8:  e50b0008      str	r0, [fp, #-8]
0x000080ac:  e50b100c      str	r1, [fp, #-12]
0x000080b0:  e30d3018      movw	r3, #53272	; 0xd018
0x000080b4:  e3403004      movt	r3, #4	; 0x4
0x000080b8:  e51b200c      ldr	r2, [fp, #-12]
0x000080bc:  e5832000      str	r2, [r3]
0x000080c0:  e30d301c      movw	r3, #53276	; 0xd01c
0x000080c4:  e3403004      movt	r3, #4	; 0x4
0x000080c8:  e51b2008      ldr	r2, [fp, #-8]
0x000080cc:  e5832000      str	r2, [r3]
0x000080d0:  e320f000      nop	{0}
0x000080d4:  e28bd000      add	sp, fp, #0	; 0x0
0x000080d8:  e49db004      pop	{fp}		; (ldr fp, [sp], #4)
0x000080dc:  e12fff1e      bx	lr

----------------
IN: main
0x00013378:  e3a00024      mov	r0, #36	; 0x24
0x0001337c:  ebfff2fe      bl	0xff7c

----------------
IN: malloc
0x0000ff7c:  e92d4800      push	{fp, lr}
0x0000ff80:  e28db004      add	fp, sp, #4	; 0x4
0x0000ff84:  e24dd018      sub	sp, sp, #24	; 0x18
0x0000ff88:  e50b0018      str	r0, [fp, #-24]
0x0000ff8c:  e30d3024      movw	r3, #53284	; 0xd024
0x0000ff90:  e3403004      movt	r3, #4	; 0x4
0x0000ff94:  e5d33000      ldrb	r3, [r3]
0x0000ff98:  e3530000      cmp	r3, #0	; 0x0
0x0000ff9c:  1a000000      bne	0xffa4

----------------
IN: malloc
0x0000ffa0:  ebffe019      bl	0x800c

----------------
IN: init_heap
0x0000800c:  e52db004      push	{fp}		; (str fp, [sp, #-4]!)
0x00008010:  e28db000      add	fp, sp, #0	; 0x0
0x00008014:  e30d3024      movw	r3, #53284	; 0xd024
0x00008018:  e3403004      movt	r3, #4	; 0x4
0x0000801c:  e5d33000      ldrb	r3, [r3]
0x00008020:  e3530000      cmp	r3, #0	; 0x0
0x00008024:  1a000018      bne	0x808c

----------------
IN: init_heap
0x00008028:  e30d300c      movw	r3, #53260	; 0xd00c
0x0000802c:  e3403004      movt	r3, #4	; 0x4
0x00008030:  e30d2000      movw	r2, #53248	; 0xd000
0x00008034:  e3402002      movt	r2, #2	; 0x2
0x00008038:  e5832000      str	r2, [r3]
0x0000803c:  e30d300c      movw	r3, #53260	; 0xd00c
0x00008040:  e3403004      movt	r3, #4	; 0x4
0x00008044:  e5933000      ldr	r3, [r3]
0x00008048:  e3a02802      mov	r2, #131072	; 0x20000
0x0000804c:  e5832000      str	r2, [r3]
0x00008050:  e30d300c      movw	r3, #53260	; 0xd00c
0x00008054:  e3403004      movt	r3, #4	; 0x4
0x00008058:  e5933000      ldr	r3, [r3]
0x0000805c:  e3a02001      mov	r2, #1	; 0x1
0x00008060:  e5c32004      strb	r2, [r3, #4]
0x00008064:  e30d300c      movw	r3, #53260	; 0xd00c
0x00008068:  e3403004      movt	r3, #4	; 0x4
0x0000806c:  e5933000      ldr	r3, [r3]
0x00008070:  e3a02000      mov	r2, #0	; 0x0
0x00008074:  e5832008      str	r2, [r3, #8]
0x00008078:  e30d3024      movw	r3, #53284	; 0xd024
0x0000807c:  e3403004      movt	r3, #4	; 0x4
0x00008080:  e3a02001      mov	r2, #1	; 0x1
0x00008084:  e5c32000      strb	r2, [r3]
0x00008088:  ea000000      b	0x8090

----------------
IN: init_heap
0x00008090:  e28bd000      add	sp, fp, #0	; 0x0
0x00008094:  e49db004      pop	{fp}		; (ldr fp, [sp], #4)
0x00008098:  e12fff1e      bx	lr

----------------
IN: malloc
0x0000ffa4:  e51b3018      ldr	r3, [fp, #-24]
0x0000ffa8:  e3530000      cmp	r3, #0	; 0x0
0x0000ffac:  1a000001      bne	0xffb8

----------------
IN: malloc
0x0000ffb8:  e51b3018      ldr	r3, [fp, #-24]
0x0000ffbc:  e283301b      add	r3, r3, #27	; 0x1b
0x0000ffc0:  e3c3300f      bic	r3, r3, #15	; 0xf
0x0000ffc4:  e50b3018      str	r3, [fp, #-24]
0x0000ffc8:  e30d300c      movw	r3, #53260	; 0xd00c
0x0000ffcc:  e3403004      movt	r3, #4	; 0x4
0x0000ffd0:  e5933000      ldr	r3, [r3]
0x0000ffd4:  e50b3008      str	r3, [fp, #-8]
0x0000ffd8:  e3a03000      mov	r3, #0	; 0x0
0x0000ffdc:  e50b300c      str	r3, [fp, #-12]
0x0000ffe0:  ea000030      b	0x100a8

----------------
IN: malloc
0x000100a8:  e51b3008      ldr	r3, [fp, #-8]
0x000100ac:  e3530000      cmp	r3, #0	; 0x0
0x000100b0:  1affffcb      bne	0xffe4

----------------
IN: malloc
0x0000ffe4:  e51b3008      ldr	r3, [fp, #-8]
0x0000ffe8:  e5d33004      ldrb	r3, [r3, #4]
0x0000ffec:  e3530000      cmp	r3, #0	; 0x0
0x0000fff0:  0a000027      beq	0x10094

----------------
IN: malloc
0x0000fff4:  e51b3008      ldr	r3, [fp, #-8]
0x0000fff8:  e5933000      ldr	r3, [r3]
0x0000fffc:  e51b2018      ldr	r2, [fp, #-24]

----------------
IN: malloc
0x00010000:  e1520003      cmp	r2, r3
0x00010004:  8a000022      bhi	0x10094

----------------
IN: malloc
0x00010008:  e51b3008      ldr	r3, [fp, #-8]
0x0001000c:  e5932000      ldr	r2, [r3]
0x00010010:  e51b3018      ldr	r3, [fp, #-24]
0x00010014:  e283301c      add	r3, r3, #28	; 0x1c
0x00010018:  e1520003      cmp	r2, r3
0x0001001c:  3a000016      bcc	0x1007c

----------------
IN: malloc
0x00010020:  e51b2008      ldr	r2, [fp, #-8]
0x00010024:  e51b3018      ldr	r3, [fp, #-24]
0x00010028:  e0823003      add	r3, r2, r3
0x0001002c:  e50b3010      str	r3, [fp, #-16]
0x00010030:  e51b3008      ldr	r3, [fp, #-8]
0x00010034:  e5932000      ldr	r2, [r3]
0x00010038:  e51b3018      ldr	r3, [fp, #-24]
0x0001003c:  e0422003      sub	r2, r2, r3
0x00010040:  e51b3010      ldr	r3, [fp, #-16]
0x00010044:  e5832000      str	r2, [r3]
0x00010048:  e51b3010      ldr	r3, [fp, #-16]
0x0001004c:  e3a02001      mov	r2, #1	; 0x1
0x00010050:  e5c32004      strb	r2, [r3, #4]
0x00010054:  e51b3008      ldr	r3, [fp, #-8]
0x00010058:  e5932008      ldr	r2, [r3, #8]
0x0001005c:  e51b3010      ldr	r3, [fp, #-16]
0x00010060:  e5832008      str	r2, [r3, #8]
0x00010064:  e51b3008      ldr	r3, [fp, #-8]
0x00010068:  e51b2018      ldr	r2, [fp, #-24]
0x0001006c:  e5832000      str	r2, [r3]
0x00010070:  e51b3008      ldr	r3, [fp, #-8]
0x00010074:  e51b2010      ldr	r2, [fp, #-16]
0x00010078:  e5832008      str	r2, [r3, #8]
0x0001007c:  e51b3008      ldr	r3, [fp, #-8]
0x00010080:  e3a02000      mov	r2, #0	; 0x0
0x00010084:  e5c32004      strb	r2, [r3, #4]
0x00010088:  e51b3008      ldr	r3, [fp, #-8]
0x0001008c:  e283300c      add	r3, r3, #12	; 0xc
0x00010090:  ea000008      b	0x100b8

----------------
IN: malloc
0x000100b8:  e1a00003      mov	r0, r3
0x000100bc:  e24bd004      sub	sp, fp, #4	; 0x4
0x000100c0:  e8bd8800      pop	{fp, pc}

----------------
IN: main
0x00013380:  e1a03000      mov	r3, r0
0x00013384:  e50b3008      str	r3, [fp, #-8]
0x00013388:  e51b3008      ldr	r3, [fp, #-8]
0x0001338c:  e3530000      cmp	r3, #0	; 0x0
0x00013390:  0a000024      beq	0x13428

----------------
IN: main
0x00013394:  e3a02024      mov	r2, #36	; 0x24
0x00013398:  e3a01000      mov	r1, #0	; 0x0
0x0001339c:  e51b0008      ldr	r0, [fp, #-8]
0x000133a0:  ebfff424      bl	0x10438

----------------
IN: memset
0x00010438:  e52db004      push	{fp}		; (str fp, [sp, #-4]!)
0x0001043c:  e28db000      add	fp, sp, #0	; 0x0
0x00010440:  e24dd01c      sub	sp, sp, #28	; 0x1c
0x00010444:  e50b0010      str	r0, [fp, #-16]
0x00010448:  e50b1014      str	r1, [fp, #-20]
0x0001044c:  e50b2018      str	r2, [fp, #-24]
0x00010450:  e51b3010      ldr	r3, [fp, #-16]
0x00010454:  e50b3008      str	r3, [fp, #-8]
0x00010458:  ea000005      b	0x10474

----------------
IN: memset
0x00010474:  e51b3018      ldr	r3, [fp, #-24]
0x00010478:  e2432001      sub	r2, r3, #1	; 0x1
0x0001047c:  e50b2018      str	r2, [fp, #-24]
0x00010480:  e3530000      cmp	r3, #0	; 0x0
0x00010484:  1afffff4      bne	0x1045c

----------------
IN: memset
0x0001045c:  e51b3008      ldr	r3, [fp, #-8]
0x00010460:  e2832001      add	r2, r3, #1	; 0x1
0x00010464:  e50b2008      str	r2, [fp, #-8]
0x00010468:  e51b2014      ldr	r2, [fp, #-20]
0x0001046c:  e6ef2072      uxtb	r2, r2
0x00010470:  e5c32000      strb	r2, [r3]
0x00010474:  e51b3018      ldr	r3, [fp, #-24]
0x00010478:  e2432001      sub	r2, r3, #1	; 0x1
0x0001047c:  e50b2018      str	r2, [fp, #-24]
0x00010480:  e3530000      cmp	r3, #0	; 0x0
0x00010484:  1afffff4      bne	0x1045c

----------------
IN: memset
0x00010488:  e51b3010      ldr	r3, [fp, #-16]
0x0001048c:  e1a00003      mov	r0, r3
0x00010490:  e28bd000      add	sp, fp, #0	; 0x0
0x00010494:  e49db004      pop	{fp}		; (ldr fp, [sp], #4)
0x00010498:  e12fff1e      bx	lr

----------------
IN: main
0x000133a4:  e3053118      movw	r3, #20760	; 0x5118
0x000133a8:  e3403001      movt	r3, #1	; 0x1
0x000133ac:  e24bc020      sub	ip, fp, #32	; 0x20
0x000133b0:  e893000f      ldm	r3, {r0, r1, r2, r3}
0x000133b4:  e88c000f      stm	ip, {r0, r1, r2, r3}
0x000133b8:  e3a03010      mov	r3, #16	; 0x10
0x000133bc:  e50b300c      str	r3, [fp, #-12]
0x000133c0:  e51b000c      ldr	r0, [fp, #-12]
0x000133c4:  ebfff2ec      bl	0xff7c

----------------
IN: malloc
0x00010094:  e51b3008      ldr	r3, [fp, #-8]
0x00010098:  e50b300c      str	r3, [fp, #-12]
0x0001009c:  e51b3008      ldr	r3, [fp, #-8]
0x000100a0:  e5933008      ldr	r3, [r3, #8]
0x000100a4:  e50b3008      str	r3, [fp, #-8]
0x000100a8:  e51b3008      ldr	r3, [fp, #-8]
0x000100ac:  e3530000      cmp	r3, #0	; 0x0
0x000100b0:  1affffcb      bne	0xffe4

----------------
IN: main
0x000133c8:  e1a03000      mov	r3, r0
0x000133cc:  e1a02003      mov	r2, r3
0x000133d0:  e51b3008      ldr	r3, [fp, #-8]
0x000133d4:  e583201c      str	r2, [r3, #28]
0x000133d8:  e51b3008      ldr	r3, [fp, #-8]
0x000133dc:  e593301c      ldr	r3, [r3, #28]
0x000133e0:  e3530000      cmp	r3, #0	; 0x0
0x000133e4:  0a000011      beq	0x13430

----------------
IN: main
0x000133e8:  e51b3008      ldr	r3, [fp, #-8]
0x000133ec:  e593301c      ldr	r3, [r3, #28]
0x000133f0:  e24b1020      sub	r1, fp, #32	; 0x20
0x000133f4:  e51b200c      ldr	r2, [fp, #-12]
0x000133f8:  e1a00003      mov	r0, r3
0x000133fc:  ebfff426      bl	0x1049c

----------------
IN: memcpy
0x0001049c:  e52db004      push	{fp}		; (str fp, [sp, #-4]!)
0x000104a0:  e28db000      add	fp, sp, #0	; 0x0
0x000104a4:  e24dd01c      sub	sp, sp, #28	; 0x1c
0x000104a8:  e50b0010      str	r0, [fp, #-16]
0x000104ac:  e50b1014      str	r1, [fp, #-20]
0x000104b0:  e50b2018      str	r2, [fp, #-24]
0x000104b4:  e51b3010      ldr	r3, [fp, #-16]
0x000104b8:  e50b3008      str	r3, [fp, #-8]
0x000104bc:  e51b3014      ldr	r3, [fp, #-20]
0x000104c0:  e50b300c      str	r3, [fp, #-12]
0x000104c4:  ea000007      b	0x104e8

----------------
IN: memcpy
0x000104e8:  e51b3018      ldr	r3, [fp, #-24]
0x000104ec:  e2432001      sub	r2, r3, #1	; 0x1
0x000104f0:  e50b2018      str	r2, [fp, #-24]
0x000104f4:  e3530000      cmp	r3, #0	; 0x0
0x000104f8:  1afffff2      bne	0x104c8

----------------
IN: memcpy
0x000104c8:  e51b200c      ldr	r2, [fp, #-12]
0x000104cc:  e2823001      add	r3, r2, #1	; 0x1
0x000104d0:  e50b300c      str	r3, [fp, #-12]
0x000104d4:  e51b3008      ldr	r3, [fp, #-8]
0x000104d8:  e2831001      add	r1, r3, #1	; 0x1
0x000104dc:  e50b1008      str	r1, [fp, #-8]
0x000104e0:  e5d22000      ldrb	r2, [r2]
0x000104e4:  e5c32000      strb	r2, [r3]
0x000104e8:  e51b3018      ldr	r3, [fp, #-24]
0x000104ec:  e2432001      sub	r2, r3, #1	; 0x1
0x000104f0:  e50b2018      str	r2, [fp, #-24]
0x000104f4:  e3530000      cmp	r3, #0	; 0x0
0x000104f8:  1afffff2      bne	0x104c8

----------------
IN: memcpy
0x000104fc:  e51b3010      ldr	r3, [fp, #-16]
0x00010500:  e1a00003      mov	r0, r3
0x00010504:  e28bd000      add	sp, fp, #0	; 0x0
0x00010508:  e49db004      pop	{fp}		; (ldr fp, [sp], #4)
0x0001050c:  e12fff1e      bx	lr

----------------
IN: main
0x00013400:  e30c37ac      movw	r3, #51116	; 0xc7ac
0x00013404:  e3403002      movt	r3, #2	; 0x2
0x00013408:  e5933000      ldr	r3, [r3]
0x0001340c:  e1a02003      mov	r2, r3
0x00013410:  e30712b8      movw	r1, #29368	; 0x72b8
0x00013414:  e3401001      movt	r1, #1	; 0x1
0x00013418:  e51b0008      ldr	r0, [fp, #-8]
0x0001341c:  ebffdf08      bl	0xb044

----------------
IN: decrypt_memory
0x0000b044:  e92d4800      push	{fp, lr}
0x0000b048:  e28db004      add	fp, sp, #4	; 0x4
0x0000b04c:  e24dd040      sub	sp, sp, #64	; 0x40
0x0000b050:  e50b0030      str	r0, [fp, #-48]
0x0000b054:  e50b1034      str	r1, [fp, #-52]
0x0000b058:  e50b2038      str	r2, [fp, #-56]
0x0000b05c:  e51b3030      ldr	r3, [fp, #-48]
0x0000b060:  e51b2038      ldr	r2, [fp, #-56]
0x0000b064:  e5832020      str	r2, [r3, #32]
0x0000b068:  e3a03000      mov	r3, #0	; 0x0
0x0000b06c:  e50b302c      str	r3, [fp, #-44]
0x0000b070:  e3a03000      mov	r3, #0	; 0x0
0x0000b074:  e50b3008      str	r3, [fp, #-8]
0x0000b078:  e3043308      movw	r3, #17160	; 0x4308
0x0000b07c:  e3403001      movt	r3, #1	; 0x1
0x0000b080:  e50b300c      str	r3, [fp, #-12]
0x0000b084:  e3a03000      mov	r3, #0	; 0x0
0x0000b088:  e50b3010      str	r3, [fp, #-16]
0x0000b08c:  e3a03000      mov	r3, #0	; 0x0
0x0000b090:  e50b3014      str	r3, [fp, #-20]
0x0000b094:  e3a03000      mov	r3, #0	; 0x0
0x0000b098:  e50b3018      str	r3, [fp, #-24]
0x0000b09c:  e51b1038      ldr	r1, [fp, #-56]
0x0000b0a0:  e51b0034      ldr	r0, [fp, #-52]
0x0000b0a4:  ebfff8a1      bl	0x9330

----------------
IN: iobuf_temp_with_content
0x00009330:  e92d4800      push	{fp, lr}
0x00009334:  e28db004      add	fp, sp, #4	; 0x4
0x00009338:  e24dd010      sub	sp, sp, #16	; 0x10
0x0000933c:  e50b0010      str	r0, [fp, #-16]
0x00009340:  e50b1014      str	r1, [fp, #-20]
0x00009344:  e51b1014      ldr	r1, [fp, #-20]
0x00009348:  e3a00001      mov	r0, #1	; 0x1
0x0000934c:  ebffffc7      bl	0x9270

----------------
IN: iobuf_alloc
0x00009270:  e92d4800      push	{fp, lr}
0x00009274:  e28db004      add	fp, sp, #4	; 0x4
0x00009278:  e24dd010      sub	sp, sp, #16	; 0x10
0x0000927c:  e50b0010      str	r0, [fp, #-16]
0x00009280:  e50b1014      str	r1, [fp, #-20]
0x00009284:  e51b3014      ldr	r3, [fp, #-20]
0x00009288:  e3530000      cmp	r3, #0	; 0x0
0x0000928c:  1a000001      bne	0x9298

----------------
IN: iobuf_alloc
0x00009298:  e3a01048      mov	r1, #72	; 0x48
0x0000929c:  e3a00001      mov	r0, #1	; 0x1
0x000092a0:  eb001c04      bl	0x102b8

----------------
IN: xcalloc
0x000102b8:  e92d4800      push	{fp, lr}
0x000102bc:  e28db004      add	fp, sp, #4	; 0x4
0x000102c0:  e24dd010      sub	sp, sp, #16	; 0x10
0x000102c4:  e50b0010      str	r0, [fp, #-16]
0x000102c8:  e50b1014      str	r1, [fp, #-20]
0x000102cc:  e51b3010      ldr	r3, [fp, #-16]
0x000102d0:  e3530000      cmp	r3, #0	; 0x0
0x000102d4:  0a000007      beq	0x102f8

----------------
IN: xcalloc
0x000102d8:  e3e02000      mvn	r2, #0	; 0x0
0x000102dc:  e51b3010      ldr	r3, [fp, #-16]
0x000102e0:  e733f312      udiv	r3, r2, r3
0x000102e4:  e51b2014      ldr	r2, [fp, #-20]
0x000102e8:  e1520003      cmp	r2, r3
0x000102ec:  9a000001      bls	0x102f8

----------------
IN: xcalloc
0x000102f8:  e51b3010      ldr	r3, [fp, #-16]
0x000102fc:  e51b2014      ldr	r2, [fp, #-20]
0x00010300:  e0030392      mul	r3, r2, r3
0x00010304:  e50b3008      str	r3, [fp, #-8]
0x00010308:  e51b0008      ldr	r0, [fp, #-8]
0x0001030c:  ebffff1a      bl	0xff7c

----------------
IN: xcalloc
0x00010310:  e50b000c      str	r0, [fp, #-12]
0x00010314:  e51b300c      ldr	r3, [fp, #-12]
0x00010318:  e3530000      cmp	r3, #0	; 0x0
0x0001031c:  0a000003      beq	0x10330

----------------
IN: xcalloc
0x00010320:  e51b2008      ldr	r2, [fp, #-8]
0x00010324:  e3a01000      mov	r1, #0	; 0x0
0x00010328:  e51b000c      ldr	r0, [fp, #-12]
0x0001032c:  eb000041      bl	0x10438

----------------
IN: xcalloc
0x00010330:  e51b300c      ldr	r3, [fp, #-12]
0x00010334:  e1a00003      mov	r0, r3
0x00010338:  e24bd004      sub	sp, fp, #4	; 0x4
0x0001033c:  e8bd8800      pop	{fp, pc}

----------------
IN: iobuf_alloc
0x000092a4:  e50b0008      str	r0, [fp, #-8]
0x000092a8:  e51b3010      ldr	r3, [fp, #-16]
0x000092ac:  e6ef2073      uxtb	r2, r3
0x000092b0:  e51b3008      ldr	r3, [fp, #-8]
0x000092b4:  e5c32000      strb	r2, [r3]
0x000092b8:  e51b0014      ldr	r0, [fp, #-20]
0x000092bc:  eb001bce      bl	0x101fc

----------------
IN: xmalloc
0x000101fc:  e92d4800      push	{fp, lr}
0x00010200:  e28db004      add	fp, sp, #4	; 0x4
0x00010204:  e24dd010      sub	sp, sp, #16	; 0x10
0x00010208:  e50b0010      str	r0, [fp, #-16]
0x0001020c:  e51b3010      ldr	r3, [fp, #-16]
0x00010210:  e3530000      cmp	r3, #0	; 0x0
0x00010214:  1a000001      bne	0x10220

----------------
IN: xmalloc
0x00010220:  e51b0010      ldr	r0, [fp, #-16]
0x00010224:  ebffff54      bl	0xff7c

----------------
IN: xmalloc
0x00010228:  e50b0008      str	r0, [fp, #-8]
0x0001022c:  e51b3008      ldr	r3, [fp, #-8]
0x00010230:  e3530000      cmp	r3, #0	; 0x0
0x00010234:  1a000005      bne	0x10250

----------------
IN: xmalloc
0x00010250:  e51b2010      ldr	r2, [fp, #-16]
0x00010254:  e3a01000      mov	r1, #0	; 0x0
0x00010258:  e51b0008      ldr	r0, [fp, #-8]
0x0001025c:  eb000075      bl	0x10438

----------------
IN: xmalloc
0x00010260:  e51b3008      ldr	r3, [fp, #-8]
0x00010264:  e1a00003      mov	r0, r3
0x00010268:  e24bd004      sub	sp, fp, #4	; 0x4
0x0001026c:  e8bd8800      pop	{fp, pc}

----------------
IN: iobuf_alloc
0x000092c0:  e1a02000      mov	r2, r0
0x000092c4:  e51b3008      ldr	r3, [fp, #-8]
0x000092c8:  e5832020      str	r2, [r3, #32]
0x000092cc:  e51b3008      ldr	r3, [fp, #-8]
0x000092d0:  e51b2014      ldr	r2, [fp, #-20]
0x000092d4:  e5832014      str	r2, [r3, #20]
0x000092d8:  e30d3008      movw	r3, #53256	; 0xd008
0x000092dc:  e3403004      movt	r3, #4	; 0x4
0x000092e0:  e5933000      ldr	r3, [r3]
0x000092e4:  e2832001      add	r2, r3, #1	; 0x1
0x000092e8:  e30d3008      movw	r3, #53256	; 0xd008
0x000092ec:  e3403004      movt	r3, #4	; 0x4
0x000092f0:  e5832000      str	r2, [r3]
0x000092f4:  e30d3008      movw	r3, #53256	; 0xd008
0x000092f8:  e3403004      movt	r3, #4	; 0x4
0x000092fc:  e5932000      ldr	r2, [r3]
0x00009300:  e51b3008      ldr	r3, [fp, #-8]
0x00009304:  e5832040      str	r2, [r3, #64]
0x00009308:  e51b3008      ldr	r3, [fp, #-8]
0x0000930c:  e3a02000      mov	r2, #0	; 0x0
0x00009310:  e5832044      str	r2, [r3, #68]
0x00009314:  e51b3008      ldr	r3, [fp, #-8]
0x00009318:  e3a02000      mov	r2, #0	; 0x0
0x0000931c:  e5832038      str	r2, [r3, #56]
0x00009320:  e51b3008      ldr	r3, [fp, #-8]
0x00009324:  e1a00003      mov	r0, r3
0x00009328:  e24bd004      sub	sp, fp, #4	; 0x4
0x0000932c:  e8bd8800      pop	{fp, pc}

----------------
IN: iobuf_temp_with_content
0x00009350:  e50b000c      str	r0, [fp, #-12]
0x00009354:  e3a03000      mov	r3, #0	; 0x0
0x00009358:  e50b3008      str	r3, [fp, #-8]
0x0000935c:  ea00000b      b	0x9390

----------------
IN: iobuf_temp_with_content
0x00009390:  e51b3008      ldr	r3, [fp, #-8]
0x00009394:  e51b2014      ldr	r2, [fp, #-20]
0x00009398:  e1520003      cmp	r2, r3
0x0000939c:  8affffef      bhi	0x9360

----------------
IN: iobuf_temp_with_content
0x00009360:  e51b3008      ldr	r3, [fp, #-8]
0x00009364:  e51b2010      ldr	r2, [fp, #-16]
0x00009368:  e0822003      add	r2, r2, r3
0x0000936c:  e51b300c      ldr	r3, [fp, #-12]
0x00009370:  e5931020      ldr	r1, [r3, #32]
0x00009374:  e51b3008      ldr	r3, [fp, #-8]
0x00009378:  e0813003      add	r3, r1, r3
0x0000937c:  e5d22000      ldrb	r2, [r2]
0x00009380:  e5c32000      strb	r2, [r3]
0x00009384:  e51b3008      ldr	r3, [fp, #-8]
0x00009388:  e2833001      add	r3, r3, #1	; 0x1
0x0000938c:  e50b3008      str	r3, [fp, #-8]
0x00009390:  e51b3008      ldr	r3, [fp, #-8]
0x00009394:  e51b2014      ldr	r2, [fp, #-20]
0x00009398:  e1520003      cmp	r2, r3
0x0000939c:  8affffef      bhi	0x9360

----------------
IN: iobuf_temp_with_content
0x000093a0:  e51b300c      ldr	r3, [fp, #-12]
0x000093a4:  e51b2014      ldr	r2, [fp, #-20]
0x000093a8:  e583201c      str	r2, [r3, #28]
0x000093ac:  e51b300c      ldr	r3, [fp, #-12]
0x000093b0:  e1a00003      mov	r0, r3
0x000093b4:  e24bd004      sub	sp, fp, #4	; 0x4
0x000093b8:  e8bd8800      pop	{fp, pc}

----------------
IN: decrypt_memory
0x0000b0a8:  e50b001c      str	r0, [fp, #-28]
0x0000b0ac:  e51b301c      ldr	r3, [fp, #-28]
0x0000b0b0:  e3530000      cmp	r3, #0	; 0x0
0x0000b0b4:  1a000002      bne	0xb0c4

----------------
IN: decrypt_memory
0x0000b0c4:  e51b3018      ldr	r3, [fp, #-24]
0x0000b0c8:  e3530000      cmp	r3, #0	; 0x0
0x0000b0cc:  13a03001      movne	r3, #1	; 0x1
0x0000b0d0:  03a03000      moveq	r3, #0	; 0x0
0x0000b0d4:  e6ef3073      uxtb	r3, r3
0x0000b0d8:  e1a01003      mov	r1, r3
0x0000b0dc:  e51b0014      ldr	r0, [fp, #-20]
0x0000b0e0:  ebfffe99      bl	0xab4c

----------------
IN: translate_file_handle
0x0000ab4c:  e52db004      push	{fp}		; (str fp, [sp, #-4]!)
0x0000ab50:  e28db000      add	fp, sp, #0	; 0x0
0x0000ab54:  e24dd00c      sub	sp, sp, #12	; 0xc
0x0000ab58:  e50b0008      str	r0, [fp, #-8]
0x0000ab5c:  e50b100c      str	r1, [fp, #-12]
0x0000ab60:  e51b3008      ldr	r3, [fp, #-8]
0x0000ab64:  e1a00003      mov	r0, r3
0x0000ab68:  e28bd000      add	sp, fp, #0	; 0x0
0x0000ab6c:  e49db004      pop	{fp}		; (ldr fp, [sp], #4)
0x0000ab70:  e12fff1e      bx	lr

----------------
IN: decrypt_memory
0x0000b0e4:  e1a03000      mov	r3, r0
0x0000b0e8:  e51b100c      ldr	r1, [fp, #-12]
0x0000b0ec:  e1a00003      mov	r0, r3
0x0000b0f0:  ebfff8e9      bl	0x949c

----------------
IN: iobuf_fdopen
0x0000949c:  e92d4800      push	{fp, lr}
0x000094a0:  e28db004      add	fp, sp, #4	; 0x4
0x000094a4:  e24dd008      sub	sp, sp, #8	; 0x8
0x000094a8:  e50b0008      str	r0, [fp, #-8]
0x000094ac:  e50b100c      str	r1, [fp, #-12]
0x000094b0:  e3a02000      mov	r2, #0	; 0x0
0x000094b4:  e51b100c      ldr	r1, [fp, #-12]
0x000094b8:  e51b0008      ldr	r0, [fp, #-8]
0x000094bc:  ebffffbe      bl	0x93bc

----------------
IN: do_iobuf_fdopen
0x000093bc:  e92d4800      push	{fp, lr}
0x000093c0:  e28db004      add	fp, sp, #4	; 0x4
0x000093c4:  e24dd028      sub	sp, sp, #40	; 0x28
0x000093c8:  e50b0018      str	r0, [fp, #-24]
0x000093cc:  e50b101c      str	r1, [fp, #-28]
0x000093d0:  e50b2020      str	r2, [fp, #-32]
0x000093d4:  e51b3018      ldr	r3, [fp, #-24]
0x000093d8:  e50b3008      str	r3, [fp, #-8]
0x000093dc:  e3a01077      mov	r1, #119	; 0x77
0x000093e0:  e51b001c      ldr	r0, [fp, #-28]
0x000093e4:  eb001cf9      bl	0x107d0

----------------
IN: strchr
0x000107d0:  e52db004      push	{fp}		; (str fp, [sp, #-4]!)
0x000107d4:  e28db000      add	fp, sp, #0	; 0x0
0x000107d8:  e24dd00c      sub	sp, sp, #12	; 0xc
0x000107dc:  e50b0008      str	r0, [fp, #-8]
0x000107e0:  e50b100c      str	r1, [fp, #-12]
0x000107e4:  ea000007      b	0x10808

----------------
IN: strchr
0x00010808:  e51b3008      ldr	r3, [fp, #-8]
0x0001080c:  e5d32000      ldrb	r2, [r3]
0x00010810:  e51b300c      ldr	r3, [fp, #-12]
0x00010814:  e6ef3073      uxtb	r3, r3
0x00010818:  e1520003      cmp	r2, r3
0x0001081c:  1afffff1      bne	0x107e8

----------------
IN: strchr
0x000107e8:  e51b3008      ldr	r3, [fp, #-8]
0x000107ec:  e2832001      add	r2, r3, #1	; 0x1
0x000107f0:  e50b2008      str	r2, [fp, #-8]
0x000107f4:  e5d33000      ldrb	r3, [r3]
0x000107f8:  e3530000      cmp	r3, #0	; 0x0
0x000107fc:  1a000001      bne	0x10808

----------------
IN: strchr
0x00010800:  e3a03000      mov	r3, #0	; 0x0
0x00010804:  ea000006      b	0x10824

----------------
IN: strchr
0x00010824:  e1a00003      mov	r0, r3
0x00010828:  e28bd000      add	sp, fp, #0	; 0x0
0x0001082c:  e49db004      pop	{fp}		; (ldr fp, [sp], #4)
0x00010830:  e12fff1e      bx	lr

----------------
IN: do_iobuf_fdopen
0x000093e8:  e1a03000      mov	r3, r0
0x000093ec:  e3530000      cmp	r3, #0	; 0x0
0x000093f0:  0a000001      beq	0x93fc

----------------
IN: do_iobuf_fdopen
0x000093fc:  e3a03000      mov	r3, #0	; 0x0

----------------
IN: do_iobuf_fdopen
0x00009400:  e3a01a02      mov	r1, #8192	; 0x2000
0x00009404:  e1a00003      mov	r0, r3
0x00009408:  ebffff98      bl	0x9270

----------------
IN: do_iobuf_fdopen
0x0000940c:  e50b000c      str	r0, [fp, #-12]
0x00009410:  e3a0004c      mov	r0, #76	; 0x4c
0x00009414:  eb001b78      bl	0x101fc

----------------
IN: do_iobuf_fdopen
0x00009418:  e50b0010      str	r0, [fp, #-16]
0x0000941c:  e51b3010      ldr	r3, [fp, #-16]
0x00009420:  e51b2008      ldr	r2, [fp, #-8]
0x00009424:  e5832000      str	r2, [r3]
0x00009428:  e51b3010      ldr	r3, [fp, #-16]
0x0000942c:  e3a02001      mov	r2, #1	; 0x1
0x00009430:  e5832010      str	r2, [r3, #16]
0x00009434:  e51b3010      ldr	r3, [fp, #-16]
0x00009438:  e51b2020      ldr	r2, [fp, #-32]
0x0000943c:  e5832004      str	r2, [r3, #4]
0x00009440:  e51b200c      ldr	r2, [fp, #-12]
0x00009444:  e30a3d14      movw	r3, #44308	; 0xad14
0x00009448:  e3403000      movt	r3, #0	; 0x0
0x0000944c:  e582302c      str	r3, [r2, #44]
0x00009450:  e51b300c      ldr	r3, [fp, #-12]
0x00009454:  e51b2010      ldr	r2, [fp, #-16]
0x00009458:  e5832030      str	r2, [r3, #48]
0x0000945c:  e24b3014      sub	r3, fp, #20	; 0x14
0x00009460:  e58d3000      str	r3, [sp]
0x00009464:  e3a03000      mov	r3, #0	; 0x0
0x00009468:  e3a02000      mov	r2, #0	; 0x0
0x0000946c:  e3a01001      mov	r1, #1	; 0x1
0x00009470:  e51b0010      ldr	r0, [fp, #-16]
0x00009474:  eb000626      bl	0xad14

----------------
IN: file_filter
0x0000ad14:  e92d4800      push	{fp, lr}
0x0000ad18:  e28db004      add	fp, sp, #4	; 0x4
0x0000ad1c:  e24dd038      sub	sp, sp, #56	; 0x38
0x0000ad20:  e50b0030      str	r0, [fp, #-48]
0x0000ad24:  e50b1034      str	r1, [fp, #-52]
0x0000ad28:  e50b2038      str	r2, [fp, #-56]
0x0000ad2c:  e50b303c      str	r3, [fp, #-60]
0x0000ad30:  e51b3030      ldr	r3, [fp, #-48]
0x0000ad34:  e50b3010      str	r3, [fp, #-16]
0x0000ad38:  e51b3010      ldr	r3, [fp, #-16]
0x0000ad3c:  e5933000      ldr	r3, [r3]
0x0000ad40:  e50b3014      str	r3, [fp, #-20]
0x0000ad44:  e59b3004      ldr	r3, [fp, #4]
0x0000ad48:  e5933000      ldr	r3, [r3]
0x0000ad4c:  e50b3018      str	r3, [fp, #-24]
0x0000ad50:  e3a03000      mov	r3, #0	; 0x0
0x0000ad54:  e50b3008      str	r3, [fp, #-8]
0x0000ad58:  e3a03000      mov	r3, #0	; 0x0
0x0000ad5c:  e50b300c      str	r3, [fp, #-12]
0x0000ad60:  e51b3034      ldr	r3, [fp, #-52]
0x0000ad64:  e3530003      cmp	r3, #3	; 0x3
0x0000ad68:  1a000045      bne	0xae84

----------------
IN: file_filter
0x0000ae84:  e51b3034      ldr	r3, [fp, #-52]
0x0000ae88:  e3530004      cmp	r3, #4	; 0x4
0x0000ae8c:  1a000014      bne	0xaee4

----------------
IN: file_filter
0x0000aee4:  e51b3034      ldr	r3, [fp, #-52]
0x0000aee8:  e3530001      cmp	r3, #1	; 0x1
0x0000aeec:  1a00000f      bne	0xaf30

----------------
IN: file_filter
0x0000aef0:  e51b3010      ldr	r3, [fp, #-16]
0x0000aef4:  e3a02000      mov	r2, #0	; 0x0
0x0000aef8:  e583200c      str	r2, [r3, #12]
0x0000aefc:  e51b3010      ldr	r3, [fp, #-16]
0x0000af00:  e3a02000      mov	r2, #0	; 0x0
0x0000af04:  e5832004      str	r2, [r3, #4]
0x0000af08:  e51b3010      ldr	r3, [fp, #-16]
0x0000af0c:  e3a02000      mov	r2, #0	; 0x0
0x0000af10:  e5832008      str	r2, [r3, #8]
0x0000af14:  e51b3010      ldr	r3, [fp, #-16]
0x0000af18:  e3a02000      mov	r2, #0	; 0x0
0x0000af1c:  e5c32034      strb	r2, [r3, #52]
0x0000af20:  e51b3010      ldr	r3, [fp, #-16]
0x0000af24:  e3a02000      mov	r2, #0	; 0x0
0x0000af28:  e5c32035      strb	r2, [r3, #53]
0x0000af2c:  ea000039      b	0xb018

----------------
IN: file_filter
0x0000b018:  e51b300c      ldr	r3, [fp, #-12]
0x0000b01c:  e1a00003      mov	r0, r3
0x0000b020:  e24bd004      sub	sp, fp, #4	; 0x4
0x0000b024:  e8bd8800      pop	{fp, pc}

----------------
IN: do_iobuf_fdopen
0x00009478:  e3a03000      mov	r3, #0	; 0x0
0x0000947c:  e3a02001      mov	r2, #1	; 0x1
0x00009480:  e3a01003      mov	r1, #3	; 0x3
0x00009484:  e51b000c      ldr	r0, [fp, #-12]
0x00009488:  eb000010      bl	0x94d0

----------------
IN: iobuf_ioctl
0x000094d0:  e92d4830      push	{r4, r5, fp, lr}
0x000094d4:  e28db00c      add	fp, sp, #12	; 0xc
0x000094d8:  e24dd048      sub	sp, sp, #72	; 0x48
0x000094dc:  e50b0040      str	r0, [fp, #-64]
0x000094e0:  e50b2048      str	r2, [fp, #-72]
0x000094e4:  e50b304c      str	r3, [fp, #-76]
0x000094e8:  e1a03001      mov	r3, r1
0x000094ec:  e54b3041      strb	r3, [fp, #-65]
0x000094f0:  e55b3041      ldrb	r3, [fp, #-65]
0x000094f4:  e3530001      cmp	r3, #1	; 0x1
0x000094f8:  1a000039      bne	0x95e4

----------------
IN: iobuf_ioctl
0x000095e4:  e55b3041      ldrb	r3, [fp, #-65]
0x000095e8:  e3530002      cmp	r3, #2	; 0x2
0x000095ec:  1a000021      bne	0x9678

----------------
IN: iobuf_ioctl
0x00009678:  e55b3041      ldrb	r3, [fp, #-65]
0x0000967c:  e3530003      cmp	r3, #3	; 0x3
0x00009680:  1a000039      bne	0x976c

----------------
IN: iobuf_ioctl
0x00009684:  e30d3004      movw	r3, #53252	; 0xd004
0x00009688:  e3403004      movt	r3, #4	; 0x4
0x0000968c:  e5933000      ldr	r3, [r3]
0x00009690:  e3530000      cmp	r3, #0	; 0x0
0x00009694:  0a000030      beq	0x975c

----------------
IN: iobuf_ioctl
0x0000975c:  e51b3040      ldr	r3, [fp, #-64]
0x00009760:  e3530000      cmp	r3, #0	; 0x0
0x00009764:  1affffe7      bne	0x9708

----------------
IN: iobuf_ioctl
0x00009708:  e51b3040      ldr	r3, [fp, #-64]
0x0000970c:  e593303c      ldr	r3, [r3, #60]
0x00009710:  e3530000      cmp	r3, #0	; 0x0
0x00009714:  1a00000d      bne	0x9750

----------------
IN: iobuf_ioctl
0x00009718:  e51b3040      ldr	r3, [fp, #-64]
0x0000971c:  e593202c      ldr	r2, [r3, #44]
0x00009720:  e30a3d14      movw	r3, #44308	; 0xad14
0x00009724:  e3403000      movt	r3, #0	; 0x0
0x00009728:  e1520003      cmp	r2, r3
0x0000972c:  1a000007      bne	0x9750

----------------
IN: iobuf_ioctl
0x00009730:  e51b3040      ldr	r3, [fp, #-64]
0x00009734:  e5933030      ldr	r3, [r3, #48]
0x00009738:  e50b3014      str	r3, [fp, #-20]
0x0000973c:  e51b3014      ldr	r3, [fp, #-20]
0x00009740:  e51b2048      ldr	r2, [fp, #-72]
0x00009744:  e5832008      str	r2, [r3, #8]
0x00009748:  e3a03000      mov	r3, #0	; 0x0
0x0000974c:  ea000057      b	0x98b0

----------------
IN: iobuf_ioctl
0x000098b0:  e1a00003      mov	r0, r3
0x000098b4:  e24bd00c      sub	sp, fp, #12	; 0xc
0x000098b8:  e8bd8830      pop	{r4, r5, fp, pc}

----------------
IN: do_iobuf_fdopen
0x0000948c:  e51b300c      ldr	r3, [fp, #-12]
0x00009490:  e1a00003      mov	r0, r3
0x00009494:  e24bd004      sub	sp, fp, #4	; 0x4
0x00009498:  e8bd8800      pop	{fp, pc}

----------------
IN: iobuf_fdopen
0x000094c0:  e1a03000      mov	r3, r0
0x000094c4:  e1a00003      mov	r0, r3
0x000094c8:  e24bd004      sub	sp, fp, #4	; 0x4
0x000094cc:  e8bd8800      pop	{fp, pc}

----------------
IN: decrypt_memory
0x0000b0f4:  e51b100c      ldr	r1, [fp, #-12]
0x0000b0f8:  e3a00000      mov	r0, #0	; 0x0
0x0000b0fc:  ebfff4e2      bl	0x848c

----------------
IN: fd_cache_open
0x0000848c:  e92d4800      push	{fp, lr}
0x00008490:  e28db004      add	fp, sp, #4	; 0x4
0x00008494:  e24dd010      sub	sp, sp, #16	; 0x10
0x00008498:  e50b0010      str	r0, [fp, #-16]
0x0000849c:  e50b1014      str	r1, [fp, #-20]
0x000084a0:  e30d3000      movw	r3, #53248	; 0xd000
0x000084a4:  e3403004      movt	r3, #4	; 0x4
0x000084a8:  e5933000      ldr	r3, [r3]
0x000084ac:  e50b3008      str	r3, [fp, #-8]
0x000084b0:  ea000016      b	0x8510

----------------
IN: fd_cache_open
0x00008510:  e51b3008      ldr	r3, [fp, #-8]
0x00008514:  e3530000      cmp	r3, #0	; 0x0
0x00008518:  1affffe5      bne	0x84b4

----------------
IN: fd_cache_open
0x0000851c:  e3a02000      mov	r2, #0	; 0x0
0x00008520:  e51b1014      ldr	r1, [fp, #-20]
0x00008524:  e51b0010      ldr	r0, [fp, #-16]
0x00008528:  ebffff96      bl	0x8388

----------------
IN: direct_open
0x00008388:  e92d4800      push	{fp, lr}
0x0000838c:  e28db004      add	fp, sp, #4	; 0x4
0x00008390:  e24dd018      sub	sp, sp, #24	; 0x18
0x00008394:  e50b0010      str	r0, [fp, #-16]
0x00008398:  e50b1014      str	r1, [fp, #-20]
0x0000839c:  e50b2018      str	r2, [fp, #-24]
0x000083a0:  e3a03d06      mov	r3, #384	; 0x180
0x000083a4:  e50b300c      str	r3, [fp, #-12]
0x000083a8:  e51b3018      ldr	r3, [fp, #-24]
0x000083ac:  e3530000      cmp	r3, #0	; 0x0
0x000083b0:  1a000002      bne	0x83c0

----------------
IN: direct_open
0x000083b4:  e51b300c      ldr	r3, [fp, #-12]
0x000083b8:  e3833036      orr	r3, r3, #54	; 0x36
0x000083bc:  e50b300c      str	r3, [fp, #-12]
0x000083c0:  e3a0102b      mov	r1, #43	; 0x2b
0x000083c4:  e51b0014      ldr	r0, [fp, #-20]
0x000083c8:  eb002100      bl	0x107d0

----------------
IN: direct_open
0x000083cc:  e1a03000      mov	r3, r0
0x000083d0:  e3530000      cmp	r3, #0	; 0x0
0x000083d4:  0a000009      beq	0x8400

----------------
IN: direct_open
0x00008400:  e3a01077      mov	r1, #119	; 0x77
0x00008404:  e51b0014      ldr	r0, [fp, #-20]
0x00008408:  eb0020f0      bl	0x107d0

----------------
IN: direct_open
0x0000840c:  e1a03000      mov	r3, r0
0x00008410:  e3530000      cmp	r3, #0	; 0x0
0x00008414:  0a000009      beq	0x8440

----------------
IN: direct_open
0x00008440:  e3a03000      mov	r3, #0	; 0x0
0x00008444:  e50b3008      str	r3, [fp, #-8]
0x00008448:  e3a01062      mov	r1, #98	; 0x62
0x0000844c:  e51b0014      ldr	r0, [fp, #-20]
0x00008450:  eb0020de      bl	0x107d0

----------------
IN: strchr
0x00010820:  e51b3008      ldr	r3, [fp, #-8]
0x00010824:  e1a00003      mov	r0, r3
0x00010828:  e28bd000      add	sp, fp, #0	; 0x0
0x0001082c:  e49db004      pop	{fp}		; (ldr fp, [sp], #4)
0x00010830:  e12fff1e      bx	lr

----------------
IN: direct_open
0x00008454:  e1a03000      mov	r3, r0
0x00008458:  e3530000      cmp	r3, #0	; 0x0
0x0000845c:  0a000002      beq	0x846c

----------------
IN: direct_open
0x00008460:  e51b3008      ldr	r3, [fp, #-8]
0x00008464:  e3833801      orr	r3, r3, #65536	; 0x10000
0x00008468:  e50b3008      str	r3, [fp, #-8]
0x0000846c:  e51b200c      ldr	r2, [fp, #-12]
0x00008470:  e51b1008      ldr	r1, [fp, #-8]
0x00008474:  e51b0010      ldr	r0, [fp, #-16]
0x00008478:  eb0020b7      bl	0x1075c

----------------
IN: open
0x0001075c:  e92d000e      push	{r1, r2, r3}
0x00010760:  e92d4800      push	{fp, lr}
0x00010764:  e28db004      add	fp, sp, #4	; 0x4
0x00010768:  e24dd00c      sub	sp, sp, #12	; 0xc
0x0001076c:  e50b000c      str	r0, [fp, #-12]
0x00010770:  e3041910      movw	r1, #18704	; 0x4910
0x00010774:  e3401001      movt	r1, #1	; 0x1
0x00010778:  e51b000c      ldr	r0, [fp, #-12]
0x0001077c:  eb00002c      bl	0x10834

----------------
IN: strcmp
0x00010834:  e52db004      push	{fp}		; (str fp, [sp, #-4]!)
0x00010838:  e28db000      add	fp, sp, #0	; 0x0
0x0001083c:  e24dd00c      sub	sp, sp, #12	; 0xc
0x00010840:  e50b0008      str	r0, [fp, #-8]
0x00010844:  e50b100c      str	r1, [fp, #-12]
0x00010848:  ea000005      b	0x10864

----------------
IN: strcmp
0x00010864:  e51b3008      ldr	r3, [fp, #-8]
0x00010868:  e5d33000      ldrb	r3, [r3]
0x0001086c:  e3530000      cmp	r3, #0	; 0x0
0x00010870:  0a000005      beq	0x1088c

----------------
IN: strcmp
0x00010874:  e51b3008      ldr	r3, [fp, #-8]
0x00010878:  e5d32000      ldrb	r2, [r3]
0x0001087c:  e51b300c      ldr	r3, [fp, #-12]
0x00010880:  e5d33000      ldrb	r3, [r3]
0x00010884:  e1520003      cmp	r2, r3
0x00010888:  0affffef      beq	0x1084c

----------------
IN: strcmp
0x0001088c:  e51b3008      ldr	r3, [fp, #-8]
0x00010890:  e5d33000      ldrb	r3, [r3]
0x00010894:  e1a02003      mov	r2, r3
0x00010898:  e51b300c      ldr	r3, [fp, #-12]
0x0001089c:  e5d33000      ldrb	r3, [r3]
0x000108a0:  e0423003      sub	r3, r2, r3
0x000108a4:  e1a00003      mov	r0, r3
0x000108a8:  e28bd000      add	sp, fp, #0	; 0x0
0x000108ac:  e49db004      pop	{fp}		; (ldr fp, [sp], #4)
0x000108b0:  e12fff1e      bx	lr

----------------
IN: open
0x00010780:  e1a03000      mov	r3, r0
0x00010784:  e3530000      cmp	r3, #0	; 0x0
0x00010788:  1a000001      bne	0x10794

----------------
IN: open
0x00010794:  e3041918      movw	r1, #18712	; 0x4918
0x00010798:  e3401001      movt	r1, #1	; 0x1
0x0001079c:  e51b000c      ldr	r0, [fp, #-12]
0x000107a0:  eb000023      bl	0x10834

----------------
IN: open
0x000107a4:  e1a03000      mov	r3, r0
0x000107a8:  e3530000      cmp	r3, #0	; 0x0
0x000107ac:  1a000001      bne	0x107b8

----------------
IN: open
0x000107b8:  e3e03000      mvn	r3, #0	; 0x0
0x000107bc:  e1a00003      mov	r0, r3
0x000107c0:  e24bd004      sub	sp, fp, #4	; 0x4
0x000107c4:  e8bd4800      pop	{fp, lr}
0x000107c8:  e28dd00c      add	sp, sp, #12	; 0xc
0x000107cc:  e12fff1e      bx	lr

----------------
IN: direct_open
0x0000847c:  e1a03000      mov	r3, r0
0x00008480:  e1a00003      mov	r0, r3
0x00008484:  e24bd004      sub	sp, fp, #4	; 0x4
0x00008488:  e8bd8800      pop	{fp, pc}

----------------
IN: fd_cache_open
0x0000852c:  e1a03000      mov	r3, r0
0x00008530:  e1a00003      mov	r0, r3
0x00008534:  e24bd004      sub	sp, fp, #4	; 0x4
0x00008538:  e8bd8800      pop	{fp, pc}

----------------
IN: decrypt_memory
0x0000b100:  e50b0020      str	r0, [fp, #-32]
0x0000b104:  e51b0010      ldr	r0, [fp, #-16]
0x0000b108:  eb002065      bl	0x132a4

----------------
IN: strlen
0x000132a4:  e52db004      push	{fp}		; (str fp, [sp, #-4]!)
0x000132a8:  e28db000      add	fp, sp, #0	; 0x0
0x000132ac:  e24dd014      sub	sp, sp, #20	; 0x14
0x000132b0:  e50b0010      str	r0, [fp, #-16]
0x000132b4:  e51b3010      ldr	r3, [fp, #-16]
0x000132b8:  e50b3008      str	r3, [fp, #-8]
0x000132bc:  ea000002      b	0x132cc

----------------
IN: strlen
0x000132cc:  e51b3008      ldr	r3, [fp, #-8]
0x000132d0:  e5d33000      ldrb	r3, [r3]
0x000132d4:  e3530000      cmp	r3, #0	; 0x0
0x000132d8:  1afffff8      bne	0x132c0

----------------
IN: strlen
0x000132c0:  e51b3008      ldr	r3, [fp, #-8]
0x000132c4:  e2833001      add	r3, r3, #1	; 0x1
0x000132c8:  e50b3008      str	r3, [fp, #-8]
0x000132cc:  e51b3008      ldr	r3, [fp, #-8]
0x000132d0:  e5d33000      ldrb	r3, [r3]
0x000132d4:  e3530000      cmp	r3, #0	; 0x0
0x000132d8:  1afffff8      bne	0x132c0

----------------
IN: strlen
0x000132dc:  e51b2008      ldr	r2, [fp, #-8]
0x000132e0:  e51b3010      ldr	r3, [fp, #-16]
0x000132e4:  e0423003      sub	r3, r2, r3
0x000132e8:  e1a00003      mov	r0, r3
0x000132ec:  e28bd000      add	sp, fp, #0	; 0x0
0x000132f0:  e49db004      pop	{fp}		; (ldr fp, [sp], #4)
0x000132f4:  e12fff1e      bx	lr

----------------
IN: decrypt_memory
0x0000b10c:  e1a03000      mov	r3, r0
0x0000b110:  e2833038      add	r3, r3, #56	; 0x38
0x0000b114:  e1a00003      mov	r0, r3
0x0000b118:  eb001437      bl	0x101fc

----------------
IN: decrypt_memory
0x0000b11c:  e50b0024      str	r0, [fp, #-36]
0x0000b120:  e51b3024      ldr	r3, [fp, #-36]
0x0000b124:  e51b2020      ldr	r2, [fp, #-32]
0x0000b128:  e5832000      str	r2, [r3]
0x0000b12c:  e51b3024      ldr	r3, [fp, #-36]
0x0000b130:  e51b2008      ldr	r2, [fp, #-8]
0x0000b134:  e5832010      str	r2, [r3, #16]
0x0000b138:  e51b3024      ldr	r3, [fp, #-36]
0x0000b13c:  e2833036      add	r3, r3, #54	; 0x36
0x0000b140:  e51b1010      ldr	r1, [fp, #-16]
0x0000b144:  e1a00003      mov	r0, r3
0x0000b148:  eb001546      bl	0x10668

----------------
IN: strcpy
0x00010668:  e52db004      push	{fp}		; (str fp, [sp, #-4]!)
0x0001066c:  e28db000      add	fp, sp, #0	; 0x0
0x00010670:  e24dd00c      sub	sp, sp, #12	; 0xc
0x00010674:  e50b0008      str	r0, [fp, #-8]
0x00010678:  e50b100c      str	r1, [fp, #-12]
0x0001067c:  e320f000      nop	{0}
0x00010680:  e51b200c      ldr	r2, [fp, #-12]
0x00010684:  e2823001      add	r3, r2, #1	; 0x1
0x00010688:  e50b300c      str	r3, [fp, #-12]
0x0001068c:  e51b3008      ldr	r3, [fp, #-8]
0x00010690:  e2831001      add	r1, r3, #1	; 0x1
0x00010694:  e50b1008      str	r1, [fp, #-8]
0x00010698:  e5d22000      ldrb	r2, [r2]
0x0001069c:  e5c32000      strb	r2, [r3]
0x000106a0:  e5d33000      ldrb	r3, [r3]
0x000106a4:  e3530000      cmp	r3, #0	; 0x0
0x000106a8:  1afffff4      bne	0x10680

----------------
IN: strcpy
0x00010680:  e51b200c      ldr	r2, [fp, #-12]
0x00010684:  e2823001      add	r3, r2, #1	; 0x1
0x00010688:  e50b300c      str	r3, [fp, #-12]
0x0001068c:  e51b3008      ldr	r3, [fp, #-8]
0x00010690:  e2831001      add	r1, r3, #1	; 0x1
0x00010694:  e50b1008      str	r1, [fp, #-8]
0x00010698:  e5d22000      ldrb	r2, [r2]
0x0001069c:  e5c32000      strb	r2, [r3]
0x000106a0:  e5d33000      ldrb	r3, [r3]
0x000106a4:  e3530000      cmp	r3, #0	; 0x0
0x000106a8:  1afffff4      bne	0x10680

----------------
IN: strcpy
0x000106ac:  e320f000      nop	{0}
0x000106b0:  e320f000      nop	{0}
0x000106b4:  e28bd000      add	sp, fp, #0	; 0x0
0x000106b8:  e49db004      pop	{fp}		; (ldr fp, [sp], #4)
0x000106bc:  e12fff1e      bx	lr

----------------
IN: decrypt_memory
0x0000b14c:  e51b3008      ldr	r3, [fp, #-8]
0x0000b150:  e3530000      cmp	r3, #0	; 0x0
0x0000b154:  1a000005      bne	0xb170

----------------
IN: decrypt_memory
0x0000b158:  e51b0010      ldr	r0, [fp, #-16]
0x0000b15c:  eb0015eb      bl	0x10910

----------------
IN: xstrdup
0x00010910:  e92d4800      push	{fp, lr}
0x00010914:  e28db004      add	fp, sp, #4	; 0x4
0x00010918:  e24dd010      sub	sp, sp, #16	; 0x10
0x0001091c:  e50b0010      str	r0, [fp, #-16]
0x00010920:  e51b0010      ldr	r0, [fp, #-16]
0x00010924:  ebffffe2      bl	0x108b4

----------------
IN: strdup
0x000108b4:  e92d4800      push	{fp, lr}
0x000108b8:  e28db004      add	fp, sp, #4	; 0x4
0x000108bc:  e24dd010      sub	sp, sp, #16	; 0x10
0x000108c0:  e50b0010      str	r0, [fp, #-16]
0x000108c4:  e51b0010      ldr	r0, [fp, #-16]
0x000108c8:  eb000a75      bl	0x132a4

----------------
IN: strdup
0x000108cc:  e1a03000      mov	r3, r0
0x000108d0:  e2833001      add	r3, r3, #1	; 0x1
0x000108d4:  e50b3008      str	r3, [fp, #-8]
0x000108d8:  e51b0008      ldr	r0, [fp, #-8]
0x000108dc:  ebfffda6      bl	0xff7c

----------------
IN: strdup
0x000108e0:  e50b000c      str	r0, [fp, #-12]
0x000108e4:  e51b300c      ldr	r3, [fp, #-12]
0x000108e8:  e3530000      cmp	r3, #0	; 0x0
0x000108ec:  0a000003      beq	0x10900

----------------
IN: strdup
0x000108f0:  e51b2008      ldr	r2, [fp, #-8]
0x000108f4:  e51b1010      ldr	r1, [fp, #-16]
0x000108f8:  e51b000c      ldr	r0, [fp, #-12]
0x000108fc:  ebfffee6      bl	0x1049c

----------------
IN: strdup
0x00010900:  e51b300c      ldr	r3, [fp, #-12]
0x00010904:  e1a00003      mov	r0, r3
0x00010908:  e24bd004      sub	sp, fp, #4	; 0x4
0x0001090c:  e8bd8800      pop	{fp, pc}

----------------
IN: xstrdup
0x00010928:  e50b0008      str	r0, [fp, #-8]
0x0001092c:  e51b3008      ldr	r3, [fp, #-8]
0x00010930:  e3530000      cmp	r3, #0	; 0x0
0x00010934:  1a000000      bne	0x1093c

----------------
IN: xstrdup
0x0001093c:  e51b3008      ldr	r3, [fp, #-8]
0x00010940:  e1a00003      mov	r0, r3
0x00010944:  e24bd004      sub	sp, fp, #4	; 0x4
0x00010948:  e8bd8800      pop	{fp, pc}

----------------
IN: decrypt_memory
0x0000b160:  e1a03000      mov	r3, r0
0x0000b164:  e1a02003      mov	r2, r3
0x0000b168:  e51b301c      ldr	r3, [fp, #-28]
0x0000b16c:  e5832038      str	r2, [r3, #56]
0x0000b170:  e51b201c      ldr	r2, [fp, #-28]
0x0000b174:  e30a3d14      movw	r3, #44308	; 0xad14
0x0000b178:  e3403000      movt	r3, #0	; 0x0
0x0000b17c:  e582302c      str	r3, [r2, #44]
0x0000b180:  e51b3024      ldr	r3, [fp, #-36]
0x0000b184:  e3a02001      mov	r2, #1	; 0x1
0x0000b188:  e5832008      str	r2, [r3, #8]
0x0000b18c:  e51b301c      ldr	r3, [fp, #-28]
0x0000b190:  e51b2024      ldr	r2, [fp, #-36]
0x0000b194:  e5832030      str	r2, [r3, #48]
0x0000b198:  e24b302c      sub	r3, fp, #44	; 0x2c
0x0000b19c:  e58d3000      str	r3, [sp]
0x0000b1a0:  e3a03000      mov	r3, #0	; 0x0
0x0000b1a4:  e3a02000      mov	r2, #0	; 0x0
0x0000b1a8:  e3a01001      mov	r1, #1	; 0x1
0x0000b1ac:  e51b0024      ldr	r0, [fp, #-36]
0x0000b1b0:  ebfffed7      bl	0xad14

----------------
IN: decrypt_memory
0x0000b1b4:  e51b201c      ldr	r2, [fp, #-28]
0x0000b1b8:  e3a01000      mov	r1, #0	; 0x0
0x0000b1bc:  e51b0030      ldr	r0, [fp, #-48]
0x0000b1c0:  eb002177      bl	0x137a4

----------------
IN: proc_encryption_packets
0x000137a4:  e92d4800      push	{fp, lr}
0x000137a8:  e28db004      add	fp, sp, #4	; 0x4
0x000137ac:  e24dd018      sub	sp, sp, #24	; 0x18
0x000137b0:  e50b0010      str	r0, [fp, #-16]
0x000137b4:  e50b1014      str	r1, [fp, #-20]
0x000137b8:  e50b2018      str	r2, [fp, #-24]
0x000137bc:  e3a00060      mov	r0, #96	; 0x60
0x000137c0:  ebfff2aa      bl	0x10270

----------------
IN: xmalloc_clear
0x00010270:  e92d4800      push	{fp, lr}
0x00010274:  e28db004      add	fp, sp, #4	; 0x4
0x00010278:  e24dd010      sub	sp, sp, #16	; 0x10
0x0001027c:  e50b0010      str	r0, [fp, #-16]
0x00010280:  e51b0010      ldr	r0, [fp, #-16]
0x00010284:  ebffff3c      bl	0xff7c

----------------
IN: xmalloc_clear
0x00010288:  e50b0008      str	r0, [fp, #-8]
0x0001028c:  e51b3008      ldr	r3, [fp, #-8]
0x00010290:  e3530000      cmp	r3, #0	; 0x0
0x00010294:  0a000003      beq	0x102a8

----------------
IN: xmalloc_clear
0x00010298:  e51b2010      ldr	r2, [fp, #-16]
0x0001029c:  e3a01000      mov	r1, #0	; 0x0
0x000102a0:  e51b0008      ldr	r0, [fp, #-8]
0x000102a4:  eb000063      bl	0x10438

----------------
IN: xmalloc_clear
0x000102a8:  e51b3008      ldr	r3, [fp, #-8]
0x000102ac:  e1a00003      mov	r0, r3
0x000102b0:  e24bd004      sub	sp, fp, #4	; 0x4
0x000102b4:  e8bd8800      pop	{fp, pc}

----------------
IN: proc_encryption_packets
0x000137c4:  e1a03000      mov	r3, r0
0x000137c8:  e50b3008      str	r3, [fp, #-8]
0x000137cc:  e51b3008      ldr	r3, [fp, #-8]
0x000137d0:  e51b2010      ldr	r2, [fp, #-16]
0x000137d4:  e5832000      str	r2, [r3]
0x000137d8:  e51b3008      ldr	r3, [fp, #-8]
0x000137dc:  e51b2014      ldr	r2, [fp, #-20]
0x000137e0:  e5832004      str	r2, [r3, #4]
0x000137e4:  e51b3008      ldr	r3, [fp, #-8]
0x000137e8:  e3a02001      mov	r2, #1	; 0x1
0x000137ec:  e5832014      str	r2, [r3, #20]
0x000137f0:  e51b2018      ldr	r2, [fp, #-24]
0x000137f4:  e51b1008      ldr	r1, [fp, #-8]
0x000137f8:  e51b0010      ldr	r0, [fp, #-16]
0x000137fc:  eb000024      bl	0x13894

----------------
IN: do_proc_packets
0x00013894:  e92d4800      push	{fp, lr}
0x00013898:  e28db004      add	fp, sp, #4	; 0x4
0x0001389c:  e24dd040      sub	sp, sp, #64	; 0x40
0x000138a0:  e50b0038      str	r0, [fp, #-56]
0x000138a4:  e50b103c      str	r1, [fp, #-60]
0x000138a8:  e50b2040      str	r2, [fp, #-64]
0x000138ac:  e51b3038      ldr	r3, [fp, #-56]
0x000138b0:  e593301c      ldr	r3, [r3, #28]
0x000138b4:  e3530000      cmp	r3, #0	; 0x0
0x000138b8:  0a000017      beq	0x1391c

----------------
IN: do_proc_packets
0x000138bc:  e51b3038      ldr	r3, [fp, #-56]
0x000138c0:  e593301c      ldr	r3, [r3, #28]
0x000138c4:  e1a00003      mov	r0, r3
0x000138c8:  ebfffe75      bl	0x132a4

----------------
IN: do_proc_packets
0x000138cc:  e1a03000      mov	r3, r0
0x000138d0:  e2833001      add	r3, r3, #1	; 0x1
0x000138d4:  e50b3018      str	r3, [fp, #-24]
0x000138d8:  e51b0018      ldr	r0, [fp, #-24]
0x000138dc:  ebfff1a6      bl	0xff7c

----------------
IN: do_proc_packets
0x000138e0:  e1a03000      mov	r3, r0
0x000138e4:  e1a02003      mov	r2, r3
0x000138e8:  e51b303c      ldr	r3, [fp, #-60]
0x000138ec:  e5832034      str	r2, [r3, #52]
0x000138f0:  e51b303c      ldr	r3, [fp, #-60]
0x000138f4:  e5933034      ldr	r3, [r3, #52]
0x000138f8:  e3530000      cmp	r3, #0	; 0x0
0x000138fc:  0a000006      beq	0x1391c

----------------
IN: do_proc_packets
0x00013900:  e51b303c      ldr	r3, [fp, #-60]
0x00013904:  e5930034      ldr	r0, [r3, #52]
0x00013908:  e51b3038      ldr	r3, [fp, #-56]
0x0001390c:  e593301c      ldr	r3, [r3, #28]
0x00013910:  e51b2018      ldr	r2, [fp, #-24]
0x00013914:  e1a01003      mov	r1, r3
0x00013918:  ebfff2df      bl	0x1049c

----------------
IN: do_proc_packets
0x0001391c:  e51b3038      ldr	r3, [fp, #-56]
0x00013920:  e5932020      ldr	r2, [r3, #32]
0x00013924:  e51b303c      ldr	r3, [fp, #-60]
0x00013928:  e583201c      str	r2, [r3, #28]
0x0001392c:  e3a03000      mov	r3, #0	; 0x0
0x00013930:  e50b300c      str	r3, [fp, #-12]
0x00013934:  e3a03000      mov	r3, #0	; 0x0
0x00013938:  e50b3010      str	r3, [fp, #-16]
0x0001393c:  e51b003c      ldr	r0, [fp, #-60]
0x00013940:  ebffffb3      bl	0x13814

----------------
IN: check_nesting
0x00013814:  e92d4800      push	{fp, lr}
0x00013818:  e28db004      add	fp, sp, #4	; 0x4
0x0001381c:  e24dd010      sub	sp, sp, #16	; 0x10
0x00013820:  e50b0010      str	r0, [fp, #-16]
0x00013824:  e3a03000      mov	r3, #0	; 0x0
0x00013828:  e50b3008      str	r3, [fp, #-8]
0x0001382c:  ea000005      b	0x13848

----------------
IN: check_nesting
0x00013848:  e51b3010      ldr	r3, [fp, #-16]
0x0001384c:  e3530000      cmp	r3, #0	; 0x0
0x00013850:  1afffff6      bne	0x13830

----------------
IN: check_nesting
0x00013830:  e51b3008      ldr	r3, [fp, #-8]
0x00013834:  e2833001      add	r3, r3, #1	; 0x1
0x00013838:  e50b3008      str	r3, [fp, #-8]
0x0001383c:  e51b3010      ldr	r3, [fp, #-16]
0x00013840:  e5933004      ldr	r3, [r3, #4]
0x00013844:  e50b3010      str	r3, [fp, #-16]
0x00013848:  e51b3010      ldr	r3, [fp, #-16]
0x0001384c:  e3530000      cmp	r3, #0	; 0x0
0x00013850:  1afffff6      bne	0x13830

----------------
IN: check_nesting
0x00013854:  e51b3008      ldr	r3, [fp, #-8]
0x00013858:  e3530020      cmp	r3, #32	; 0x20
0x0001385c:  da000008      ble	0x13884

----------------
IN: check_nesting
0x00013884:  e3a03000      mov	r3, #0	; 0x0
0x00013888:  e1a00003      mov	r0, r3
0x0001388c:  e24bd004      sub	sp, fp, #4	; 0x4
0x00013890:  e8bd8800      pop	{fp, pc}

----------------
IN: do_proc_packets
0x00013944:  e50b000c      str	r0, [fp, #-12]
0x00013948:  e51b300c      ldr	r3, [fp, #-12]
0x0001394c:  e3530000      cmp	r3, #0	; 0x0
0x00013950:  0a000001      beq	0x1395c

----------------
IN: do_proc_packets
0x0001395c:  e3a00008      mov	r0, #8	; 0x8
0x00013960:  ebfff225      bl	0x101fc

----------------
IN: do_proc_packets
0x00013964:  e1a03000      mov	r3, r0
0x00013968:  e50b3008      str	r3, [fp, #-8]
0x0001396c:  e51b303c      ldr	r3, [fp, #-60]
0x00013970:  e51b2040      ldr	r2, [fp, #-64]
0x00013974:  e5832040      str	r2, [r3, #64]
0x00013978:  e51b3008      ldr	r3, [fp, #-8]
0x0001397c:  e3a02000      mov	r2, #0	; 0x0
0x00013980:  e5c32000      strb	r2, [r3]
0x00013984:  e51b3008      ldr	r3, [fp, #-8]
0x00013988:  e3a02000      mov	r2, #0	; 0x0
0x0001398c:  e5832004      str	r2, [r3, #4]
0x00013990:  e51b3040      ldr	r3, [fp, #-64]
0x00013994:  e50b3030      str	r3, [fp, #-48]
0x00013998:  e3a03000      mov	r3, #0	; 0x0
0x0001399c:  e54b302c      strb	r3, [fp, #-44]
0x000139a0:  e3a03000      mov	r3, #0	; 0x0
0x000139a4:  e50b3028      str	r3, [fp, #-40]
0x000139a8:  e3a03000      mov	r3, #0	; 0x0
0x000139ac:  e50b3024      str	r3, [fp, #-36]
0x000139b0:  e3a03000      mov	r3, #0	; 0x0
0x000139b4:  e50b3020      str	r3, [fp, #-32]
0x000139b8:  e3a03000      mov	r3, #0	; 0x0
0x000139bc:  e50b301c      str	r3, [fp, #-28]
0x000139c0:  ea000060      b	0x13b48

----------------
IN: do_proc_packets
0x00013b48:  e24b0030      sub	r0, fp, #48	; 0x30
0x00013b4c:  e30037a7      movw	r3, #1959	; 0x7a7
0x00013b50:  e3052298      movw	r2, #21144	; 0x5298
0x00013b54:  e3402001      movt	r2, #1	; 0x1
0x00013b58:  e51b1008      ldr	r1, [fp, #-8]
0x00013b5c:  ebfff3a8      bl	0x10a04

----------------
IN: dbg_parse_packet
0x00010a04:  e92d4800      push	{fp, lr}
0x00010a08:  e28db004      add	fp, sp, #4	; 0x4
0x00010a0c:  e24dd030      sub	sp, sp, #48	; 0x30
0x00010a10:  e50b0010      str	r0, [fp, #-16]
0x00010a14:  e50b1014      str	r1, [fp, #-20]
0x00010a18:  e50b2018      str	r2, [fp, #-24]
0x00010a1c:  e50b301c      str	r3, [fp, #-28]
0x00010a20:  e51b301c      ldr	r3, [fp, #-28]
0x00010a24:  e58d3014      str	r3, [sp, #20]
0x00010a28:  e51b3018      ldr	r3, [fp, #-24]
0x00010a2c:  e58d3010      str	r3, [sp, #16]
0x00010a30:  e3043920      movw	r3, #18720	; 0x4920
0x00010a34:  e3403001      movt	r3, #1	; 0x1
0x00010a38:  e58d300c      str	r3, [sp, #12]
0x00010a3c:  e3a03000      mov	r3, #0	; 0x0
0x00010a40:  e58d3008      str	r3, [sp, #8]
0x00010a44:  e3a03000      mov	r3, #0	; 0x0
0x00010a48:  e58d3004      str	r3, [sp, #4]
0x00010a4c:  e24b300c      sub	r3, fp, #12	; 0xc
0x00010a50:  e58d3000      str	r3, [sp]
0x00010a54:  e3a03000      mov	r3, #0	; 0x0
0x00010a58:  e3a02000      mov	r2, #0	; 0x0
0x00010a5c:  e51b1014      ldr	r1, [fp, #-20]
0x00010a60:  e51b0010      ldr	r0, [fp, #-16]
0x00010a64:  eb00000a      bl	0x10a94

----------------
IN: parse
0x00010a94:  e92d4800      push	{fp, lr}
0x00010a98:  e28db004      add	fp, sp, #4	; 0x4
0x00010a9c:  e24dd058      sub	sp, sp, #88	; 0x58
0x00010aa0:  e50b0048      str	r0, [fp, #-72]
0x00010aa4:  e50b104c      str	r1, [fp, #-76]
0x00010aa8:  e50b2050      str	r2, [fp, #-80]
0x00010aac:  e50b3054      str	r3, [fp, #-84]
0x00010ab0:  e3a03000      mov	r3, #0	; 0x0
0x00010ab4:  e50b3008      str	r3, [fp, #-8]
0x00010ab8:  e3a03000      mov	r3, #0	; 0x0
0x00010abc:  e50b3024      str	r3, [fp, #-36]
0x00010ac0:  e3a03000      mov	r3, #0	; 0x0
0x00010ac4:  e50b301c      str	r3, [fp, #-28]
0x00010ac8:  e51b3050      ldr	r3, [fp, #-80]
0x00010acc:  e3530002      cmp	r3, #2	; 0x2
0x00010ad0:  03a03001      moveq	r3, #1	; 0x1
0x00010ad4:  13a03000      movne	r3, #0	; 0x0
0x00010ad8:  e6ef3073      uxtb	r3, r3
0x00010adc:  e50b3028      str	r3, [fp, #-40]
0x00010ae0:  e59b3004      ldr	r3, [fp, #4]
0x00010ae4:  e3a02000      mov	r2, #0	; 0x0
0x00010ae8:  e5832000      str	r2, [r3]
0x00010aec:  e51b3048      ldr	r3, [fp, #-72]
0x00010af0:  e5933000      ldr	r3, [r3]
0x00010af4:  e50b302c      str	r3, [fp, #-44]
0x00010af8:  e51b3054      ldr	r3, [fp, #-84]
0x00010afc:  e3530000      cmp	r3, #0	; 0x0
0x00010b00:  1a000004      bne	0x10b18

----------------
IN: parse
0x00010b04:  e30d3010      movw	r3, #53264	; 0xd010
0x00010b08:  e3403004      movt	r3, #4	; 0x4
0x00010b0c:  e5933000      ldr	r3, [r3]
0x00010b10:  e3530000      cmp	r3, #0	; 0x0
0x00010b14:  0a00000e      beq	0x10b54

----------------
IN: parse
0x00010b54:  e3a03000      mov	r3, #0	; 0x0
0x00010b58:  e50b3030      str	r3, [fp, #-48]
0x00010b5c:  e51b302c      ldr	r3, [fp, #-44]
0x00010b60:  e5933010      ldr	r3, [r3, #16]
0x00010b64:  e3530000      cmp	r3, #0	; 0x0
0x00010b68:  1a000005      bne	0x10b84

----------------
IN: parse
0x00010b6c:  e51b302c      ldr	r3, [fp, #-44]
0x00010b70:  e5932018      ldr	r2, [r3, #24]
0x00010b74:  e51b302c      ldr	r3, [fp, #-44]
0x00010b78:  e593301c      ldr	r3, [r3, #28]
0x00010b7c:  e1520003      cmp	r2, r3
0x00010b80:  3a000003      bcc	0x10b94

----------------
IN: parse
0x00010b94:  e51b302c      ldr	r3, [fp, #-44]
0x00010b98:  e5933008      ldr	r3, [r3, #8]
0x00010b9c:  e2832001      add	r2, r3, #1	; 0x1
0x00010ba0:  e51b302c      ldr	r3, [fp, #-44]
0x00010ba4:  e5832008      str	r2, [r3, #8]
0x00010ba8:  e51b302c      ldr	r3, [fp, #-44]
0x00010bac:  e5932020      ldr	r2, [r3, #32]
0x00010bb0:  e51b302c      ldr	r3, [fp, #-44]
0x00010bb4:  e5933018      ldr	r3, [r3, #24]
0x00010bb8:  e2830001      add	r0, r3, #1	; 0x1
0x00010bbc:  e51b102c      ldr	r1, [fp, #-44]
0x00010bc0:  e5810018      str	r0, [r1, #24]
0x00010bc4:  e0823003      add	r3, r2, r3
0x00010bc8:  e5d33000      ldrb	r3, [r3]
0x00010bcc:  e50b3034      str	r3, [fp, #-52]
0x00010bd0:  e51b3034      ldr	r3, [fp, #-52]
0x00010bd4:  e3730001      cmn	r3, #1	; 0x1
0x00010bd8:  1a000002      bne	0x10be8

----------------
IN: parse
0x00010be8:  e3a03000      mov	r3, #0	; 0x0
0x00010bec:  e50b3018      str	r3, [fp, #-24]
0x00010bf0:  e51b3018      ldr	r3, [fp, #-24]
0x00010bf4:  e2832001      add	r2, r3, #1	; 0x1
0x00010bf8:  e50b2018      str	r2, [fp, #-24]
0x00010bfc:  e51b2034      ldr	r2, [fp, #-52]

----------------
IN: parse
0x00010c00:  e6ef2072      uxtb	r2, r2
0x00010c04:  e2433004      sub	r3, r3, #4	; 0x4
0x00010c08:  e083300b      add	r3, r3, fp
0x00010c0c:  e543203c      strb	r2, [r3, #-60]
0x00010c10:  e51b3034      ldr	r3, [fp, #-52]
0x00010c14:  e2033080      and	r3, r3, #128	; 0x80
0x00010c18:  e3530000      cmp	r3, #0	; 0x0
0x00010c1c:  1a000004      bne	0x10c34

----------------
IN: parse
0x00010c34:  e3a03000      mov	r3, #0	; 0x0
0x00010c38:  e50b3014      str	r3, [fp, #-20]
0x00010c3c:  e51b3034      ldr	r3, [fp, #-52]
0x00010c40:  e2033040      and	r3, r3, #64	; 0x40
0x00010c44:  e3530000      cmp	r3, #0	; 0x0
0x00010c48:  13a03001      movne	r3, #1	; 0x1
0x00010c4c:  03a03000      moveq	r3, #0	; 0x0
0x00010c50:  e6ef3073      uxtb	r3, r3
0x00010c54:  e50b3024      str	r3, [fp, #-36]
0x00010c58:  e51b3024      ldr	r3, [fp, #-36]
0x00010c5c:  e3530000      cmp	r3, #0	; 0x0
0x00010c60:  0a0000db      beq	0x10fd4

----------------
IN: parse
0x00010fd4:  e51b3034      ldr	r3, [fp, #-52]
0x00010fd8:  e1a03143      asr	r3, r3, #2
0x00010fdc:  e203300f      and	r3, r3, #15	; 0xf
0x00010fe0:  e50b300c      str	r3, [fp, #-12]
0x00010fe4:  e51b3034      ldr	r3, [fp, #-52]
0x00010fe8:  e2033003      and	r3, r3, #3	; 0x3
0x00010fec:  e3530003      cmp	r3, #3	; 0x3
0x00010ff0:  0a000004      beq	0x11008

----------------
IN: parse
0x00010ff4:  e51b3034      ldr	r3, [fp, #-52]
0x00010ff8:  e2033003      and	r3, r3, #3	; 0x3
0x00010ffc:  e3a02001      mov	r2, #1	; 0x1

----------------
IN: parse
0x00011000:  e1a03312      lsl	r3, r2, r3
0x00011004:  ea000000      b	0x1100c

----------------
IN: parse
0x0001100c:  e50b3010      str	r3, [fp, #-16]
0x00011010:  e51b3010      ldr	r3, [fp, #-16]
0x00011014:  e3530000      cmp	r3, #0	; 0x0
0x00011018:  1a00004e      bne	0x11158

----------------
IN: parse
0x00011158:  e51b3010      ldr	r3, [fp, #-16]
0x0001115c:  e3530000      cmp	r3, #0	; 0x0
0x00011160:  1affffc1      bne	0x1106c

----------------
IN: parse
0x0001106c:  e51b3014      ldr	r3, [fp, #-20]
0x00011070:  e1a03403      lsl	r3, r3, #8
0x00011074:  e50b3014      str	r3, [fp, #-20]
0x00011078:  e51b302c      ldr	r3, [fp, #-44]
0x0001107c:  e5933010      ldr	r3, [r3, #16]
0x00011080:  e3530000      cmp	r3, #0	; 0x0
0x00011084:  1a000005      bne	0x110a0

----------------
IN: parse
0x00011088:  e51b302c      ldr	r3, [fp, #-44]
0x0001108c:  e5932018      ldr	r2, [r3, #24]
0x00011090:  e51b302c      ldr	r3, [fp, #-44]
0x00011094:  e593301c      ldr	r3, [r3, #28]
0x00011098:  e1520003      cmp	r2, r3
0x0001109c:  3a000003      bcc	0x110b0

----------------
IN: parse
0x000110b0:  e51b302c      ldr	r3, [fp, #-44]
0x000110b4:  e5933008      ldr	r3, [r3, #8]
0x000110b8:  e2832001      add	r2, r3, #1	; 0x1
0x000110bc:  e51b302c      ldr	r3, [fp, #-44]
0x000110c0:  e5832008      str	r2, [r3, #8]
0x000110c4:  e51b302c      ldr	r3, [fp, #-44]
0x000110c8:  e5932020      ldr	r2, [r3, #32]
0x000110cc:  e51b302c      ldr	r3, [fp, #-44]
0x000110d0:  e5933018      ldr	r3, [r3, #24]
0x000110d4:  e2830001      add	r0, r3, #1	; 0x1
0x000110d8:  e51b102c      ldr	r1, [fp, #-44]
0x000110dc:  e5810018      str	r0, [r1, #24]
0x000110e0:  e0823003      add	r3, r2, r3
0x000110e4:  e5d33000      ldrb	r3, [r3]
0x000110e8:  e50b3038      str	r3, [fp, #-56]
0x000110ec:  e51b3038      ldr	r3, [fp, #-56]
0x000110f0:  e3730001      cmn	r3, #1	; 0x1
0x000110f4:  1a000005      bne	0x11110

----------------
IN: parse
0x00011110:  e51b3018      ldr	r3, [fp, #-24]
0x00011114:  e2832001      add	r2, r3, #1	; 0x1
0x00011118:  e50b2018      str	r2, [fp, #-24]
0x0001111c:  e51b2038      ldr	r2, [fp, #-56]
0x00011120:  e6ef1072      uxtb	r1, r2
0x00011124:  e2432004      sub	r2, r3, #4	; 0x4
0x00011128:  e082200b      add	r2, r2, fp
0x0001112c:  e542103c      strb	r1, [r2, #-60]
0x00011130:  e2433004      sub	r3, r3, #4	; 0x4
0x00011134:  e083300b      add	r3, r3, fp
0x00011138:  e553303c      ldrb	r3, [r3, #-60]
0x0001113c:  e1a02003      mov	r2, r3
0x00011140:  e51b3014      ldr	r3, [fp, #-20]
0x00011144:  e1833002      orr	r3, r3, r2
0x00011148:  e50b3014      str	r3, [fp, #-20]
0x0001114c:  e51b3010      ldr	r3, [fp, #-16]
0x00011150:  e2433001      sub	r3, r3, #1	; 0x1
0x00011154:  e50b3010      str	r3, [fp, #-16]
0x00011158:  e51b3010      ldr	r3, [fp, #-16]
0x0001115c:  e3530000      cmp	r3, #0	; 0x0
0x00011160:  1affffc1      bne	0x1106c

----------------
IN: parse
0x00011164:  e51b300c      ldr	r3, [fp, #-12]
0x00011168:  e353003f      cmp	r3, #63	; 0x3f
0x0001116c:  1a000009      bne	0x11198

----------------
IN: parse
0x00011198:  e59b3008      ldr	r3, [fp, #8]
0x0001119c:  e3530000      cmp	r3, #0	; 0x0
0x000111a0:  0a00001b      beq	0x11214

----------------
IN: parse
0x00011214:  e51b3028      ldr	r3, [fp, #-40]
0x00011218:  e3530000      cmp	r3, #0	; 0x0
0x0001121c:  0a000002      beq	0x1122c

----------------
IN: parse
0x0001122c:  e59b300c      ldr	r3, [fp, #12]
0x00011230:  e3530000      cmp	r3, #0	; 0x0
0x00011234:  1a000011      bne	0x11280

----------------
IN: parse
0x00011238:  e51b300c      ldr	r3, [fp, #-12]
0x0001123c:  e3530000      cmp	r3, #0	; 0x0
0x00011240:  0a00000e      beq	0x11280

----------------
IN: parse
0x00011244:  e51b3050      ldr	r3, [fp, #-80]
0x00011248:  e3530000      cmp	r3, #0	; 0x0
0x0001124c:  0a000015      beq	0x112a8

----------------
IN: parse
0x000112a8:  e51b3048      ldr	r3, [fp, #-72]
0x000112ac:  e5933014      ldr	r3, [r3, #20]
0x000112b0:  e2832001      add	r2, r3, #1	; 0x1
0x000112b4:  e51b3048      ldr	r3, [fp, #-72]
0x000112b8:  e5832014      str	r2, [r3, #20]
0x000112bc:  e51b300c      ldr	r3, [fp, #-12]
0x000112c0:  e6ef2073      uxtb	r2, r3
0x000112c4:  e51b304c      ldr	r3, [fp, #-76]
0x000112c8:  e5c32000      strb	r2, [r3]
0x000112cc:  e3a03002      mov	r3, #2	; 0x2
0x000112d0:  e50b3008      str	r3, [fp, #-8]
0x000112d4:  e51b300c      ldr	r3, [fp, #-12]
0x000112d8:  e2433003      sub	r3, r3, #3	; 0x3
0x000112dc:  e3530010      cmp	r3, #16	; 0x10
0x000112e0:  979ff103      ldrls	pc, [pc, r3, lsl #2]

----------------
IN: parse
0x0001132c:  e51b304c      ldr	r3, [fp, #-76]
0x00011330:  e51b2014      ldr	r2, [fp, #-20]
0x00011334:  e51b100c      ldr	r1, [fp, #-12]
0x00011338:  e51b002c      ldr	r0, [fp, #-44]
0x0001133c:  eb00014b      bl	0x11870

----------------
IN: parse_symkeyenc
0x00011870:  e92d4800      push	{fp, lr}
0x00011874:  e28db004      add	fp, sp, #4	; 0x4
0x00011878:  e24dd038      sub	sp, sp, #56	; 0x38
0x0001187c:  e50b0030      str	r0, [fp, #-48]
0x00011880:  e50b1034      str	r1, [fp, #-52]
0x00011884:  e50b2038      str	r2, [fp, #-56]
0x00011888:  e50b303c      str	r3, [fp, #-60]
0x0001188c:  e3a03000      mov	r3, #0	; 0x0
0x00011890:  e50b3008      str	r3, [fp, #-8]
0x00011894:  e51b3038      ldr	r3, [fp, #-56]
0x00011898:  e3530003      cmp	r3, #3	; 0x3
0x0001189c:  9a0001fd      bls	0x12098

----------------
IN: parse_symkeyenc
0x000118a0:  e51b3030      ldr	r3, [fp, #-48]
0x000118a4:  e5933010      ldr	r3, [r3, #16]
0x000118a8:  e3530000      cmp	r3, #0	; 0x0
0x000118ac:  1a000005      bne	0x118c8

----------------
IN: parse_symkeyenc
0x000118b0:  e51b3030      ldr	r3, [fp, #-48]
0x000118b4:  e5932018      ldr	r2, [r3, #24]
0x000118b8:  e51b3030      ldr	r3, [fp, #-48]
0x000118bc:  e593301c      ldr	r3, [r3, #28]
0x000118c0:  e1520003      cmp	r2, r3
0x000118c4:  3a000004      bcc	0x118dc

----------------
IN: parse_symkeyenc
0x000118dc:  e51b3030      ldr	r3, [fp, #-48]
0x000118e0:  e5933008      ldr	r3, [r3, #8]
0x000118e4:  e2832001      add	r2, r3, #1	; 0x1
0x000118e8:  e51b3030      ldr	r3, [fp, #-48]
0x000118ec:  e5832008      str	r2, [r3, #8]
0x000118f0:  e51b3030      ldr	r3, [fp, #-48]
0x000118f4:  e5932020      ldr	r2, [r3, #32]
0x000118f8:  e51b3030      ldr	r3, [fp, #-48]
0x000118fc:  e5933018      ldr	r3, [r3, #24]
0x00011900:  e2830001      add	r0, r3, #1	; 0x1
0x00011904:  e51b1030      ldr	r1, [fp, #-48]
0x00011908:  e5810018      str	r0, [r1, #24]
0x0001190c:  e0823003      add	r3, r2, r3
0x00011910:  e5d33000      ldrb	r3, [r3]
0x00011914:  e50b3018      str	r3, [fp, #-24]
0x00011918:  e51b3038      ldr	r3, [fp, #-56]
0x0001191c:  e2433001      sub	r3, r3, #1	; 0x1
0x00011920:  e50b3038      str	r3, [fp, #-56]
0x00011924:  e51b3018      ldr	r3, [fp, #-24]
0x00011928:  e3530004      cmp	r3, #4	; 0x4
0x0001192c:  0a000018      beq	0x11994

----------------
IN: parse_symkeyenc
0x00011994:  e51b3038      ldr	r3, [fp, #-56]
0x00011998:  e35300c8      cmp	r3, #200	; 0xc8
0x0001199c:  9a000014      bls	0x119f4

----------------
IN: parse_symkeyenc
0x000119f4:  e51b3030      ldr	r3, [fp, #-48]
0x000119f8:  e5933010      ldr	r3, [r3, #16]
0x000119fc:  e3530000      cmp	r3, #0	; 0x0
0x00011a00:  1a000005      bne	0x11a1c

----------------
IN: parse_symkeyenc
0x00011a04:  e51b3030      ldr	r3, [fp, #-48]
0x00011a08:  e5932018      ldr	r2, [r3, #24]
0x00011a0c:  e51b3030      ldr	r3, [fp, #-48]
0x00011a10:  e593301c      ldr	r3, [r3, #28]
0x00011a14:  e1520003      cmp	r2, r3
0x00011a18:  3a000004      bcc	0x11a30

----------------
IN: parse_symkeyenc
0x00011a30:  e51b3030      ldr	r3, [fp, #-48]
0x00011a34:  e5933008      ldr	r3, [r3, #8]
0x00011a38:  e2832001      add	r2, r3, #1	; 0x1
0x00011a3c:  e51b3030      ldr	r3, [fp, #-48]
0x00011a40:  e5832008      str	r2, [r3, #8]
0x00011a44:  e51b3030      ldr	r3, [fp, #-48]
0x00011a48:  e5932020      ldr	r2, [r3, #32]
0x00011a4c:  e51b3030      ldr	r3, [fp, #-48]
0x00011a50:  e5933018      ldr	r3, [r3, #24]
0x00011a54:  e2830001      add	r0, r3, #1	; 0x1
0x00011a58:  e51b1030      ldr	r1, [fp, #-48]
0x00011a5c:  e5810018      str	r0, [r1, #24]
0x00011a60:  e0823003      add	r3, r2, r3
0x00011a64:  e5d33000      ldrb	r3, [r3]
0x00011a68:  e50b301c      str	r3, [fp, #-28]
0x00011a6c:  e51b3038      ldr	r3, [fp, #-56]
0x00011a70:  e2433001      sub	r3, r3, #1	; 0x1
0x00011a74:  e50b3038      str	r3, [fp, #-56]
0x00011a78:  e51b3018      ldr	r3, [fp, #-24]
0x00011a7c:  e3530005      cmp	r3, #5	; 0x5
0x00011a80:  1a000021      bne	0x11b0c

----------------
IN: parse_symkeyenc
0x00011b0c:  e3a03000      mov	r3, #0	; 0x0
0x00011b10:  e50b3010      str	r3, [fp, #-16]
0x00011b14:  e51b3038      ldr	r3, [fp, #-56]
0x00011b18:  e3530001      cmp	r3, #1	; 0x1
0x00011b1c:  9a00015f      bls	0x120a0

----------------
IN: parse_symkeyenc
0x00011b20:  e51b3030      ldr	r3, [fp, #-48]
0x00011b24:  e5933010      ldr	r3, [r3, #16]
0x00011b28:  e3530000      cmp	r3, #0	; 0x0
0x00011b2c:  1a000005      bne	0x11b48

----------------
IN: parse_symkeyenc
0x00011b30:  e51b3030      ldr	r3, [fp, #-48]
0x00011b34:  e5932018      ldr	r2, [r3, #24]
0x00011b38:  e51b3030      ldr	r3, [fp, #-48]
0x00011b3c:  e593301c      ldr	r3, [r3, #28]
0x00011b40:  e1520003      cmp	r2, r3
0x00011b44:  3a000004      bcc	0x11b5c

----------------
IN: parse_symkeyenc
0x00011b5c:  e51b3030      ldr	r3, [fp, #-48]
0x00011b60:  e5933008      ldr	r3, [r3, #8]
0x00011b64:  e2832001      add	r2, r3, #1	; 0x1
0x00011b68:  e51b3030      ldr	r3, [fp, #-48]
0x00011b6c:  e5832008      str	r2, [r3, #8]
0x00011b70:  e51b3030      ldr	r3, [fp, #-48]
0x00011b74:  e5932020      ldr	r2, [r3, #32]
0x00011b78:  e51b3030      ldr	r3, [fp, #-48]
0x00011b7c:  e5933018      ldr	r3, [r3, #24]
0x00011b80:  e2830001      add	r0, r3, #1	; 0x1
0x00011b84:  e51b1030      ldr	r1, [fp, #-48]
0x00011b88:  e5810018      str	r0, [r1, #24]
0x00011b8c:  e0823003      add	r3, r2, r3
0x00011b90:  e5d33000      ldrb	r3, [r3]
0x00011b94:  e50b3020      str	r3, [fp, #-32]
0x00011b98:  e51b3038      ldr	r3, [fp, #-56]
0x00011b9c:  e2433001      sub	r3, r3, #1	; 0x1
0x00011ba0:  e50b3038      str	r3, [fp, #-56]
0x00011ba4:  e51b3030      ldr	r3, [fp, #-48]
0x00011ba8:  e5933010      ldr	r3, [r3, #16]
0x00011bac:  e3530000      cmp	r3, #0	; 0x0
0x00011bb0:  1a000005      bne	0x11bcc

----------------
IN: parse_symkeyenc
0x00011bb4:  e51b3030      ldr	r3, [fp, #-48]
0x00011bb8:  e5932018      ldr	r2, [r3, #24]
0x00011bbc:  e51b3030      ldr	r3, [fp, #-48]
0x00011bc0:  e593301c      ldr	r3, [r3, #28]
0x00011bc4:  e1520003      cmp	r2, r3
0x00011bc8:  3a000004      bcc	0x11be0

----------------
IN: parse_symkeyenc
0x00011be0:  e51b3030      ldr	r3, [fp, #-48]
0x00011be4:  e5933008      ldr	r3, [r3, #8]
0x00011be8:  e2832001      add	r2, r3, #1	; 0x1
0x00011bec:  e51b3030      ldr	r3, [fp, #-48]
0x00011bf0:  e5832008      str	r2, [r3, #8]
0x00011bf4:  e51b3030      ldr	r3, [fp, #-48]
0x00011bf8:  e5932020      ldr	r2, [r3, #32]
0x00011bfc:  e51b3030      ldr	r3, [fp, #-48]

----------------
IN: parse_symkeyenc
0x00011c00:  e5933018      ldr	r3, [r3, #24]
0x00011c04:  e2830001      add	r0, r3, #1	; 0x1
0x00011c08:  e51b1030      ldr	r1, [fp, #-48]
0x00011c0c:  e5810018      str	r0, [r1, #24]
0x00011c10:  e0823003      add	r3, r2, r3
0x00011c14:  e5d33000      ldrb	r3, [r3]
0x00011c18:  e50b3024      str	r3, [fp, #-36]
0x00011c1c:  e51b3038      ldr	r3, [fp, #-56]
0x00011c20:  e2433001      sub	r3, r3, #1	; 0x1
0x00011c24:  e50b3038      str	r3, [fp, #-56]
0x00011c28:  e51b3020      ldr	r3, [fp, #-32]
0x00011c2c:  e3530003      cmp	r3, #3	; 0x3
0x00011c30:  0a00000f      beq	0x11c74

----------------
IN: parse_symkeyenc
0x00011c74:  e3a03009      mov	r3, #9	; 0x9
0x00011c78:  e50b3014      str	r3, [fp, #-20]
0x00011c7c:  ea000010      b	0x11cc4

----------------
IN: parse_symkeyenc
0x00011cc4:  e51b3014      ldr	r3, [fp, #-20]
0x00011cc8:  e51b2038      ldr	r2, [fp, #-56]
0x00011ccc:  e1520003      cmp	r2, r3
0x00011cd0:  2a000014      bcs	0x11d28

----------------
IN: parse_symkeyenc
0x00011d28:  e51b3014      ldr	r3, [fp, #-20]
0x00011d2c:  e51b2038      ldr	r2, [fp, #-56]
0x00011d30:  e0423003      sub	r3, r2, r3
0x00011d34:  e50b3028      str	r3, [fp, #-40]
0x00011d38:  e51b3028      ldr	r3, [fp, #-40]
0x00011d3c:  e283301b      add	r3, r3, #27	; 0x1b
0x00011d40:  e1a00003      mov	r0, r3
0x00011d44:  ebfff949      bl	0x10270

----------------
IN: parse_symkeyenc
0x00011d48:  e1a02000      mov	r2, r0
0x00011d4c:  e51b303c      ldr	r3, [fp, #-60]
0x00011d50:  e5832004      str	r2, [r3, #4]
0x00011d54:  e51b303c      ldr	r3, [fp, #-60]
0x00011d58:  e5933004      ldr	r3, [r3, #4]
0x00011d5c:  e50b302c      str	r3, [fp, #-44]
0x00011d60:  e51b3018      ldr	r3, [fp, #-24]
0x00011d64:  e6ef2073      uxtb	r2, r3
0x00011d68:  e51b302c      ldr	r3, [fp, #-44]
0x00011d6c:  e5c32000      strb	r2, [r3]
0x00011d70:  e51b301c      ldr	r3, [fp, #-28]
0x00011d74:  e6ef2073      uxtb	r2, r3
0x00011d78:  e51b302c      ldr	r3, [fp, #-44]
0x00011d7c:  e5c32001      strb	r2, [r3, #1]
0x00011d80:  e51b3010      ldr	r3, [fp, #-16]
0x00011d84:  e6ef2073      uxtb	r2, r3
0x00011d88:  e51b302c      ldr	r3, [fp, #-44]
0x00011d8c:  e5c32002      strb	r2, [r3, #2]
0x00011d90:  e51b302c      ldr	r3, [fp, #-44]
0x00011d94:  e51b2020      ldr	r2, [fp, #-32]
0x00011d98:  e5832004      str	r2, [r3, #4]
0x00011d9c:  e51b3024      ldr	r3, [fp, #-36]
0x00011da0:  e6ef2073      uxtb	r2, r3
0x00011da4:  e51b302c      ldr	r3, [fp, #-44]
0x00011da8:  e5c32008      strb	r2, [r3, #8]
0x00011dac:  e51b3020      ldr	r3, [fp, #-32]
0x00011db0:  e3530001      cmp	r3, #1	; 0x1
0x00011db4:  0a000002      beq	0x11dc4

----------------
IN: parse_symkeyenc
0x00011db8:  e51b3020      ldr	r3, [fp, #-32]
0x00011dbc:  e3530003      cmp	r3, #3	; 0x3
0x00011dc0:  1a000030      bne	0x11e88

----------------
IN: parse_symkeyenc
0x00011dc4:  e3a03000      mov	r3, #0	; 0x0
0x00011dc8:  e50b300c      str	r3, [fp, #-12]
0x00011dcc:  ea000027      b	0x11e70

----------------
IN: parse_symkeyenc
0x00011e70:  e51b300c      ldr	r3, [fp, #-12]
0x00011e74:  e3530007      cmp	r3, #7	; 0x7
0x00011e78:  ca000002      bgt	0x11e88

----------------
IN: parse_symkeyenc
0x00011e7c:  e51b3038      ldr	r3, [fp, #-56]
0x00011e80:  e3530000      cmp	r3, #0	; 0x0
0x00011e84:  1affffd1      bne	0x11dd0

----------------
IN: parse_symkeyenc
0x00011dd0:  e51b3030      ldr	r3, [fp, #-48]
0x00011dd4:  e5933010      ldr	r3, [r3, #16]
0x00011dd8:  e3530000      cmp	r3, #0	; 0x0
0x00011ddc:  1a000005      bne	0x11df8

----------------
IN: parse_symkeyenc
0x00011de0:  e51b3030      ldr	r3, [fp, #-48]
0x00011de4:  e5932018      ldr	r2, [r3, #24]
0x00011de8:  e51b3030      ldr	r3, [fp, #-48]
0x00011dec:  e593301c      ldr	r3, [r3, #28]
0x00011df0:  e1520003      cmp	r2, r3
0x00011df4:  3a000004      bcc	0x11e0c

----------------
IN: parse_symkeyenc
0x00011e0c:  e51b3030      ldr	r3, [fp, #-48]
0x00011e10:  e5933008      ldr	r3, [r3, #8]
0x00011e14:  e2832001      add	r2, r3, #1	; 0x1
0x00011e18:  e51b3030      ldr	r3, [fp, #-48]
0x00011e1c:  e5832008      str	r2, [r3, #8]
0x00011e20:  e51b3030      ldr	r3, [fp, #-48]
0x00011e24:  e5932020      ldr	r2, [r3, #32]
0x00011e28:  e51b3030      ldr	r3, [fp, #-48]
0x00011e2c:  e5933018      ldr	r3, [r3, #24]
0x00011e30:  e2830001      add	r0, r3, #1	; 0x1
0x00011e34:  e51b1030      ldr	r1, [fp, #-48]
0x00011e38:  e5810018      str	r0, [r1, #24]
0x00011e3c:  e0823003      add	r3, r2, r3
0x00011e40:  e5d33000      ldrb	r3, [r3]
0x00011e44:  e51b102c      ldr	r1, [fp, #-44]
0x00011e48:  e51b200c      ldr	r2, [fp, #-12]
0x00011e4c:  e0812002      add	r2, r1, r2
0x00011e50:  e2822009      add	r2, r2, #9	; 0x9
0x00011e54:  e5c23000      strb	r3, [r2]
0x00011e58:  e51b300c      ldr	r3, [fp, #-12]
0x00011e5c:  e2833001      add	r3, r3, #1	; 0x1
0x00011e60:  e50b300c      str	r3, [fp, #-12]
0x00011e64:  e51b3038      ldr	r3, [fp, #-56]
0x00011e68:  e2433001      sub	r3, r3, #1	; 0x1
0x00011e6c:  e50b3038      str	r3, [fp, #-56]
0x00011e70:  e51b300c      ldr	r3, [fp, #-12]
0x00011e74:  e3530007      cmp	r3, #7	; 0x7
0x00011e78:  ca000002      bgt	0x11e88

----------------
IN: parse_symkeyenc
0x00011e88:  e51b3020      ldr	r3, [fp, #-32]
0x00011e8c:  e3530003      cmp	r3, #3	; 0x3
0x00011e90:  1a000021      bne	0x11f1c

----------------
IN: parse_symkeyenc
0x00011e94:  e51b3030      ldr	r3, [fp, #-48]
0x00011e98:  e5933010      ldr	r3, [r3, #16]
0x00011e9c:  e3530000      cmp	r3, #0	; 0x0
0x00011ea0:  1a000005      bne	0x11ebc

----------------
IN: parse_symkeyenc
0x00011ea4:  e51b3030      ldr	r3, [fp, #-48]
0x00011ea8:  e5932018      ldr	r2, [r3, #24]
0x00011eac:  e51b3030      ldr	r3, [fp, #-48]
0x00011eb0:  e593301c      ldr	r3, [r3, #28]
0x00011eb4:  e1520003      cmp	r2, r3
0x00011eb8:  3a000004      bcc	0x11ed0

----------------
IN: parse_symkeyenc
0x00011ed0:  e51b3030      ldr	r3, [fp, #-48]
0x00011ed4:  e5933008      ldr	r3, [r3, #8]
0x00011ed8:  e2832001      add	r2, r3, #1	; 0x1
0x00011edc:  e51b3030      ldr	r3, [fp, #-48]
0x00011ee0:  e5832008      str	r2, [r3, #8]
0x00011ee4:  e51b3030      ldr	r3, [fp, #-48]
0x00011ee8:  e5932020      ldr	r2, [r3, #32]
0x00011eec:  e51b3030      ldr	r3, [fp, #-48]
0x00011ef0:  e5933018      ldr	r3, [r3, #24]
0x00011ef4:  e2830001      add	r0, r3, #1	; 0x1
0x00011ef8:  e51b1030      ldr	r1, [fp, #-48]
0x00011efc:  e5810018      str	r0, [r1, #24]
0x00011f00:  e0823003      add	r3, r2, r3
0x00011f04:  e5d33000      ldrb	r3, [r3]
0x00011f08:  e51b202c      ldr	r2, [fp, #-44]
0x00011f0c:  e5823014      str	r3, [r2, #20]
0x00011f10:  e51b3038      ldr	r3, [fp, #-56]
0x00011f14:  e2433001      sub	r3, r3, #1	; 0x1
0x00011f18:  e50b3038      str	r3, [fp, #-56]
0x00011f1c:  e51b3028      ldr	r3, [fp, #-40]
0x00011f20:  e6ef2073      uxtb	r2, r3
0x00011f24:  e51b302c      ldr	r3, [fp, #-44]
0x00011f28:  e5c32018      strb	r2, [r3, #24]
0x00011f2c:  e51b302c      ldr	r3, [fp, #-44]
0x00011f30:  e5d33018      ldrb	r3, [r3, #24]
0x00011f34:  e3530000      cmp	r3, #0	; 0x0
0x00011f38:  0a00003a      beq	0x12028

----------------
IN: parse_symkeyenc
0x00012028:  e51b3028      ldr	r3, [fp, #-40]
0x0001202c:  e3530000      cmp	r3, #0	; 0x0
0x00012030:  0a00000e      beq	0x12070

----------------
IN: parse_symkeyenc
0x00012070:  e51b3020      ldr	r3, [fp, #-32]
0x00012074:  e3530001      cmp	r3, #1	; 0x1
0x00012078:  ea000000      b	0x12080

----------------
IN: parse_symkeyenc
0x00012080:  e3a02000      mov	r2, #0	; 0x0
0x00012084:  e51b1038      ldr	r1, [fp, #-56]
0x00012088:  e51b0030      ldr	r0, [fp, #-48]
0x0001208c:  ebffe2b8      bl	0xab74

----------------
IN: iobuf_skip_rest
0x0000ab74:  e92d4800      push	{fp, lr}
0x0000ab78:  e28db004      add	fp, sp, #4	; 0x4
0x0000ab7c:  e24dd020      sub	sp, sp, #32	; 0x20
0x0000ab80:  e50b0018      str	r0, [fp, #-24]
0x0000ab84:  e50b101c      str	r1, [fp, #-28]
0x0000ab88:  e50b2020      str	r2, [fp, #-32]
0x0000ab8c:  e51b3020      ldr	r3, [fp, #-32]
0x0000ab90:  e3530000      cmp	r3, #0	; 0x0
0x0000ab94:  0a000022      beq	0xac24

----------------
IN: iobuf_skip_rest
0x0000ac24:  e51b301c      ldr	r3, [fp, #-28]
0x0000ac28:  e50b3008      str	r3, [fp, #-8]
0x0000ac2c:  ea000030      b	0xacf4

----------------
IN: iobuf_skip_rest
0x0000acf4:  e51b3008      ldr	r3, [fp, #-8]
0x0000acf8:  e3530000      cmp	r3, #0	; 0x0
0x0000acfc:  1affffcb      bne	0xac30

----------------
IN: iobuf_skip_rest
0x0000ad00:  ea000000      b	0xad08

----------------
IN: iobuf_skip_rest
0x0000ad08:  e320f000      nop	{0}
0x0000ad0c:  e24bd004      sub	sp, fp, #4	; 0x4
0x0000ad10:  e8bd8800      pop	{fp, pc}

----------------
IN: parse_symkeyenc
0x00012090:  e51b3008      ldr	r3, [fp, #-8]
0x00012094:  ea000017      b	0x120f8

----------------
IN: parse_symkeyenc
0x000120f8:  e1a00003      mov	r0, r3
0x000120fc:  e24bd004      sub	sp, fp, #4	; 0x4
0x00012100:  e8bd8800      pop	{fp, pc}

----------------
IN: parse
0x00011340:  e50b0008      str	r0, [fp, #-8]
0x00011344:  ea00001a      b	0x113b4

----------------
IN: parse
0x000113b4:  e51b1048      ldr	r1, [fp, #-72]
0x000113b8:  e3a00000      mov	r0, #0	; 0x0
0x000113bc:  ebffeaaa      bl	0xbe6c

----------------
IN: free_packet
0x0000be6c:  e92d4800      push	{fp, lr}
0x0000be70:  e28db004      add	fp, sp, #4	; 0x4
0x0000be74:  e24dd008      sub	sp, sp, #8	; 0x8
0x0000be78:  e50b0008      str	r0, [fp, #-8]
0x0000be7c:  e50b100c      str	r1, [fp, #-12]
0x0000be80:  e51b3008      ldr	r3, [fp, #-8]
0x0000be84:  e3530000      cmp	r3, #0	; 0x0
0x0000be88:  0a000003      beq	0xbe9c

----------------
IN: free_packet
0x0000be9c:  e51b300c      ldr	r3, [fp, #-12]
0x0000bea0:  e3530000      cmp	r3, #0	; 0x0
0x0000bea4:  0a000018      beq	0xbf0c

----------------
IN: free_packet
0x0000bea8:  e51b300c      ldr	r3, [fp, #-12]
0x0000beac:  e5933008      ldr	r3, [r3, #8]
0x0000beb0:  e3530000      cmp	r3, #0	; 0x0
0x0000beb4:  0a000014      beq	0xbf0c

----------------
IN: free_packet
0x0000bf0c:  e320f000      nop	{0}
0x0000bf10:  e24bd004      sub	sp, fp, #4	; 0x4
0x0000bf14:  e8bd8800      pop	{fp, pc}

----------------
IN: parse
0x000113c0:  e51b3008      ldr	r3, [fp, #-8]
0x000113c4:  e3530000      cmp	r3, #0	; 0x0
0x000113c8:  1a000016      bne	0x11428

----------------
IN: parse
0x000113cc:  e51b300c      ldr	r3, [fp, #-12]
0x000113d0:  e3530006      cmp	r3, #6	; 0x6
0x000113d4:  0a00000b      beq	0x11408

----------------
IN: parse
0x000113d8:  e51b300c      ldr	r3, [fp, #-12]
0x000113dc:  e3530005      cmp	r3, #5	; 0x5
0x000113e0:  0a000008      beq	0x11408

----------------
IN: parse
0x000113e4:  e51b300c      ldr	r3, [fp, #-12]
0x000113e8:  e353000d      cmp	r3, #13	; 0xd
0x000113ec:  0a000005      beq	0x11408

----------------
IN: parse
0x000113f0:  e51b300c      ldr	r3, [fp, #-12]
0x000113f4:  e3530011      cmp	r3, #17	; 0x11
0x000113f8:  0a000002      beq	0x11408

----------------
IN: parse
0x000113fc:  e51b300c      ldr	r3, [fp, #-12]

----------------
IN: parse
0x00011400:  e3530002      cmp	r3, #2	; 0x2
0x00011404:  1a000007      bne	0x11428

----------------
IN: parse
0x00011428:  e320f000      nop	{0}
0x0001142c:  e51b3008      ldr	r3, [fp, #-8]
0x00011430:  e3530000      cmp	r3, #0	; 0x0
0x00011434:  1a000005      bne	0x11450

----------------
IN: parse
0x00011438:  e51b302c      ldr	r3, [fp, #-44]
0x0001143c:  e5933028      ldr	r3, [r3, #40]
0x00011440:  e3530000      cmp	r3, #0	; 0x0
0x00011444:  0a000001      beq	0x11450

----------------
IN: parse
0x00011450:  e51b3008      ldr	r3, [fp, #-8]
0x00011454:  e3730001      cmn	r3, #1	; 0x1
0x00011458:  0a000004      beq	0x11470

----------------
IN: parse
0x0001145c:  e51b3008      ldr	r3, [fp, #-8]
0x00011460:  e1a00003      mov	r0, r3
0x00011464:  ebfffd41      bl	0x10970

----------------
IN: gpg_err_code
0x00010970:  e52db004      push	{fp}		; (str fp, [sp, #-4]!)
0x00010974:  e28db000      add	fp, sp, #0	; 0x0
0x00010978:  e24dd00c      sub	sp, sp, #12	; 0xc
0x0001097c:  e50b0008      str	r0, [fp, #-8]
0x00010980:  e51b3008      ldr	r3, [fp, #-8]
0x00010984:  e6ff3073      uxth	r3, r3
0x00010988:  e1a00003      mov	r0, r3
0x0001098c:  e28bd000      add	sp, fp, #0	; 0x0
0x00010990:  e49db004      pop	{fp}		; (ldr fp, [sp], #4)
0x00010994:  e12fff1e      bx	lr

----------------
IN: parse
0x00011468:  e1a03000      mov	r3, r0
0x0001146c:  ea000000      b	0x11474

----------------
IN: parse
0x00011474:  e1a00003      mov	r0, r3
0x00011478:  e24bd004      sub	sp, fp, #4	; 0x4
0x0001147c:  e8bd8800      pop	{fp, pc}

----------------
IN: dbg_parse_packet
0x00010a68:  e50b0008      str	r0, [fp, #-8]
0x00010a6c:  e51b300c      ldr	r3, [fp, #-12]
0x00010a70:  e3530000      cmp	r3, #0	; 0x0
0x00010a74:  0a000002      beq	0x10a84

----------------
IN: dbg_parse_packet
0x00010a84:  e51b3008      ldr	r3, [fp, #-8]
0x00010a88:  e1a00003      mov	r0, r3
0x00010a8c:  e24bd004      sub	sp, fp, #4	; 0x4
0x00010a90:  e8bd8800      pop	{fp, pc}

----------------
IN: do_proc_packets
0x00013b60:  e50b000c      str	r0, [fp, #-12]
0x00013b64:  e51b300c      ldr	r3, [fp, #-12]
0x00013b68:  e3730001      cmn	r3, #1	; 0x1
0x00013b6c:  1affff94      bne	0x139c4

----------------
IN: do_proc_packets
0x000139c4:  e3a03001      mov	r3, #1	; 0x1
0x000139c8:  e50b3010      str	r3, [fp, #-16]
0x000139cc:  e51b300c      ldr	r3, [fp, #-12]
0x000139d0:  e3530000      cmp	r3, #0	; 0x0
0x000139d4:  0a000004      beq	0x139ec

----------------
IN: do_proc_packets
0x000139ec:  e3e03000      mvn	r3, #0	; 0x0
0x000139f0:  e50b3014      str	r3, [fp, #-20]
0x000139f4:  e51b303c      ldr	r3, [fp, #-60]
0x000139f8:  e5933014      ldr	r3, [r3, #20]
0x000139fc:  e3530000      cmp	r3, #0	; 0x0
0x00013a00:  0a000025      beq	0x13a9c

----------------
IN: do_proc_packets
0x00013a04:  e51b3008      ldr	r3, [fp, #-8]
0x00013a08:  e5d33000      ldrb	r3, [r3]
0x00013a0c:  e2433003      sub	r3, r3, #3	; 0x3
0x00013a10:  e3530011      cmp	r3, #17	; 0x11
0x00013a14:  979ff103      ldrls	pc, [pc, r3, lsl #2]

----------------
IN: do_proc_packets
0x00013a70:  e51b1008      ldr	r1, [fp, #-8]
0x00013a74:  e51b003c      ldr	r0, [fp, #-60]
0x00013a78:  ebfffe6f      bl	0x1343c

----------------
IN: proc_symkey_enc
0x0001343c:  e92d4810      push	{r4, fp, lr}
0x00013440:  e28db008      add	fp, sp, #8	; 0x8
0x00013444:  e24dd024      sub	sp, sp, #36	; 0x24
0x00013448:  e50b0028      str	r0, [fp, #-40]
0x0001344c:  e50b102c      str	r1, [fp, #-44]
0x00013450:  e51b302c      ldr	r3, [fp, #-44]
0x00013454:  e5933004      ldr	r3, [r3, #4]
0x00013458:  e50b3010      str	r3, [fp, #-16]
0x0001345c:  e51b3010      ldr	r3, [fp, #-16]
0x00013460:  e3530000      cmp	r3, #0	; 0x0
0x00013464:  1a000003      bne	0x13478

----------------
IN: proc_symkey_enc
0x00013478:  e51b3028      ldr	r3, [fp, #-40]
0x0001347c:  e593302c      ldr	r3, [r3, #44]
0x00013480:  e3530000      cmp	r3, #0	; 0x0
0x00013484:  1a00003e      bne	0x13584

----------------
IN: proc_symkey_enc
0x00013488:  e51b3010      ldr	r3, [fp, #-16]
0x0001348c:  e5d33001      ldrb	r3, [r3, #1]
0x00013490:  e50b3014      str	r3, [fp, #-20]
0x00013494:  e305321c      movw	r3, #21020	; 0x521c
0x00013498:  e3403001      movt	r3, #1	; 0x1
0x0001349c:  e50b3018      str	r3, [fp, #-24]
0x000134a0:  e3053224      movw	r3, #21028	; 0x5224
0x000134a4:  e3403001      movt	r3, #1	; 0x1
0x000134a8:  e50b301c      str	r3, [fp, #-28]
0x000134ac:  e51b3028      ldr	r3, [fp, #-40]
0x000134b0:  e3a02002      mov	r2, #2	; 0x2
0x000134b4:  e5832038      str	r2, [r3, #56]
0x000134b8:  e51b3018      ldr	r3, [fp, #-24]
0x000134bc:  e3530000      cmp	r3, #0	; 0x0
0x000134c0:  0a000031      beq	0x1358c

----------------
IN: proc_symkey_enc
0x000134c4:  e51b3028      ldr	r3, [fp, #-40]
0x000134c8:  e5933034      ldr	r3, [r3, #52]
0x000134cc:  e1a00003      mov	r0, r3
0x000134d0:  ebffff73      bl	0x132a4

----------------
IN: proc_symkey_enc
0x000134d4:  e1a03000      mov	r3, r0
0x000134d8:  e2833001      add	r3, r3, #1	; 0x1
0x000134dc:  e50b3020      str	r3, [fp, #-32]
0x000134e0:  e51b3028      ldr	r3, [fp, #-40]
0x000134e4:  e593402c      ldr	r4, [r3, #44]
0x000134e8:  e51b0020      ldr	r0, [fp, #-32]
0x000134ec:  ebfff2a2      bl	0xff7c

----------------
IN: proc_symkey_enc
0x000134f0:  e1a03000      mov	r3, r0
0x000134f4:  e584300c      str	r3, [r4, #12]
0x000134f8:  e51b3028      ldr	r3, [fp, #-40]
0x000134fc:  e593302c      ldr	r3, [r3, #44]
0x00013500:  e593000c      ldr	r0, [r3, #12]
0x00013504:  e51b3028      ldr	r3, [fp, #-40]
0x00013508:  e5933034      ldr	r3, [r3, #52]
0x0001350c:  e51b2020      ldr	r2, [fp, #-32]
0x00013510:  e1a01003      mov	r1, r3
0x00013514:  ebfff3e0      bl	0x1049c

----------------
IN: proc_symkey_enc
0x00013518:  e51b3028      ldr	r3, [fp, #-40]
0x0001351c:  e593302c      ldr	r3, [r3, #44]
0x00013520:  e3530000      cmp	r3, #0	; 0x0
0x00013524:  0a000016      beq	0x13584

----------------
IN: proc_symkey_enc
0x00013584:  e320f000      nop	{0}
0x00013588:  ea000000      b	0x13590

----------------
IN: proc_symkey_enc
0x00013590:  e3a01010      mov	r1, #16	; 0x10
0x00013594:  e3a00001      mov	r0, #1	; 0x1
0x00013598:  ebfff346      bl	0x102b8

----------------
IN: proc_symkey_enc
0x0001359c:  e1a03000      mov	r3, r0
0x000135a0:  e50b3024      str	r3, [fp, #-36]
0x000135a4:  e51b3010      ldr	r3, [fp, #-16]
0x000135a8:  e3530000      cmp	r3, #0	; 0x0
0x000135ac:  0a00000e      beq	0x135ec

----------------
IN: proc_symkey_enc
0x000135b0:  e51b3010      ldr	r3, [fp, #-16]
0x000135b4:  e5d33001      ldrb	r3, [r3, #1]
0x000135b8:  e1a02003      mov	r2, r3
0x000135bc:  e51b3024      ldr	r3, [fp, #-36]
0x000135c0:  e5832004      str	r2, [r3, #4]
0x000135c4:  e51b3010      ldr	r3, [fp, #-16]
0x000135c8:  e5d33002      ldrb	r3, [r3, #2]
0x000135cc:  e3530000      cmp	r3, #0	; 0x0
0x000135d0:  03a03001      moveq	r3, #1	; 0x1
0x000135d4:  13a03000      movne	r3, #0	; 0x0
0x000135d8:  e6ef3073      uxtb	r3, r3
0x000135dc:  e1a02003      mov	r2, r3
0x000135e0:  e51b3024      ldr	r3, [fp, #-36]
0x000135e4:  e5832008      str	r2, [r3, #8]
0x000135e8:  ea000002      b	0x135f8

----------------
IN: proc_symkey_enc
0x000135f8:  e51b3028      ldr	r3, [fp, #-40]
0x000135fc:  e5932050      ldr	r2, [r3, #80]
0x00013600:  e51b3024      ldr	r3, [fp, #-36]
0x00013604:  e5832000      str	r2, [r3]
0x00013608:  e51b3028      ldr	r3, [fp, #-40]
0x0001360c:  e51b2024      ldr	r2, [fp, #-36]
0x00013610:  e5832050      str	r2, [r3, #80]
0x00013614:  e51b3028      ldr	r3, [fp, #-40]
0x00013618:  e5933048      ldr	r3, [r3, #72]
0x0001361c:  e2832001      add	r2, r3, #1	; 0x1
0x00013620:  e51b3028      ldr	r3, [fp, #-40]
0x00013624:  e5832048      str	r2, [r3, #72]
0x00013628:  e320f000      nop	{0}
0x0001362c:  e24bd008      sub	sp, fp, #8	; 0x8
0x00013630:  e8bd8810      pop	{r4, fp, pc}

----------------
IN: do_proc_packets
0x00013a7c:  ea000007      b	0x13aa0

----------------
IN: do_proc_packets
0x00013aa0:  e51b300c      ldr	r3, [fp, #-12]
0x00013aa4:  e3530000      cmp	r3, #0	; 0x0
0x00013aa8:  1a000036      bne	0x13b88

----------------
IN: do_proc_packets
0x00013aac:  e51b3008      ldr	r3, [fp, #-8]
0x00013ab0:  e5d33000      ldrb	r3, [r3]
0x00013ab4:  e3530002      cmp	r3, #2	; 0x2
0x00013ab8:  0a00000d      beq	0x13af4

----------------
IN: do_proc_packets
0x00013abc:  e51b3008      ldr	r3, [fp, #-8]
0x00013ac0:  e5d33000      ldrb	r3, [r3]
0x00013ac4:  e3530013      cmp	r3, #19	; 0x13
0x00013ac8:  0a000009      beq	0x13af4

----------------
IN: do_proc_packets
0x00013acc:  e51b3008      ldr	r3, [fp, #-8]
0x00013ad0:  e5d33000      ldrb	r3, [r3]
0x00013ad4:  e353000b      cmp	r3, #11	; 0xb
0x00013ad8:  03a03001      moveq	r3, #1	; 0x1
0x00013adc:  13a03000      movne	r3, #0	; 0x0
0x00013ae0:  e6ef1073      uxtb	r1, r3
0x00013ae4:  e51b203c      ldr	r2, [fp, #-60]
0x00013ae8:  e5d2305c      ldrb	r3, [r2, #92]
0x00013aec:  e7c13091      bfi	r3, r1, #1, #1
0x00013af0:  e5c2305c      strb	r3, [r2, #92]
0x00013af4:  e51b3014      ldr	r3, [fp, #-20]
0x00013af8:  e3730001      cmn	r3, #1	; 0x1
0x00013afc:  0a000011      beq	0x13b48

----------------
IN: parse
0x00010c64:  e51b3034      ldr	r3, [fp, #-52]
0x00010c68:  e203303f      and	r3, r3, #63	; 0x3f
0x00010c6c:  e50b300c      str	r3, [fp, #-12]
0x00010c70:  e51b302c      ldr	r3, [fp, #-44]
0x00010c74:  e5933010      ldr	r3, [r3, #16]
0x00010c78:  e3530000      cmp	r3, #0	; 0x0
0x00010c7c:  1a000005      bne	0x10c98

----------------
IN: parse
0x00010c80:  e51b302c      ldr	r3, [fp, #-44]
0x00010c84:  e5932018      ldr	r2, [r3, #24]
0x00010c88:  e51b302c      ldr	r3, [fp, #-44]
0x00010c8c:  e593301c      ldr	r3, [r3, #28]
0x00010c90:  e1520003      cmp	r2, r3
0x00010c94:  3a000003      bcc	0x10ca8

----------------
IN: parse
0x00010ca8:  e51b302c      ldr	r3, [fp, #-44]
0x00010cac:  e5933008      ldr	r3, [r3, #8]
0x00010cb0:  e2832001      add	r2, r3, #1	; 0x1
0x00010cb4:  e51b302c      ldr	r3, [fp, #-44]
0x00010cb8:  e5832008      str	r2, [r3, #8]
0x00010cbc:  e51b302c      ldr	r3, [fp, #-44]
0x00010cc0:  e5932020      ldr	r2, [r3, #32]
0x00010cc4:  e51b302c      ldr	r3, [fp, #-44]
0x00010cc8:  e5933018      ldr	r3, [r3, #24]
0x00010ccc:  e2830001      add	r0, r3, #1	; 0x1
0x00010cd0:  e51b102c      ldr	r1, [fp, #-44]
0x00010cd4:  e5810018      str	r0, [r1, #24]
0x00010cd8:  e0823003      add	r3, r2, r3
0x00010cdc:  e5d33000      ldrb	r3, [r3]
0x00010ce0:  e50b3038      str	r3, [fp, #-56]
0x00010ce4:  e51b3038      ldr	r3, [fp, #-56]
0x00010ce8:  e3730001      cmn	r3, #1	; 0x1
0x00010cec:  1a000005      bne	0x10d08

----------------
IN: parse
0x00010d08:  e51b3018      ldr	r3, [fp, #-24]
0x00010d0c:  e2832001      add	r2, r3, #1	; 0x1
0x00010d10:  e50b2018      str	r2, [fp, #-24]
0x00010d14:  e51b2038      ldr	r2, [fp, #-56]
0x00010d18:  e6ef2072      uxtb	r2, r2
0x00010d1c:  e2433004      sub	r3, r3, #4	; 0x4
0x00010d20:  e083300b      add	r3, r3, fp
0x00010d24:  e543203c      strb	r2, [r3, #-60]
0x00010d28:  e51b3038      ldr	r3, [fp, #-56]
0x00010d2c:  e35300bf      cmp	r3, #191	; 0xbf
0x00010d30:  ca000002      bgt	0x10d40

----------------
IN: parse
0x00010d40:  e51b3038      ldr	r3, [fp, #-56]
0x00010d44:  e35300df      cmp	r3, #223	; 0xdf
0x00010d48:  ca000037      bgt	0x10e2c

----------------
IN: parse
0x00010e2c:  e51b3038      ldr	r3, [fp, #-56]
0x00010e30:  e35300ff      cmp	r3, #255	; 0xff
0x00010e34:  1a000043      bne	0x10f48

----------------
IN: parse
0x00010f48:  e51b300c      ldr	r3, [fp, #-12]
0x00010f4c:  e2433008      sub	r3, r3, #8	; 0x8
0x00010f50:  e353000c      cmp	r3, #12	; 0xc
0x00010f54:  979ff103      ldrls	pc, [pc, r3, lsl #2]

----------------
IN: parse
0x00010f90:  e51b3038      ldr	r3, [fp, #-56]
0x00010f94:  e6ef3073      uxtb	r3, r3
0x00010f98:  e1a01003      mov	r1, r3
0x00010f9c:  e51b002c      ldr	r0, [fp, #-44]
0x00010fa0:  ebffe6ac      bl	0xaa58

----------------
IN: iobuf_set_partial_body_length_mode
0x0000aa58:  e92d4800      push	{fp, lr}
0x0000aa5c:  e28db004      add	fp, sp, #4	; 0x4
0x0000aa60:  e24dd010      sub	sp, sp, #16	; 0x10
0x0000aa64:  e50b0010      str	r0, [fp, #-16]
0x0000aa68:  e50b1014      str	r1, [fp, #-20]
0x0000aa6c:  e51b3014      ldr	r3, [fp, #-20]
0x0000aa70:  e3530000      cmp	r3, #0	; 0x0
0x0000aa74:  1a00001a      bne	0xaae4

----------------
IN: iobuf_set_partial_body_length_mode
0x0000aae4:  e3a01020      mov	r1, #32	; 0x20
0x0000aae8:  e3a00001      mov	r0, #1	; 0x1
0x0000aaec:  eb0015f1      bl	0x102b8

----------------
IN: iobuf_set_partial_body_length_mode
0x0000aaf0:  e50b0008      str	r0, [fp, #-8]
0x0000aaf4:  e51b3010      ldr	r3, [fp, #-16]
0x0000aaf8:  e5d33000      ldrb	r3, [r3]
0x0000aafc:  e1a02003      mov	r2, r3
0x0000ab00:  e51b3008      ldr	r3, [fp, #-8]
0x0000ab04:  e5832000      str	r2, [r3]
0x0000ab08:  e51b3008      ldr	r3, [fp, #-8]
0x0000ab0c:  e3a02001      mov	r2, #1	; 0x1
0x0000ab10:  e583200c      str	r2, [r3, #12]
0x0000ab14:  e51b3008      ldr	r3, [fp, #-8]
0x0000ab18:  e3a02000      mov	r2, #0	; 0x0
0x0000ab1c:  e5832004      str	r2, [r3, #4]
0x0000ab20:  e51b2014      ldr	r2, [fp, #-20]
0x0000ab24:  e51b3008      ldr	r3, [fp, #-8]
0x0000ab28:  e5832018      str	r2, [r3, #24]
0x0000ab2c:  e51b2008      ldr	r2, [fp, #-8]
0x0000ab30:  e308153c      movw	r1, #34108	; 0x853c
0x0000ab34:  e3401000      movt	r1, #0	; 0x0
0x0000ab38:  e51b0010      ldr	r0, [fp, #-16]
0x0000ab3c:  ebfffb5e      bl	0x98bc

----------------
IN: iobuf_push_filter
0x000098bc:  e92d4800      push	{fp, lr}
0x000098c0:  e28db004      add	fp, sp, #4	; 0x4
0x000098c4:  e24dd010      sub	sp, sp, #16	; 0x10
0x000098c8:  e50b0008      str	r0, [fp, #-8]
0x000098cc:  e50b100c      str	r1, [fp, #-12]
0x000098d0:  e50b2010      str	r2, [fp, #-16]
0x000098d4:  e3a03000      mov	r3, #0	; 0x0
0x000098d8:  e51b2010      ldr	r2, [fp, #-16]
0x000098dc:  e51b100c      ldr	r1, [fp, #-12]
0x000098e0:  e51b0008      ldr	r0, [fp, #-8]
0x000098e4:  eb000003      bl	0x98f8

----------------
IN: iobuf_push_filter2
0x000098f8:  e92d4810      push	{r4, fp, lr}
0x000098fc:  e28db008      add	fp, sp, #8	; 0x8
0x00009900:  e24dd04c      sub	sp, sp, #76	; 0x4c
0x00009904:  e50b0040      str	r0, [fp, #-64]
0x00009908:  e50b1044      str	r1, [fp, #-68]
0x0000990c:  e50b2048      str	r2, [fp, #-72]
0x00009910:  e50b304c      str	r3, [fp, #-76]
0x00009914:  e3a03000      mov	r3, #0	; 0x0
0x00009918:  e50b3018      str	r3, [fp, #-24]
0x0000991c:  e3a03000      mov	r3, #0	; 0x0
0x00009920:  e50b3010      str	r3, [fp, #-16]
0x00009924:  e51b3040      ldr	r3, [fp, #-64]
0x00009928:  e5d33000      ldrb	r3, [r3]
0x0000992c:  e3530002      cmp	r3, #2	; 0x2
0x00009930:  1a000007      bne	0x9954

----------------
IN: iobuf_push_filter2
0x00009954:  e51b3040      ldr	r3, [fp, #-64]
0x00009958:  e5933044      ldr	r3, [r3, #68]
0x0000995c:  e353003f      cmp	r3, #63	; 0x3f
0x00009960:  da000004      ble	0x9978

----------------
IN: iobuf_push_filter2
0x00009978:  e3a00048      mov	r0, #72	; 0x48
0x0000997c:  eb001a1e      bl	0x101fc

----------------
IN: iobuf_push_filter2
0x00009980:  e50b0014      str	r0, [fp, #-20]
0x00009984:  e3a02048      mov	r2, #72	; 0x48
0x00009988:  e51b1040      ldr	r1, [fp, #-64]
0x0000998c:  e51b0014      ldr	r0, [fp, #-20]
0x00009990:  eb001ac1      bl	0x1049c

----------------
IN: iobuf_push_filter2
0x00009994:  e51b3040      ldr	r3, [fp, #-64]
0x00009998:  e3a02000      mov	r2, #0	; 0x0
0x0000999c:  e583202c      str	r2, [r3, #44]
0x000099a0:  e51b3040      ldr	r3, [fp, #-64]
0x000099a4:  e3a02000      mov	r2, #0	; 0x0
0x000099a8:  e5832030      str	r2, [r3, #48]
0x000099ac:  e51b3040      ldr	r3, [fp, #-64]
0x000099b0:  e3a02000      mov	r2, #0	; 0x0
0x000099b4:  e5832034      str	r2, [r3, #52]
0x000099b8:  e51b3040      ldr	r3, [fp, #-64]
0x000099bc:  e3a02000      mov	r2, #0	; 0x0
0x000099c0:  e5832024      str	r2, [r3, #36]
0x000099c4:  e51b3040      ldr	r3, [fp, #-64]
0x000099c8:  e5d33000      ldrb	r3, [r3]
0x000099cc:  e3530003      cmp	r3, #3	; 0x3
0x000099d0:  1a000006      bne	0x99f0

----------------
IN: iobuf_push_filter2
0x000099f0:  e51b3040      ldr	r3, [fp, #-64]
0x000099f4:  e5d33000      ldrb	r3, [r3]
0x000099f8:  e3530001      cmp	r3, #1	; 0x1
0x000099fc:  1a000005      bne	0x9a18

----------------
IN: iobuf_push_filter2
0x00009a00:  e51b3040      ldr	r3, [fp, #-64]
0x00009a04:  e3a02000      mov	r2, #0	; 0x0
0x00009a08:  e5c32000      strb	r2, [r3]
0x00009a0c:  e51b3040      ldr	r3, [fp, #-64]
0x00009a10:  e3a02a02      mov	r2, #8192	; 0x2000
0x00009a14:  e5832014      str	r2, [r3, #20]
0x00009a18:  e51b3040      ldr	r3, [fp, #-64]
0x00009a1c:  e5933014      ldr	r3, [r3, #20]
0x00009a20:  e1a00003      mov	r0, r3
0x00009a24:  eb0019f4      bl	0x101fc

----------------
IN: iobuf_push_filter2
0x00009a28:  e1a02000      mov	r2, r0
0x00009a2c:  e51b3040      ldr	r3, [fp, #-64]
0x00009a30:  e5832020      str	r2, [r3, #32]
0x00009a34:  e51b3040      ldr	r3, [fp, #-64]
0x00009a38:  e3a02000      mov	r2, #0	; 0x0
0x00009a3c:  e583201c      str	r2, [r3, #28]
0x00009a40:  e51b3040      ldr	r3, [fp, #-64]
0x00009a44:  e3a02000      mov	r2, #0	; 0x0
0x00009a48:  e5832018      str	r2, [r3, #24]
0x00009a4c:  e51b3014      ldr	r3, [fp, #-20]
0x00009a50:  e593200c      ldr	r2, [r3, #12]
0x00009a54:  e51b3014      ldr	r3, [fp, #-20]
0x00009a58:  e5933008      ldr	r3, [r3, #8]
0x00009a5c:  e0822003      add	r2, r2, r3
0x00009a60:  e51b3040      ldr	r3, [fp, #-64]
0x00009a64:  e583200c      str	r2, [r3, #12]
0x00009a68:  e51b3040      ldr	r3, [fp, #-64]
0x00009a6c:  e3a02000      mov	r2, #0	; 0x0
0x00009a70:  e5832008      str	r2, [r3, #8]
0x00009a74:  e51b3040      ldr	r3, [fp, #-64]
0x00009a78:  e5932008      ldr	r2, [r3, #8]
0x00009a7c:  e51b3040      ldr	r3, [fp, #-64]
0x00009a80:  e5832004      str	r2, [r3, #4]
0x00009a84:  e51b3040      ldr	r3, [fp, #-64]
0x00009a88:  e3a02000      mov	r2, #0	; 0x0
0x00009a8c:  e5832010      str	r2, [r3, #16]
0x00009a90:  e51b3040      ldr	r3, [fp, #-64]
0x00009a94:  e51b2014      ldr	r2, [fp, #-20]
0x00009a98:  e583203c      str	r2, [r3, #60]
0x00009a9c:  e51b3040      ldr	r3, [fp, #-64]
0x00009aa0:  e51b2044      ldr	r2, [fp, #-68]
0x00009aa4:  e583202c      str	r2, [r3, #44]
0x00009aa8:  e51b3040      ldr	r3, [fp, #-64]
0x00009aac:  e51b2048      ldr	r2, [fp, #-72]
0x00009ab0:  e5832030      str	r2, [r3, #48]
0x00009ab4:  e51b3040      ldr	r3, [fp, #-64]
0x00009ab8:  e51b204c      ldr	r2, [fp, #-76]
0x00009abc:  e5832034      str	r2, [r3, #52]
0x00009ac0:  e51b3014      ldr	r3, [fp, #-20]
0x00009ac4:  e5933044      ldr	r3, [r3, #68]
0x00009ac8:  e2832001      add	r2, r3, #1	; 0x1
0x00009acc:  e51b3040      ldr	r3, [fp, #-64]
0x00009ad0:  e5832044      str	r2, [r3, #68]
0x00009ad4:  e30d3004      movw	r3, #53252	; 0xd004
0x00009ad8:  e3403004      movt	r3, #4	; 0x4
0x00009adc:  e5933000      ldr	r3, [r3]
0x00009ae0:  e3530000      cmp	r3, #0	; 0x0
0x00009ae4:  0a000001      beq	0x9af0

----------------
IN: iobuf_push_filter2
0x00009af0:  e51b3040      ldr	r3, [fp, #-64]
0x00009af4:  e593302c      ldr	r3, [r3, #44]
0x00009af8:  e3530000      cmp	r3, #0	; 0x0
0x00009afc:  0a000010      beq	0x9b44

----------------
IN: iobuf_push_filter2
0x00009b00:  e51b3040      ldr	r3, [fp, #-64]
0x00009b04:  e593402c      ldr	r4, [r3, #44]
0x00009b08:  e51b3040      ldr	r3, [fp, #-64]
0x00009b0c:  e5930030      ldr	r0, [r3, #48]
0x00009b10:  e51b3040      ldr	r3, [fp, #-64]
0x00009b14:  e593203c      ldr	r2, [r3, #60]
0x00009b18:  e24b3018      sub	r3, fp, #24	; 0x18
0x00009b1c:  e58d3000      str	r3, [sp]
0x00009b20:  e3a03000      mov	r3, #0	; 0x0
0x00009b24:  e3a01001      mov	r1, #1	; 0x1
0x00009b28:  e12fff34      blx	r4

----------------
IN: block_filter
0x0000853c:  e92d4800      push	{fp, lr}
0x00008540:  e28db004      add	fp, sp, #4	; 0x4
0x00008544:  e24dd040      sub	sp, sp, #64	; 0x40
0x00008548:  e50b0038      str	r0, [fp, #-56]
0x0000854c:  e50b103c      str	r1, [fp, #-60]
0x00008550:  e50b2040      str	r2, [fp, #-64]
0x00008554:  e50b3044      str	r3, [fp, #-68]
0x00008558:  e51b3038      ldr	r3, [fp, #-56]
0x0000855c:  e50b3028      str	r3, [fp, #-40]
0x00008560:  e51b3044      ldr	r3, [fp, #-68]
0x00008564:  e50b302c      str	r3, [fp, #-44]
0x00008568:  e59b3004      ldr	r3, [fp, #4]
0x0000856c:  e5933000      ldr	r3, [r3]
0x00008570:  e50b3008      str	r3, [fp, #-8]
0x00008574:  e3a03000      mov	r3, #0	; 0x0
0x00008578:  e50b3010      str	r3, [fp, #-16]
0x0000857c:  e51b303c      ldr	r3, [fp, #-60]
0x00008580:  e3530003      cmp	r3, #3	; 0x3
0x00008584:  1a00019e      bne	0x8c04

----------------
IN: block_filter
0x00008c04:  e51b303c      ldr	r3, [fp, #-60]
0x00008c08:  e3530004      cmp	r3, #4	; 0x4
0x00008c0c:  1a0000a7      bne	0x8eb0

----------------
IN: block_filter
0x00008eb0:  e51b303c      ldr	r3, [fp, #-60]
0x00008eb4:  e3530001      cmp	r3, #1	; 0x1
0x00008eb8:  1a000021      bne	0x8f44

----------------
IN: block_filter
0x00008ebc:  e51b3028      ldr	r3, [fp, #-40]
0x00008ec0:  e593300c      ldr	r3, [r3, #12]
0x00008ec4:  e3530000      cmp	r3, #0	; 0x0
0x00008ec8:  0a000003      beq	0x8edc

----------------
IN: block_filter
0x00008ecc:  e51b3028      ldr	r3, [fp, #-40]
0x00008ed0:  e3a02000      mov	r2, #0	; 0x0
0x00008ed4:  e5832008      str	r2, [r3, #8]
0x00008ed8:  ea00000f      b	0x8f1c

----------------
IN: block_filter
0x00008f1c:  e51b3028      ldr	r3, [fp, #-40]
0x00008f20:  e3a02000      mov	r2, #0	; 0x0
0x00008f24:  e583201c      str	r2, [r3, #28]
0x00008f28:  e51b3028      ldr	r3, [fp, #-40]
0x00008f2c:  e3a02000      mov	r2, #0	; 0x0
0x00008f30:  e5832010      str	r2, [r3, #16]
0x00008f34:  e51b3028      ldr	r3, [fp, #-40]
0x00008f38:  e3a02000      mov	r2, #0	; 0x0
0x00008f3c:  e5832014      str	r2, [r3, #20]
0x00008f40:  ea000077      b	0x9124

----------------
IN: block_filter
0x00009124:  e51b3010      ldr	r3, [fp, #-16]
0x00009128:  e1a00003      mov	r0, r3
0x0000912c:  e24bd004      sub	sp, fp, #4	; 0x4
0x00009130:  e8bd8800      pop	{fp, pc}

----------------
IN: iobuf_push_filter2
0x00009b2c:  e50b0010      str	r0, [fp, #-16]
0x00009b30:  e51b3010      ldr	r3, [fp, #-16]
0x00009b34:  e3530000      cmp	r3, #0	; 0x0
0x00009b38:  0a000001      beq	0x9b44

----------------
IN: iobuf_push_filter2
0x00009b44:  e1a00003      mov	r0, r3
0x00009b48:  e24bd008      sub	sp, fp, #8	; 0x8
0x00009b4c:  e8bd8810      pop	{r4, fp, pc}

----------------
IN: iobuf_push_filter
0x000098e8:  e1a03000      mov	r3, r0
0x000098ec:  e1a00003      mov	r0, r3
0x000098f0:  e24bd004      sub	sp, fp, #4	; 0x4
0x000098f4:  e8bd8800      pop	{fp, pc}

----------------
IN: iobuf_set_partial_body_length_mode
0x0000ab40:  e320f000      nop	{0}
0x0000ab44:  e24bd004      sub	sp, fp, #4	; 0x4
0x0000ab48:  e8bd8800      pop	{fp, pc}

----------------
IN: parse
0x00010fa4:  e3a03000      mov	r3, #0	; 0x0
0x00010fa8:  e50b3014      str	r3, [fp, #-20]
0x00010fac:  e3a03001      mov	r3, #1	; 0x1
0x00010fb0:  e50b301c      str	r3, [fp, #-28]
0x00010fb4:  ea00006a      b	0x11164

----------------
IN: parse
0x00011348:  e51b301c      ldr	r3, [fp, #-28]
0x0001134c:  e58d3004      str	r3, [sp, #4]
0x00011350:  e51b3024      ldr	r3, [fp, #-36]
0x00011354:  e58d3000      str	r3, [sp]
0x00011358:  e51b304c      ldr	r3, [fp, #-76]
0x0001135c:  e51b2014      ldr	r2, [fp, #-20]
0x00011360:  e51b100c      ldr	r1, [fp, #-12]
0x00011364:  e51b002c      ldr	r0, [fp, #-44]
0x00011368:  eb000365      bl	0x12104

----------------
IN: parse_encrypted
0x00012104:  e92d4800      push	{fp, lr}
0x00012108:  e28db004      add	fp, sp, #4	; 0x4
0x0001210c:  e24dd020      sub	sp, sp, #32	; 0x20
0x00012110:  e50b0018      str	r0, [fp, #-24]
0x00012114:  e50b101c      str	r1, [fp, #-28]
0x00012118:  e50b2020      str	r2, [fp, #-32]
0x0001211c:  e50b3024      str	r3, [fp, #-36]
0x00012120:  e3a03000      mov	r3, #0	; 0x0
0x00012124:  e50b3008      str	r3, [fp, #-8]
0x00012128:  e51b3020      ldr	r3, [fp, #-32]
0x0001212c:  e50b300c      str	r3, [fp, #-12]
0x00012130:  e3a00014      mov	r0, #20	; 0x14
0x00012134:  ebfff830      bl	0x101fc

----------------
IN: parse_encrypted
0x00012138:  e1a02000      mov	r2, r0
0x0001213c:  e51b3024      ldr	r3, [fp, #-36]
0x00012140:  e5832004      str	r2, [r3, #4]
0x00012144:  e51b3024      ldr	r3, [fp, #-36]
0x00012148:  e5933004      ldr	r3, [r3, #4]
0x0001214c:  e50b3010      str	r3, [fp, #-16]
0x00012150:  e51b3010      ldr	r3, [fp, #-16]
0x00012154:  e3a02000      mov	r2, #0	; 0x0
0x00012158:  e5832004      str	r2, [r3, #4]
0x0001215c:  e51b3010      ldr	r3, [fp, #-16]
0x00012160:  e3a02000      mov	r2, #0	; 0x0
0x00012164:  e5832010      str	r2, [r3, #16]
0x00012168:  e59b3004      ldr	r3, [fp, #4]
0x0001216c:  e6ef2073      uxtb	r2, r3
0x00012170:  e51b3010      ldr	r3, [fp, #-16]
0x00012174:  e5c32008      strb	r2, [r3, #8]
0x00012178:  e59b3008      ldr	r3, [fp, #8]
0x0001217c:  e6ef2073      uxtb	r2, r3
0x00012180:  e51b3010      ldr	r3, [fp, #-16]
0x00012184:  e5c32009      strb	r2, [r3, #9]
0x00012188:  e51b3010      ldr	r3, [fp, #-16]
0x0001218c:  e3a02000      mov	r2, #0	; 0x0
0x00012190:  e5c3200b      strb	r2, [r3, #11]
0x00012194:  e51b3010      ldr	r3, [fp, #-16]
0x00012198:  e3a02000      mov	r2, #0	; 0x0
0x0001219c:  e5c3200c      strb	r2, [r3, #12]
0x000121a0:  e51b3010      ldr	r3, [fp, #-16]
0x000121a4:  e3a02000      mov	r2, #0	; 0x0
0x000121a8:  e5c3200d      strb	r2, [r3, #13]
0x000121ac:  e51b301c      ldr	r3, [fp, #-28]
0x000121b0:  e3530012      cmp	r3, #18	; 0x12
0x000121b4:  1a000033      bne	0x12288

----------------
IN: parse_encrypted
0x00012288:  e51b3010      ldr	r3, [fp, #-16]
0x0001228c:  e3a02000      mov	r2, #0	; 0x0
0x00012290:  e5c3200a      strb	r2, [r3, #10]
0x00012294:  e51b300c      ldr	r3, [fp, #-12]
0x00012298:  e3530000      cmp	r3, #0	; 0x0
0x0001229c:  0a00000d      beq	0x122d8

----------------
IN: parse_encrypted
0x000122d8:  e51b3010      ldr	r3, [fp, #-16]
0x000122dc:  e51b2020      ldr	r2, [fp, #-32]
0x000122e0:  e5832000      str	r2, [r3]
0x000122e4:  e51b3010      ldr	r3, [fp, #-16]
0x000122e8:  e5933000      ldr	r3, [r3]
0x000122ec:  e3530000      cmp	r3, #0	; 0x0
0x000122f0:  0a000005      beq	0x1230c

----------------
IN: parse_encrypted
0x0001230c:  e30d3010      movw	r3, #53264	; 0xd010
0x00012310:  e3403004      movt	r3, #4	; 0x4
0x00012314:  e5933000      ldr	r3, [r3]
0x00012318:  e3530000      cmp	r3, #0	; 0x0
0x0001231c:  0a00001f      beq	0x123a0

----------------
IN: parse_encrypted
0x000123a0:  e51b3010      ldr	r3, [fp, #-16]
0x000123a4:  e51b2018      ldr	r2, [fp, #-24]
0x000123a8:  e5832010      str	r2, [r3, #16]
0x000123ac:  e51b3008      ldr	r3, [fp, #-8]
0x000123b0:  e1a00003      mov	r0, r3
0x000123b4:  e24bd004      sub	sp, fp, #4	; 0x4
0x000123b8:  e8bd8800      pop	{fp, pc}

----------------
IN: parse
0x0001136c:  e50b0008      str	r0, [fp, #-8]
0x00011370:  ea00000f      b	0x113b4

----------------
IN: do_proc_packets
0x00013a80:  e51b1008      ldr	r1, [fp, #-8]
0x00013a84:  e51b003c      ldr	r0, [fp, #-60]
0x00013a88:  ebfffee9      bl	0x13634

----------------
IN: proc_encrypted
0x00013634:  e92d4800      push	{fp, lr}
0x00013638:  e28db004      add	fp, sp, #4	; 0x4
0x0001363c:  e24dd020      sub	sp, sp, #32	; 0x20
0x00013640:  e50b0018      str	r0, [fp, #-24]
0x00013644:  e50b101c      str	r1, [fp, #-28]
0x00013648:  e3a03000      mov	r3, #0	; 0x0
0x0001364c:  e50b300c      str	r3, [fp, #-12]
0x00013650:  e30d3020      movw	r3, #53280	; 0xd020
0x00013654:  e3403004      movt	r3, #4	; 0x4
0x00013658:  e5933000      ldr	r3, [r3]
0x0001365c:  e50b3010      str	r3, [fp, #-16]
0x00013660:  e3a03000      mov	r3, #0	; 0x0
0x00013664:  e50b3008      str	r3, [fp, #-8]
0x00013668:  e51b301c      ldr	r3, [fp, #-28]
0x0001366c:  e5d33000      ldrb	r3, [r3]
0x00013670:  e3530014      cmp	r3, #20	; 0x14
0x00013674:  1a000002      bne	0x13684

----------------
IN: proc_encrypted
0x00013684:  e51b301c      ldr	r3, [fp, #-28]
0x00013688:  e5d33000      ldrb	r3, [r3]
0x0001368c:  e3530012      cmp	r3, #18	; 0x12
0x00013690:  1a000002      bne	0x136a0

----------------
IN: proc_encrypted
0x000136a0:  e51b3010      ldr	r3, [fp, #-16]
0x000136a4:  e3530000      cmp	r3, #0	; 0x0
0x000136a8:  0a000006      beq	0x136c8

----------------
IN: proc_encrypted
0x000136c8:  e51b300c      ldr	r3, [fp, #-12]
0x000136cc:  e3530000      cmp	r3, #0	; 0x0
0x000136d0:  1a000014      bne	0x13728

----------------
IN: proc_encrypted
0x000136d4:  e51b3018      ldr	r3, [fp, #-24]
0x000136d8:  e5930000      ldr	r0, [r3]
0x000136dc:  e51b301c      ldr	r3, [fp, #-28]
0x000136e0:  e5932004      ldr	r2, [r3, #4]
0x000136e4:  e51b3018      ldr	r3, [fp, #-24]
0x000136e8:  e593102c      ldr	r1, [r3, #44]
0x000136ec:  e24b3014      sub	r3, fp, #20	; 0x14
0x000136f0:  e58d3000      str	r3, [sp]
0x000136f4:  e1a03001      mov	r3, r1
0x000136f8:  e51b1018      ldr	r1, [fp, #-24]
0x000136fc:  ebffdeee      bl	0xb2bc

----------------
IN: decrypt_data
0x0000b2bc:  e92d4830      push	{r4, r5, fp, lr}
0x0000b2c0:  e28db00c      add	fp, sp, #12	; 0xc
0x0000b2c4:  e24dd060      sub	sp, sp, #96	; 0x60
0x0000b2c8:  e50b0058      str	r0, [fp, #-88]
0x0000b2cc:  e50b105c      str	r1, [fp, #-92]
0x0000b2d0:  e50b2060      str	r2, [fp, #-96]
0x0000b2d4:  e50b3064      str	r3, [fp, #-100]
0x0000b2d8:  e3a03000      mov	r3, #0	; 0x0
0x0000b2dc:  e50b3010      str	r3, [fp, #-16]
0x0000b2e0:  e59b3004      ldr	r3, [fp, #4]
0x0000b2e4:  e3a02000      mov	r2, #0	; 0x0
0x0000b2e8:  e5832000      str	r2, [r3]
0x0000b2ec:  e3a01080      mov	r1, #128	; 0x80
0x0000b2f0:  e3a00001      mov	r0, #1	; 0x1
0x0000b2f4:  eb0014f1      bl	0x106c0

----------------
IN: xtrycalloc
0x000106c0:  e92d4800      push	{fp, lr}
0x000106c4:  e28db004      add	fp, sp, #4	; 0x4
0x000106c8:  e24dd010      sub	sp, sp, #16	; 0x10
0x000106cc:  e50b0010      str	r0, [fp, #-16]
0x000106d0:  e50b1014      str	r1, [fp, #-20]
0x000106d4:  e51b3010      ldr	r3, [fp, #-16]
0x000106d8:  e3530000      cmp	r3, #0	; 0x0
0x000106dc:  0a00000c      beq	0x10714

----------------
IN: xtrycalloc
0x000106e0:  e51b3014      ldr	r3, [fp, #-20]
0x000106e4:  e3530000      cmp	r3, #0	; 0x0
0x000106e8:  0a000009      beq	0x10714

----------------
IN: xtrycalloc
0x000106ec:  e51b3010      ldr	r3, [fp, #-16]
0x000106f0:  e51b2014      ldr	r2, [fp, #-20]
0x000106f4:  e0020392      mul	r2, r2, r3
0x000106f8:  e51b3010      ldr	r3, [fp, #-16]
0x000106fc:  e733f312      udiv	r3, r2, r3
0x00010700:  e51b2014      ldr	r2, [fp, #-20]
0x00010704:  e1520003      cmp	r2, r3
0x00010708:  0a000001      beq	0x10714

----------------
IN: xtrycalloc
0x00010714:  e51b3010      ldr	r3, [fp, #-16]
0x00010718:  e51b2014      ldr	r2, [fp, #-20]
0x0001071c:  e0030392      mul	r3, r2, r3
0x00010720:  e50b3008      str	r3, [fp, #-8]
0x00010724:  e51b0008      ldr	r0, [fp, #-8]
0x00010728:  ebfffe13      bl	0xff7c

----------------
IN: xtrycalloc
0x0001072c:  e50b000c      str	r0, [fp, #-12]
0x00010730:  e51b300c      ldr	r3, [fp, #-12]
0x00010734:  e3530000      cmp	r3, #0	; 0x0
0x00010738:  0a000003      beq	0x1074c

----------------
IN: xtrycalloc
0x0001073c:  e51b2008      ldr	r2, [fp, #-8]
0x00010740:  e3a01000      mov	r1, #0	; 0x0
0x00010744:  e51b000c      ldr	r0, [fp, #-12]
0x00010748:  ebffff3a      bl	0x10438

----------------
IN: xtrycalloc
0x0001074c:  e51b300c      ldr	r3, [fp, #-12]
0x00010750:  e1a00003      mov	r0, r3
0x00010754:  e24bd004      sub	sp, fp, #4	; 0x4
0x00010758:  e8bd8800      pop	{fp, pc}

----------------
IN: decrypt_data
0x0000b2f8:  e1a03000      mov	r3, r0
0x0000b2fc:  e50b3030      str	r3, [fp, #-48]
0x0000b300:  e51b3030      ldr	r3, [fp, #-48]
0x0000b304:  e3530000      cmp	r3, #0	; 0x0
0x0000b308:  1a000002      bne	0xb318

----------------
IN: decrypt_data
0x0000b318:  e51b3030      ldr	r3, [fp, #-48]
0x0000b31c:  e3a02001      mov	r2, #1	; 0x1
0x0000b320:  e5832000      str	r2, [r3]
0x0000b324:  e3a03002      mov	r3, #2	; 0x2
0x0000b328:  e54b3015      strb	r3, [fp, #-21]
0x0000b32c:  e51b3060      ldr	r3, [fp, #-96]
0x0000b330:  e5d3300a      ldrb	r3, [r3, #10]
0x0000b334:  e1a01003      mov	r1, r3
0x0000b338:  e51b3064      ldr	r3, [fp, #-100]
0x0000b33c:  e5933000      ldr	r3, [r3]
0x0000b340:  e3a02000      mov	r2, #0	; 0x0
0x0000b344:  e58d2000      str	r2, [sp]
0x0000b348:  e1a02001      mov	r2, r1
0x0000b34c:  e304133c      movw	r1, #17212	; 0x433c
0x0000b350:  e3401001      movt	r1, #1	; 0x1
0x0000b354:  e3a00017      mov	r0, #23	; 0x17
0x0000b358:  eb001fbd      bl	0x13254

----------------
IN: tfp_printf
0x00013254:  e92d000f      push	{r0, r1, r2, r3}
0x00013258:  e92d4800      push	{fp, lr}
0x0001325c:  e28db004      add	fp, sp, #4	; 0x4
0x00013260:  e24dd008      sub	sp, sp, #8	; 0x8
0x00013264:  e28b3008      add	r3, fp, #8	; 0x8
0x00013268:  e50b3008      str	r3, [fp, #-8]
0x0001326c:  e30d301c      movw	r3, #53276	; 0xd01c
0x00013270:  e3403004      movt	r3, #4	; 0x4
0x00013274:  e5930000      ldr	r0, [r3]
0x00013278:  e30d3018      movw	r3, #53272	; 0xd018
0x0001327c:  e3403004      movt	r3, #4	; 0x4
0x00013280:  e5931000      ldr	r1, [r3]
0x00013284:  e51b3008      ldr	r3, [fp, #-8]
0x00013288:  e59b2004      ldr	r2, [fp, #4]
0x0001328c:  ebfffea4      bl	0x12d24

----------------
IN: tfp_format
0x00012d24:  e92d4800      push	{fp, lr}
0x00012d28:  e28db004      add	fp, sp, #4	; 0x4
0x00012d2c:  e24dd030      sub	sp, sp, #48	; 0x30
0x00012d30:  e50b0020      str	r0, [fp, #-32]
0x00012d34:  e50b1024      str	r1, [fp, #-36]
0x00012d38:  e50b2028      str	r2, [fp, #-40]
0x00012d3c:  e50b302c      str	r3, [fp, #-44]
0x00012d40:  ea000136      b	0x13220

----------------
IN: tfp_format
0x00013220:  e51b3028      ldr	r3, [fp, #-40]
0x00013224:  e2832001      add	r2, r3, #1	; 0x1
0x00013228:  e50b2028      str	r2, [fp, #-40]
0x0001322c:  e5d33000      ldrb	r3, [r3]
0x00013230:  e54b3005      strb	r3, [fp, #-5]
0x00013234:  e55b3005      ldrb	r3, [fp, #-5]
0x00013238:  e3530000      cmp	r3, #0	; 0x0
0x0001323c:  1afffec0      bne	0x12d44

----------------
IN: tfp_format
0x00013240:  ea000000      b	0x13248

----------------
IN: tfp_format
0x00013248:  e320f000      nop	{0}
0x0001324c:  e24bd004      sub	sp, fp, #4	; 0x4
0x00013250:  e8bd8800      pop	{fp, pc}

----------------
IN: tfp_printf
0x00013290:  e320f000      nop	{0}
0x00013294:  e24bd004      sub	sp, fp, #4	; 0x4
0x00013298:  e8bd4800      pop	{fp, lr}
0x0001329c:  e28dd010      add	sp, sp, #16	; 0x10
0x000132a0:  e12fff1e      bx	lr

----------------
IN: decrypt_data
0x0000b35c:  e3a03008      mov	r3, #8	; 0x8
0x0000b360:  e50b301c      str	r3, [fp, #-28]
0x0000b364:  e51b301c      ldr	r3, [fp, #-28]
0x0000b368:  e3530000      cmp	r3, #0	; 0x0
0x0000b36c:  0a000002      beq	0xb37c

----------------
IN: decrypt_data
0x0000b370:  e51b301c      ldr	r3, [fp, #-28]
0x0000b374:  e3530010      cmp	r3, #16	; 0x10
0x0000b378:  9a000003      bls	0xb38c

----------------
IN: decrypt_data
0x0000b38c:  e51b3060      ldr	r3, [fp, #-96]
0x0000b390:  e5d3300b      ldrb	r3, [r3, #11]
0x0000b394:  e3530000      cmp	r3, #0	; 0x0
0x0000b398:  0a0000db      beq	0xb70c

----------------
IN: decrypt_data
0x0000b70c:  e51b301c      ldr	r3, [fp, #-28]
0x0000b710:  e50b3020      str	r3, [fp, #-32]
0x0000b714:  e51b3060      ldr	r3, [fp, #-96]
0x0000b718:  e5933000      ldr	r3, [r3]
0x0000b71c:  e3530000      cmp	r3, #0	; 0x0
0x0000b720:  0a000005      beq	0xb73c

----------------
IN: decrypt_data
0x0000b73c:  e24b3030      sub	r3, fp, #48	; 0x30
0x0000b740:  e3a02004      mov	r2, #4	; 0x4
0x0000b744:  e3a01000      mov	r1, #0	; 0x0
0x0000b748:  e1a00003      mov	r0, r3
0x0000b74c:  eb001339      bl	0x10438

----------------
IN: decrypt_data
0x0000b750:  e51b4030      ldr	r4, [fp, #-48]
0x0000b754:  e3a00040      mov	r0, #64	; 0x40
0x0000b758:  eb001207      bl	0xff7c

----------------
IN: decrypt_data
0x0000b75c:  e1a03000      mov	r3, r0
0x0000b760:  e5843004      str	r3, [r4, #4]
0x0000b764:  e51b3030      ldr	r3, [fp, #-48]
0x0000b768:  e5933004      ldr	r3, [r3, #4]
0x0000b76c:  e3530000      cmp	r3, #0	; 0x0
0x0000b770:  1a000001      bne	0xb77c

----------------
IN: decrypt_data
0x0000b77c:  e51b3030      ldr	r3, [fp, #-48]
0x0000b780:  e5933004      ldr	r3, [r3, #4]
0x0000b784:  e3a02040      mov	r2, #64	; 0x40
0x0000b788:  e3a01000      mov	r1, #0	; 0x0
0x0000b78c:  e1a00003      mov	r0, r3
0x0000b790:  eb001328      bl	0x10438

----------------
IN: decrypt_data
0x0000b794:  e51b3030      ldr	r3, [fp, #-48]
0x0000b798:  e5930004      ldr	r0, [r3, #4]
0x0000b79c:  e51b3064      ldr	r3, [fp, #-100]
0x0000b7a0:  e593100c      ldr	r1, [r3, #12]
0x0000b7a4:  e51b3064      ldr	r3, [fp, #-100]
0x0000b7a8:  e5933004      ldr	r3, [r3, #4]
0x0000b7ac:  e1a02003      mov	r2, r3
0x0000b7b0:  eb0003f0      bl	0xc778

----------------
IN: _gcry_cipher_setkey
0x0000c778:  e52db004      push	{fp}		; (str fp, [sp, #-4]!)
0x0000c77c:  e28db000      add	fp, sp, #0	; 0x0
0x0000c780:  e24dd02c      sub	sp, sp, #44	; 0x2c
0x0000c784:  e50b0020      str	r0, [fp, #-32]
0x0000c788:  e50b1024      str	r1, [fp, #-36]
0x0000c78c:  e50b2028      str	r2, [fp, #-40]
0x0000c790:  e24b301c      sub	r3, fp, #28	; 0x1c
0x0000c794:  e3a02000      mov	r2, #0	; 0x0
0x0000c798:  e5832000      str	r2, [r3]
0x0000c79c:  e5832004      str	r2, [r3, #4]
0x0000c7a0:  e5832008      str	r2, [r3, #8]
0x0000c7a4:  e583200c      str	r2, [r3, #12]
0x0000c7a8:  e3a03000      mov	r3, #0	; 0x0
0x0000c7ac:  e50b3008      str	r3, [fp, #-8]
0x0000c7b0:  e3a03000      mov	r3, #0	; 0x0
0x0000c7b4:  e50b300c      str	r3, [fp, #-12]
0x0000c7b8:  ea000023      b	0xc84c

----------------
IN: _gcry_cipher_setkey
0x0000c84c:  e51b300c      ldr	r3, [fp, #-12]
0x0000c850:  e3530003      cmp	r3, #3	; 0x3
0x0000c854:  daffffd8      ble	0xc7bc

----------------
IN: _gcry_cipher_setkey
0x0000c7bc:  e51b3008      ldr	r3, [fp, #-8]
0x0000c7c0:  e51b2024      ldr	r2, [fp, #-36]
0x0000c7c4:  e0823003      add	r3, r2, r3
0x0000c7c8:  e5d33000      ldrb	r3, [r3]
0x0000c7cc:  e1a02c03      lsl	r2, r3, #24
0x0000c7d0:  e51b3008      ldr	r3, [fp, #-8]
0x0000c7d4:  e2833001      add	r3, r3, #1	; 0x1
0x0000c7d8:  e51b1024      ldr	r1, [fp, #-36]
0x0000c7dc:  e0813003      add	r3, r1, r3
0x0000c7e0:  e5d33000      ldrb	r3, [r3]
0x0000c7e4:  e1a03803      lsl	r3, r3, #16
0x0000c7e8:  e0822003      add	r2, r2, r3
0x0000c7ec:  e51b3008      ldr	r3, [fp, #-8]
0x0000c7f0:  e2833002      add	r3, r3, #2	; 0x2
0x0000c7f4:  e51b1024      ldr	r1, [fp, #-36]
0x0000c7f8:  e0813003      add	r3, r1, r3
0x0000c7fc:  e5d33000      ldrb	r3, [r3]

----------------
IN: _gcry_cipher_setkey
0x0000c800:  e1a03403      lsl	r3, r3, #8
0x0000c804:  e0823003      add	r3, r2, r3
0x0000c808:  e51b2008      ldr	r2, [fp, #-8]
0x0000c80c:  e2822003      add	r2, r2, #3	; 0x3
0x0000c810:  e51b1024      ldr	r1, [fp, #-36]
0x0000c814:  e0812002      add	r2, r1, r2
0x0000c818:  e5d22000      ldrb	r2, [r2]
0x0000c81c:  e0833002      add	r3, r3, r2
0x0000c820:  e1a01003      mov	r1, r3
0x0000c824:  e51b3020      ldr	r3, [fp, #-32]
0x0000c828:  e51b200c      ldr	r2, [fp, #-12]
0x0000c82c:  e282200c      add	r2, r2, #12	; 0xc
0x0000c830:  e7831102      str	r1, [r3, r2, lsl #2]
0x0000c834:  e51b3008      ldr	r3, [fp, #-8]
0x0000c838:  e2833004      add	r3, r3, #4	; 0x4
0x0000c83c:  e50b3008      str	r3, [fp, #-8]
0x0000c840:  e51b300c      ldr	r3, [fp, #-12]
0x0000c844:  e2833001      add	r3, r3, #1	; 0x1
0x0000c848:  e50b300c      str	r3, [fp, #-12]
0x0000c84c:  e51b300c      ldr	r3, [fp, #-12]
0x0000c850:  e3530003      cmp	r3, #3	; 0x3
0x0000c854:  daffffd8      ble	0xc7bc

----------------
IN: _gcry_cipher_setkey
0x0000c858:  e3a03000      mov	r3, #0	; 0x0
0x0000c85c:  e1a00003      mov	r0, r3
0x0000c860:  e28bd000      add	sp, fp, #0	; 0x0
0x0000c864:  e49db004      pop	{fp}		; (ldr fp, [sp], #4)
0x0000c868:  e12fff1e      bx	lr

----------------
IN: decrypt_data
0x0000b7b4:  e50b0010      str	r0, [fp, #-16]
0x0000b7b8:  e51b3060      ldr	r3, [fp, #-96]
0x0000b7bc:  e5933010      ldr	r3, [r3, #16]
0x0000b7c0:  e3530000      cmp	r3, #0	; 0x0
0x0000b7c4:  0a0000e9      beq	0xbb70

----------------
IN: decrypt_data
0x0000b7c8:  e51b3030      ldr	r3, [fp, #-48]
0x0000b7cc:  e5933004      ldr	r3, [r3, #4]
0x0000b7d0:  e3a02008      mov	r2, #8	; 0x8
0x0000b7d4:  e3a01000      mov	r1, #0	; 0x0
0x0000b7d8:  e1a00003      mov	r0, r3
0x0000b7dc:  eb000422      bl	0xc86c

----------------
IN: _gcry_cipher_setiv
0x0000c86c:  e92d4800      push	{fp, lr}
0x0000c870:  e28db004      add	fp, sp, #4	; 0x4
0x0000c874:  e24dd010      sub	sp, sp, #16	; 0x10
0x0000c878:  e50b0008      str	r0, [fp, #-8]
0x0000c87c:  e50b100c      str	r1, [fp, #-12]
0x0000c880:  e50b2010      str	r2, [fp, #-16]
0x0000c884:  e51b3008      ldr	r3, [fp, #-8]
0x0000c888:  e3a02000      mov	r2, #0	; 0x0
0x0000c88c:  e5832020      str	r2, [r3, #32]
0x0000c890:  e51b300c      ldr	r3, [fp, #-12]
0x0000c894:  e3530000      cmp	r3, #0	; 0x0
0x0000c898:  0a000005      beq	0xc8b4

----------------
IN: _gcry_cipher_setiv
0x0000c8b4:  e51b3008      ldr	r3, [fp, #-8]
0x0000c8b8:  e51b2010      ldr	r2, [fp, #-16]
0x0000c8bc:  e3a01000      mov	r1, #0	; 0x0
0x0000c8c0:  e1a00003      mov	r0, r3
0x0000c8c4:  eb000edb      bl	0x10438

----------------
IN: _gcry_cipher_setiv
0x0000c8c8:  e3a03000      mov	r3, #0	; 0x0
0x0000c8cc:  e1a00003      mov	r0, r3
0x0000c8d0:  e24bd004      sub	sp, fp, #4	; 0x4
0x0000c8d4:  e8bd8800      pop	{fp, pc}

----------------
IN: decrypt_data
0x0000b7e0:  e51b3060      ldr	r3, [fp, #-96]
0x0000b7e4:  e5933000      ldr	r3, [r3]
0x0000b7e8:  e3530000      cmp	r3, #0	; 0x0
0x0000b7ec:  0a000047      beq	0xb910

----------------
IN: decrypt_data
0x0000b910:  e3a03000      mov	r3, #0	; 0x0
0x0000b914:  e50b3014      str	r3, [fp, #-20]
0x0000b918:  ea00002f      b	0xb9dc

----------------
IN: decrypt_data
0x0000b9dc:  e51b3020      ldr	r3, [fp, #-32]
0x0000b9e0:  e2832002      add	r2, r3, #2	; 0x2
0x0000b9e4:  e51b3014      ldr	r3, [fp, #-20]
0x0000b9e8:  e1520003      cmp	r2, r3
0x0000b9ec:  8affffca      bhi	0xb91c

----------------
IN: decrypt_data
0x0000b91c:  e51b3060      ldr	r3, [fp, #-96]
0x0000b920:  e5933010      ldr	r3, [r3, #16]
0x0000b924:  e5933010      ldr	r3, [r3, #16]
0x0000b928:  e3530000      cmp	r3, #0	; 0x0
0x0000b92c:  1a000007      bne	0xb950

----------------
IN: decrypt_data
0x0000b930:  e51b3060      ldr	r3, [fp, #-96]
0x0000b934:  e5933010      ldr	r3, [r3, #16]
0x0000b938:  e5932018      ldr	r2, [r3, #24]
0x0000b93c:  e51b3060      ldr	r3, [fp, #-96]
0x0000b940:  e5933010      ldr	r3, [r3, #16]
0x0000b944:  e593301c      ldr	r3, [r3, #28]
0x0000b948:  e1520003      cmp	r2, r3
0x0000b94c:  3a000005      bcc	0xb968

----------------
IN: decrypt_data
0x0000b950:  e51b3060      ldr	r3, [fp, #-96]
0x0000b954:  e5933010      ldr	r3, [r3, #16]
0x0000b958:  e1a00003      mov	r0, r3
0x0000b95c:  ebfffac1      bl	0xa468

----------------
IN: iobuf_readbyte
0x0000a468:  e92d4800      push	{fp, lr}
0x0000a46c:  e28db004      add	fp, sp, #4	; 0x4
0x0000a470:  e24dd010      sub	sp, sp, #16	; 0x10
0x0000a474:  e50b0010      str	r0, [fp, #-16]
0x0000a478:  e51b3010      ldr	r3, [fp, #-16]
0x0000a47c:  e5d33000      ldrb	r3, [r3]
0x0000a480:  e3530002      cmp	r3, #2	; 0x2
0x0000a484:  0a000003      beq	0xa498

----------------
IN: iobuf_readbyte
0x0000a488:  e51b3010      ldr	r3, [fp, #-16]
0x0000a48c:  e5d33000      ldrb	r3, [r3]
0x0000a490:  e3530003      cmp	r3, #3	; 0x3
0x0000a494:  1a000004      bne	0xa4ac

----------------
IN: iobuf_readbyte
0x0000a4ac:  e51b3010      ldr	r3, [fp, #-16]
0x0000a4b0:  e5933004      ldr	r3, [r3, #4]
0x0000a4b4:  e3530000      cmp	r3, #0	; 0x0
0x0000a4b8:  0a000007      beq	0xa4dc

----------------
IN: iobuf_readbyte
0x0000a4dc:  e51b3010      ldr	r3, [fp, #-16]
0x0000a4e0:  e5932018      ldr	r2, [r3, #24]
0x0000a4e4:  e51b3010      ldr	r3, [fp, #-16]
0x0000a4e8:  e593301c      ldr	r3, [r3, #28]
0x0000a4ec:  e1520003      cmp	r2, r3
0x0000a4f0:  2a00000a      bcs	0xa520

----------------
IN: iobuf_readbyte
0x0000a520:  e3a01001      mov	r1, #1	; 0x1
0x0000a524:  e51b0010      ldr	r0, [fp, #-16]
0x0000a528:  ebfffe69      bl	0x9ed4

----------------
IN: underflow
0x00009ed4:  e92d4800      push	{fp, lr}
0x00009ed8:  e28db004      add	fp, sp, #4	; 0x4
0x00009edc:  e24dd008      sub	sp, sp, #8	; 0x8
0x00009ee0:  e50b0008      str	r0, [fp, #-8]
0x00009ee4:  e50b100c      str	r1, [fp, #-12]
0x00009ee8:  e3a02001      mov	r2, #1	; 0x1
0x00009eec:  e51b100c      ldr	r1, [fp, #-12]
0x00009ef0:  e51b0008      ldr	r0, [fp, #-8]
0x00009ef4:  eb000003      bl	0x9f08

----------------
IN: underflow_target
0x00009f08:  e92d4810      push	{r4, fp, lr}
0x00009f0c:  e28db008      add	fp, sp, #8	; 0x8
0x00009f10:  e24dd034      sub	sp, sp, #52	; 0x34
0x00009f14:  e50b0028      str	r0, [fp, #-40]
0x00009f18:  e50b102c      str	r1, [fp, #-44]
0x00009f1c:  e50b2030      str	r2, [fp, #-48]
0x00009f20:  e51b3028      ldr	r3, [fp, #-40]
0x00009f24:  e5d33000      ldrb	r3, [r3]
0x00009f28:  e3530001      cmp	r3, #1	; 0x1
0x00009f2c:  1a000001      bne	0x9f38

----------------
IN: underflow_target
0x00009f38:  e51b3028      ldr	r3, [fp, #-40]
0x00009f3c:  e593201c      ldr	r2, [r3, #28]
0x00009f40:  e51b3028      ldr	r3, [fp, #-40]
0x00009f44:  e5933018      ldr	r3, [r3, #24]
0x00009f48:  e0422003      sub	r2, r2, r3
0x00009f4c:  e51b3028      ldr	r3, [fp, #-40]
0x00009f50:  e583201c      str	r2, [r3, #28]
0x00009f54:  e51b3028      ldr	r3, [fp, #-40]
0x00009f58:  e5930020      ldr	r0, [r3, #32]
0x00009f5c:  e51b3028      ldr	r3, [fp, #-40]
0x00009f60:  e5932020      ldr	r2, [r3, #32]
0x00009f64:  e51b3028      ldr	r3, [fp, #-40]
0x00009f68:  e5933018      ldr	r3, [r3, #24]
0x00009f6c:  e0821003      add	r1, r2, r3
0x00009f70:  e51b3028      ldr	r3, [fp, #-40]
0x00009f74:  e593301c      ldr	r3, [r3, #28]
0x00009f78:  e1a02003      mov	r2, r3
0x00009f7c:  eb001963      bl	0x10510

----------------
IN: memmove
0x00010510:  e52db004      push	{fp}		; (str fp, [sp, #-4]!)
0x00010514:  e28db000      add	fp, sp, #0	; 0x0
0x00010518:  e24dd01c      sub	sp, sp, #28	; 0x1c
0x0001051c:  e50b0010      str	r0, [fp, #-16]
0x00010520:  e50b1014      str	r1, [fp, #-20]
0x00010524:  e50b2018      str	r2, [fp, #-24]
0x00010528:  e51b3010      ldr	r3, [fp, #-16]
0x0001052c:  e50b3008      str	r3, [fp, #-8]
0x00010530:  e51b3014      ldr	r3, [fp, #-20]
0x00010534:  e50b300c      str	r3, [fp, #-12]
0x00010538:  e51b2008      ldr	r2, [fp, #-8]
0x0001053c:  e51b300c      ldr	r3, [fp, #-12]
0x00010540:  e1520003      cmp	r2, r3
0x00010544:  9a000026      bls	0x105e4

----------------
IN: memmove
0x000105e4:  e51b3018      ldr	r3, [fp, #-24]
0x000105e8:  e2432001      sub	r2, r3, #1	; 0x1
0x000105ec:  e50b2018      str	r2, [fp, #-24]
0x000105f0:  e3530000      cmp	r3, #0	; 0x0
0x000105f4:  1afffff2      bne	0x105c4

----------------
IN: memmove
0x000105f8:  e51b3010      ldr	r3, [fp, #-16]
0x000105fc:  e1a00003      mov	r0, r3
0x00010600:  e28bd000      add	sp, fp, #0	; 0x0
0x00010604:  e49db004      pop	{fp}		; (ldr fp, [sp], #4)
0x00010608:  e12fff1e      bx	lr

----------------
IN: underflow_target
0x00009f80:  e51b3028      ldr	r3, [fp, #-40]
0x00009f84:  e3a02000      mov	r2, #0	; 0x0
0x00009f88:  e5832018      str	r2, [r3, #24]
0x00009f8c:  e51b3028      ldr	r3, [fp, #-40]
0x00009f90:  e593301c      ldr	r3, [r3, #28]
0x00009f94:  e51b2030      ldr	r2, [fp, #-48]
0x00009f98:  e1520003      cmp	r2, r3
0x00009f9c:  9a000025      bls	0xa038

----------------
IN: underflow_target
0x00009fa0:  e51b3028      ldr	r3, [fp, #-40]
0x00009fa4:  e5933024      ldr	r3, [r3, #36]
0x00009fa8:  e3530000      cmp	r3, #0	; 0x0
0x00009fac:  0a000021      beq	0xa038

----------------
IN: underflow_target
0x0000a038:  e51b3028      ldr	r3, [fp, #-40]
0x0000a03c:  e593301c      ldr	r3, [r3, #28]
0x0000a040:  e3530000      cmp	r3, #0	; 0x0
0x0000a044:  1a000005      bne	0xa060

----------------
IN: underflow_target
0x0000a048:  e51b3028      ldr	r3, [fp, #-40]
0x0000a04c:  e5933028      ldr	r3, [r3, #40]
0x0000a050:  e3530000      cmp	r3, #0	; 0x0
0x0000a054:  0a000001      beq	0xa060

----------------
IN: underflow_target
0x0000a060:  e51b3028      ldr	r3, [fp, #-40]
0x0000a064:  e593302c      ldr	r3, [r3, #44]
0x0000a068:  e3530000      cmp	r3, #0	; 0x0
0x0000a06c:  0a000089      beq	0xa298

----------------
IN: underflow_target
0x0000a070:  e51b3028      ldr	r3, [fp, #-40]
0x0000a074:  e5933024      ldr	r3, [r3, #36]
0x0000a078:  e3530000      cmp	r3, #0	; 0x0
0x0000a07c:  1a000085      bne	0xa298

----------------
IN: underflow_target
0x0000a080:  e51b3028      ldr	r3, [fp, #-40]
0x0000a084:  e5933028      ldr	r3, [r3, #40]
0x0000a088:  e3530000      cmp	r3, #0	; 0x0
0x0000a08c:  1a000081      bne	0xa298

----------------
IN: underflow_target
0x0000a090:  e51b3028      ldr	r3, [fp, #-40]
0x0000a094:  e5932014      ldr	r2, [r3, #20]
0x0000a098:  e51b3028      ldr	r3, [fp, #-40]
0x0000a09c:  e593301c      ldr	r3, [r3, #28]
0x0000a0a0:  e0423003      sub	r3, r2, r3
0x0000a0a4:  e50b301c      str	r3, [fp, #-28]
0x0000a0a8:  e51b301c      ldr	r3, [fp, #-28]
0x0000a0ac:  e3530000      cmp	r3, #0	; 0x0
0x0000a0b0:  1a000002      bne	0xa0c0

----------------
IN: underflow_target
0x0000a0c0:  e51b3028      ldr	r3, [fp, #-40]
0x0000a0c4:  e593402c      ldr	r4, [r3, #44]
0x0000a0c8:  e51b3028      ldr	r3, [fp, #-40]
0x0000a0cc:  e5930030      ldr	r0, [r3, #48]
0x0000a0d0:  e51b3028      ldr	r3, [fp, #-40]
0x0000a0d4:  e593103c      ldr	r1, [r3, #60]
0x0000a0d8:  e51b3028      ldr	r3, [fp, #-40]
0x0000a0dc:  e5932020      ldr	r2, [r3, #32]
0x0000a0e0:  e51b3028      ldr	r3, [fp, #-40]
0x0000a0e4:  e593301c      ldr	r3, [r3, #28]
0x0000a0e8:  e0822003      add	r2, r2, r3
0x0000a0ec:  e24b301c      sub	r3, fp, #28	; 0x1c
0x0000a0f0:  e58d3000      str	r3, [sp]
0x0000a0f4:  e1a03002      mov	r3, r2
0x0000a0f8:  e1a02001      mov	r2, r1
0x0000a0fc:  e3a01003      mov	r1, #3	; 0x3
0x0000a100:  e12fff34      blx	r4

----------------
IN: block_filter
0x00008588:  e3a03000      mov	r3, #0	; 0x0
0x0000858c:  e50b3018      str	r3, [fp, #-24]
0x00008590:  e51b302c      ldr	r3, [fp, #-44]
0x00008594:  e50b3014      str	r3, [fp, #-20]
0x00008598:  e51b3008      ldr	r3, [fp, #-8]
0x0000859c:  e1a00003      mov	r0, r3
0x000085a0:  eb002b2b      bl	0x13254

----------------
IN: block_filter
0x000085a4:  e51b3028      ldr	r3, [fp, #-40]
0x000085a8:  e593301c      ldr	r3, [r3, #28]
0x000085ac:  e3530000      cmp	r3, #0	; 0x0
0x000085b0:  0a000181      beq	0x8bbc

----------------
IN: block_filter
0x00008bbc:  e51b3010      ldr	r3, [fp, #-16]
0x00008bc0:  e3530000      cmp	r3, #0	; 0x0
0x00008bc4:  1a00000a      bne	0x8bf4

----------------
IN: block_filter
0x00008bc8:  e51b3008      ldr	r3, [fp, #-8]
0x00008bcc:  e3530000      cmp	r3, #0	; 0x0
0x00008bd0:  1afffe7a      bne	0x85c0

----------------
IN: block_filter
0x000085c0:  e51b3028      ldr	r3, [fp, #-40]
0x000085c4:  e5933004      ldr	r3, [r3, #4]
0x000085c8:  e3530000      cmp	r3, #0	; 0x0
0x000085cc:  1a000170      bne	0x8b94

----------------
IN: block_filter
0x000085d0:  e51b3028      ldr	r3, [fp, #-40]
0x000085d4:  e593300c      ldr	r3, [r3, #12]
0x000085d8:  e3530002      cmp	r3, #2	; 0x2
0x000085dc:  1a000008      bne	0x8604

----------------
IN: block_filter
0x00008604:  e51b3028      ldr	r3, [fp, #-40]
0x00008608:  e593300c      ldr	r3, [r3, #12]
0x0000860c:  e3530000      cmp	r3, #0	; 0x0
0x00008610:  0a00015f      beq	0x8b94

----------------
IN: block_filter
0x00008614:  e51b3028      ldr	r3, [fp, #-40]
0x00008618:  e5933018      ldr	r3, [r3, #24]
0x0000861c:  e3530000      cmp	r3, #0	; 0x0
0x00008620:  0a000006      beq	0x8640

----------------
IN: block_filter
0x00008624:  e51b3028      ldr	r3, [fp, #-40]
0x00008628:  e5933018      ldr	r3, [r3, #24]
0x0000862c:  e50b300c      str	r3, [fp, #-12]
0x00008630:  e51b3028      ldr	r3, [fp, #-40]
0x00008634:  e3a02000      mov	r2, #0	; 0x0
0x00008638:  e5832018      str	r2, [r3, #24]
0x0000863c:  ea000022      b	0x86cc

----------------
IN: block_filter
0x000086cc:  e51b300c      ldr	r3, [fp, #-12]
0x000086d0:  e35300bf      cmp	r3, #191	; 0xbf
0x000086d4:  ca000012      bgt	0x8724

----------------
IN: block_filter
0x00008724:  e51b300c      ldr	r3, [fp, #-12]
0x00008728:  e35300df      cmp	r3, #223	; 0xdf
0x0000872c:  ca00003f      bgt	0x8830

----------------
IN: block_filter
0x00008830:  e51b300c      ldr	r3, [fp, #-12]
0x00008834:  e35300ff      cmp	r3, #255	; 0xff
0x00008838:  1a0000a2      bne	0x8ac8

----------------
IN: block_filter
0x00008ac8:  e51b300c      ldr	r3, [fp, #-12]
0x00008acc:  e203301f      and	r3, r3, #31	; 0x1f
0x00008ad0:  e3a02001      mov	r2, #1	; 0x1
0x00008ad4:  e1a03312      lsl	r3, r2, r3
0x00008ad8:  e1a02003      mov	r2, r3
0x00008adc:  e51b3028      ldr	r3, [fp, #-40]
0x00008ae0:  e5832004      str	r2, [r3, #4]
0x00008ae4:  ea00002a      b	0x8b94

----------------
IN: block_filter
0x00008b94:  e51b3010      ldr	r3, [fp, #-16]
0x00008b98:  e3530000      cmp	r3, #0	; 0x0
0x00008b9c:  1a000006      bne	0x8bbc

----------------
IN: block_filter
0x00008ba0:  e51b3008      ldr	r3, [fp, #-8]
0x00008ba4:  e3530000      cmp	r3, #0	; 0x0
0x00008ba8:  0a000003      beq	0x8bbc

----------------
IN: block_filter
0x00008bac:  e51b3028      ldr	r3, [fp, #-40]
0x00008bb0:  e5933004      ldr	r3, [r3, #4]
0x00008bb4:  e3530000      cmp	r3, #0	; 0x0
0x00008bb8:  1affffca      bne	0x8ae8

----------------
IN: block_filter
0x00008ae8:  e51b3028      ldr	r3, [fp, #-40]
0x00008aec:  e5932004      ldr	r2, [r3, #4]
0x00008af0:  e51b3008      ldr	r3, [fp, #-8]
0x00008af4:  e1520003      cmp	r2, r3
0x00008af8:  31a03002      movcc	r3, r2
0x00008afc:  21a03003      movcs	r3, r3
0x00008b00:  e50b3034      str	r3, [fp, #-52]
0x00008b04:  e51b3034      ldr	r3, [fp, #-52]
0x00008b08:  e1a02003      mov	r2, r3
0x00008b0c:  e51b1014      ldr	r1, [fp, #-20]
0x00008b10:  e51b0040      ldr	r0, [fp, #-64]
0x00008b14:  eb000693      bl	0xa568

----------------
IN: iobuf_read
0x0000a568:  e92d4800      push	{fp, lr}
0x0000a56c:  e28db004      add	fp, sp, #4	; 0x4
0x0000a570:  e24dd020      sub	sp, sp, #32	; 0x20
0x0000a574:  e50b0018      str	r0, [fp, #-24]
0x0000a578:  e50b101c      str	r1, [fp, #-28]
0x0000a57c:  e50b2020      str	r2, [fp, #-32]
0x0000a580:  e51b301c      ldr	r3, [fp, #-28]
0x0000a584:  e50b3008      str	r3, [fp, #-8]
0x0000a588:  e51b3018      ldr	r3, [fp, #-24]
0x0000a58c:  e5d33000      ldrb	r3, [r3]
0x0000a590:  e3530002      cmp	r3, #2	; 0x2
0x0000a594:  0a000003      beq	0xa5a8

----------------
IN: iobuf_read
0x0000a598:  e51b3018      ldr	r3, [fp, #-24]
0x0000a59c:  e5d33000      ldrb	r3, [r3]
0x0000a5a0:  e3530003      cmp	r3, #3	; 0x3
0x0000a5a4:  1a000004      bne	0xa5bc

----------------
IN: iobuf_read
0x0000a5bc:  e51b3018      ldr	r3, [fp, #-24]
0x0000a5c0:  e5933004      ldr	r3, [r3, #4]
0x0000a5c4:  e3530000      cmp	r3, #0	; 0x0
0x0000a5c8:  0a000022      beq	0xa658

----------------
IN: iobuf_read
0x0000a658:  e3a03000      mov	r3, #0	; 0x0
0x0000a65c:  e50b300c      str	r3, [fp, #-12]
0x0000a660:  e51b300c      ldr	r3, [fp, #-12]
0x0000a664:  e51b2020      ldr	r2, [fp, #-32]
0x0000a668:  e1520003      cmp	r2, r3
0x0000a66c:  9a000032      bls	0xa73c

----------------
IN: iobuf_read
0x0000a670:  e51b3018      ldr	r3, [fp, #-24]
0x0000a674:  e5932018      ldr	r2, [r3, #24]
0x0000a678:  e51b3018      ldr	r3, [fp, #-24]
0x0000a67c:  e593301c      ldr	r3, [r3, #28]
0x0000a680:  e1520003      cmp	r2, r3
0x0000a684:  2a00002c      bcs	0xa73c

----------------
IN: iobuf_read
0x0000a688:  e51b3018      ldr	r3, [fp, #-24]
0x0000a68c:  e593201c      ldr	r2, [r3, #28]
0x0000a690:  e51b3018      ldr	r3, [fp, #-24]
0x0000a694:  e5933018      ldr	r3, [r3, #24]
0x0000a698:  e0423003      sub	r3, r2, r3
0x0000a69c:  e50b3010      str	r3, [fp, #-16]
0x0000a6a0:  e51b300c      ldr	r3, [fp, #-12]
0x0000a6a4:  e51b2020      ldr	r2, [fp, #-32]
0x0000a6a8:  e0423003      sub	r3, r2, r3
0x0000a6ac:  e51b2010      ldr	r2, [fp, #-16]
0x0000a6b0:  e1520003      cmp	r2, r3
0x0000a6b4:  9a000003      bls	0xa6c8

----------------
IN: iobuf_read
0x0000a6b8:  e51b300c      ldr	r3, [fp, #-12]
0x0000a6bc:  e51b2020      ldr	r2, [fp, #-32]
0x0000a6c0:  e0423003      sub	r3, r2, r3
0x0000a6c4:  e50b3010      str	r3, [fp, #-16]
0x0000a6c8:  e51b3008      ldr	r3, [fp, #-8]
0x0000a6cc:  e3530000      cmp	r3, #0	; 0x0
0x0000a6d0:  0a000008      beq	0xa6f8

----------------
IN: iobuf_read
0x0000a6d4:  e51b3018      ldr	r3, [fp, #-24]
0x0000a6d8:  e5932020      ldr	r2, [r3, #32]
0x0000a6dc:  e51b3018      ldr	r3, [fp, #-24]
0x0000a6e0:  e5933018      ldr	r3, [r3, #24]
0x0000a6e4:  e0823003      add	r3, r2, r3
0x0000a6e8:  e51b2010      ldr	r2, [fp, #-16]
0x0000a6ec:  e1a01003      mov	r1, r3
0x0000a6f0:  e51b0008      ldr	r0, [fp, #-8]
0x0000a6f4:  eb001768      bl	0x1049c

----------------
IN: iobuf_read
0x0000a6f8:  e51b200c      ldr	r2, [fp, #-12]
0x0000a6fc:  e51b3010      ldr	r3, [fp, #-16]
0x0000a700:  e0823003      add	r3, r2, r3
0x0000a704:  e50b300c      str	r3, [fp, #-12]
0x0000a708:  e51b3018      ldr	r3, [fp, #-24]
0x0000a70c:  e5932018      ldr	r2, [r3, #24]
0x0000a710:  e51b3010      ldr	r3, [fp, #-16]
0x0000a714:  e0822003      add	r2, r2, r3
0x0000a718:  e51b3018      ldr	r3, [fp, #-24]
0x0000a71c:  e5832018      str	r2, [r3, #24]
0x0000a720:  e51b3008      ldr	r3, [fp, #-8]
0x0000a724:  e3530000      cmp	r3, #0	; 0x0
0x0000a728:  0a000003      beq	0xa73c

----------------
IN: iobuf_read
0x0000a72c:  e51b2008      ldr	r2, [fp, #-8]
0x0000a730:  e51b3010      ldr	r3, [fp, #-16]
0x0000a734:  e0823003      add	r3, r2, r3
0x0000a738:  e50b3008      str	r3, [fp, #-8]
0x0000a73c:  e51b300c      ldr	r3, [fp, #-12]
0x0000a740:  e51b2020      ldr	r2, [fp, #-32]
0x0000a744:  e1520003      cmp	r2, r3
0x0000a748:  9a00000b      bls	0xa77c

----------------
IN: iobuf_read
0x0000a77c:  e51b300c      ldr	r3, [fp, #-12]
0x0000a780:  e51b2020      ldr	r2, [fp, #-32]
0x0000a784:  e1520003      cmp	r2, r3
0x0000a788:  8affffb4      bhi	0xa660

----------------
IN: iobuf_read
0x0000a78c:  e51b3018      ldr	r3, [fp, #-24]
0x0000a790:  e5932008      ldr	r2, [r3, #8]
0x0000a794:  e51b300c      ldr	r3, [fp, #-12]
0x0000a798:  e0822003      add	r2, r2, r3
0x0000a79c:  e51b3018      ldr	r3, [fp, #-24]
0x0000a7a0:  e5832008      str	r2, [r3, #8]
0x0000a7a4:  e51b300c      ldr	r3, [fp, #-12]
0x0000a7a8:  e1a00003      mov	r0, r3
0x0000a7ac:  e24bd004      sub	sp, fp, #4	; 0x4
0x0000a7b0:  e8bd8800      pop	{fp, pc}

----------------
IN: block_filter
0x00008b18:  e50b000c      str	r0, [fp, #-12]
0x00008b1c:  e51b200c      ldr	r2, [fp, #-12]
0x00008b20:  e51b3034      ldr	r3, [fp, #-52]
0x00008b24:  e1520003      cmp	r2, r3
0x00008b28:  aa000007      bge	0x8b4c

----------------
IN: block_filter
0x00008b4c:  e51b300c      ldr	r3, [fp, #-12]
0x00008b50:  e51b2008      ldr	r2, [fp, #-8]
0x00008b54:  e0423003      sub	r3, r2, r3
0x00008b58:  e50b3008      str	r3, [fp, #-8]
0x00008b5c:  e51b3028      ldr	r3, [fp, #-40]
0x00008b60:  e5932004      ldr	r2, [r3, #4]
0x00008b64:  e51b300c      ldr	r3, [fp, #-12]
0x00008b68:  e0422003      sub	r2, r2, r3
0x00008b6c:  e51b3028      ldr	r3, [fp, #-40]
0x00008b70:  e5832004      str	r2, [r3, #4]
0x00008b74:  e51b300c      ldr	r3, [fp, #-12]
0x00008b78:  e51b2014      ldr	r2, [fp, #-20]
0x00008b7c:  e0823003      add	r3, r2, r3
0x00008b80:  e50b3014      str	r3, [fp, #-20]
0x00008b84:  e51b300c      ldr	r3, [fp, #-12]
0x00008b88:  e51b2018      ldr	r2, [fp, #-24]
0x00008b8c:  e0823003      add	r3, r2, r3
0x00008b90:  e50b3018      str	r3, [fp, #-24]
0x00008b94:  e51b3010      ldr	r3, [fp, #-16]
0x00008b98:  e3530000      cmp	r3, #0	; 0x0
0x00008b9c:  1a000006      bne	0x8bbc

----------------
IN: block_filter
0x00008bd4:  ea000006      b	0x8bf4

----------------
IN: block_filter
0x00008bf4:  e59b3004      ldr	r3, [fp, #4]
0x00008bf8:  e51b2018      ldr	r2, [fp, #-24]
0x00008bfc:  e5832000      str	r2, [r3]

----------------
IN: block_filter
0x00008c00:  ea000147      b	0x9124

----------------
IN: underflow_target
0x0000a104:  e50b0010      str	r0, [fp, #-16]
0x0000a108:  e51b3028      ldr	r3, [fp, #-40]
0x0000a10c:  e593201c      ldr	r2, [r3, #28]
0x0000a110:  e51b301c      ldr	r3, [fp, #-28]
0x0000a114:  e0822003      add	r2, r2, r3
0x0000a118:  e51b3028      ldr	r3, [fp, #-40]
0x0000a11c:  e583201c      str	r2, [r3, #28]
0x0000a120:  e51b3010      ldr	r3, [fp, #-16]
0x0000a124:  e3730001      cmn	r3, #1	; 0x1
0x0000a128:  1a00004e      bne	0xa268

----------------
IN: underflow_target
0x0000a268:  e51b3010      ldr	r3, [fp, #-16]
0x0000a26c:  e3530000      cmp	r3, #0	; 0x0
0x0000a270:  0a000008      beq	0xa298

----------------
IN: underflow_target
0x0000a298:  e51b3028      ldr	r3, [fp, #-40]
0x0000a29c:  e5932018      ldr	r2, [r3, #24]
0x0000a2a0:  e51b3028      ldr	r3, [fp, #-40]
0x0000a2a4:  e593301c      ldr	r3, [r3, #28]
0x0000a2a8:  e1520003      cmp	r2, r3
0x0000a2ac:  2a000009      bcs	0xa2d8

----------------
IN: underflow_target
0x0000a2b0:  e51b3028      ldr	r3, [fp, #-40]
0x0000a2b4:  e5932020      ldr	r2, [r3, #32]
0x0000a2b8:  e51b3028      ldr	r3, [fp, #-40]
0x0000a2bc:  e5933018      ldr	r3, [r3, #24]
0x0000a2c0:  e2830001      add	r0, r3, #1	; 0x1
0x0000a2c4:  e51b1028      ldr	r1, [fp, #-40]
0x0000a2c8:  e5810018      str	r0, [r1, #24]
0x0000a2cc:  e0823003      add	r3, r2, r3
0x0000a2d0:  e5d33000      ldrb	r3, [r3]
0x0000a2d4:  ea000000      b	0xa2dc

----------------
IN: underflow_target
0x0000a2dc:  e1a00003      mov	r0, r3
0x0000a2e0:  e24bd008      sub	sp, fp, #8	; 0x8
0x0000a2e4:  e8bd8810      pop	{r4, fp, pc}

----------------
IN: underflow
0x00009ef8:  e1a03000      mov	r3, r0
0x00009efc:  e1a00003      mov	r0, r3
0x00009f00:  e24bd004      sub	sp, fp, #4	; 0x4
0x00009f04:  e8bd8800      pop	{fp, pc}

----------------
IN: iobuf_readbyte
0x0000a52c:  e50b0008      str	r0, [fp, #-8]
0x0000a530:  e51b3008      ldr	r3, [fp, #-8]
0x0000a534:  e3730001      cmn	r3, #1	; 0x1
0x0000a538:  1a000001      bne	0xa544

----------------
IN: iobuf_readbyte
0x0000a544:  e51b3010      ldr	r3, [fp, #-16]
0x0000a548:  e5933008      ldr	r3, [r3, #8]
0x0000a54c:  e2832001      add	r2, r3, #1	; 0x1
0x0000a550:  e51b3010      ldr	r3, [fp, #-16]
0x0000a554:  e5832008      str	r2, [r3, #8]
0x0000a558:  e51b3008      ldr	r3, [fp, #-8]
0x0000a55c:  e1a00003      mov	r0, r3
0x0000a560:  e24bd004      sub	sp, fp, #4	; 0x4
0x0000a564:  e8bd8800      pop	{fp, pc}

----------------
IN: decrypt_data
0x0000b960:  e1a03000      mov	r3, r0
0x0000b964:  ea00000e      b	0xb9a4

----------------
IN: decrypt_data
0x0000b9a4:  e50b3024      str	r3, [fp, #-36]
0x0000b9a8:  e51b3024      ldr	r3, [fp, #-36]
0x0000b9ac:  e3730001      cmn	r3, #1	; 0x1
0x0000b9b0:  0a000011      beq	0xb9fc

----------------
IN: decrypt_data
0x0000b9b4:  e51b3024      ldr	r3, [fp, #-36]
0x0000b9b8:  e6ef1073      uxtb	r1, r3
0x0000b9bc:  e24b2050      sub	r2, fp, #80	; 0x50
0x0000b9c0:  e51b3014      ldr	r3, [fp, #-20]
0x0000b9c4:  e0823003      add	r3, r2, r3
0x0000b9c8:  e1a02001      mov	r2, r1
0x0000b9cc:  e5c32000      strb	r2, [r3]
0x0000b9d0:  e51b3014      ldr	r3, [fp, #-20]
0x0000b9d4:  e2833001      add	r3, r3, #1	; 0x1
0x0000b9d8:  e50b3014      str	r3, [fp, #-20]
0x0000b9dc:  e51b3020      ldr	r3, [fp, #-32]
0x0000b9e0:  e2832002      add	r2, r3, #2	; 0x2
0x0000b9e4:  e51b3014      ldr	r3, [fp, #-20]
0x0000b9e8:  e1520003      cmp	r2, r3
0x0000b9ec:  8affffca      bhi	0xb91c

----------------
IN: decrypt_data
0x0000b968:  e51b3060      ldr	r3, [fp, #-96]
0x0000b96c:  e5933010      ldr	r3, [r3, #16]
0x0000b970:  e5932008      ldr	r2, [r3, #8]
0x0000b974:  e2822001      add	r2, r2, #1	; 0x1
0x0000b978:  e5832008      str	r2, [r3, #8]
0x0000b97c:  e51b3060      ldr	r3, [fp, #-96]
0x0000b980:  e5933010      ldr	r3, [r3, #16]
0x0000b984:  e5931020      ldr	r1, [r3, #32]
0x0000b988:  e51b3060      ldr	r3, [fp, #-96]
0x0000b98c:  e5932010      ldr	r2, [r3, #16]
0x0000b990:  e5923018      ldr	r3, [r2, #24]
0x0000b994:  e2830001      add	r0, r3, #1	; 0x1
0x0000b998:  e5820018      str	r0, [r2, #24]
0x0000b99c:  e0813003      add	r3, r1, r3
0x0000b9a0:  e5d33000      ldrb	r3, [r3]
0x0000b9a4:  e50b3024      str	r3, [fp, #-36]
0x0000b9a8:  e51b3024      ldr	r3, [fp, #-36]
0x0000b9ac:  e3730001      cmn	r3, #1	; 0x1
0x0000b9b0:  0a000011      beq	0xb9fc

----------------
IN: decrypt_data
0x0000b9f0:  ea000002      b	0xba00

----------------
IN: decrypt_data
0x0000ba00:  e51b3030      ldr	r3, [fp, #-48]
0x0000ba04:  e5930004      ldr	r0, [r3, #4]
0x0000ba08:  e51b3020      ldr	r3, [fp, #-32]
0x0000ba0c:  e2832002      add	r2, r3, #2	; 0x2
0x0000ba10:  e24b1050      sub	r1, fp, #80	; 0x50
0x0000ba14:  e3a03000      mov	r3, #0	; 0x0
0x0000ba18:  e58d3000      str	r3, [sp]
0x0000ba1c:  e3a03000      mov	r3, #0	; 0x0
0x0000ba20:  eb0003cf      bl	0xc964

----------------
IN: _gcry_cipher_decrypt
0x0000c964:  e92d4800      push	{fp, lr}
0x0000c968:  e28db004      add	fp, sp, #4	; 0x4
0x0000c96c:  e24dd018      sub	sp, sp, #24	; 0x18
0x0000c970:  e50b0008      str	r0, [fp, #-8]
0x0000c974:  e50b100c      str	r1, [fp, #-12]
0x0000c978:  e50b2010      str	r2, [fp, #-16]
0x0000c97c:  e50b3014      str	r3, [fp, #-20]
0x0000c980:  e51b3014      ldr	r3, [fp, #-20]
0x0000c984:  e3530000      cmp	r3, #0	; 0x0
0x0000c988:  1a000003      bne	0xc99c

----------------
IN: _gcry_cipher_decrypt
0x0000c98c:  e51b300c      ldr	r3, [fp, #-12]
0x0000c990:  e50b3014      str	r3, [fp, #-20]
0x0000c994:  e51b3010      ldr	r3, [fp, #-16]
0x0000c998:  e58b3004      str	r3, [fp, #4]
0x0000c99c:  e59b3004      ldr	r3, [fp, #4]
0x0000c9a0:  e58d3000      str	r3, [sp]
0x0000c9a4:  e51b3014      ldr	r3, [fp, #-20]
0x0000c9a8:  e51b2010      ldr	r2, [fp, #-16]
0x0000c9ac:  e51b100c      ldr	r1, [fp, #-12]
0x0000c9b0:  e51b0008      ldr	r0, [fp, #-8]
0x0000c9b4:  eb0000bd      bl	0xccb0

----------------
IN: _gcry_cipher_cfb_decrypt
0x0000ccb0:  e92d4800      push	{fp, lr}
0x0000ccb4:  e28db004      add	fp, sp, #4	; 0x4
0x0000ccb8:  e24dd050      sub	sp, sp, #80	; 0x50
0x0000ccbc:  e50b0038      str	r0, [fp, #-56]
0x0000ccc0:  e50b103c      str	r1, [fp, #-60]
0x0000ccc4:  e50b2040      str	r2, [fp, #-64]
0x0000ccc8:  e50b3044      str	r3, [fp, #-68]
0x0000cccc:  e51b0038      ldr	r0, [fp, #-56]
0x0000ccd0:  ebffffed      bl	0xcc8c

----------------
IN: _gcry_blocksize_shift
0x0000cc8c:  e52db004      push	{fp}		; (str fp, [sp, #-4]!)
0x0000cc90:  e28db000      add	fp, sp, #0	; 0x0
0x0000cc94:  e24dd00c      sub	sp, sp, #12	; 0xc
0x0000cc98:  e50b0008      str	r0, [fp, #-8]
0x0000cc9c:  e3a03003      mov	r3, #3	; 0x3
0x0000cca0:  e1a00003      mov	r0, r3
0x0000cca4:  e28bd000      add	sp, fp, #0	; 0x0
0x0000cca8:  e49db004      pop	{fp}		; (ldr fp, [sp], #4)
0x0000ccac:  e12fff1e      bx	lr

----------------
IN: _gcry_cipher_cfb_decrypt
0x0000ccd4:  e50b0008      str	r0, [fp, #-8]
0x0000ccd8:  e3a03008      mov	r3, #8	; 0x8
0x0000ccdc:  e50b300c      str	r3, [fp, #-12]
0x0000cce0:  e51b300c      ldr	r3, [fp, #-12]
0x0000cce4:  e1a03083      lsl	r3, r3, #1
0x0000cce8:  e50b3010      str	r3, [fp, #-16]
0x0000ccec:  e51b2040      ldr	r2, [fp, #-64]
0x0000ccf0:  e59b3004      ldr	r3, [fp, #4]
0x0000ccf4:  e1520003      cmp	r2, r3
0x0000ccf8:  2a000001      bcs	0xcd04

----------------
IN: _gcry_cipher_cfb_decrypt
0x0000cd04:  e51b3038      ldr	r3, [fp, #-56]
0x0000cd08:  e5933020      ldr	r3, [r3, #32]
0x0000cd0c:  e1a02003      mov	r2, r3
0x0000cd10:  e59b3004      ldr	r3, [fp, #4]
0x0000cd14:  e1530002      cmp	r3, r2
0x0000cd18:  8a000016      bhi	0xcd78

----------------
IN: _gcry_cipher_cfb_decrypt
0x0000cd78:  e3a03000      mov	r3, #0	; 0x0
0x0000cd7c:  e50b3014      str	r3, [fp, #-20]
0x0000cd80:  e51b3038      ldr	r3, [fp, #-56]
0x0000cd84:  e5933020      ldr	r3, [r3, #32]
0x0000cd88:  e3530000      cmp	r3, #0	; 0x0
0x0000cd8c:  0a000022      beq	0xce1c

----------------
IN: _gcry_cipher_cfb_decrypt
0x0000ce1c:  e59b2004      ldr	r2, [fp, #4]
0x0000ce20:  e51b3010      ldr	r3, [fp, #-16]
0x0000ce24:  e1520003      cmp	r2, r3
0x0000ce28:  3a000044      bcc	0xcf40

----------------
IN: _gcry_cipher_cfb_decrypt
0x0000cf40:  e59b2004      ldr	r2, [fp, #4]
0x0000cf44:  e51b3010      ldr	r3, [fp, #-16]
0x0000cf48:  e1520003      cmp	r2, r3
0x0000cf4c:  2affffd4      bcs	0xcea4

----------------
IN: _gcry_cipher_cfb_decrypt
0x0000cf50:  e59b2004      ldr	r2, [fp, #4]
0x0000cf54:  e51b300c      ldr	r3, [fp, #-12]
0x0000cf58:  e1520003      cmp	r2, r3
0x0000cf5c:  3a00002c      bcc	0xd014

----------------
IN: _gcry_cipher_cfb_decrypt
0x0000cf60:  e51b3038      ldr	r3, [fp, #-56]
0x0000cf64:  e2833010      add	r3, r3, #16	; 0x10
0x0000cf68:  e51b1038      ldr	r1, [fp, #-56]
0x0000cf6c:  e51b200c      ldr	r2, [fp, #-12]
0x0000cf70:  e1a00003      mov	r0, r3
0x0000cf74:  ebfffc36      bl	0xc054

----------------
IN: cipher_block_cpy
0x0000c054:  e92d4800      push	{fp, lr}
0x0000c058:  e28db004      add	fp, sp, #4	; 0x4
0x0000c05c:  e24dd028      sub	sp, sp, #40	; 0x28
0x0000c060:  e50b0020      str	r0, [fp, #-32]
0x0000c064:  e50b1024      str	r1, [fp, #-36]
0x0000c068:  e50b2028      str	r2, [fp, #-40]
0x0000c06c:  e51b3020      ldr	r3, [fp, #-32]
0x0000c070:  e50b3008      str	r3, [fp, #-8]
0x0000c074:  e51b3024      ldr	r3, [fp, #-36]
0x0000c078:  e50b300c      str	r3, [fp, #-12]
0x0000c07c:  e51b3028      ldr	r3, [fp, #-40]
0x0000c080:  e3530008      cmp	r3, #8	; 0x8
0x0000c084:  1a000014      bne	0xc0dc

----------------
IN: cipher_block_cpy
0x0000c088:  e51b000c      ldr	r0, [fp, #-12]
0x0000c08c:  ebffffa1      bl	0xbf18

----------------
IN: buf_get_le32
0x0000bf18:  e52db004      push	{fp}		; (str fp, [sp, #-4]!)
0x0000bf1c:  e28db000      add	fp, sp, #0	; 0x0
0x0000bf20:  e24dd024      sub	sp, sp, #36	; 0x24
0x0000bf24:  e50b0020      str	r0, [fp, #-32]
0x0000bf28:  e51b3020      ldr	r3, [fp, #-32]
0x0000bf2c:  e3530000      cmp	r3, #0	; 0x0
0x0000bf30:  1a000001      bne	0xbf3c

----------------
IN: buf_get_le32
0x0000bf3c:  e51b3020      ldr	r3, [fp, #-32]
0x0000bf40:  e50b3008      str	r3, [fp, #-8]
0x0000bf44:  e51b3008      ldr	r3, [fp, #-8]
0x0000bf48:  e50b300c      str	r3, [fp, #-12]
0x0000bf4c:  e51b300c      ldr	r3, [fp, #-12]
0x0000bf50:  e5d33000      ldrb	r3, [r3]
0x0000bf54:  e6ef3073      uxtb	r3, r3
0x0000bf58:  e50b3010      str	r3, [fp, #-16]
0x0000bf5c:  e51b300c      ldr	r3, [fp, #-12]
0x0000bf60:  e2833001      add	r3, r3, #1	; 0x1
0x0000bf64:  e5d33000      ldrb	r3, [r3]
0x0000bf68:  e6ef3073      uxtb	r3, r3
0x0000bf6c:  e50b3014      str	r3, [fp, #-20]
0x0000bf70:  e51b300c      ldr	r3, [fp, #-12]
0x0000bf74:  e2833002      add	r3, r3, #2	; 0x2
0x0000bf78:  e5d33000      ldrb	r3, [r3]
0x0000bf7c:  e6ef3073      uxtb	r3, r3
0x0000bf80:  e50b3018      str	r3, [fp, #-24]
0x0000bf84:  e51b300c      ldr	r3, [fp, #-12]
0x0000bf88:  e2833003      add	r3, r3, #3	; 0x3
0x0000bf8c:  e5d33000      ldrb	r3, [r3]
0x0000bf90:  e6ef3073      uxtb	r3, r3
0x0000bf94:  e50b301c      str	r3, [fp, #-28]
0x0000bf98:  e51b301c      ldr	r3, [fp, #-28]
0x0000bf9c:  e1a02c03      lsl	r2, r3, #24
0x0000bfa0:  e51b3018      ldr	r3, [fp, #-24]
0x0000bfa4:  e1a03803      lsl	r3, r3, #16
0x0000bfa8:  e1822003      orr	r2, r2, r3
0x0000bfac:  e51b3014      ldr	r3, [fp, #-20]
0x0000bfb0:  e1a03403      lsl	r3, r3, #8
0x0000bfb4:  e1822003      orr	r2, r2, r3
0x0000bfb8:  e51b3010      ldr	r3, [fp, #-16]
0x0000bfbc:  e1823003      orr	r3, r2, r3
0x0000bfc0:  e1a00003      mov	r0, r3
0x0000bfc4:  e28bd000      add	sp, fp, #0	; 0x0
0x0000bfc8:  e49db004      pop	{fp}		; (ldr fp, [sp], #4)
0x0000bfcc:  e12fff1e      bx	lr

----------------
IN: cipher_block_cpy
0x0000c090:  e1a03000      mov	r3, r0
0x0000c094:  e50b301c      str	r3, [fp, #-28]
0x0000c098:  e51b300c      ldr	r3, [fp, #-12]
0x0000c09c:  e2833004      add	r3, r3, #4	; 0x4
0x0000c0a0:  e1a00003      mov	r0, r3
0x0000c0a4:  ebffff9b      bl	0xbf18

----------------
IN: cipher_block_cpy
0x0000c0a8:  e1a03000      mov	r3, r0
0x0000c0ac:  e50b3018      str	r3, [fp, #-24]
0x0000c0b0:  e51b301c      ldr	r3, [fp, #-28]
0x0000c0b4:  e1a01003      mov	r1, r3
0x0000c0b8:  e51b0008      ldr	r0, [fp, #-8]
0x0000c0bc:  ebffffc3      bl	0xbfd0

----------------
IN: buf_put_le32
0x0000bfd0:  e52db004      push	{fp}		; (str fp, [sp, #-4]!)
0x0000bfd4:  e28db000      add	fp, sp, #0	; 0x0
0x0000bfd8:  e24dd014      sub	sp, sp, #20	; 0x14
0x0000bfdc:  e50b0010      str	r0, [fp, #-16]
0x0000bfe0:  e50b1014      str	r1, [fp, #-20]
0x0000bfe4:  e51b3010      ldr	r3, [fp, #-16]
0x0000bfe8:  e50b3008      str	r3, [fp, #-8]
0x0000bfec:  e51b3014      ldr	r3, [fp, #-20]
0x0000bff0:  e1a02c23      lsr	r2, r3, #24
0x0000bff4:  e51b3008      ldr	r3, [fp, #-8]
0x0000bff8:  e2833003      add	r3, r3, #3	; 0x3
0x0000bffc:  e6ef2072      uxtb	r2, r2

----------------
IN: buf_put_le32
0x0000c000:  e5c32000      strb	r2, [r3]
0x0000c004:  e51b3014      ldr	r3, [fp, #-20]
0x0000c008:  e1a02823      lsr	r2, r3, #16
0x0000c00c:  e51b3008      ldr	r3, [fp, #-8]
0x0000c010:  e2833002      add	r3, r3, #2	; 0x2
0x0000c014:  e6ef2072      uxtb	r2, r2
0x0000c018:  e5c32000      strb	r2, [r3]
0x0000c01c:  e51b3014      ldr	r3, [fp, #-20]
0x0000c020:  e1a02423      lsr	r2, r3, #8
0x0000c024:  e51b3008      ldr	r3, [fp, #-8]
0x0000c028:  e2833001      add	r3, r3, #1	; 0x1
0x0000c02c:  e6ef2072      uxtb	r2, r2
0x0000c030:  e5c32000      strb	r2, [r3]
0x0000c034:  e51b3014      ldr	r3, [fp, #-20]
0x0000c038:  e6ef2073      uxtb	r2, r3
0x0000c03c:  e51b3008      ldr	r3, [fp, #-8]
0x0000c040:  e5c32000      strb	r2, [r3]
0x0000c044:  e320f000      nop	{0}
0x0000c048:  e28bd000      add	sp, fp, #0	; 0x0
0x0000c04c:  e49db004      pop	{fp}		; (ldr fp, [sp], #4)
0x0000c050:  e12fff1e      bx	lr

----------------
IN: cipher_block_cpy
0x0000c0c0:  e51b3008      ldr	r3, [fp, #-8]
0x0000c0c4:  e2833004      add	r3, r3, #4	; 0x4
0x0000c0c8:  e51b2018      ldr	r2, [fp, #-24]
0x0000c0cc:  e1a01002      mov	r1, r2
0x0000c0d0:  e1a00003      mov	r0, r3
0x0000c0d4:  ebffffbd      bl	0xbfd0

----------------
IN: cipher_block_cpy
0x0000c0d8:  ea00002b      b	0xc18c

----------------
IN: cipher_block_cpy
0x0000c18c:  e320f000      nop	{0}
0x0000c190:  e24bd004      sub	sp, fp, #4	; 0x4
0x0000c194:  e8bd8800      pop	{fp, pc}

----------------
IN: _gcry_cipher_cfb_decrypt
0x0000cf78:  e51b2038      ldr	r2, [fp, #-56]
0x0000cf7c:  e24b302c      sub	r3, fp, #44	; 0x2c
0x0000cf80:  e1a01002      mov	r1, r2
0x0000cf84:  e1a00003      mov	r0, r3
0x0000cf88:  eb000bcc      bl	0xfec0

----------------
IN: blockFromBytes
0x0000fec0:  e52db004      push	{fp}		; (str fp, [sp, #-4]!)
0x0000fec4:  e28db000      add	fp, sp, #0	; 0x0
0x0000fec8:  e24dd01c      sub	sp, sp, #28	; 0x1c
0x0000fecc:  e50b0018      str	r0, [fp, #-24]
0x0000fed0:  e50b101c      str	r1, [fp, #-28]
0x0000fed4:  e3a03000      mov	r3, #0	; 0x0
0x0000fed8:  e50b3010      str	r3, [fp, #-16]
0x0000fedc:  e3a03000      mov	r3, #0	; 0x0
0x0000fee0:  e50b300c      str	r3, [fp, #-12]
0x0000fee4:  e3a03000      mov	r3, #0	; 0x0
0x0000fee8:  e50b3008      str	r3, [fp, #-8]
0x0000feec:  ea000016      b	0xff4c

----------------
IN: blockFromBytes
0x0000ff4c:  e51b3008      ldr	r3, [fp, #-8]
0x0000ff50:  e3530007      cmp	r3, #7	; 0x7
0x0000ff54:  daffffe5      ble	0xfef0

----------------
IN: blockFromBytes
0x0000fef0:  e51b3008      ldr	r3, [fp, #-8]
0x0000fef4:  e3530003      cmp	r3, #3	; 0x3
0x0000fef8:  ca000008      bgt	0xff20

----------------
IN: blockFromBytes
0x0000fefc:  e51b3010      ldr	r3, [fp, #-16]
0x0000ff00:  e1a03403      lsl	r3, r3, #8
0x0000ff04:  e51b2008      ldr	r2, [fp, #-8]
0x0000ff08:  e51b101c      ldr	r1, [fp, #-28]
0x0000ff0c:  e0812002      add	r2, r1, r2
0x0000ff10:  e5d22000      ldrb	r2, [r2]
0x0000ff14:  e1833002      orr	r3, r3, r2
0x0000ff18:  e50b3010      str	r3, [fp, #-16]
0x0000ff1c:  ea000007      b	0xff40

----------------
IN: blockFromBytes
0x0000ff40:  e51b3008      ldr	r3, [fp, #-8]
0x0000ff44:  e2833001      add	r3, r3, #1	; 0x1
0x0000ff48:  e50b3008      str	r3, [fp, #-8]
0x0000ff4c:  e51b3008      ldr	r3, [fp, #-8]
0x0000ff50:  e3530007      cmp	r3, #7	; 0x7
0x0000ff54:  daffffe5      ble	0xfef0

----------------
IN: blockFromBytes
0x0000ff20:  e51b300c      ldr	r3, [fp, #-12]
0x0000ff24:  e1a03403      lsl	r3, r3, #8
0x0000ff28:  e51b2008      ldr	r2, [fp, #-8]
0x0000ff2c:  e51b101c      ldr	r1, [fp, #-28]
0x0000ff30:  e0812002      add	r2, r1, r2
0x0000ff34:  e5d22000      ldrb	r2, [r2]
0x0000ff38:  e1833002      orr	r3, r3, r2
0x0000ff3c:  e50b300c      str	r3, [fp, #-12]
0x0000ff40:  e51b3008      ldr	r3, [fp, #-8]
0x0000ff44:  e2833001      add	r3, r3, #1	; 0x1
0x0000ff48:  e50b3008      str	r3, [fp, #-8]
0x0000ff4c:  e51b3008      ldr	r3, [fp, #-8]
0x0000ff50:  e3530007      cmp	r3, #7	; 0x7
0x0000ff54:  daffffe5      ble	0xfef0

----------------
IN: blockFromBytes
0x0000ff58:  e51b3018      ldr	r3, [fp, #-24]
0x0000ff5c:  e1a02003      mov	r2, r3
0x0000ff60:  e24b3010      sub	r3, fp, #16	; 0x10
0x0000ff64:  e8930003      ldm	r3, {r0, r1}
0x0000ff68:  e8820003      stm	r2, {r0, r1}
0x0000ff6c:  e51b0018      ldr	r0, [fp, #-24]
0x0000ff70:  e28bd000      add	sp, fp, #0	; 0x0
0x0000ff74:  e49db004      pop	{fp}		; (ldr fp, [sp], #4)
0x0000ff78:  e12fff1e      bx	lr

----------------
IN: _gcry_cipher_cfb_decrypt
0x0000cf8c:  e51b3038      ldr	r3, [fp, #-56]
0x0000cf90:  e2831030      add	r1, r3, #48	; 0x30
0x0000cf94:  e24b004c      sub	r0, fp, #76	; 0x4c
0x0000cf98:  e3a03000      mov	r3, #0	; 0x0
0x0000cf9c:  e58d3000      str	r3, [sp]
0x0000cfa0:  e24b302c      sub	r3, fp, #44	; 0x2c
0x0000cfa4:  e893000c      ldm	r3, {r2, r3}
0x0000cfa8:  eb000bb1      bl	0xfe74

----------------
IN: encrypt
0x0000fe74:  e92d4800      push	{fp, lr}
0x0000fe78:  e28db004      add	fp, sp, #4	; 0x4
0x0000fe7c:  e24dd018      sub	sp, sp, #24	; 0x18
0x0000fe80:  e50b0008      str	r0, [fp, #-8]
0x0000fe84:  e50b100c      str	r1, [fp, #-12]
0x0000fe88:  e24b1014      sub	r1, fp, #20	; 0x14
0x0000fe8c:  e881000c      stm	r1, {r2, r3}
0x0000fe90:  e51b0008      ldr	r0, [fp, #-8]
0x0000fe94:  e59b3004      ldr	r3, [fp, #4]
0x0000fe98:  e58d3004      str	r3, [sp, #4]
0x0000fe9c:  e3a03000      mov	r3, #0	; 0x0
0x0000fea0:  e58d3000      str	r3, [sp]
0x0000fea4:  e24b3014      sub	r3, fp, #20	; 0x14
0x0000fea8:  e893000c      ldm	r3, {r2, r3}
0x0000feac:  e51b100c      ldr	r1, [fp, #-12]
0x0000feb0:  ebfff538      bl	0xd398

----------------
IN: run
0x0000d398:  e92d4870      push	{r4, r5, r6, fp, lr}
0x0000d39c:  e28db010      add	fp, sp, #16	; 0x10
0x0000d3a0:  e24ddf69      sub	sp, sp, #420	; 0x1a4
0x0000d3a4:  e50b0190      str	r0, [fp, #-400]
0x0000d3a8:  e50b1194      str	r1, [fp, #-404]
0x0000d3ac:  e24b1f67      sub	r1, fp, #412	; 0x19c
0x0000d3b0:  e881000c      stm	r1, {r2, r3}
0x0000d3b4:  e24b3070      sub	r3, fp, #112	; 0x70
0x0000d3b8:  e3a02000      mov	r2, #0	; 0x0
0x0000d3bc:  e5832000      str	r2, [r3]
0x0000d3c0:  e5832004      str	r2, [r3, #4]
0x0000d3c4:  e5832008      str	r2, [r3, #8]
0x0000d3c8:  e583200c      str	r2, [r3, #12]
0x0000d3cc:  e24b3070      sub	r3, fp, #112	; 0x70
0x0000d3d0:  e3a02010      mov	r2, #16	; 0x10
0x0000d3d4:  e51b1194      ldr	r1, [fp, #-404]
0x0000d3d8:  e1a00003      mov	r0, r3
0x0000d3dc:  eb000c2e      bl	0x1049c

----------------
IN: run
0x0000d3e0:  e24b3080      sub	r3, fp, #128	; 0x80
0x0000d3e4:  e3a02000      mov	r2, #0	; 0x0
0x0000d3e8:  e5832000      str	r2, [r3]
0x0000d3ec:  e5832004      str	r2, [r3, #4]
0x0000d3f0:  e5832008      str	r2, [r3, #8]
0x0000d3f4:  e583200c      str	r2, [r3, #12]
0x0000d3f8:  e59b3008      ldr	r3, [fp, #8]
0x0000d3fc:  e3530000      cmp	r3, #0	; 0x0

----------------
IN: run
0x0000d400:  0a000021      beq	0xd48c

----------------
IN: run
0x0000d48c:  e24b3c01      sub	r3, fp, #256	; 0x100
0x0000d490:  e3a02080      mov	r2, #128	; 0x80
0x0000d494:  e3a01000      mov	r1, #0	; 0x0
0x0000d498:  e1a00003      mov	r0, r3
0x0000d49c:  eb000be5      bl	0x10438

----------------
IN: run
0x0000d4a0:  e3a03000      mov	r3, #0	; 0x0
0x0000d4a4:  e50b301c      str	r3, [fp, #-28]
0x0000d4a8:  ea000819      b	0xf514

----------------
IN: run
0x0000f514:  e51b301c      ldr	r3, [fp, #-28]
0x0000f518:  e3530001      cmp	r3, #1	; 0x1
0x0000f51c:  dafff7e2      ble	0xd4ac

----------------
IN: run
0x0000d4ac:  e59b3008      ldr	r3, [fp, #8]
0x0000d4b0:  e3530000      cmp	r3, #0	; 0x0
0x0000d4b4:  0a000003      beq	0xd4c8

----------------
IN: run
0x0000d4c8:  e59b3008      ldr	r3, [fp, #8]
0x0000d4cc:  e3530000      cmp	r3, #0	; 0x0
0x0000d4d0:  0a000031      beq	0xd59c

----------------
IN: run
0x0000d59c:  e51b4070      ldr	r4, [fp, #-112]
0x0000d5a0:  e24b3070      sub	r3, fp, #112	; 0x70
0x0000d5a4:  e3a0100d      mov	r1, #13	; 0xd
0x0000d5a8:  e1a00003      mov	r0, r3
0x0000d5ac:  ebffff15      bl	0xd208

----------------
IN: g
0x0000d208:  e52db004      push	{fp}		; (str fp, [sp, #-4]!)
0x0000d20c:  e28db000      add	fp, sp, #0	; 0x0
0x0000d210:  e24dd00c      sub	sp, sp, #12	; 0xc
0x0000d214:  e50b0008      str	r0, [fp, #-8]
0x0000d218:  e1a03001      mov	r3, r1
0x0000d21c:  e54b3009      strb	r3, [fp, #-9]
0x0000d220:  e55b2009      ldrb	r2, [fp, #-9]
0x0000d224:  e30732a8      movw	r3, #29352	; 0x72a8
0x0000d228:  e3403001      movt	r3, #1	; 0x1
0x0000d22c:  e7d33002      ldrb	r3, [r3, r2]
0x0000d230:  e1a02003      mov	r2, r3
0x0000d234:  e51b3008      ldr	r3, [fp, #-8]
0x0000d238:  e0833002      add	r3, r3, r2
0x0000d23c:  e5d33000      ldrb	r3, [r3]
0x0000d240:  e1a00003      mov	r0, r3
0x0000d244:  e28bd000      add	sp, fp, #0	; 0x0
0x0000d248:  e49db004      pop	{fp}		; (ldr fp, [sp], #4)
0x0000d24c:  e12fff1e      bx	lr

----------------
IN: run
0x0000d5b0:  e1a03000      mov	r3, r0
0x0000d5b4:  e1a02003      mov	r2, r3
0x0000d5b8:  e30632a8      movw	r3, #25256	; 0x62a8
0x0000d5bc:  e3403001      movt	r3, #1	; 0x1
0x0000d5c0:  e7933102      ldr	r3, [r3, r2, lsl #2]
0x0000d5c4:  e0244003      eor	r4, r4, r3
0x0000d5c8:  e24b3070      sub	r3, fp, #112	; 0x70
0x0000d5cc:  e3a0100f      mov	r1, #15	; 0xf
0x0000d5d0:  e1a00003      mov	r0, r3
0x0000d5d4:  ebffff0b      bl	0xd208

----------------
IN: run
0x0000d5d8:  e1a03000      mov	r3, r0
0x0000d5dc:  e1a02003      mov	r2, r3
0x0000d5e0:  e30636a8      movw	r3, #26280	; 0x66a8
0x0000d5e4:  e3403001      movt	r3, #1	; 0x1
0x0000d5e8:  e7933102      ldr	r3, [r3, r2, lsl #2]
0x0000d5ec:  e0244003      eor	r4, r4, r3
0x0000d5f0:  e24b3070      sub	r3, fp, #112	; 0x70
0x0000d5f4:  e3a0100c      mov	r1, #12	; 0xc
0x0000d5f8:  e1a00003      mov	r0, r3
0x0000d5fc:  ebffff01      bl	0xd208

----------------
IN: run
0x0000d600:  e1a03000      mov	r3, r0
0x0000d604:  e1a02003      mov	r2, r3
0x0000d608:  e3063aa8      movw	r3, #27304	; 0x6aa8
0x0000d60c:  e3403001      movt	r3, #1	; 0x1
0x0000d610:  e7933102      ldr	r3, [r3, r2, lsl #2]
0x0000d614:  e0244003      eor	r4, r4, r3
0x0000d618:  e24b3070      sub	r3, fp, #112	; 0x70
0x0000d61c:  e3a0100e      mov	r1, #14	; 0xe
0x0000d620:  e1a00003      mov	r0, r3
0x0000d624:  ebfffef7      bl	0xd208

----------------
IN: run
0x0000d628:  e1a03000      mov	r3, r0
0x0000d62c:  e1a02003      mov	r2, r3
0x0000d630:  e3063ea8      movw	r3, #28328	; 0x6ea8
0x0000d634:  e3403001      movt	r3, #1	; 0x1
0x0000d638:  e7933102      ldr	r3, [r3, r2, lsl #2]
0x0000d63c:  e0244003      eor	r4, r4, r3
0x0000d640:  e24b3070      sub	r3, fp, #112	; 0x70
0x0000d644:  e3a01008      mov	r1, #8	; 0x8
0x0000d648:  e1a00003      mov	r0, r3
0x0000d64c:  ebfffeed      bl	0xd208

----------------
IN: run
0x0000d650:  e1a03000      mov	r3, r0
0x0000d654:  e1a02003      mov	r2, r3
0x0000d658:  e3063aa8      movw	r3, #27304	; 0x6aa8
0x0000d65c:  e3403001      movt	r3, #1	; 0x1
0x0000d660:  e7933102      ldr	r3, [r3, r2, lsl #2]
0x0000d664:  e0233004      eor	r3, r3, r4
0x0000d668:  e50b3080      str	r3, [fp, #-128]
0x0000d66c:  e51b4068      ldr	r4, [fp, #-104]
0x0000d670:  e24b3080      sub	r3, fp, #128	; 0x80
0x0000d674:  e3a01000      mov	r1, #0	; 0x0
0x0000d678:  e1a00003      mov	r0, r3
0x0000d67c:  ebfffee1      bl	0xd208

----------------
IN: run
0x0000d680:  e1a03000      mov	r3, r0
0x0000d684:  e1a02003      mov	r2, r3
0x0000d688:  e30632a8      movw	r3, #25256	; 0x62a8
0x0000d68c:  e3403001      movt	r3, #1	; 0x1
0x0000d690:  e7933102      ldr	r3, [r3, r2, lsl #2]
0x0000d694:  e0244003      eor	r4, r4, r3
0x0000d698:  e24b3080      sub	r3, fp, #128	; 0x80
0x0000d69c:  e3a01002      mov	r1, #2	; 0x2
0x0000d6a0:  e1a00003      mov	r0, r3
0x0000d6a4:  ebfffed7      bl	0xd208

----------------
IN: run
0x0000d6a8:  e1a03000      mov	r3, r0
0x0000d6ac:  e1a02003      mov	r2, r3
0x0000d6b0:  e30636a8      movw	r3, #26280	; 0x66a8
0x0000d6b4:  e3403001      movt	r3, #1	; 0x1
0x0000d6b8:  e7933102      ldr	r3, [r3, r2, lsl #2]
0x0000d6bc:  e0244003      eor	r4, r4, r3
0x0000d6c0:  e24b3080      sub	r3, fp, #128	; 0x80
0x0000d6c4:  e3a01001      mov	r1, #1	; 0x1
0x0000d6c8:  e1a00003      mov	r0, r3
0x0000d6cc:  ebfffecd      bl	0xd208

----------------
IN: run
0x0000d6d0:  e1a03000      mov	r3, r0
0x0000d6d4:  e1a02003      mov	r2, r3
0x0000d6d8:  e3063aa8      movw	r3, #27304	; 0x6aa8
0x0000d6dc:  e3403001      movt	r3, #1	; 0x1
0x0000d6e0:  e7933102      ldr	r3, [r3, r2, lsl #2]
0x0000d6e4:  e0244003      eor	r4, r4, r3
0x0000d6e8:  e24b3080      sub	r3, fp, #128	; 0x80
0x0000d6ec:  e3a01003      mov	r1, #3	; 0x3
0x0000d6f0:  e1a00003      mov	r0, r3
0x0000d6f4:  ebfffec3      bl	0xd208

----------------
IN: run
0x0000d6f8:  e1a03000      mov	r3, r0
0x0000d6fc:  e1a02003      mov	r2, r3
0x0000d700:  e3063ea8      movw	r3, #28328	; 0x6ea8
0x0000d704:  e3403001      movt	r3, #1	; 0x1
0x0000d708:  e7933102      ldr	r3, [r3, r2, lsl #2]
0x0000d70c:  e0244003      eor	r4, r4, r3
0x0000d710:  e24b3070      sub	r3, fp, #112	; 0x70
0x0000d714:  e3a0100a      mov	r1, #10	; 0xa
0x0000d718:  e1a00003      mov	r0, r3
0x0000d71c:  ebfffeb9      bl	0xd208

----------------
IN: run
0x0000d720:  e1a03000      mov	r3, r0
0x0000d724:  e1a02003      mov	r2, r3
0x0000d728:  e3063ea8      movw	r3, #28328	; 0x6ea8
0x0000d72c:  e3403001      movt	r3, #1	; 0x1
0x0000d730:  e7933102      ldr	r3, [r3, r2, lsl #2]
0x0000d734:  e0233004      eor	r3, r3, r4
0x0000d738:  e50b307c      str	r3, [fp, #-124]
0x0000d73c:  e51b4064      ldr	r4, [fp, #-100]
0x0000d740:  e24b3080      sub	r3, fp, #128	; 0x80
0x0000d744:  e3a01007      mov	r1, #7	; 0x7
0x0000d748:  e1a00003      mov	r0, r3
0x0000d74c:  ebfffead      bl	0xd208

----------------
IN: run
0x0000d750:  e1a03000      mov	r3, r0
0x0000d754:  e1a02003      mov	r2, r3
0x0000d758:  e30632a8      movw	r3, #25256	; 0x62a8
0x0000d75c:  e3403001      movt	r3, #1	; 0x1
0x0000d760:  e7933102      ldr	r3, [r3, r2, lsl #2]
0x0000d764:  e0244003      eor	r4, r4, r3
0x0000d768:  e24b3080      sub	r3, fp, #128	; 0x80
0x0000d76c:  e3a01006      mov	r1, #6	; 0x6
0x0000d770:  e1a00003      mov	r0, r3
0x0000d774:  ebfffea3      bl	0xd208

----------------
IN: run
0x0000d778:  e1a03000      mov	r3, r0
0x0000d77c:  e1a02003      mov	r2, r3
0x0000d780:  e30636a8      movw	r3, #26280	; 0x66a8
0x0000d784:  e3403001      movt	r3, #1	; 0x1
0x0000d788:  e7933102      ldr	r3, [r3, r2, lsl #2]
0x0000d78c:  e0244003      eor	r4, r4, r3
0x0000d790:  e24b3080      sub	r3, fp, #128	; 0x80
0x0000d794:  e3a01005      mov	r1, #5	; 0x5
0x0000d798:  e1a00003      mov	r0, r3
0x0000d79c:  ebfffe99      bl	0xd208

----------------
IN: run
0x0000d7a0:  e1a03000      mov	r3, r0
0x0000d7a4:  e1a02003      mov	r2, r3
0x0000d7a8:  e3063aa8      movw	r3, #27304	; 0x6aa8
0x0000d7ac:  e3403001      movt	r3, #1	; 0x1
0x0000d7b0:  e7933102      ldr	r3, [r3, r2, lsl #2]
0x0000d7b4:  e0244003      eor	r4, r4, r3
0x0000d7b8:  e24b3080      sub	r3, fp, #128	; 0x80
0x0000d7bc:  e3a01004      mov	r1, #4	; 0x4
0x0000d7c0:  e1a00003      mov	r0, r3
0x0000d7c4:  ebfffe8f      bl	0xd208

----------------
IN: run
0x0000d7c8:  e1a03000      mov	r3, r0
0x0000d7cc:  e1a02003      mov	r2, r3
0x0000d7d0:  e3063ea8      movw	r3, #28328	; 0x6ea8
0x0000d7d4:  e3403001      movt	r3, #1	; 0x1
0x0000d7d8:  e7933102      ldr	r3, [r3, r2, lsl #2]
0x0000d7dc:  e0244003      eor	r4, r4, r3
0x0000d7e0:  e24b3070      sub	r3, fp, #112	; 0x70
0x0000d7e4:  e3a01009      mov	r1, #9	; 0x9
0x0000d7e8:  e1a00003      mov	r0, r3
0x0000d7ec:  ebfffe85      bl	0xd208

----------------
IN: run
0x0000d7f0:  e1a03000      mov	r3, r0
0x0000d7f4:  e1a02003      mov	r2, r3
0x0000d7f8:  e30632a8      movw	r3, #25256	; 0x62a8
0x0000d7fc:  e3403001      movt	r3, #1	; 0x1

----------------
IN: run
0x0000d800:  e7933102      ldr	r3, [r3, r2, lsl #2]
0x0000d804:  e0233004      eor	r3, r3, r4
0x0000d808:  e50b3078      str	r3, [fp, #-120]
0x0000d80c:  e51b406c      ldr	r4, [fp, #-108]
0x0000d810:  e24b3080      sub	r3, fp, #128	; 0x80
0x0000d814:  e3a0100a      mov	r1, #10	; 0xa
0x0000d818:  e1a00003      mov	r0, r3
0x0000d81c:  ebfffe79      bl	0xd208

----------------
IN: run
0x0000d820:  e1a03000      mov	r3, r0
0x0000d824:  e1a02003      mov	r2, r3
0x0000d828:  e30632a8      movw	r3, #25256	; 0x62a8
0x0000d82c:  e3403001      movt	r3, #1	; 0x1
0x0000d830:  e7933102      ldr	r3, [r3, r2, lsl #2]
0x0000d834:  e0244003      eor	r4, r4, r3
0x0000d838:  e24b3080      sub	r3, fp, #128	; 0x80
0x0000d83c:  e3a01009      mov	r1, #9	; 0x9
0x0000d840:  e1a00003      mov	r0, r3
0x0000d844:  ebfffe6f      bl	0xd208

----------------
IN: run
0x0000d848:  e1a03000      mov	r3, r0
0x0000d84c:  e1a02003      mov	r2, r3
0x0000d850:  e30636a8      movw	r3, #26280	; 0x66a8
0x0000d854:  e3403001      movt	r3, #1	; 0x1
0x0000d858:  e7933102      ldr	r3, [r3, r2, lsl #2]
0x0000d85c:  e0244003      eor	r4, r4, r3
0x0000d860:  e24b3080      sub	r3, fp, #128	; 0x80
0x0000d864:  e3a0100b      mov	r1, #11	; 0xb
0x0000d868:  e1a00003      mov	r0, r3
0x0000d86c:  ebfffe65      bl	0xd208

----------------
IN: run
0x0000d870:  e1a03000      mov	r3, r0
0x0000d874:  e1a02003      mov	r2, r3
0x0000d878:  e3063aa8      movw	r3, #27304	; 0x6aa8
0x0000d87c:  e3403001      movt	r3, #1	; 0x1
0x0000d880:  e7933102      ldr	r3, [r3, r2, lsl #2]
0x0000d884:  e0244003      eor	r4, r4, r3
0x0000d888:  e24b3080      sub	r3, fp, #128	; 0x80
0x0000d88c:  e3a01008      mov	r1, #8	; 0x8
0x0000d890:  e1a00003      mov	r0, r3
0x0000d894:  ebfffe5b      bl	0xd208

----------------
IN: run
0x0000d898:  e1a03000      mov	r3, r0
0x0000d89c:  e1a02003      mov	r2, r3
0x0000d8a0:  e3063ea8      movw	r3, #28328	; 0x6ea8
0x0000d8a4:  e3403001      movt	r3, #1	; 0x1
0x0000d8a8:  e7933102      ldr	r3, [r3, r2, lsl #2]
0x0000d8ac:  e0244003      eor	r4, r4, r3
0x0000d8b0:  e24b3070      sub	r3, fp, #112	; 0x70
0x0000d8b4:  e3a0100b      mov	r1, #11	; 0xb
0x0000d8b8:  e1a00003      mov	r0, r3
0x0000d8bc:  ebfffe51      bl	0xd208

----------------
IN: run
0x0000d8c0:  e1a03000      mov	r3, r0
0x0000d8c4:  e1a02003      mov	r2, r3
0x0000d8c8:  e30636a8      movw	r3, #26280	; 0x66a8
0x0000d8cc:  e3403001      movt	r3, #1	; 0x1
0x0000d8d0:  e7933102      ldr	r3, [r3, r2, lsl #2]
0x0000d8d4:  e0233004      eor	r3, r3, r4
0x0000d8d8:  e50b3074      str	r3, [fp, #-116]
0x0000d8dc:  e59b3008      ldr	r3, [fp, #8]
0x0000d8e0:  e3530000      cmp	r3, #0	; 0x0
0x0000d8e4:  0a000017      beq	0xd948

----------------
IN: run
0x0000d948:  e24b3080      sub	r3, fp, #128	; 0x80
0x0000d94c:  e3a01008      mov	r1, #8	; 0x8
0x0000d950:  e1a00003      mov	r0, r3
0x0000d954:  ebfffe2b      bl	0xd208

----------------
IN: run
0x0000d958:  e1a03000      mov	r3, r0
0x0000d95c:  e1a02003      mov	r2, r3
0x0000d960:  e30632a8      movw	r3, #25256	; 0x62a8
0x0000d964:  e3403001      movt	r3, #1	; 0x1
0x0000d968:  e7934102      ldr	r4, [r3, r2, lsl #2]
0x0000d96c:  e24b3080      sub	r3, fp, #128	; 0x80
0x0000d970:  e3a01009      mov	r1, #9	; 0x9
0x0000d974:  e1a00003      mov	r0, r3
0x0000d978:  ebfffe22      bl	0xd208

----------------
IN: run
0x0000d97c:  e1a03000      mov	r3, r0
0x0000d980:  e1a02003      mov	r2, r3
0x0000d984:  e30636a8      movw	r3, #26280	; 0x66a8
0x0000d988:  e3403001      movt	r3, #1	; 0x1
0x0000d98c:  e7933102      ldr	r3, [r3, r2, lsl #2]
0x0000d990:  e0244003      eor	r4, r4, r3
0x0000d994:  e24b3080      sub	r3, fp, #128	; 0x80
0x0000d998:  e3a01007      mov	r1, #7	; 0x7
0x0000d99c:  e1a00003      mov	r0, r3
0x0000d9a0:  ebfffe18      bl	0xd208

----------------
IN: run
0x0000d9a4:  e1a03000      mov	r3, r0
0x0000d9a8:  e1a02003      mov	r2, r3
0x0000d9ac:  e3063aa8      movw	r3, #27304	; 0x6aa8
0x0000d9b0:  e3403001      movt	r3, #1	; 0x1
0x0000d9b4:  e7933102      ldr	r3, [r3, r2, lsl #2]
0x0000d9b8:  e0244003      eor	r4, r4, r3
0x0000d9bc:  e24b3080      sub	r3, fp, #128	; 0x80
0x0000d9c0:  e3a01006      mov	r1, #6	; 0x6
0x0000d9c4:  e1a00003      mov	r0, r3
0x0000d9c8:  ebfffe0e      bl	0xd208

----------------
IN: run
0x0000d9cc:  e1a03000      mov	r3, r0
0x0000d9d0:  e1a02003      mov	r2, r3
0x0000d9d4:  e3063ea8      movw	r3, #28328	; 0x6ea8
0x0000d9d8:  e3403001      movt	r3, #1	; 0x1
0x0000d9dc:  e7933102      ldr	r3, [r3, r2, lsl #2]
0x0000d9e0:  e0244003      eor	r4, r4, r3
0x0000d9e4:  e24b3080      sub	r3, fp, #128	; 0x80
0x0000d9e8:  e3a01002      mov	r1, #2	; 0x2
0x0000d9ec:  e1a00003      mov	r0, r3
0x0000d9f0:  ebfffe04      bl	0xd208

----------------
IN: run
0x0000d9f4:  e1a03000      mov	r3, r0
0x0000d9f8:  e1a02003      mov	r2, r3
0x0000d9fc:  e30632a8      movw	r3, #25256	; 0x62a8
0x0000da00:  e3403001      movt	r3, #1	; 0x1
0x0000da04:  e7932102      ldr	r2, [r3, r2, lsl #2]
0x0000da08:  e51b301c      ldr	r3, [fp, #-28]
0x0000da0c:  e1a03203      lsl	r3, r3, #4
0x0000da10:  e0222004      eor	r2, r2, r4
0x0000da14:  e1a03103      lsl	r3, r3, #2
0x0000da18:  e2433014      sub	r3, r3, #20	; 0x14
0x0000da1c:  e083300b      add	r3, r3, fp
0x0000da20:  e50320ec      str	r2, [r3, #-236]
0x0000da24:  e24b3080      sub	r3, fp, #128	; 0x80
0x0000da28:  e3a0100a      mov	r1, #10	; 0xa
0x0000da2c:  e1a00003      mov	r0, r3
0x0000da30:  ebfffdf4      bl	0xd208

----------------
IN: run
0x0000da34:  e1a03000      mov	r3, r0
0x0000da38:  e1a02003      mov	r2, r3
0x0000da3c:  e30632a8      movw	r3, #25256	; 0x62a8
0x0000da40:  e3403001      movt	r3, #1	; 0x1
0x0000da44:  e7934102      ldr	r4, [r3, r2, lsl #2]
0x0000da48:  e24b3080      sub	r3, fp, #128	; 0x80
0x0000da4c:  e3a0100b      mov	r1, #11	; 0xb
0x0000da50:  e1a00003      mov	r0, r3
0x0000da54:  ebfffdeb      bl	0xd208

----------------
IN: run
0x0000da58:  e1a03000      mov	r3, r0
0x0000da5c:  e1a02003      mov	r2, r3
0x0000da60:  e30636a8      movw	r3, #26280	; 0x66a8
0x0000da64:  e3403001      movt	r3, #1	; 0x1
0x0000da68:  e7933102      ldr	r3, [r3, r2, lsl #2]
0x0000da6c:  e0244003      eor	r4, r4, r3
0x0000da70:  e24b3080      sub	r3, fp, #128	; 0x80
0x0000da74:  e3a01005      mov	r1, #5	; 0x5
0x0000da78:  e1a00003      mov	r0, r3
0x0000da7c:  ebfffde1      bl	0xd208

----------------
IN: run
0x0000da80:  e1a03000      mov	r3, r0
0x0000da84:  e1a02003      mov	r2, r3
0x0000da88:  e3063aa8      movw	r3, #27304	; 0x6aa8
0x0000da8c:  e3403001      movt	r3, #1	; 0x1
0x0000da90:  e7933102      ldr	r3, [r3, r2, lsl #2]
0x0000da94:  e0244003      eor	r4, r4, r3
0x0000da98:  e24b3080      sub	r3, fp, #128	; 0x80
0x0000da9c:  e3a01004      mov	r1, #4	; 0x4
0x0000daa0:  e1a00003      mov	r0, r3
0x0000daa4:  ebfffdd7      bl	0xd208

----------------
IN: run
0x0000daa8:  e1a03000      mov	r3, r0
0x0000daac:  e1a02003      mov	r2, r3
0x0000dab0:  e3063ea8      movw	r3, #28328	; 0x6ea8
0x0000dab4:  e3403001      movt	r3, #1	; 0x1
0x0000dab8:  e7933102      ldr	r3, [r3, r2, lsl #2]
0x0000dabc:  e0244003      eor	r4, r4, r3
0x0000dac0:  e24b3080      sub	r3, fp, #128	; 0x80
0x0000dac4:  e3a01006      mov	r1, #6	; 0x6
0x0000dac8:  e1a00003      mov	r0, r3
0x0000dacc:  ebfffdcd      bl	0xd208

----------------
IN: run
0x0000dad0:  e1a03000      mov	r3, r0
0x0000dad4:  e1a02003      mov	r2, r3
0x0000dad8:  e30636a8      movw	r3, #26280	; 0x66a8
0x0000dadc:  e3403001      movt	r3, #1	; 0x1
0x0000dae0:  e7932102      ldr	r2, [r3, r2, lsl #2]
0x0000dae4:  e51b301c      ldr	r3, [fp, #-28]
0x0000dae8:  e1a03203      lsl	r3, r3, #4
0x0000daec:  e2833001      add	r3, r3, #1	; 0x1
0x0000daf0:  e0222004      eor	r2, r2, r4
0x0000daf4:  e1a03103      lsl	r3, r3, #2
0x0000daf8:  e2433014      sub	r3, r3, #20	; 0x14
0x0000dafc:  e083300b      add	r3, r3, fp
0x0000db00:  e50320ec      str	r2, [r3, #-236]
0x0000db04:  e24b3080      sub	r3, fp, #128	; 0x80
0x0000db08:  e3a0100c      mov	r1, #12	; 0xc
0x0000db0c:  e1a00003      mov	r0, r3
0x0000db10:  ebfffdbc      bl	0xd208

----------------
IN: run
0x0000db14:  e1a03000      mov	r3, r0
0x0000db18:  e1a02003      mov	r2, r3
0x0000db1c:  e30632a8      movw	r3, #25256	; 0x62a8
0x0000db20:  e3403001      movt	r3, #1	; 0x1
0x0000db24:  e7934102      ldr	r4, [r3, r2, lsl #2]
0x0000db28:  e24b3080      sub	r3, fp, #128	; 0x80
0x0000db2c:  e3a0100d      mov	r1, #13	; 0xd
0x0000db30:  e1a00003      mov	r0, r3
0x0000db34:  ebfffdb3      bl	0xd208

----------------
IN: run
0x0000db38:  e1a03000      mov	r3, r0
0x0000db3c:  e1a02003      mov	r2, r3
0x0000db40:  e30636a8      movw	r3, #26280	; 0x66a8
0x0000db44:  e3403001      movt	r3, #1	; 0x1
0x0000db48:  e7933102      ldr	r3, [r3, r2, lsl #2]
0x0000db4c:  e0244003      eor	r4, r4, r3
0x0000db50:  e24b3080      sub	r3, fp, #128	; 0x80
0x0000db54:  e3a01003      mov	r1, #3	; 0x3
0x0000db58:  e1a00003      mov	r0, r3
0x0000db5c:  ebfffda9      bl	0xd208

----------------
IN: run
0x0000db60:  e1a03000      mov	r3, r0
0x0000db64:  e1a02003      mov	r2, r3
0x0000db68:  e3063aa8      movw	r3, #27304	; 0x6aa8
0x0000db6c:  e3403001      movt	r3, #1	; 0x1
0x0000db70:  e7933102      ldr	r3, [r3, r2, lsl #2]
0x0000db74:  e0244003      eor	r4, r4, r3
0x0000db78:  e24b3080      sub	r3, fp, #128	; 0x80
0x0000db7c:  e3a01002      mov	r1, #2	; 0x2
0x0000db80:  e1a00003      mov	r0, r3
0x0000db84:  ebfffd9f      bl	0xd208

----------------
IN: run
0x0000db88:  e1a03000      mov	r3, r0
0x0000db8c:  e1a02003      mov	r2, r3
0x0000db90:  e3063ea8      movw	r3, #28328	; 0x6ea8
0x0000db94:  e3403001      movt	r3, #1	; 0x1
0x0000db98:  e7933102      ldr	r3, [r3, r2, lsl #2]
0x0000db9c:  e0244003      eor	r4, r4, r3
0x0000dba0:  e24b3080      sub	r3, fp, #128	; 0x80
0x0000dba4:  e3a01009      mov	r1, #9	; 0x9
0x0000dba8:  e1a00003      mov	r0, r3
0x0000dbac:  ebfffd95      bl	0xd208

----------------
IN: run
0x0000dbb0:  e1a03000      mov	r3, r0
0x0000dbb4:  e1a02003      mov	r2, r3
0x0000dbb8:  e3063aa8      movw	r3, #27304	; 0x6aa8
0x0000dbbc:  e3403001      movt	r3, #1	; 0x1
0x0000dbc0:  e7932102      ldr	r2, [r3, r2, lsl #2]
0x0000dbc4:  e51b301c      ldr	r3, [fp, #-28]
0x0000dbc8:  e1a03203      lsl	r3, r3, #4
0x0000dbcc:  e2833002      add	r3, r3, #2	; 0x2
0x0000dbd0:  e0222004      eor	r2, r2, r4
0x0000dbd4:  e1a03103      lsl	r3, r3, #2
0x0000dbd8:  e2433014      sub	r3, r3, #20	; 0x14
0x0000dbdc:  e083300b      add	r3, r3, fp
0x0000dbe0:  e50320ec      str	r2, [r3, #-236]
0x0000dbe4:  e24b3080      sub	r3, fp, #128	; 0x80
0x0000dbe8:  e3a0100e      mov	r1, #14	; 0xe
0x0000dbec:  e1a00003      mov	r0, r3
0x0000dbf0:  ebfffd84      bl	0xd208

----------------
IN: run
0x0000dbf4:  e1a03000      mov	r3, r0
0x0000dbf8:  e1a02003      mov	r2, r3
0x0000dbfc:  e30632a8      movw	r3, #25256	; 0x62a8

----------------
IN: run
0x0000dc00:  e3403001      movt	r3, #1	; 0x1
0x0000dc04:  e7934102      ldr	r4, [r3, r2, lsl #2]
0x0000dc08:  e24b3080      sub	r3, fp, #128	; 0x80
0x0000dc0c:  e3a0100f      mov	r1, #15	; 0xf
0x0000dc10:  e1a00003      mov	r0, r3
0x0000dc14:  ebfffd7b      bl	0xd208

----------------
IN: run
0x0000dc18:  e1a03000      mov	r3, r0
0x0000dc1c:  e1a02003      mov	r2, r3
0x0000dc20:  e30636a8      movw	r3, #26280	; 0x66a8
0x0000dc24:  e3403001      movt	r3, #1	; 0x1
0x0000dc28:  e7933102      ldr	r3, [r3, r2, lsl #2]
0x0000dc2c:  e0244003      eor	r4, r4, r3
0x0000dc30:  e24b3080      sub	r3, fp, #128	; 0x80
0x0000dc34:  e3a01001      mov	r1, #1	; 0x1
0x0000dc38:  e1a00003      mov	r0, r3
0x0000dc3c:  ebfffd71      bl	0xd208

----------------
IN: run
0x0000dc40:  e1a03000      mov	r3, r0
0x0000dc44:  e1a02003      mov	r2, r3
0x0000dc48:  e3063aa8      movw	r3, #27304	; 0x6aa8
0x0000dc4c:  e3403001      movt	r3, #1	; 0x1
0x0000dc50:  e7933102      ldr	r3, [r3, r2, lsl #2]
0x0000dc54:  e0244003      eor	r4, r4, r3
0x0000dc58:  e24b3080      sub	r3, fp, #128	; 0x80
0x0000dc5c:  e3a01000      mov	r1, #0	; 0x0
0x0000dc60:  e1a00003      mov	r0, r3
0x0000dc64:  ebfffd67      bl	0xd208

----------------
IN: run
0x0000dc68:  e1a03000      mov	r3, r0
0x0000dc6c:  e1a02003      mov	r2, r3
0x0000dc70:  e3063ea8      movw	r3, #28328	; 0x6ea8
0x0000dc74:  e3403001      movt	r3, #1	; 0x1
0x0000dc78:  e7933102      ldr	r3, [r3, r2, lsl #2]
0x0000dc7c:  e0244003      eor	r4, r4, r3
0x0000dc80:  e24b3080      sub	r3, fp, #128	; 0x80
0x0000dc84:  e3a0100c      mov	r1, #12	; 0xc
0x0000dc88:  e1a00003      mov	r0, r3
0x0000dc8c:  ebfffd5d      bl	0xd208

----------------
IN: run
0x0000dc90:  e1a03000      mov	r3, r0
0x0000dc94:  e1a02003      mov	r2, r3
0x0000dc98:  e3063ea8      movw	r3, #28328	; 0x6ea8
0x0000dc9c:  e3403001      movt	r3, #1	; 0x1
0x0000dca0:  e7932102      ldr	r2, [r3, r2, lsl #2]
0x0000dca4:  e51b301c      ldr	r3, [fp, #-28]
0x0000dca8:  e1a03203      lsl	r3, r3, #4
0x0000dcac:  e2833003      add	r3, r3, #3	; 0x3
0x0000dcb0:  e0222004      eor	r2, r2, r4
0x0000dcb4:  e1a03103      lsl	r3, r3, #2
0x0000dcb8:  e2433014      sub	r3, r3, #20	; 0x14
0x0000dcbc:  e083300b      add	r3, r3, fp
0x0000dcc0:  e50320ec      str	r2, [r3, #-236]
0x0000dcc4:  e59b3008      ldr	r3, [fp, #8]
0x0000dcc8:  e3530000      cmp	r3, #0	; 0x0
0x0000dccc:  0a000020      beq	0xdd54

----------------
IN: run
0x0000dd54:  e59b3008      ldr	r3, [fp, #8]
0x0000dd58:  e3530000      cmp	r3, #0	; 0x0
0x0000dd5c:  0a000019      beq	0xddc8

----------------
IN: run
0x0000ddc8:  e51b4078      ldr	r4, [fp, #-120]
0x0000ddcc:  e24b3080      sub	r3, fp, #128	; 0x80
0x0000ddd0:  e3a01005      mov	r1, #5	; 0x5
0x0000ddd4:  e1a00003      mov	r0, r3
0x0000ddd8:  ebfffd0a      bl	0xd208

----------------
IN: run
0x0000dddc:  e1a03000      mov	r3, r0
0x0000dde0:  e1a02003      mov	r2, r3
0x0000dde4:  e30632a8      movw	r3, #25256	; 0x62a8
0x0000dde8:  e3403001      movt	r3, #1	; 0x1
0x0000ddec:  e7933102      ldr	r3, [r3, r2, lsl #2]
0x0000ddf0:  e0244003      eor	r4, r4, r3
0x0000ddf4:  e24b3080      sub	r3, fp, #128	; 0x80
0x0000ddf8:  e3a01007      mov	r1, #7	; 0x7
0x0000ddfc:  e1a00003      mov	r0, r3
0x0000de00:  ebfffd00      bl	0xd208

----------------
IN: run
0x0000de04:  e1a03000      mov	r3, r0
0x0000de08:  e1a02003      mov	r2, r3
0x0000de0c:  e30636a8      movw	r3, #26280	; 0x66a8
0x0000de10:  e3403001      movt	r3, #1	; 0x1
0x0000de14:  e7933102      ldr	r3, [r3, r2, lsl #2]
0x0000de18:  e0244003      eor	r4, r4, r3
0x0000de1c:  e24b3080      sub	r3, fp, #128	; 0x80
0x0000de20:  e3a01004      mov	r1, #4	; 0x4
0x0000de24:  e1a00003      mov	r0, r3
0x0000de28:  ebfffcf6      bl	0xd208

----------------
IN: run
0x0000de2c:  e1a03000      mov	r3, r0
0x0000de30:  e1a02003      mov	r2, r3
0x0000de34:  e3063aa8      movw	r3, #27304	; 0x6aa8
0x0000de38:  e3403001      movt	r3, #1	; 0x1
0x0000de3c:  e7933102      ldr	r3, [r3, r2, lsl #2]
0x0000de40:  e0244003      eor	r4, r4, r3
0x0000de44:  e24b3080      sub	r3, fp, #128	; 0x80
0x0000de48:  e3a01006      mov	r1, #6	; 0x6
0x0000de4c:  e1a00003      mov	r0, r3
0x0000de50:  ebfffcec      bl	0xd208

----------------
IN: run
0x0000de54:  e1a03000      mov	r3, r0
0x0000de58:  e1a02003      mov	r2, r3
0x0000de5c:  e3063ea8      movw	r3, #28328	; 0x6ea8
0x0000de60:  e3403001      movt	r3, #1	; 0x1
0x0000de64:  e7933102      ldr	r3, [r3, r2, lsl #2]
0x0000de68:  e0244003      eor	r4, r4, r3
0x0000de6c:  e24b3080      sub	r3, fp, #128	; 0x80
0x0000de70:  e3a01000      mov	r1, #0	; 0x0
0x0000de74:  e1a00003      mov	r0, r3
0x0000de78:  ebfffce2      bl	0xd208

----------------
IN: run
0x0000de7c:  e1a03000      mov	r3, r0
0x0000de80:  e1a02003      mov	r2, r3
0x0000de84:  e3063aa8      movw	r3, #27304	; 0x6aa8
0x0000de88:  e3403001      movt	r3, #1	; 0x1
0x0000de8c:  e7933102      ldr	r3, [r3, r2, lsl #2]
0x0000de90:  e0233004      eor	r3, r3, r4
0x0000de94:  e50b3070      str	r3, [fp, #-112]
0x0000de98:  e51b4080      ldr	r4, [fp, #-128]
0x0000de9c:  e24b3070      sub	r3, fp, #112	; 0x70
0x0000dea0:  e3a01000      mov	r1, #0	; 0x0
0x0000dea4:  e1a00003      mov	r0, r3
0x0000dea8:  ebfffcd6      bl	0xd208

----------------
IN: run
0x0000deac:  e1a03000      mov	r3, r0
0x0000deb0:  e1a02003      mov	r2, r3
0x0000deb4:  e30632a8      movw	r3, #25256	; 0x62a8
0x0000deb8:  e3403001      movt	r3, #1	; 0x1
0x0000debc:  e7933102      ldr	r3, [r3, r2, lsl #2]
0x0000dec0:  e0244003      eor	r4, r4, r3
0x0000dec4:  e24b3070      sub	r3, fp, #112	; 0x70
0x0000dec8:  e3a01002      mov	r1, #2	; 0x2
0x0000decc:  e1a00003      mov	r0, r3
0x0000ded0:  ebfffccc      bl	0xd208

----------------
IN: run
0x0000ded4:  e1a03000      mov	r3, r0
0x0000ded8:  e1a02003      mov	r2, r3
0x0000dedc:  e30636a8      movw	r3, #26280	; 0x66a8
0x0000dee0:  e3403001      movt	r3, #1	; 0x1
0x0000dee4:  e7933102      ldr	r3, [r3, r2, lsl #2]
0x0000dee8:  e0244003      eor	r4, r4, r3
0x0000deec:  e24b3070      sub	r3, fp, #112	; 0x70
0x0000def0:  e3a01001      mov	r1, #1	; 0x1
0x0000def4:  e1a00003      mov	r0, r3
0x0000def8:  ebfffcc2      bl	0xd208

----------------
IN: run
0x0000defc:  e1a03000      mov	r3, r0
0x0000df00:  e1a02003      mov	r2, r3
0x0000df04:  e3063aa8      movw	r3, #27304	; 0x6aa8
0x0000df08:  e3403001      movt	r3, #1	; 0x1
0x0000df0c:  e7933102      ldr	r3, [r3, r2, lsl #2]
0x0000df10:  e0244003      eor	r4, r4, r3
0x0000df14:  e24b3070      sub	r3, fp, #112	; 0x70
0x0000df18:  e3a01003      mov	r1, #3	; 0x3
0x0000df1c:  e1a00003      mov	r0, r3
0x0000df20:  ebfffcb8      bl	0xd208

----------------
IN: run
0x0000df24:  e1a03000      mov	r3, r0
0x0000df28:  e1a02003      mov	r2, r3
0x0000df2c:  e3063ea8      movw	r3, #28328	; 0x6ea8
0x0000df30:  e3403001      movt	r3, #1	; 0x1
0x0000df34:  e7933102      ldr	r3, [r3, r2, lsl #2]
0x0000df38:  e0244003      eor	r4, r4, r3
0x0000df3c:  e24b3080      sub	r3, fp, #128	; 0x80
0x0000df40:  e3a01002      mov	r1, #2	; 0x2
0x0000df44:  e1a00003      mov	r0, r3
0x0000df48:  ebfffcae      bl	0xd208

----------------
IN: run
0x0000df4c:  e1a03000      mov	r3, r0
0x0000df50:  e1a02003      mov	r2, r3
0x0000df54:  e3063ea8      movw	r3, #28328	; 0x6ea8
0x0000df58:  e3403001      movt	r3, #1	; 0x1
0x0000df5c:  e7933102      ldr	r3, [r3, r2, lsl #2]
0x0000df60:  e0233004      eor	r3, r3, r4
0x0000df64:  e50b306c      str	r3, [fp, #-108]
0x0000df68:  e51b407c      ldr	r4, [fp, #-124]
0x0000df6c:  e24b3070      sub	r3, fp, #112	; 0x70
0x0000df70:  e3a01007      mov	r1, #7	; 0x7
0x0000df74:  e1a00003      mov	r0, r3
0x0000df78:  ebfffca2      bl	0xd208

----------------
IN: run
0x0000df7c:  e1a03000      mov	r3, r0
0x0000df80:  e1a02003      mov	r2, r3
0x0000df84:  e30632a8      movw	r3, #25256	; 0x62a8
0x0000df88:  e3403001      movt	r3, #1	; 0x1
0x0000df8c:  e7933102      ldr	r3, [r3, r2, lsl #2]
0x0000df90:  e0244003      eor	r4, r4, r3
0x0000df94:  e24b3070      sub	r3, fp, #112	; 0x70
0x0000df98:  e3a01006      mov	r1, #6	; 0x6
0x0000df9c:  e1a00003      mov	r0, r3
0x0000dfa0:  ebfffc98      bl	0xd208

----------------
IN: run
0x0000dfa4:  e1a03000      mov	r3, r0
0x0000dfa8:  e1a02003      mov	r2, r3
0x0000dfac:  e30636a8      movw	r3, #26280	; 0x66a8
0x0000dfb0:  e3403001      movt	r3, #1	; 0x1
0x0000dfb4:  e7933102      ldr	r3, [r3, r2, lsl #2]
0x0000dfb8:  e0244003      eor	r4, r4, r3
0x0000dfbc:  e24b3070      sub	r3, fp, #112	; 0x70
0x0000dfc0:  e3a01005      mov	r1, #5	; 0x5
0x0000dfc4:  e1a00003      mov	r0, r3
0x0000dfc8:  ebfffc8e      bl	0xd208

----------------
IN: run
0x0000dfcc:  e1a03000      mov	r3, r0
0x0000dfd0:  e1a02003      mov	r2, r3
0x0000dfd4:  e3063aa8      movw	r3, #27304	; 0x6aa8
0x0000dfd8:  e3403001      movt	r3, #1	; 0x1
0x0000dfdc:  e7933102      ldr	r3, [r3, r2, lsl #2]
0x0000dfe0:  e0244003      eor	r4, r4, r3
0x0000dfe4:  e24b3070      sub	r3, fp, #112	; 0x70
0x0000dfe8:  e3a01004      mov	r1, #4	; 0x4
0x0000dfec:  e1a00003      mov	r0, r3
0x0000dff0:  ebfffc84      bl	0xd208

----------------
IN: run
0x0000dff4:  e1a03000      mov	r3, r0
0x0000dff8:  e1a02003      mov	r2, r3
0x0000dffc:  e3063ea8      movw	r3, #28328	; 0x6ea8

----------------
IN: run
0x0000e000:  e3403001      movt	r3, #1	; 0x1
0x0000e004:  e7933102      ldr	r3, [r3, r2, lsl #2]
0x0000e008:  e0244003      eor	r4, r4, r3
0x0000e00c:  e24b3080      sub	r3, fp, #128	; 0x80
0x0000e010:  e3a01001      mov	r1, #1	; 0x1
0x0000e014:  e1a00003      mov	r0, r3
0x0000e018:  ebfffc7a      bl	0xd208

----------------
IN: run
0x0000e01c:  e1a03000      mov	r3, r0
0x0000e020:  e1a02003      mov	r2, r3
0x0000e024:  e30632a8      movw	r3, #25256	; 0x62a8
0x0000e028:  e3403001      movt	r3, #1	; 0x1
0x0000e02c:  e7933102      ldr	r3, [r3, r2, lsl #2]
0x0000e030:  e0233004      eor	r3, r3, r4
0x0000e034:  e50b3068      str	r3, [fp, #-104]
0x0000e038:  e51b4074      ldr	r4, [fp, #-116]
0x0000e03c:  e24b3070      sub	r3, fp, #112	; 0x70
0x0000e040:  e3a0100a      mov	r1, #10	; 0xa
0x0000e044:  e1a00003      mov	r0, r3
0x0000e048:  ebfffc6e      bl	0xd208

----------------
IN: run
0x0000e04c:  e1a03000      mov	r3, r0
0x0000e050:  e1a02003      mov	r2, r3
0x0000e054:  e30632a8      movw	r3, #25256	; 0x62a8
0x0000e058:  e3403001      movt	r3, #1	; 0x1
0x0000e05c:  e7933102      ldr	r3, [r3, r2, lsl #2]
0x0000e060:  e0244003      eor	r4, r4, r3
0x0000e064:  e24b3070      sub	r3, fp, #112	; 0x70
0x0000e068:  e3a01009      mov	r1, #9	; 0x9
0x0000e06c:  e1a00003      mov	r0, r3
0x0000e070:  ebfffc64      bl	0xd208

----------------
IN: run
0x0000e074:  e1a03000      mov	r3, r0
0x0000e078:  e1a02003      mov	r2, r3
0x0000e07c:  e30636a8      movw	r3, #26280	; 0x66a8
0x0000e080:  e3403001      movt	r3, #1	; 0x1
0x0000e084:  e7933102      ldr	r3, [r3, r2, lsl #2]
0x0000e088:  e0244003      eor	r4, r4, r3
0x0000e08c:  e24b3070      sub	r3, fp, #112	; 0x70
0x0000e090:  e3a0100b      mov	r1, #11	; 0xb
0x0000e094:  e1a00003      mov	r0, r3
0x0000e098:  ebfffc5a      bl	0xd208

----------------
IN: run
0x0000e09c:  e1a03000      mov	r3, r0
0x0000e0a0:  e1a02003      mov	r2, r3
0x0000e0a4:  e3063aa8      movw	r3, #27304	; 0x6aa8
0x0000e0a8:  e3403001      movt	r3, #1	; 0x1
0x0000e0ac:  e7933102      ldr	r3, [r3, r2, lsl #2]
0x0000e0b0:  e0244003      eor	r4, r4, r3
0x0000e0b4:  e24b3070      sub	r3, fp, #112	; 0x70
0x0000e0b8:  e3a01008      mov	r1, #8	; 0x8
0x0000e0bc:  e1a00003      mov	r0, r3
0x0000e0c0:  ebfffc50      bl	0xd208

----------------
IN: run
0x0000e0c4:  e1a03000      mov	r3, r0
0x0000e0c8:  e1a02003      mov	r2, r3
0x0000e0cc:  e3063ea8      movw	r3, #28328	; 0x6ea8
0x0000e0d0:  e3403001      movt	r3, #1	; 0x1
0x0000e0d4:  e7933102      ldr	r3, [r3, r2, lsl #2]
0x0000e0d8:  e0244003      eor	r4, r4, r3
0x0000e0dc:  e24b3080      sub	r3, fp, #128	; 0x80
0x0000e0e0:  e3a01003      mov	r1, #3	; 0x3
0x0000e0e4:  e1a00003      mov	r0, r3
0x0000e0e8:  ebfffc46      bl	0xd208

----------------
IN: run
0x0000e0ec:  e1a03000      mov	r3, r0
0x0000e0f0:  e1a02003      mov	r2, r3
0x0000e0f4:  e30636a8      movw	r3, #26280	; 0x66a8
0x0000e0f8:  e3403001      movt	r3, #1	; 0x1
0x0000e0fc:  e7933102      ldr	r3, [r3, r2, lsl #2]
0x0000e100:  e0233004      eor	r3, r3, r4
0x0000e104:  e50b3064      str	r3, [fp, #-100]
0x0000e108:  e59b3008      ldr	r3, [fp, #8]
0x0000e10c:  e3530000      cmp	r3, #0	; 0x0
0x0000e110:  0a000017      beq	0xe174

----------------
IN: run
0x0000e174:  e24b3070      sub	r3, fp, #112	; 0x70
0x0000e178:  e3a01003      mov	r1, #3	; 0x3
0x0000e17c:  e1a00003      mov	r0, r3
0x0000e180:  ebfffc20      bl	0xd208

----------------
IN: run
0x0000e184:  e1a03000      mov	r3, r0
0x0000e188:  e1a02003      mov	r2, r3
0x0000e18c:  e30632a8      movw	r3, #25256	; 0x62a8
0x0000e190:  e3403001      movt	r3, #1	; 0x1
0x0000e194:  e7934102      ldr	r4, [r3, r2, lsl #2]
0x0000e198:  e24b3070      sub	r3, fp, #112	; 0x70
0x0000e19c:  e3a01002      mov	r1, #2	; 0x2
0x0000e1a0:  e1a00003      mov	r0, r3
0x0000e1a4:  ebfffc17      bl	0xd208

----------------
IN: run
0x0000e1a8:  e1a03000      mov	r3, r0
0x0000e1ac:  e1a02003      mov	r2, r3
0x0000e1b0:  e30636a8      movw	r3, #26280	; 0x66a8
0x0000e1b4:  e3403001      movt	r3, #1	; 0x1
0x0000e1b8:  e7933102      ldr	r3, [r3, r2, lsl #2]
0x0000e1bc:  e0244003      eor	r4, r4, r3
0x0000e1c0:  e24b3070      sub	r3, fp, #112	; 0x70
0x0000e1c4:  e3a0100c      mov	r1, #12	; 0xc
0x0000e1c8:  e1a00003      mov	r0, r3
0x0000e1cc:  ebfffc0d      bl	0xd208

----------------
IN: run
0x0000e1d0:  e1a03000      mov	r3, r0
0x0000e1d4:  e1a02003      mov	r2, r3
0x0000e1d8:  e3063aa8      movw	r3, #27304	; 0x6aa8
0x0000e1dc:  e3403001      movt	r3, #1	; 0x1
0x0000e1e0:  e7933102      ldr	r3, [r3, r2, lsl #2]
0x0000e1e4:  e0244003      eor	r4, r4, r3
0x0000e1e8:  e24b3070      sub	r3, fp, #112	; 0x70
0x0000e1ec:  e3a0100d      mov	r1, #13	; 0xd
0x0000e1f0:  e1a00003      mov	r0, r3
0x0000e1f4:  ebfffc03      bl	0xd208

----------------
IN: run
0x0000e1f8:  e1a03000      mov	r3, r0
0x0000e1fc:  e1a02003      mov	r2, r3
0x0000e200:  e3063ea8      movw	r3, #28328	; 0x6ea8
0x0000e204:  e3403001      movt	r3, #1	; 0x1
0x0000e208:  e7933102      ldr	r3, [r3, r2, lsl #2]
0x0000e20c:  e0244003      eor	r4, r4, r3
0x0000e210:  e24b3070      sub	r3, fp, #112	; 0x70
0x0000e214:  e3a01008      mov	r1, #8	; 0x8
0x0000e218:  e1a00003      mov	r0, r3
0x0000e21c:  ebfffbf9      bl	0xd208

----------------
IN: run
0x0000e220:  e1a03000      mov	r3, r0
0x0000e224:  e1a02003      mov	r2, r3
0x0000e228:  e30632a8      movw	r3, #25256	; 0x62a8
0x0000e22c:  e3403001      movt	r3, #1	; 0x1
0x0000e230:  e7932102      ldr	r2, [r3, r2, lsl #2]
0x0000e234:  e51b301c      ldr	r3, [fp, #-28]
0x0000e238:  e1a03203      lsl	r3, r3, #4
0x0000e23c:  e2833004      add	r3, r3, #4	; 0x4
0x0000e240:  e0222004      eor	r2, r2, r4
0x0000e244:  e1a03103      lsl	r3, r3, #2
0x0000e248:  e2433014      sub	r3, r3, #20	; 0x14
0x0000e24c:  e083300b      add	r3, r3, fp
0x0000e250:  e50320ec      str	r2, [r3, #-236]
0x0000e254:  e24b3070      sub	r3, fp, #112	; 0x70
0x0000e258:  e3a01001      mov	r1, #1	; 0x1
0x0000e25c:  e1a00003      mov	r0, r3
0x0000e260:  ebfffbe8      bl	0xd208

----------------
IN: run
0x0000e264:  e1a03000      mov	r3, r0
0x0000e268:  e1a02003      mov	r2, r3
0x0000e26c:  e30632a8      movw	r3, #25256	; 0x62a8
0x0000e270:  e3403001      movt	r3, #1	; 0x1
0x0000e274:  e7934102      ldr	r4, [r3, r2, lsl #2]
0x0000e278:  e24b3070      sub	r3, fp, #112	; 0x70
0x0000e27c:  e3a01000      mov	r1, #0	; 0x0
0x0000e280:  e1a00003      mov	r0, r3
0x0000e284:  ebfffbdf      bl	0xd208

----------------
IN: run
0x0000e288:  e1a03000      mov	r3, r0
0x0000e28c:  e1a02003      mov	r2, r3
0x0000e290:  e30636a8      movw	r3, #26280	; 0x66a8
0x0000e294:  e3403001      movt	r3, #1	; 0x1
0x0000e298:  e7933102      ldr	r3, [r3, r2, lsl #2]
0x0000e29c:  e0244003      eor	r4, r4, r3
0x0000e2a0:  e24b3070      sub	r3, fp, #112	; 0x70
0x0000e2a4:  e3a0100e      mov	r1, #14	; 0xe
0x0000e2a8:  e1a00003      mov	r0, r3
0x0000e2ac:  ebfffbd5      bl	0xd208

----------------
IN: run
0x0000e2b0:  e1a03000      mov	r3, r0
0x0000e2b4:  e1a02003      mov	r2, r3
0x0000e2b8:  e3063aa8      movw	r3, #27304	; 0x6aa8
0x0000e2bc:  e3403001      movt	r3, #1	; 0x1
0x0000e2c0:  e7933102      ldr	r3, [r3, r2, lsl #2]
0x0000e2c4:  e0244003      eor	r4, r4, r3
0x0000e2c8:  e24b3070      sub	r3, fp, #112	; 0x70
0x0000e2cc:  e3a0100f      mov	r1, #15	; 0xf
0x0000e2d0:  e1a00003      mov	r0, r3
0x0000e2d4:  ebfffbcb      bl	0xd208

----------------
IN: run
0x0000e2d8:  e1a03000      mov	r3, r0
0x0000e2dc:  e1a02003      mov	r2, r3
0x0000e2e0:  e3063ea8      movw	r3, #28328	; 0x6ea8
0x0000e2e4:  e3403001      movt	r3, #1	; 0x1
0x0000e2e8:  e7933102      ldr	r3, [r3, r2, lsl #2]
0x0000e2ec:  e0244003      eor	r4, r4, r3
0x0000e2f0:  e24b3070      sub	r3, fp, #112	; 0x70
0x0000e2f4:  e3a0100d      mov	r1, #13	; 0xd
0x0000e2f8:  e1a00003      mov	r0, r3
0x0000e2fc:  ebfffbc1      bl	0xd208

----------------
IN: run
0x0000e300:  e1a03000      mov	r3, r0
0x0000e304:  e1a02003      mov	r2, r3
0x0000e308:  e30636a8      movw	r3, #26280	; 0x66a8
0x0000e30c:  e3403001      movt	r3, #1	; 0x1
0x0000e310:  e7932102      ldr	r2, [r3, r2, lsl #2]
0x0000e314:  e51b301c      ldr	r3, [fp, #-28]
0x0000e318:  e1a03203      lsl	r3, r3, #4
0x0000e31c:  e2833005      add	r3, r3, #5	; 0x5
0x0000e320:  e0222004      eor	r2, r2, r4
0x0000e324:  e1a03103      lsl	r3, r3, #2
0x0000e328:  e2433014      sub	r3, r3, #20	; 0x14
0x0000e32c:  e083300b      add	r3, r3, fp
0x0000e330:  e50320ec      str	r2, [r3, #-236]
0x0000e334:  e24b3070      sub	r3, fp, #112	; 0x70
0x0000e338:  e3a01007      mov	r1, #7	; 0x7
0x0000e33c:  e1a00003      mov	r0, r3
0x0000e340:  ebfffbb0      bl	0xd208

----------------
IN: run
0x0000e344:  e1a03000      mov	r3, r0
0x0000e348:  e1a02003      mov	r2, r3
0x0000e34c:  e30632a8      movw	r3, #25256	; 0x62a8
0x0000e350:  e3403001      movt	r3, #1	; 0x1
0x0000e354:  e7934102      ldr	r4, [r3, r2, lsl #2]
0x0000e358:  e24b3070      sub	r3, fp, #112	; 0x70
0x0000e35c:  e3a01006      mov	r1, #6	; 0x6
0x0000e360:  e1a00003      mov	r0, r3
0x0000e364:  ebfffba7      bl	0xd208

----------------
IN: run
0x0000e368:  e1a03000      mov	r3, r0
0x0000e36c:  e1a02003      mov	r2, r3
0x0000e370:  e30636a8      movw	r3, #26280	; 0x66a8
0x0000e374:  e3403001      movt	r3, #1	; 0x1
0x0000e378:  e7933102      ldr	r3, [r3, r2, lsl #2]
0x0000e37c:  e0244003      eor	r4, r4, r3
0x0000e380:  e24b3070      sub	r3, fp, #112	; 0x70
0x0000e384:  e3a01008      mov	r1, #8	; 0x8
0x0000e388:  e1a00003      mov	r0, r3
0x0000e38c:  ebfffb9d      bl	0xd208

----------------
IN: run
0x0000e390:  e1a03000      mov	r3, r0
0x0000e394:  e1a02003      mov	r2, r3
0x0000e398:  e3063aa8      movw	r3, #27304	; 0x6aa8
0x0000e39c:  e3403001      movt	r3, #1	; 0x1
0x0000e3a0:  e7933102      ldr	r3, [r3, r2, lsl #2]
0x0000e3a4:  e0244003      eor	r4, r4, r3
0x0000e3a8:  e24b3070      sub	r3, fp, #112	; 0x70
0x0000e3ac:  e3a01009      mov	r1, #9	; 0x9
0x0000e3b0:  e1a00003      mov	r0, r3
0x0000e3b4:  ebfffb93      bl	0xd208

----------------
IN: run
0x0000e3b8:  e1a03000      mov	r3, r0
0x0000e3bc:  e1a02003      mov	r2, r3
0x0000e3c0:  e3063ea8      movw	r3, #28328	; 0x6ea8
0x0000e3c4:  e3403001      movt	r3, #1	; 0x1
0x0000e3c8:  e7933102      ldr	r3, [r3, r2, lsl #2]
0x0000e3cc:  e0244003      eor	r4, r4, r3
0x0000e3d0:  e24b3070      sub	r3, fp, #112	; 0x70
0x0000e3d4:  e3a01003      mov	r1, #3	; 0x3
0x0000e3d8:  e1a00003      mov	r0, r3
0x0000e3dc:  ebfffb89      bl	0xd208

----------------
IN: run
0x0000e3e0:  e1a03000      mov	r3, r0
0x0000e3e4:  e1a02003      mov	r2, r3
0x0000e3e8:  e3063aa8      movw	r3, #27304	; 0x6aa8
0x0000e3ec:  e3403001      movt	r3, #1	; 0x1
0x0000e3f0:  e7932102      ldr	r2, [r3, r2, lsl #2]
0x0000e3f4:  e51b301c      ldr	r3, [fp, #-28]
0x0000e3f8:  e1a03203      lsl	r3, r3, #4
0x0000e3fc:  e2833006      add	r3, r3, #6	; 0x6

----------------
IN: run
0x0000e400:  e0222004      eor	r2, r2, r4
0x0000e404:  e1a03103      lsl	r3, r3, #2
0x0000e408:  e2433014      sub	r3, r3, #20	; 0x14
0x0000e40c:  e083300b      add	r3, r3, fp
0x0000e410:  e50320ec      str	r2, [r3, #-236]
0x0000e414:  e24b3070      sub	r3, fp, #112	; 0x70
0x0000e418:  e3a01005      mov	r1, #5	; 0x5
0x0000e41c:  e1a00003      mov	r0, r3
0x0000e420:  ebfffb78      bl	0xd208

----------------
IN: run
0x0000e424:  e1a03000      mov	r3, r0
0x0000e428:  e1a02003      mov	r2, r3
0x0000e42c:  e30632a8      movw	r3, #25256	; 0x62a8
0x0000e430:  e3403001      movt	r3, #1	; 0x1
0x0000e434:  e7934102      ldr	r4, [r3, r2, lsl #2]
0x0000e438:  e24b3070      sub	r3, fp, #112	; 0x70
0x0000e43c:  e3a01004      mov	r1, #4	; 0x4
0x0000e440:  e1a00003      mov	r0, r3
0x0000e444:  ebfffb6f      bl	0xd208

----------------
IN: run
0x0000e448:  e1a03000      mov	r3, r0
0x0000e44c:  e1a02003      mov	r2, r3
0x0000e450:  e30636a8      movw	r3, #26280	; 0x66a8
0x0000e454:  e3403001      movt	r3, #1	; 0x1
0x0000e458:  e7933102      ldr	r3, [r3, r2, lsl #2]
0x0000e45c:  e0244003      eor	r4, r4, r3
0x0000e460:  e24b3070      sub	r3, fp, #112	; 0x70
0x0000e464:  e3a0100a      mov	r1, #10	; 0xa
0x0000e468:  e1a00003      mov	r0, r3
0x0000e46c:  ebfffb65      bl	0xd208

----------------
IN: run
0x0000e470:  e1a03000      mov	r3, r0
0x0000e474:  e1a02003      mov	r2, r3
0x0000e478:  e3063aa8      movw	r3, #27304	; 0x6aa8
0x0000e47c:  e3403001      movt	r3, #1	; 0x1
0x0000e480:  e7933102      ldr	r3, [r3, r2, lsl #2]
0x0000e484:  e0244003      eor	r4, r4, r3
0x0000e488:  e24b3070      sub	r3, fp, #112	; 0x70
0x0000e48c:  e3a0100b      mov	r1, #11	; 0xb
0x0000e490:  e1a00003      mov	r0, r3
0x0000e494:  ebfffb5b      bl	0xd208

----------------
IN: run
0x0000e498:  e1a03000      mov	r3, r0
0x0000e49c:  e1a02003      mov	r2, r3
0x0000e4a0:  e3063ea8      movw	r3, #28328	; 0x6ea8
0x0000e4a4:  e3403001      movt	r3, #1	; 0x1
0x0000e4a8:  e7933102      ldr	r3, [r3, r2, lsl #2]
0x0000e4ac:  e0244003      eor	r4, r4, r3
0x0000e4b0:  e24b3070      sub	r3, fp, #112	; 0x70
0x0000e4b4:  e3a01007      mov	r1, #7	; 0x7
0x0000e4b8:  e1a00003      mov	r0, r3
0x0000e4bc:  ebfffb51      bl	0xd208

----------------
IN: run
0x0000e4c0:  e1a03000      mov	r3, r0
0x0000e4c4:  e1a02003      mov	r2, r3
0x0000e4c8:  e3063ea8      movw	r3, #28328	; 0x6ea8
0x0000e4cc:  e3403001      movt	r3, #1	; 0x1
0x0000e4d0:  e7932102      ldr	r2, [r3, r2, lsl #2]
0x0000e4d4:  e51b301c      ldr	r3, [fp, #-28]
0x0000e4d8:  e1a03203      lsl	r3, r3, #4
0x0000e4dc:  e2833007      add	r3, r3, #7	; 0x7
0x0000e4e0:  e0222004      eor	r2, r2, r4
0x0000e4e4:  e1a03103      lsl	r3, r3, #2
0x0000e4e8:  e2433014      sub	r3, r3, #20	; 0x14
0x0000e4ec:  e083300b      add	r3, r3, fp
0x0000e4f0:  e50320ec      str	r2, [r3, #-236]
0x0000e4f4:  e59b3008      ldr	r3, [fp, #8]
0x0000e4f8:  e3530000      cmp	r3, #0	; 0x0
0x0000e4fc:  0a000021      beq	0xe588

----------------
IN: run
0x0000e588:  e51b4070      ldr	r4, [fp, #-112]
0x0000e58c:  e24b3070      sub	r3, fp, #112	; 0x70
0x0000e590:  e3a0100d      mov	r1, #13	; 0xd
0x0000e594:  e1a00003      mov	r0, r3
0x0000e598:  ebfffb1a      bl	0xd208

----------------
IN: run
0x0000e59c:  e1a03000      mov	r3, r0
0x0000e5a0:  e1a02003      mov	r2, r3
0x0000e5a4:  e30632a8      movw	r3, #25256	; 0x62a8
0x0000e5a8:  e3403001      movt	r3, #1	; 0x1
0x0000e5ac:  e7933102      ldr	r3, [r3, r2, lsl #2]
0x0000e5b0:  e0244003      eor	r4, r4, r3
0x0000e5b4:  e24b3070      sub	r3, fp, #112	; 0x70
0x0000e5b8:  e3a0100f      mov	r1, #15	; 0xf
0x0000e5bc:  e1a00003      mov	r0, r3
0x0000e5c0:  ebfffb10      bl	0xd208

----------------
IN: run
0x0000e5c4:  e1a03000      mov	r3, r0
0x0000e5c8:  e1a02003      mov	r2, r3
0x0000e5cc:  e30636a8      movw	r3, #26280	; 0x66a8
0x0000e5d0:  e3403001      movt	r3, #1	; 0x1
0x0000e5d4:  e7933102      ldr	r3, [r3, r2, lsl #2]
0x0000e5d8:  e0244003      eor	r4, r4, r3
0x0000e5dc:  e24b3070      sub	r3, fp, #112	; 0x70
0x0000e5e0:  e3a0100c      mov	r1, #12	; 0xc
0x0000e5e4:  e1a00003      mov	r0, r3
0x0000e5e8:  ebfffb06      bl	0xd208

----------------
IN: run
0x0000e5ec:  e1a03000      mov	r3, r0
0x0000e5f0:  e1a02003      mov	r2, r3
0x0000e5f4:  e3063aa8      movw	r3, #27304	; 0x6aa8
0x0000e5f8:  e3403001      movt	r3, #1	; 0x1
0x0000e5fc:  e7933102      ldr	r3, [r3, r2, lsl #2]
0x0000e600:  e0244003      eor	r4, r4, r3
0x0000e604:  e24b3070      sub	r3, fp, #112	; 0x70
0x0000e608:  e3a0100e      mov	r1, #14	; 0xe
0x0000e60c:  e1a00003      mov	r0, r3
0x0000e610:  ebfffafc      bl	0xd208

----------------
IN: run
0x0000e614:  e1a03000      mov	r3, r0
0x0000e618:  e1a02003      mov	r2, r3
0x0000e61c:  e3063ea8      movw	r3, #28328	; 0x6ea8
0x0000e620:  e3403001      movt	r3, #1	; 0x1
0x0000e624:  e7933102      ldr	r3, [r3, r2, lsl #2]
0x0000e628:  e0244003      eor	r4, r4, r3
0x0000e62c:  e24b3070      sub	r3, fp, #112	; 0x70
0x0000e630:  e3a01008      mov	r1, #8	; 0x8
0x0000e634:  e1a00003      mov	r0, r3
0x0000e638:  ebfffaf2      bl	0xd208

----------------
IN: run
0x0000e63c:  e1a03000      mov	r3, r0
0x0000e640:  e1a02003      mov	r2, r3
0x0000e644:  e3063aa8      movw	r3, #27304	; 0x6aa8
0x0000e648:  e3403001      movt	r3, #1	; 0x1
0x0000e64c:  e7933102      ldr	r3, [r3, r2, lsl #2]
0x0000e650:  e0233004      eor	r3, r3, r4
0x0000e654:  e50b3080      str	r3, [fp, #-128]
0x0000e658:  e51b4068      ldr	r4, [fp, #-104]
0x0000e65c:  e24b3080      sub	r3, fp, #128	; 0x80
0x0000e660:  e3a01000      mov	r1, #0	; 0x0
0x0000e664:  e1a00003      mov	r0, r3
0x0000e668:  ebfffae6      bl	0xd208

----------------
IN: run
0x0000e66c:  e1a03000      mov	r3, r0
0x0000e670:  e1a02003      mov	r2, r3
0x0000e674:  e30632a8      movw	r3, #25256	; 0x62a8
0x0000e678:  e3403001      movt	r3, #1	; 0x1
0x0000e67c:  e7933102      ldr	r3, [r3, r2, lsl #2]
0x0000e680:  e0244003      eor	r4, r4, r3
0x0000e684:  e24b3080      sub	r3, fp, #128	; 0x80
0x0000e688:  e3a01002      mov	r1, #2	; 0x2
0x0000e68c:  e1a00003      mov	r0, r3
0x0000e690:  ebfffadc      bl	0xd208

----------------
IN: run
0x0000e694:  e1a03000      mov	r3, r0
0x0000e698:  e1a02003      mov	r2, r3
0x0000e69c:  e30636a8      movw	r3, #26280	; 0x66a8
0x0000e6a0:  e3403001      movt	r3, #1	; 0x1
0x0000e6a4:  e7933102      ldr	r3, [r3, r2, lsl #2]
0x0000e6a8:  e0244003      eor	r4, r4, r3
0x0000e6ac:  e24b3080      sub	r3, fp, #128	; 0x80
0x0000e6b0:  e3a01001      mov	r1, #1	; 0x1
0x0000e6b4:  e1a00003      mov	r0, r3
0x0000e6b8:  ebfffad2      bl	0xd208

----------------
IN: run
0x0000e6bc:  e1a03000      mov	r3, r0
0x0000e6c0:  e1a02003      mov	r2, r3
0x0000e6c4:  e3063aa8      movw	r3, #27304	; 0x6aa8
0x0000e6c8:  e3403001      movt	r3, #1	; 0x1
0x0000e6cc:  e7933102      ldr	r3, [r3, r2, lsl #2]
0x0000e6d0:  e0244003      eor	r4, r4, r3
0x0000e6d4:  e24b3080      sub	r3, fp, #128	; 0x80
0x0000e6d8:  e3a01003      mov	r1, #3	; 0x3
0x0000e6dc:  e1a00003      mov	r0, r3
0x0000e6e0:  ebfffac8      bl	0xd208

----------------
IN: run
0x0000e6e4:  e1a03000      mov	r3, r0
0x0000e6e8:  e1a02003      mov	r2, r3
0x0000e6ec:  e3063ea8      movw	r3, #28328	; 0x6ea8
0x0000e6f0:  e3403001      movt	r3, #1	; 0x1
0x0000e6f4:  e7933102      ldr	r3, [r3, r2, lsl #2]
0x0000e6f8:  e0244003      eor	r4, r4, r3
0x0000e6fc:  e24b3070      sub	r3, fp, #112	; 0x70
0x0000e700:  e3a0100a      mov	r1, #10	; 0xa
0x0000e704:  e1a00003      mov	r0, r3
0x0000e708:  ebfffabe      bl	0xd208

----------------
IN: run
0x0000e70c:  e1a03000      mov	r3, r0
0x0000e710:  e1a02003      mov	r2, r3
0x0000e714:  e3063ea8      movw	r3, #28328	; 0x6ea8
0x0000e718:  e3403001      movt	r3, #1	; 0x1
0x0000e71c:  e7933102      ldr	r3, [r3, r2, lsl #2]
0x0000e720:  e0233004      eor	r3, r3, r4
0x0000e724:  e50b307c      str	r3, [fp, #-124]
0x0000e728:  e51b4064      ldr	r4, [fp, #-100]
0x0000e72c:  e24b3080      sub	r3, fp, #128	; 0x80
0x0000e730:  e3a01007      mov	r1, #7	; 0x7
0x0000e734:  e1a00003      mov	r0, r3
0x0000e738:  ebfffab2      bl	0xd208

----------------
IN: run
0x0000e73c:  e1a03000      mov	r3, r0
0x0000e740:  e1a02003      mov	r2, r3
0x0000e744:  e30632a8      movw	r3, #25256	; 0x62a8
0x0000e748:  e3403001      movt	r3, #1	; 0x1
0x0000e74c:  e7933102      ldr	r3, [r3, r2, lsl #2]
0x0000e750:  e0244003      eor	r4, r4, r3
0x0000e754:  e24b3080      sub	r3, fp, #128	; 0x80
0x0000e758:  e3a01006      mov	r1, #6	; 0x6
0x0000e75c:  e1a00003      mov	r0, r3
0x0000e760:  ebfffaa8      bl	0xd208

----------------
IN: run
0x0000e764:  e1a03000      mov	r3, r0
0x0000e768:  e1a02003      mov	r2, r3
0x0000e76c:  e30636a8      movw	r3, #26280	; 0x66a8
0x0000e770:  e3403001      movt	r3, #1	; 0x1
0x0000e774:  e7933102      ldr	r3, [r3, r2, lsl #2]
0x0000e778:  e0244003      eor	r4, r4, r3
0x0000e77c:  e24b3080      sub	r3, fp, #128	; 0x80
0x0000e780:  e3a01005      mov	r1, #5	; 0x5
0x0000e784:  e1a00003      mov	r0, r3
0x0000e788:  ebfffa9e      bl	0xd208

----------------
IN: run
0x0000e78c:  e1a03000      mov	r3, r0
0x0000e790:  e1a02003      mov	r2, r3
0x0000e794:  e3063aa8      movw	r3, #27304	; 0x6aa8
0x0000e798:  e3403001      movt	r3, #1	; 0x1
0x0000e79c:  e7933102      ldr	r3, [r3, r2, lsl #2]
0x0000e7a0:  e0244003      eor	r4, r4, r3
0x0000e7a4:  e24b3080      sub	r3, fp, #128	; 0x80
0x0000e7a8:  e3a01004      mov	r1, #4	; 0x4
0x0000e7ac:  e1a00003      mov	r0, r3
0x0000e7b0:  ebfffa94      bl	0xd208

----------------
IN: run
0x0000e7b4:  e1a03000      mov	r3, r0
0x0000e7b8:  e1a02003      mov	r2, r3
0x0000e7bc:  e3063ea8      movw	r3, #28328	; 0x6ea8
0x0000e7c0:  e3403001      movt	r3, #1	; 0x1
0x0000e7c4:  e7933102      ldr	r3, [r3, r2, lsl #2]
0x0000e7c8:  e0244003      eor	r4, r4, r3
0x0000e7cc:  e24b3070      sub	r3, fp, #112	; 0x70
0x0000e7d0:  e3a01009      mov	r1, #9	; 0x9
0x0000e7d4:  e1a00003      mov	r0, r3
0x0000e7d8:  ebfffa8a      bl	0xd208

----------------
IN: run
0x0000e7dc:  e1a03000      mov	r3, r0
0x0000e7e0:  e1a02003      mov	r2, r3
0x0000e7e4:  e30632a8      movw	r3, #25256	; 0x62a8
0x0000e7e8:  e3403001      movt	r3, #1	; 0x1
0x0000e7ec:  e7933102      ldr	r3, [r3, r2, lsl #2]
0x0000e7f0:  e0233004      eor	r3, r3, r4
0x0000e7f4:  e50b3078      str	r3, [fp, #-120]
0x0000e7f8:  e51b406c      ldr	r4, [fp, #-108]
0x0000e7fc:  e24b3080      sub	r3, fp, #128	; 0x80

----------------
IN: run
0x0000e800:  e3a0100a      mov	r1, #10	; 0xa
0x0000e804:  e1a00003      mov	r0, r3
0x0000e808:  ebfffa7e      bl	0xd208

----------------
IN: run
0x0000e80c:  e1a03000      mov	r3, r0
0x0000e810:  e1a02003      mov	r2, r3
0x0000e814:  e30632a8      movw	r3, #25256	; 0x62a8
0x0000e818:  e3403001      movt	r3, #1	; 0x1
0x0000e81c:  e7933102      ldr	r3, [r3, r2, lsl #2]
0x0000e820:  e0244003      eor	r4, r4, r3
0x0000e824:  e24b3080      sub	r3, fp, #128	; 0x80
0x0000e828:  e3a01009      mov	r1, #9	; 0x9
0x0000e82c:  e1a00003      mov	r0, r3
0x0000e830:  ebfffa74      bl	0xd208

----------------
IN: run
0x0000e834:  e1a03000      mov	r3, r0
0x0000e838:  e1a02003      mov	r2, r3
0x0000e83c:  e30636a8      movw	r3, #26280	; 0x66a8
0x0000e840:  e3403001      movt	r3, #1	; 0x1
0x0000e844:  e7933102      ldr	r3, [r3, r2, lsl #2]
0x0000e848:  e0244003      eor	r4, r4, r3
0x0000e84c:  e24b3080      sub	r3, fp, #128	; 0x80
0x0000e850:  e3a0100b      mov	r1, #11	; 0xb
0x0000e854:  e1a00003      mov	r0, r3
0x0000e858:  ebfffa6a      bl	0xd208

----------------
IN: run
0x0000e85c:  e1a03000      mov	r3, r0
0x0000e860:  e1a02003      mov	r2, r3
0x0000e864:  e3063aa8      movw	r3, #27304	; 0x6aa8
0x0000e868:  e3403001      movt	r3, #1	; 0x1
0x0000e86c:  e7933102      ldr	r3, [r3, r2, lsl #2]
0x0000e870:  e0244003      eor	r4, r4, r3
0x0000e874:  e24b3080      sub	r3, fp, #128	; 0x80
0x0000e878:  e3a01008      mov	r1, #8	; 0x8
0x0000e87c:  e1a00003      mov	r0, r3
0x0000e880:  ebfffa60      bl	0xd208

----------------
IN: run
0x0000e884:  e1a03000      mov	r3, r0
0x0000e888:  e1a02003      mov	r2, r3
0x0000e88c:  e3063ea8      movw	r3, #28328	; 0x6ea8
0x0000e890:  e3403001      movt	r3, #1	; 0x1
0x0000e894:  e7933102      ldr	r3, [r3, r2, lsl #2]
0x0000e898:  e0244003      eor	r4, r4, r3
0x0000e89c:  e24b3070      sub	r3, fp, #112	; 0x70
0x0000e8a0:  e3a0100b      mov	r1, #11	; 0xb
0x0000e8a4:  e1a00003      mov	r0, r3
0x0000e8a8:  ebfffa56      bl	0xd208

----------------
IN: run
0x0000e8ac:  e1a03000      mov	r3, r0
0x0000e8b0:  e1a02003      mov	r2, r3
0x0000e8b4:  e30636a8      movw	r3, #26280	; 0x66a8
0x0000e8b8:  e3403001      movt	r3, #1	; 0x1
0x0000e8bc:  e7933102      ldr	r3, [r3, r2, lsl #2]
0x0000e8c0:  e0233004      eor	r3, r3, r4
0x0000e8c4:  e50b3074      str	r3, [fp, #-116]
0x0000e8c8:  e59b3008      ldr	r3, [fp, #8]
0x0000e8cc:  e3530000      cmp	r3, #0	; 0x0
0x0000e8d0:  0a000017      beq	0xe934

----------------
IN: run
0x0000e934:  e24b3080      sub	r3, fp, #128	; 0x80
0x0000e938:  e3a01003      mov	r1, #3	; 0x3
0x0000e93c:  e1a00003      mov	r0, r3
0x0000e940:  ebfffa30      bl	0xd208

----------------
IN: run
0x0000e944:  e1a03000      mov	r3, r0
0x0000e948:  e1a02003      mov	r2, r3
0x0000e94c:  e30632a8      movw	r3, #25256	; 0x62a8
0x0000e950:  e3403001      movt	r3, #1	; 0x1
0x0000e954:  e7934102      ldr	r4, [r3, r2, lsl #2]
0x0000e958:  e24b3080      sub	r3, fp, #128	; 0x80
0x0000e95c:  e3a01002      mov	r1, #2	; 0x2
0x0000e960:  e1a00003      mov	r0, r3
0x0000e964:  ebfffa27      bl	0xd208

----------------
IN: run
0x0000e968:  e1a03000      mov	r3, r0
0x0000e96c:  e1a02003      mov	r2, r3
0x0000e970:  e30636a8      movw	r3, #26280	; 0x66a8
0x0000e974:  e3403001      movt	r3, #1	; 0x1
0x0000e978:  e7933102      ldr	r3, [r3, r2, lsl #2]
0x0000e97c:  e0244003      eor	r4, r4, r3
0x0000e980:  e24b3080      sub	r3, fp, #128	; 0x80
0x0000e984:  e3a0100c      mov	r1, #12	; 0xc
0x0000e988:  e1a00003      mov	r0, r3
0x0000e98c:  ebfffa1d      bl	0xd208

----------------
IN: run
0x0000e990:  e1a03000      mov	r3, r0
0x0000e994:  e1a02003      mov	r2, r3
0x0000e998:  e3063aa8      movw	r3, #27304	; 0x6aa8
0x0000e99c:  e3403001      movt	r3, #1	; 0x1
0x0000e9a0:  e7933102      ldr	r3, [r3, r2, lsl #2]
0x0000e9a4:  e0244003      eor	r4, r4, r3
0x0000e9a8:  e24b3080      sub	r3, fp, #128	; 0x80
0x0000e9ac:  e3a0100d      mov	r1, #13	; 0xd
0x0000e9b0:  e1a00003      mov	r0, r3
0x0000e9b4:  ebfffa13      bl	0xd208

----------------
IN: run
0x0000e9b8:  e1a03000      mov	r3, r0
0x0000e9bc:  e1a02003      mov	r2, r3
0x0000e9c0:  e3063ea8      movw	r3, #28328	; 0x6ea8
0x0000e9c4:  e3403001      movt	r3, #1	; 0x1
0x0000e9c8:  e7933102      ldr	r3, [r3, r2, lsl #2]
0x0000e9cc:  e0244003      eor	r4, r4, r3
0x0000e9d0:  e24b3080      sub	r3, fp, #128	; 0x80
0x0000e9d4:  e3a01009      mov	r1, #9	; 0x9
0x0000e9d8:  e1a00003      mov	r0, r3
0x0000e9dc:  ebfffa09      bl	0xd208

----------------
IN: run
0x0000e9e0:  e1a03000      mov	r3, r0
0x0000e9e4:  e1a02003      mov	r2, r3
0x0000e9e8:  e30632a8      movw	r3, #25256	; 0x62a8
0x0000e9ec:  e3403001      movt	r3, #1	; 0x1
0x0000e9f0:  e7932102      ldr	r2, [r3, r2, lsl #2]
0x0000e9f4:  e51b301c      ldr	r3, [fp, #-28]
0x0000e9f8:  e1a03203      lsl	r3, r3, #4
0x0000e9fc:  e2833008      add	r3, r3, #8	; 0x8
0x0000ea00:  e0222004      eor	r2, r2, r4
0x0000ea04:  e1a03103      lsl	r3, r3, #2
0x0000ea08:  e2433014      sub	r3, r3, #20	; 0x14
0x0000ea0c:  e083300b      add	r3, r3, fp
0x0000ea10:  e50320ec      str	r2, [r3, #-236]
0x0000ea14:  e24b3080      sub	r3, fp, #128	; 0x80
0x0000ea18:  e3a01001      mov	r1, #1	; 0x1
0x0000ea1c:  e1a00003      mov	r0, r3
0x0000ea20:  ebfff9f8      bl	0xd208

----------------
IN: run
0x0000ea24:  e1a03000      mov	r3, r0
0x0000ea28:  e1a02003      mov	r2, r3
0x0000ea2c:  e30632a8      movw	r3, #25256	; 0x62a8
0x0000ea30:  e3403001      movt	r3, #1	; 0x1
0x0000ea34:  e7934102      ldr	r4, [r3, r2, lsl #2]
0x0000ea38:  e24b3080      sub	r3, fp, #128	; 0x80
0x0000ea3c:  e3a01000      mov	r1, #0	; 0x0
0x0000ea40:  e1a00003      mov	r0, r3
0x0000ea44:  ebfff9ef      bl	0xd208

----------------
IN: run
0x0000ea48:  e1a03000      mov	r3, r0
0x0000ea4c:  e1a02003      mov	r2, r3
0x0000ea50:  e30636a8      movw	r3, #26280	; 0x66a8
0x0000ea54:  e3403001      movt	r3, #1	; 0x1
0x0000ea58:  e7933102      ldr	r3, [r3, r2, lsl #2]
0x0000ea5c:  e0244003      eor	r4, r4, r3
0x0000ea60:  e24b3080      sub	r3, fp, #128	; 0x80
0x0000ea64:  e3a0100e      mov	r1, #14	; 0xe
0x0000ea68:  e1a00003      mov	r0, r3
0x0000ea6c:  ebfff9e5      bl	0xd208

----------------
IN: run
0x0000ea70:  e1a03000      mov	r3, r0
0x0000ea74:  e1a02003      mov	r2, r3
0x0000ea78:  e3063aa8      movw	r3, #27304	; 0x6aa8
0x0000ea7c:  e3403001      movt	r3, #1	; 0x1
0x0000ea80:  e7933102      ldr	r3, [r3, r2, lsl #2]
0x0000ea84:  e0244003      eor	r4, r4, r3
0x0000ea88:  e24b3080      sub	r3, fp, #128	; 0x80
0x0000ea8c:  e3a0100f      mov	r1, #15	; 0xf
0x0000ea90:  e1a00003      mov	r0, r3
0x0000ea94:  ebfff9db      bl	0xd208

----------------
IN: run
0x0000ea98:  e1a03000      mov	r3, r0
0x0000ea9c:  e1a02003      mov	r2, r3
0x0000eaa0:  e3063ea8      movw	r3, #28328	; 0x6ea8
0x0000eaa4:  e3403001      movt	r3, #1	; 0x1
0x0000eaa8:  e7933102      ldr	r3, [r3, r2, lsl #2]
0x0000eaac:  e0244003      eor	r4, r4, r3
0x0000eab0:  e24b3080      sub	r3, fp, #128	; 0x80
0x0000eab4:  e3a0100c      mov	r1, #12	; 0xc
0x0000eab8:  e1a00003      mov	r0, r3
0x0000eabc:  ebfff9d1      bl	0xd208

----------------
IN: run
0x0000eac0:  e1a03000      mov	r3, r0
0x0000eac4:  e1a02003      mov	r2, r3
0x0000eac8:  e30636a8      movw	r3, #26280	; 0x66a8
0x0000eacc:  e3403001      movt	r3, #1	; 0x1
0x0000ead0:  e7932102      ldr	r2, [r3, r2, lsl #2]
0x0000ead4:  e51b301c      ldr	r3, [fp, #-28]
0x0000ead8:  e1a03203      lsl	r3, r3, #4
0x0000eadc:  e2833009      add	r3, r3, #9	; 0x9
0x0000eae0:  e0222004      eor	r2, r2, r4
0x0000eae4:  e1a03103      lsl	r3, r3, #2
0x0000eae8:  e2433014      sub	r3, r3, #20	; 0x14
0x0000eaec:  e083300b      add	r3, r3, fp
0x0000eaf0:  e50320ec      str	r2, [r3, #-236]
0x0000eaf4:  e24b3080      sub	r3, fp, #128	; 0x80
0x0000eaf8:  e3a01007      mov	r1, #7	; 0x7
0x0000eafc:  e1a00003      mov	r0, r3
0x0000eb00:  ebfff9c0      bl	0xd208

----------------
IN: run
0x0000eb04:  e1a03000      mov	r3, r0
0x0000eb08:  e1a02003      mov	r2, r3
0x0000eb0c:  e30632a8      movw	r3, #25256	; 0x62a8
0x0000eb10:  e3403001      movt	r3, #1	; 0x1
0x0000eb14:  e7934102      ldr	r4, [r3, r2, lsl #2]
0x0000eb18:  e24b3080      sub	r3, fp, #128	; 0x80
0x0000eb1c:  e3a01006      mov	r1, #6	; 0x6
0x0000eb20:  e1a00003      mov	r0, r3
0x0000eb24:  ebfff9b7      bl	0xd208

----------------
IN: run
0x0000eb28:  e1a03000      mov	r3, r0
0x0000eb2c:  e1a02003      mov	r2, r3
0x0000eb30:  e30636a8      movw	r3, #26280	; 0x66a8
0x0000eb34:  e3403001      movt	r3, #1	; 0x1
0x0000eb38:  e7933102      ldr	r3, [r3, r2, lsl #2]
0x0000eb3c:  e0244003      eor	r4, r4, r3
0x0000eb40:  e24b3080      sub	r3, fp, #128	; 0x80
0x0000eb44:  e3a01008      mov	r1, #8	; 0x8
0x0000eb48:  e1a00003      mov	r0, r3
0x0000eb4c:  ebfff9ad      bl	0xd208

----------------
IN: run
0x0000eb50:  e1a03000      mov	r3, r0
0x0000eb54:  e1a02003      mov	r2, r3
0x0000eb58:  e3063aa8      movw	r3, #27304	; 0x6aa8
0x0000eb5c:  e3403001      movt	r3, #1	; 0x1
0x0000eb60:  e7933102      ldr	r3, [r3, r2, lsl #2]
0x0000eb64:  e0244003      eor	r4, r4, r3
0x0000eb68:  e24b3080      sub	r3, fp, #128	; 0x80
0x0000eb6c:  e3a01009      mov	r1, #9	; 0x9
0x0000eb70:  e1a00003      mov	r0, r3
0x0000eb74:  ebfff9a3      bl	0xd208

----------------
IN: run
0x0000eb78:  e1a03000      mov	r3, r0
0x0000eb7c:  e1a02003      mov	r2, r3
0x0000eb80:  e3063ea8      movw	r3, #28328	; 0x6ea8
0x0000eb84:  e3403001      movt	r3, #1	; 0x1
0x0000eb88:  e7933102      ldr	r3, [r3, r2, lsl #2]
0x0000eb8c:  e0244003      eor	r4, r4, r3
0x0000eb90:  e24b3080      sub	r3, fp, #128	; 0x80
0x0000eb94:  e3a01002      mov	r1, #2	; 0x2
0x0000eb98:  e1a00003      mov	r0, r3
0x0000eb9c:  ebfff999      bl	0xd208

----------------
IN: run
0x0000eba0:  e1a03000      mov	r3, r0
0x0000eba4:  e1a02003      mov	r2, r3
0x0000eba8:  e3063aa8      movw	r3, #27304	; 0x6aa8
0x0000ebac:  e3403001      movt	r3, #1	; 0x1
0x0000ebb0:  e7932102      ldr	r2, [r3, r2, lsl #2]
0x0000ebb4:  e51b301c      ldr	r3, [fp, #-28]
0x0000ebb8:  e1a03203      lsl	r3, r3, #4
0x0000ebbc:  e283300a      add	r3, r3, #10	; 0xa
0x0000ebc0:  e0222004      eor	r2, r2, r4
0x0000ebc4:  e1a03103      lsl	r3, r3, #2
0x0000ebc8:  e2433014      sub	r3, r3, #20	; 0x14
0x0000ebcc:  e083300b      add	r3, r3, fp
0x0000ebd0:  e50320ec      str	r2, [r3, #-236]
0x0000ebd4:  e24b3080      sub	r3, fp, #128	; 0x80
0x0000ebd8:  e3a01005      mov	r1, #5	; 0x5
0x0000ebdc:  e1a00003      mov	r0, r3
0x0000ebe0:  ebfff988      bl	0xd208

----------------
IN: run
0x0000ebe4:  e1a03000      mov	r3, r0
0x0000ebe8:  e1a02003      mov	r2, r3
0x0000ebec:  e30632a8      movw	r3, #25256	; 0x62a8
0x0000ebf0:  e3403001      movt	r3, #1	; 0x1
0x0000ebf4:  e7934102      ldr	r4, [r3, r2, lsl #2]
0x0000ebf8:  e24b3080      sub	r3, fp, #128	; 0x80
0x0000ebfc:  e3a01004      mov	r1, #4	; 0x4

----------------
IN: run
0x0000ec00:  e1a00003      mov	r0, r3
0x0000ec04:  ebfff97f      bl	0xd208

----------------
IN: run
0x0000ec08:  e1a03000      mov	r3, r0
0x0000ec0c:  e1a02003      mov	r2, r3
0x0000ec10:  e30636a8      movw	r3, #26280	; 0x66a8
0x0000ec14:  e3403001      movt	r3, #1	; 0x1
0x0000ec18:  e7933102      ldr	r3, [r3, r2, lsl #2]
0x0000ec1c:  e0244003      eor	r4, r4, r3
0x0000ec20:  e24b3080      sub	r3, fp, #128	; 0x80
0x0000ec24:  e3a0100a      mov	r1, #10	; 0xa
0x0000ec28:  e1a00003      mov	r0, r3
0x0000ec2c:  ebfff975      bl	0xd208

----------------
IN: run
0x0000ec30:  e1a03000      mov	r3, r0
0x0000ec34:  e1a02003      mov	r2, r3
0x0000ec38:  e3063aa8      movw	r3, #27304	; 0x6aa8
0x0000ec3c:  e3403001      movt	r3, #1	; 0x1
0x0000ec40:  e7933102      ldr	r3, [r3, r2, lsl #2]
0x0000ec44:  e0244003      eor	r4, r4, r3
0x0000ec48:  e24b3080      sub	r3, fp, #128	; 0x80
0x0000ec4c:  e3a0100b      mov	r1, #11	; 0xb
0x0000ec50:  e1a00003      mov	r0, r3
0x0000ec54:  ebfff96b      bl	0xd208

----------------
IN: run
0x0000ec58:  e1a03000      mov	r3, r0
0x0000ec5c:  e1a02003      mov	r2, r3
0x0000ec60:  e3063ea8      movw	r3, #28328	; 0x6ea8
0x0000ec64:  e3403001      movt	r3, #1	; 0x1
0x0000ec68:  e7933102      ldr	r3, [r3, r2, lsl #2]
0x0000ec6c:  e0244003      eor	r4, r4, r3
0x0000ec70:  e24b3080      sub	r3, fp, #128	; 0x80
0x0000ec74:  e3a01006      mov	r1, #6	; 0x6
0x0000ec78:  e1a00003      mov	r0, r3
0x0000ec7c:  ebfff961      bl	0xd208

----------------
IN: run
0x0000ec80:  e1a03000      mov	r3, r0
0x0000ec84:  e1a02003      mov	r2, r3
0x0000ec88:  e3063ea8      movw	r3, #28328	; 0x6ea8
0x0000ec8c:  e3403001      movt	r3, #1	; 0x1
0x0000ec90:  e7932102      ldr	r2, [r3, r2, lsl #2]
0x0000ec94:  e51b301c      ldr	r3, [fp, #-28]
0x0000ec98:  e1a03203      lsl	r3, r3, #4
0x0000ec9c:  e283300b      add	r3, r3, #11	; 0xb
0x0000eca0:  e0222004      eor	r2, r2, r4
0x0000eca4:  e1a03103      lsl	r3, r3, #2
0x0000eca8:  e2433014      sub	r3, r3, #20	; 0x14
0x0000ecac:  e083300b      add	r3, r3, fp
0x0000ecb0:  e50320ec      str	r2, [r3, #-236]
0x0000ecb4:  e59b3008      ldr	r3, [fp, #8]
0x0000ecb8:  e3530000      cmp	r3, #0	; 0x0
0x0000ecbc:  0a000021      beq	0xed48

----------------
IN: run
0x0000ed48:  e51b4078      ldr	r4, [fp, #-120]
0x0000ed4c:  e24b3080      sub	r3, fp, #128	; 0x80
0x0000ed50:  e3a01005      mov	r1, #5	; 0x5
0x0000ed54:  e1a00003      mov	r0, r3
0x0000ed58:  ebfff92a      bl	0xd208

----------------
IN: run
0x0000ed5c:  e1a03000      mov	r3, r0
0x0000ed60:  e1a02003      mov	r2, r3
0x0000ed64:  e30632a8      movw	r3, #25256	; 0x62a8
0x0000ed68:  e3403001      movt	r3, #1	; 0x1
0x0000ed6c:  e7933102      ldr	r3, [r3, r2, lsl #2]
0x0000ed70:  e0244003      eor	r4, r4, r3
0x0000ed74:  e24b3080      sub	r3, fp, #128	; 0x80
0x0000ed78:  e3a01007      mov	r1, #7	; 0x7
0x0000ed7c:  e1a00003      mov	r0, r3
0x0000ed80:  ebfff920      bl	0xd208

----------------
IN: run
0x0000ed84:  e1a03000      mov	r3, r0
0x0000ed88:  e1a02003      mov	r2, r3
0x0000ed8c:  e30636a8      movw	r3, #26280	; 0x66a8
0x0000ed90:  e3403001      movt	r3, #1	; 0x1
0x0000ed94:  e7933102      ldr	r3, [r3, r2, lsl #2]
0x0000ed98:  e0244003      eor	r4, r4, r3
0x0000ed9c:  e24b3080      sub	r3, fp, #128	; 0x80
0x0000eda0:  e3a01004      mov	r1, #4	; 0x4
0x0000eda4:  e1a00003      mov	r0, r3
0x0000eda8:  ebfff916      bl	0xd208

----------------
IN: run
0x0000edac:  e1a03000      mov	r3, r0
0x0000edb0:  e1a02003      mov	r2, r3
0x0000edb4:  e3063aa8      movw	r3, #27304	; 0x6aa8
0x0000edb8:  e3403001      movt	r3, #1	; 0x1
0x0000edbc:  e7933102      ldr	r3, [r3, r2, lsl #2]
0x0000edc0:  e0244003      eor	r4, r4, r3
0x0000edc4:  e24b3080      sub	r3, fp, #128	; 0x80
0x0000edc8:  e3a01006      mov	r1, #6	; 0x6
0x0000edcc:  e1a00003      mov	r0, r3
0x0000edd0:  ebfff90c      bl	0xd208

----------------
IN: run
0x0000edd4:  e1a03000      mov	r3, r0
0x0000edd8:  e1a02003      mov	r2, r3
0x0000eddc:  e3063ea8      movw	r3, #28328	; 0x6ea8
0x0000ede0:  e3403001      movt	r3, #1	; 0x1
0x0000ede4:  e7933102      ldr	r3, [r3, r2, lsl #2]
0x0000ede8:  e0244003      eor	r4, r4, r3
0x0000edec:  e24b3080      sub	r3, fp, #128	; 0x80
0x0000edf0:  e3a01000      mov	r1, #0	; 0x0
0x0000edf4:  e1a00003      mov	r0, r3
0x0000edf8:  ebfff902      bl	0xd208

----------------
IN: run
0x0000edfc:  e1a03000      mov	r3, r0
0x0000ee00:  e1a02003      mov	r2, r3
0x0000ee04:  e3063aa8      movw	r3, #27304	; 0x6aa8
0x0000ee08:  e3403001      movt	r3, #1	; 0x1
0x0000ee0c:  e7933102      ldr	r3, [r3, r2, lsl #2]
0x0000ee10:  e0233004      eor	r3, r3, r4
0x0000ee14:  e50b3070      str	r3, [fp, #-112]
0x0000ee18:  e51b4080      ldr	r4, [fp, #-128]
0x0000ee1c:  e24b3070      sub	r3, fp, #112	; 0x70
0x0000ee20:  e3a01000      mov	r1, #0	; 0x0
0x0000ee24:  e1a00003      mov	r0, r3
0x0000ee28:  ebfff8f6      bl	0xd208

----------------
IN: run
0x0000ee2c:  e1a03000      mov	r3, r0
0x0000ee30:  e1a02003      mov	r2, r3
0x0000ee34:  e30632a8      movw	r3, #25256	; 0x62a8
0x0000ee38:  e3403001      movt	r3, #1	; 0x1
0x0000ee3c:  e7933102      ldr	r3, [r3, r2, lsl #2]
0x0000ee40:  e0244003      eor	r4, r4, r3
0x0000ee44:  e24b3070      sub	r3, fp, #112	; 0x70
0x0000ee48:  e3a01002      mov	r1, #2	; 0x2
0x0000ee4c:  e1a00003      mov	r0, r3
0x0000ee50:  ebfff8ec      bl	0xd208

----------------
IN: run
0x0000ee54:  e1a03000      mov	r3, r0
0x0000ee58:  e1a02003      mov	r2, r3
0x0000ee5c:  e30636a8      movw	r3, #26280	; 0x66a8
0x0000ee60:  e3403001      movt	r3, #1	; 0x1
0x0000ee64:  e7933102      ldr	r3, [r3, r2, lsl #2]
0x0000ee68:  e0244003      eor	r4, r4, r3
0x0000ee6c:  e24b3070      sub	r3, fp, #112	; 0x70
0x0000ee70:  e3a01001      mov	r1, #1	; 0x1
0x0000ee74:  e1a00003      mov	r0, r3
0x0000ee78:  ebfff8e2      bl	0xd208

----------------
IN: run
0x0000ee7c:  e1a03000      mov	r3, r0
0x0000ee80:  e1a02003      mov	r2, r3
0x0000ee84:  e3063aa8      movw	r3, #27304	; 0x6aa8
0x0000ee88:  e3403001      movt	r3, #1	; 0x1
0x0000ee8c:  e7933102      ldr	r3, [r3, r2, lsl #2]
0x0000ee90:  e0244003      eor	r4, r4, r3
0x0000ee94:  e24b3070      sub	r3, fp, #112	; 0x70
0x0000ee98:  e3a01003      mov	r1, #3	; 0x3
0x0000ee9c:  e1a00003      mov	r0, r3
0x0000eea0:  ebfff8d8      bl	0xd208

----------------
IN: run
0x0000eea4:  e1a03000      mov	r3, r0
0x0000eea8:  e1a02003      mov	r2, r3
0x0000eeac:  e3063ea8      movw	r3, #28328	; 0x6ea8
0x0000eeb0:  e3403001      movt	r3, #1	; 0x1
0x0000eeb4:  e7933102      ldr	r3, [r3, r2, lsl #2]
0x0000eeb8:  e0244003      eor	r4, r4, r3
0x0000eebc:  e24b3080      sub	r3, fp, #128	; 0x80
0x0000eec0:  e3a01002      mov	r1, #2	; 0x2
0x0000eec4:  e1a00003      mov	r0, r3
0x0000eec8:  ebfff8ce      bl	0xd208

----------------
IN: run
0x0000eecc:  e1a03000      mov	r3, r0
0x0000eed0:  e1a02003      mov	r2, r3
0x0000eed4:  e3063ea8      movw	r3, #28328	; 0x6ea8
0x0000eed8:  e3403001      movt	r3, #1	; 0x1
0x0000eedc:  e7933102      ldr	r3, [r3, r2, lsl #2]
0x0000eee0:  e0233004      eor	r3, r3, r4
0x0000eee4:  e50b306c      str	r3, [fp, #-108]
0x0000eee8:  e51b407c      ldr	r4, [fp, #-124]
0x0000eeec:  e24b3070      sub	r3, fp, #112	; 0x70
0x0000eef0:  e3a01007      mov	r1, #7	; 0x7
0x0000eef4:  e1a00003      mov	r0, r3
0x0000eef8:  ebfff8c2      bl	0xd208

----------------
IN: run
0x0000eefc:  e1a03000      mov	r3, r0
0x0000ef00:  e1a02003      mov	r2, r3
0x0000ef04:  e30632a8      movw	r3, #25256	; 0x62a8
0x0000ef08:  e3403001      movt	r3, #1	; 0x1
0x0000ef0c:  e7933102      ldr	r3, [r3, r2, lsl #2]
0x0000ef10:  e0244003      eor	r4, r4, r3
0x0000ef14:  e24b3070      sub	r3, fp, #112	; 0x70
0x0000ef18:  e3a01006      mov	r1, #6	; 0x6
0x0000ef1c:  e1a00003      mov	r0, r3
0x0000ef20:  ebfff8b8      bl	0xd208

----------------
IN: run
0x0000ef24:  e1a03000      mov	r3, r0
0x0000ef28:  e1a02003      mov	r2, r3
0x0000ef2c:  e30636a8      movw	r3, #26280	; 0x66a8
0x0000ef30:  e3403001      movt	r3, #1	; 0x1
0x0000ef34:  e7933102      ldr	r3, [r3, r2, lsl #2]
0x0000ef38:  e0244003      eor	r4, r4, r3
0x0000ef3c:  e24b3070      sub	r3, fp, #112	; 0x70
0x0000ef40:  e3a01005      mov	r1, #5	; 0x5
0x0000ef44:  e1a00003      mov	r0, r3
0x0000ef48:  ebfff8ae      bl	0xd208

----------------
IN: run
0x0000ef4c:  e1a03000      mov	r3, r0
0x0000ef50:  e1a02003      mov	r2, r3
0x0000ef54:  e3063aa8      movw	r3, #27304	; 0x6aa8
0x0000ef58:  e3403001      movt	r3, #1	; 0x1
0x0000ef5c:  e7933102      ldr	r3, [r3, r2, lsl #2]
0x0000ef60:  e0244003      eor	r4, r4, r3
0x0000ef64:  e24b3070      sub	r3, fp, #112	; 0x70
0x0000ef68:  e3a01004      mov	r1, #4	; 0x4
0x0000ef6c:  e1a00003      mov	r0, r3
0x0000ef70:  ebfff8a4      bl	0xd208

----------------
IN: run
0x0000ef74:  e1a03000      mov	r3, r0
0x0000ef78:  e1a02003      mov	r2, r3
0x0000ef7c:  e3063ea8      movw	r3, #28328	; 0x6ea8
0x0000ef80:  e3403001      movt	r3, #1	; 0x1
0x0000ef84:  e7933102      ldr	r3, [r3, r2, lsl #2]
0x0000ef88:  e0244003      eor	r4, r4, r3
0x0000ef8c:  e24b3080      sub	r3, fp, #128	; 0x80
0x0000ef90:  e3a01001      mov	r1, #1	; 0x1
0x0000ef94:  e1a00003      mov	r0, r3
0x0000ef98:  ebfff89a      bl	0xd208

----------------
IN: run
0x0000ef9c:  e1a03000      mov	r3, r0
0x0000efa0:  e1a02003      mov	r2, r3
0x0000efa4:  e30632a8      movw	r3, #25256	; 0x62a8
0x0000efa8:  e3403001      movt	r3, #1	; 0x1
0x0000efac:  e7933102      ldr	r3, [r3, r2, lsl #2]
0x0000efb0:  e0233004      eor	r3, r3, r4
0x0000efb4:  e50b3068      str	r3, [fp, #-104]
0x0000efb8:  e51b4074      ldr	r4, [fp, #-116]
0x0000efbc:  e24b3070      sub	r3, fp, #112	; 0x70
0x0000efc0:  e3a0100a      mov	r1, #10	; 0xa
0x0000efc4:  e1a00003      mov	r0, r3
0x0000efc8:  ebfff88e      bl	0xd208

----------------
IN: run
0x0000efcc:  e1a03000      mov	r3, r0
0x0000efd0:  e1a02003      mov	r2, r3
0x0000efd4:  e30632a8      movw	r3, #25256	; 0x62a8
0x0000efd8:  e3403001      movt	r3, #1	; 0x1
0x0000efdc:  e7933102      ldr	r3, [r3, r2, lsl #2]
0x0000efe0:  e0244003      eor	r4, r4, r3
0x0000efe4:  e24b3070      sub	r3, fp, #112	; 0x70
0x0000efe8:  e3a01009      mov	r1, #9	; 0x9
0x0000efec:  e1a00003      mov	r0, r3
0x0000eff0:  ebfff884      bl	0xd208

----------------
IN: run
0x0000eff4:  e1a03000      mov	r3, r0
0x0000eff8:  e1a02003      mov	r2, r3
0x0000effc:  e30636a8      movw	r3, #26280	; 0x66a8

----------------
IN: run
0x0000f000:  e3403001      movt	r3, #1	; 0x1
0x0000f004:  e7933102      ldr	r3, [r3, r2, lsl #2]
0x0000f008:  e0244003      eor	r4, r4, r3
0x0000f00c:  e24b3070      sub	r3, fp, #112	; 0x70
0x0000f010:  e3a0100b      mov	r1, #11	; 0xb
0x0000f014:  e1a00003      mov	r0, r3
0x0000f018:  ebfff87a      bl	0xd208

----------------
IN: run
0x0000f01c:  e1a03000      mov	r3, r0
0x0000f020:  e1a02003      mov	r2, r3
0x0000f024:  e3063aa8      movw	r3, #27304	; 0x6aa8
0x0000f028:  e3403001      movt	r3, #1	; 0x1
0x0000f02c:  e7933102      ldr	r3, [r3, r2, lsl #2]
0x0000f030:  e0244003      eor	r4, r4, r3
0x0000f034:  e24b3070      sub	r3, fp, #112	; 0x70
0x0000f038:  e3a01008      mov	r1, #8	; 0x8
0x0000f03c:  e1a00003      mov	r0, r3
0x0000f040:  ebfff870      bl	0xd208

----------------
IN: run
0x0000f044:  e1a03000      mov	r3, r0
0x0000f048:  e1a02003      mov	r2, r3
0x0000f04c:  e3063ea8      movw	r3, #28328	; 0x6ea8
0x0000f050:  e3403001      movt	r3, #1	; 0x1
0x0000f054:  e7933102      ldr	r3, [r3, r2, lsl #2]
0x0000f058:  e0244003      eor	r4, r4, r3
0x0000f05c:  e24b3080      sub	r3, fp, #128	; 0x80
0x0000f060:  e3a01003      mov	r1, #3	; 0x3
0x0000f064:  e1a00003      mov	r0, r3
0x0000f068:  ebfff866      bl	0xd208

----------------
IN: run
0x0000f06c:  e1a03000      mov	r3, r0
0x0000f070:  e1a02003      mov	r2, r3
0x0000f074:  e30636a8      movw	r3, #26280	; 0x66a8
0x0000f078:  e3403001      movt	r3, #1	; 0x1
0x0000f07c:  e7933102      ldr	r3, [r3, r2, lsl #2]
0x0000f080:  e0233004      eor	r3, r3, r4
0x0000f084:  e50b3064      str	r3, [fp, #-100]
0x0000f088:  e59b3008      ldr	r3, [fp, #8]
0x0000f08c:  e3530000      cmp	r3, #0	; 0x0
0x0000f090:  0a000017      beq	0xf0f4

----------------
IN: run
0x0000f0f4:  e24b3070      sub	r3, fp, #112	; 0x70
0x0000f0f8:  e3a01008      mov	r1, #8	; 0x8
0x0000f0fc:  e1a00003      mov	r0, r3
0x0000f100:  ebfff840      bl	0xd208

----------------
IN: run
0x0000f104:  e1a03000      mov	r3, r0
0x0000f108:  e1a02003      mov	r2, r3
0x0000f10c:  e30632a8      movw	r3, #25256	; 0x62a8
0x0000f110:  e3403001      movt	r3, #1	; 0x1
0x0000f114:  e7934102      ldr	r4, [r3, r2, lsl #2]
0x0000f118:  e24b3070      sub	r3, fp, #112	; 0x70
0x0000f11c:  e3a01009      mov	r1, #9	; 0x9
0x0000f120:  e1a00003      mov	r0, r3
0x0000f124:  ebfff837      bl	0xd208

----------------
IN: run
0x0000f128:  e1a03000      mov	r3, r0
0x0000f12c:  e1a02003      mov	r2, r3
0x0000f130:  e30636a8      movw	r3, #26280	; 0x66a8
0x0000f134:  e3403001      movt	r3, #1	; 0x1
0x0000f138:  e7933102      ldr	r3, [r3, r2, lsl #2]
0x0000f13c:  e0244003      eor	r4, r4, r3
0x0000f140:  e24b3070      sub	r3, fp, #112	; 0x70
0x0000f144:  e3a01007      mov	r1, #7	; 0x7
0x0000f148:  e1a00003      mov	r0, r3
0x0000f14c:  ebfff82d      bl	0xd208

----------------
IN: run
0x0000f150:  e1a03000      mov	r3, r0
0x0000f154:  e1a02003      mov	r2, r3
0x0000f158:  e3063aa8      movw	r3, #27304	; 0x6aa8
0x0000f15c:  e3403001      movt	r3, #1	; 0x1
0x0000f160:  e7933102      ldr	r3, [r3, r2, lsl #2]
0x0000f164:  e0244003      eor	r4, r4, r3
0x0000f168:  e24b3070      sub	r3, fp, #112	; 0x70
0x0000f16c:  e3a01006      mov	r1, #6	; 0x6
0x0000f170:  e1a00003      mov	r0, r3
0x0000f174:  ebfff823      bl	0xd208

----------------
IN: run
0x0000f178:  e1a03000      mov	r3, r0
0x0000f17c:  e1a02003      mov	r2, r3
0x0000f180:  e3063ea8      movw	r3, #28328	; 0x6ea8
0x0000f184:  e3403001      movt	r3, #1	; 0x1
0x0000f188:  e7933102      ldr	r3, [r3, r2, lsl #2]
0x0000f18c:  e0244003      eor	r4, r4, r3
0x0000f190:  e24b3070      sub	r3, fp, #112	; 0x70
0x0000f194:  e3a01003      mov	r1, #3	; 0x3
0x0000f198:  e1a00003      mov	r0, r3
0x0000f19c:  ebfff819      bl	0xd208

----------------
IN: run
0x0000f1a0:  e1a03000      mov	r3, r0
0x0000f1a4:  e1a02003      mov	r2, r3
0x0000f1a8:  e30632a8      movw	r3, #25256	; 0x62a8
0x0000f1ac:  e3403001      movt	r3, #1	; 0x1
0x0000f1b0:  e7932102      ldr	r2, [r3, r2, lsl #2]
0x0000f1b4:  e51b301c      ldr	r3, [fp, #-28]
0x0000f1b8:  e1a03203      lsl	r3, r3, #4
0x0000f1bc:  e283300c      add	r3, r3, #12	; 0xc
0x0000f1c0:  e0222004      eor	r2, r2, r4
0x0000f1c4:  e1a03103      lsl	r3, r3, #2
0x0000f1c8:  e2433014      sub	r3, r3, #20	; 0x14
0x0000f1cc:  e083300b      add	r3, r3, fp
0x0000f1d0:  e50320ec      str	r2, [r3, #-236]
0x0000f1d4:  e24b3070      sub	r3, fp, #112	; 0x70
0x0000f1d8:  e3a0100a      mov	r1, #10	; 0xa
0x0000f1dc:  e1a00003      mov	r0, r3
0x0000f1e0:  ebfff808      bl	0xd208

----------------
IN: run
0x0000f1e4:  e1a03000      mov	r3, r0
0x0000f1e8:  e1a02003      mov	r2, r3
0x0000f1ec:  e30632a8      movw	r3, #25256	; 0x62a8
0x0000f1f0:  e3403001      movt	r3, #1	; 0x1
0x0000f1f4:  e7934102      ldr	r4, [r3, r2, lsl #2]
0x0000f1f8:  e24b3070      sub	r3, fp, #112	; 0x70
0x0000f1fc:  e3a0100b      mov	r1, #11	; 0xb
0x0000f200:  e1a00003      mov	r0, r3
0x0000f204:  ebfff7ff      bl	0xd208

----------------
IN: run
0x0000f208:  e1a03000      mov	r3, r0
0x0000f20c:  e1a02003      mov	r2, r3
0x0000f210:  e30636a8      movw	r3, #26280	; 0x66a8
0x0000f214:  e3403001      movt	r3, #1	; 0x1
0x0000f218:  e7933102      ldr	r3, [r3, r2, lsl #2]
0x0000f21c:  e0244003      eor	r4, r4, r3
0x0000f220:  e24b3070      sub	r3, fp, #112	; 0x70
0x0000f224:  e3a01005      mov	r1, #5	; 0x5
0x0000f228:  e1a00003      mov	r0, r3
0x0000f22c:  ebfff7f5      bl	0xd208

----------------
IN: run
0x0000f230:  e1a03000      mov	r3, r0
0x0000f234:  e1a02003      mov	r2, r3
0x0000f238:  e3063aa8      movw	r3, #27304	; 0x6aa8
0x0000f23c:  e3403001      movt	r3, #1	; 0x1
0x0000f240:  e7933102      ldr	r3, [r3, r2, lsl #2]
0x0000f244:  e0244003      eor	r4, r4, r3
0x0000f248:  e24b3070      sub	r3, fp, #112	; 0x70
0x0000f24c:  e3a01004      mov	r1, #4	; 0x4
0x0000f250:  e1a00003      mov	r0, r3
0x0000f254:  ebfff7eb      bl	0xd208

----------------
IN: run
0x0000f258:  e1a03000      mov	r3, r0
0x0000f25c:  e1a02003      mov	r2, r3
0x0000f260:  e3063ea8      movw	r3, #28328	; 0x6ea8
0x0000f264:  e3403001      movt	r3, #1	; 0x1
0x0000f268:  e7933102      ldr	r3, [r3, r2, lsl #2]
0x0000f26c:  e0244003      eor	r4, r4, r3
0x0000f270:  e24b3070      sub	r3, fp, #112	; 0x70
0x0000f274:  e3a01007      mov	r1, #7	; 0x7
0x0000f278:  e1a00003      mov	r0, r3
0x0000f27c:  ebfff7e1      bl	0xd208

----------------
IN: run
0x0000f280:  e1a03000      mov	r3, r0
0x0000f284:  e1a02003      mov	r2, r3
0x0000f288:  e30636a8      movw	r3, #26280	; 0x66a8
0x0000f28c:  e3403001      movt	r3, #1	; 0x1
0x0000f290:  e7932102      ldr	r2, [r3, r2, lsl #2]
0x0000f294:  e51b301c      ldr	r3, [fp, #-28]
0x0000f298:  e1a03203      lsl	r3, r3, #4
0x0000f29c:  e283300d      add	r3, r3, #13	; 0xd
0x0000f2a0:  e0222004      eor	r2, r2, r4
0x0000f2a4:  e1a03103      lsl	r3, r3, #2
0x0000f2a8:  e2433014      sub	r3, r3, #20	; 0x14
0x0000f2ac:  e083300b      add	r3, r3, fp
0x0000f2b0:  e50320ec      str	r2, [r3, #-236]
0x0000f2b4:  e24b3070      sub	r3, fp, #112	; 0x70
0x0000f2b8:  e3a0100c      mov	r1, #12	; 0xc
0x0000f2bc:  e1a00003      mov	r0, r3
0x0000f2c0:  ebfff7d0      bl	0xd208

----------------
IN: run
0x0000f2c4:  e1a03000      mov	r3, r0
0x0000f2c8:  e1a02003      mov	r2, r3
0x0000f2cc:  e30632a8      movw	r3, #25256	; 0x62a8
0x0000f2d0:  e3403001      movt	r3, #1	; 0x1
0x0000f2d4:  e7934102      ldr	r4, [r3, r2, lsl #2]
0x0000f2d8:  e24b3070      sub	r3, fp, #112	; 0x70
0x0000f2dc:  e3a0100d      mov	r1, #13	; 0xd
0x0000f2e0:  e1a00003      mov	r0, r3
0x0000f2e4:  ebfff7c7      bl	0xd208

----------------
IN: run
0x0000f2e8:  e1a03000      mov	r3, r0
0x0000f2ec:  e1a02003      mov	r2, r3
0x0000f2f0:  e30636a8      movw	r3, #26280	; 0x66a8
0x0000f2f4:  e3403001      movt	r3, #1	; 0x1
0x0000f2f8:  e7933102      ldr	r3, [r3, r2, lsl #2]
0x0000f2fc:  e0244003      eor	r4, r4, r3
0x0000f300:  e24b3070      sub	r3, fp, #112	; 0x70
0x0000f304:  e3a01003      mov	r1, #3	; 0x3
0x0000f308:  e1a00003      mov	r0, r3
0x0000f30c:  ebfff7bd      bl	0xd208

----------------
IN: run
0x0000f310:  e1a03000      mov	r3, r0
0x0000f314:  e1a02003      mov	r2, r3
0x0000f318:  e3063aa8      movw	r3, #27304	; 0x6aa8
0x0000f31c:  e3403001      movt	r3, #1	; 0x1
0x0000f320:  e7933102      ldr	r3, [r3, r2, lsl #2]
0x0000f324:  e0244003      eor	r4, r4, r3
0x0000f328:  e24b3070      sub	r3, fp, #112	; 0x70
0x0000f32c:  e3a01002      mov	r1, #2	; 0x2
0x0000f330:  e1a00003      mov	r0, r3
0x0000f334:  ebfff7b3      bl	0xd208

----------------
IN: run
0x0000f338:  e1a03000      mov	r3, r0
0x0000f33c:  e1a02003      mov	r2, r3
0x0000f340:  e3063ea8      movw	r3, #28328	; 0x6ea8
0x0000f344:  e3403001      movt	r3, #1	; 0x1
0x0000f348:  e7933102      ldr	r3, [r3, r2, lsl #2]
0x0000f34c:  e0244003      eor	r4, r4, r3
0x0000f350:  e24b3070      sub	r3, fp, #112	; 0x70
0x0000f354:  e3a01008      mov	r1, #8	; 0x8
0x0000f358:  e1a00003      mov	r0, r3
0x0000f35c:  ebfff7a9      bl	0xd208

----------------
IN: run
0x0000f360:  e1a03000      mov	r3, r0
0x0000f364:  e1a02003      mov	r2, r3
0x0000f368:  e3063aa8      movw	r3, #27304	; 0x6aa8
0x0000f36c:  e3403001      movt	r3, #1	; 0x1
0x0000f370:  e7932102      ldr	r2, [r3, r2, lsl #2]
0x0000f374:  e51b301c      ldr	r3, [fp, #-28]
0x0000f378:  e1a03203      lsl	r3, r3, #4
0x0000f37c:  e283300e      add	r3, r3, #14	; 0xe
0x0000f380:  e0222004      eor	r2, r2, r4
0x0000f384:  e1a03103      lsl	r3, r3, #2
0x0000f388:  e2433014      sub	r3, r3, #20	; 0x14
0x0000f38c:  e083300b      add	r3, r3, fp
0x0000f390:  e50320ec      str	r2, [r3, #-236]
0x0000f394:  e24b3070      sub	r3, fp, #112	; 0x70
0x0000f398:  e3a0100e      mov	r1, #14	; 0xe
0x0000f39c:  e1a00003      mov	r0, r3
0x0000f3a0:  ebfff798      bl	0xd208

----------------
IN: run
0x0000f3a4:  e1a03000      mov	r3, r0
0x0000f3a8:  e1a02003      mov	r2, r3
0x0000f3ac:  e30632a8      movw	r3, #25256	; 0x62a8
0x0000f3b0:  e3403001      movt	r3, #1	; 0x1
0x0000f3b4:  e7934102      ldr	r4, [r3, r2, lsl #2]
0x0000f3b8:  e24b3070      sub	r3, fp, #112	; 0x70
0x0000f3bc:  e3a0100f      mov	r1, #15	; 0xf
0x0000f3c0:  e1a00003      mov	r0, r3
0x0000f3c4:  ebfff78f      bl	0xd208

----------------
IN: run
0x0000f3c8:  e1a03000      mov	r3, r0
0x0000f3cc:  e1a02003      mov	r2, r3
0x0000f3d0:  e30636a8      movw	r3, #26280	; 0x66a8
0x0000f3d4:  e3403001      movt	r3, #1	; 0x1
0x0000f3d8:  e7933102      ldr	r3, [r3, r2, lsl #2]
0x0000f3dc:  e0244003      eor	r4, r4, r3
0x0000f3e0:  e24b3070      sub	r3, fp, #112	; 0x70
0x0000f3e4:  e3a01001      mov	r1, #1	; 0x1
0x0000f3e8:  e1a00003      mov	r0, r3
0x0000f3ec:  ebfff785      bl	0xd208

----------------
IN: run
0x0000f3f0:  e1a03000      mov	r3, r0
0x0000f3f4:  e1a02003      mov	r2, r3
0x0000f3f8:  e3063aa8      movw	r3, #27304	; 0x6aa8
0x0000f3fc:  e3403001      movt	r3, #1	; 0x1

----------------
IN: run
0x0000f400:  e7933102      ldr	r3, [r3, r2, lsl #2]
0x0000f404:  e0244003      eor	r4, r4, r3
0x0000f408:  e24b3070      sub	r3, fp, #112	; 0x70
0x0000f40c:  e3a01000      mov	r1, #0	; 0x0
0x0000f410:  e1a00003      mov	r0, r3
0x0000f414:  ebfff77b      bl	0xd208

----------------
IN: run
0x0000f418:  e1a03000      mov	r3, r0
0x0000f41c:  e1a02003      mov	r2, r3
0x0000f420:  e3063ea8      movw	r3, #28328	; 0x6ea8
0x0000f424:  e3403001      movt	r3, #1	; 0x1
0x0000f428:  e7933102      ldr	r3, [r3, r2, lsl #2]
0x0000f42c:  e0244003      eor	r4, r4, r3
0x0000f430:  e24b3070      sub	r3, fp, #112	; 0x70
0x0000f434:  e3a0100d      mov	r1, #13	; 0xd
0x0000f438:  e1a00003      mov	r0, r3
0x0000f43c:  ebfff771      bl	0xd208

----------------
IN: run
0x0000f440:  e1a03000      mov	r3, r0
0x0000f444:  e1a02003      mov	r2, r3
0x0000f448:  e3063ea8      movw	r3, #28328	; 0x6ea8
0x0000f44c:  e3403001      movt	r3, #1	; 0x1
0x0000f450:  e7932102      ldr	r2, [r3, r2, lsl #2]
0x0000f454:  e51b301c      ldr	r3, [fp, #-28]
0x0000f458:  e1a03203      lsl	r3, r3, #4
0x0000f45c:  e283300f      add	r3, r3, #15	; 0xf
0x0000f460:  e0222004      eor	r2, r2, r4
0x0000f464:  e1a03103      lsl	r3, r3, #2
0x0000f468:  e2433014      sub	r3, r3, #20	; 0x14
0x0000f46c:  e083300b      add	r3, r3, fp
0x0000f470:  e50320ec      str	r2, [r3, #-236]
0x0000f474:  e59b3008      ldr	r3, [fp, #8]
0x0000f478:  e3530000      cmp	r3, #0	; 0x0
0x0000f47c:  0a000021      beq	0xf508

----------------
IN: run
0x0000f508:  e51b301c      ldr	r3, [fp, #-28]
0x0000f50c:  e2833001      add	r3, r3, #1	; 0x1
0x0000f510:  e50b301c      str	r3, [fp, #-28]
0x0000f514:  e51b301c      ldr	r3, [fp, #-28]
0x0000f518:  e3530001      cmp	r3, #1	; 0x1
0x0000f51c:  dafff7e2      ble	0xd4ac

----------------
IN: run
0x0000f520:  e24b3f51      sub	r3, fp, #324	; 0x144
0x0000f524:  e3a02044      mov	r2, #68	; 0x44
0x0000f528:  e3a01000      mov	r1, #0	; 0x0
0x0000f52c:  e1a00003      mov	r0, r3
0x0000f530:  eb0003c0      bl	0x10438

----------------
IN: run
0x0000f534:  e51b319c      ldr	r3, [fp, #-412]
0x0000f538:  e50b3144      str	r3, [fp, #-324]
0x0000f53c:  e24b3f62      sub	r3, fp, #392	; 0x188
0x0000f540:  e3a02044      mov	r2, #68	; 0x44
0x0000f544:  e3a01000      mov	r1, #0	; 0x0
0x0000f548:  e1a00003      mov	r0, r3
0x0000f54c:  eb0003b9      bl	0x10438

----------------
IN: run
0x0000f550:  e51b3198      ldr	r3, [fp, #-408]
0x0000f554:  e50b3188      str	r3, [fp, #-392]
0x0000f558:  e59b3008      ldr	r3, [fp, #8]
0x0000f55c:  e3530000      cmp	r3, #0	; 0x0
0x0000f560:  0a000002      beq	0xf570

----------------
IN: run
0x0000f570:  e3a03000      mov	r3, #0	; 0x0
0x0000f574:  e50b304c      str	r3, [fp, #-76]
0x0000f578:  ea000222      b	0xfe08

----------------
IN: run
0x0000fe08:  e51b304c      ldr	r3, [fp, #-76]
0x0000fe0c:  e353000f      cmp	r3, #15	; 0xf
0x0000fe10:  dafffdd9      ble	0xf57c

----------------
IN: run
0x0000f57c:  e59b3004      ldr	r3, [fp, #4]
0x0000f580:  e3530000      cmp	r3, #0	; 0x0
0x0000f584:  0a000002      beq	0xf594

----------------
IN: run
0x0000f594:  e51b304c      ldr	r3, [fp, #-76]
0x0000f598:  e50b3054      str	r3, [fp, #-84]
0x0000f59c:  e51b3054      ldr	r3, [fp, #-84]
0x0000f5a0:  e1a03103      lsl	r3, r3, #2
0x0000f5a4:  e2433014      sub	r3, r3, #20	; 0x14
0x0000f5a8:  e083300b      add	r3, r3, fp
0x0000f5ac:  e51330ec      ldr	r3, [r3, #-236]
0x0000f5b0:  e50b3058      str	r3, [fp, #-88]
0x0000f5b4:  e51b3054      ldr	r3, [fp, #-84]
0x0000f5b8:  e2833010      add	r3, r3, #16	; 0x10
0x0000f5bc:  e1a03103      lsl	r3, r3, #2
0x0000f5c0:  e2433014      sub	r3, r3, #20	; 0x14
0x0000f5c4:  e083300b      add	r3, r3, fp
0x0000f5c8:  e51330ec      ldr	r3, [r3, #-236]
0x0000f5cc:  e6ef3073      uxtb	r3, r3
0x0000f5d0:  e203301f      and	r3, r3, #31	; 0x1f
0x0000f5d4:  e54b3059      strb	r3, [fp, #-89]
0x0000f5d8:  e59b3008      ldr	r3, [fp, #8]
0x0000f5dc:  e3530000      cmp	r3, #0	; 0x0
0x0000f5e0:  0a000022      beq	0xf670

----------------
IN: run
0x0000f670:  e3a03000      mov	r3, #0	; 0x0
0x0000f674:  e50b3060      str	r3, [fp, #-96]
0x0000f678:  e3a03000      mov	r3, #0	; 0x0
0x0000f67c:  e50b3050      str	r3, [fp, #-80]
0x0000f680:  e51b2054      ldr	r2, [fp, #-84]
0x0000f684:  e3053556      movw	r3, #21846	; 0x5556
0x0000f688:  e3453555      movt	r3, #21845	; 0x5555
0x0000f68c:  e0c13293      smull	r3, r1, r3, r2
0x0000f690:  e1a03fc2      asr	r3, r2, #31
0x0000f694:  e0413003      sub	r3, r1, r3
0x0000f698:  e3a01003      mov	r1, #3	; 0x3
0x0000f69c:  e0030391      mul	r3, r1, r3
0x0000f6a0:  e0423003      sub	r3, r2, r3
0x0000f6a4:  e3530002      cmp	r3, #2	; 0x2
0x0000f6a8:  0a00010b      beq	0xfadc

----------------
IN: run
0x0000f6ac:  e3530002      cmp	r3, #2	; 0x2
0x0000f6b0:  ca000191      bgt	0xfcfc

----------------
IN: run
0x0000f6b4:  e3530000      cmp	r3, #0	; 0x0
0x0000f6b8:  0a000002      beq	0xf6c8

----------------
IN: run
0x0000f6c8:  e51b304c      ldr	r3, [fp, #-76]
0x0000f6cc:  e1a03103      lsl	r3, r3, #2
0x0000f6d0:  e2433014      sub	r3, r3, #20	; 0x14
0x0000f6d4:  e083300b      add	r3, r3, fp
0x0000f6d8:  e5133174      ldr	r3, [r3, #-372]
0x0000f6dc:  e1a01003      mov	r1, r3
0x0000f6e0:  e51b0058      ldr	r0, [fp, #-88]
0x0000f6e4:  ebfff6f7      bl	0xd2c8

----------------
IN: sumMod2_32b
0x0000d2c8:  e52db004      push	{fp}		; (str fp, [sp, #-4]!)
0x0000d2cc:  e28db000      add	fp, sp, #0	; 0x0
0x0000d2d0:  e24dd00c      sub	sp, sp, #12	; 0xc
0x0000d2d4:  e50b0008      str	r0, [fp, #-8]
0x0000d2d8:  e50b100c      str	r1, [fp, #-12]
0x0000d2dc:  e51b2008      ldr	r2, [fp, #-8]
0x0000d2e0:  e51b300c      ldr	r3, [fp, #-12]
0x0000d2e4:  e0823003      add	r3, r2, r3
0x0000d2e8:  e1a00003      mov	r0, r3
0x0000d2ec:  e28bd000      add	sp, fp, #0	; 0x0
0x0000d2f0:  e49db004      pop	{fp}		; (ldr fp, [sp], #4)
0x0000d2f4:  e12fff1e      bx	lr

----------------
IN: run
0x0000f6e8:  e1a02000      mov	r2, r0
0x0000f6ec:  e55b3059      ldrb	r3, [fp, #-89]
0x0000f6f0:  e1a01003      mov	r1, r3
0x0000f6f4:  e1a00002      mov	r0, r2
0x0000f6f8:  ebfff715      bl	0xd354

----------------
IN: cyclicShift
0x0000d354:  e52db004      push	{fp}		; (str fp, [sp, #-4]!)
0x0000d358:  e28db000      add	fp, sp, #0	; 0x0
0x0000d35c:  e24dd014      sub	sp, sp, #20	; 0x14
0x0000d360:  e50b0010      str	r0, [fp, #-16]
0x0000d364:  e1a03001      mov	r3, r1
0x0000d368:  e54b3011      strb	r3, [fp, #-17]
0x0000d36c:  e55b3011      ldrb	r3, [fp, #-17]
0x0000d370:  e203301f      and	r3, r3, #31	; 0x1f
0x0000d374:  e54b3005      strb	r3, [fp, #-5]
0x0000d378:  e55b3005      ldrb	r3, [fp, #-5]
0x0000d37c:  e51b2010      ldr	r2, [fp, #-16]
0x0000d380:  e2633020      rsb	r3, r3, #32	; 0x20
0x0000d384:  e1a03372      ror	r3, r2, r3
0x0000d388:  e1a00003      mov	r0, r3
0x0000d38c:  e28bd000      add	sp, fp, #0	; 0x0
0x0000d390:  e49db004      pop	{fp}		; (ldr fp, [sp], #4)
0x0000d394:  e12fff1e      bx	lr

----------------
IN: run
0x0000f6fc:  e50b0060      str	r0, [fp, #-96]
0x0000f700:  e59b3008      ldr	r3, [fp, #8]
0x0000f704:  e3530000      cmp	r3, #0	; 0x0
0x0000f708:  0a00000c      beq	0xf740

----------------
IN: run
0x0000f740:  e24b3f62      sub	r3, fp, #392	; 0x188
0x0000f744:  e2433003      sub	r3, r3, #3	; 0x3
0x0000f748:  e24b2f62      sub	r2, fp, #392	; 0x188
0x0000f74c:  e2422002      sub	r2, r2, #2	; 0x2
0x0000f750:  e24b1f62      sub	r1, fp, #392	; 0x188
0x0000f754:  e2411001      sub	r1, r1, #1	; 0x1
0x0000f758:  e24b0f63      sub	r0, fp, #396	; 0x18c
0x0000f75c:  e58d0000      str	r0, [sp]
0x0000f760:  e51b0060      ldr	r0, [fp, #-96]
0x0000f764:  ebfff6b9      bl	0xd250

----------------
IN: splitI
0x0000d250:  e52db004      push	{fp}		; (str fp, [sp, #-4]!)
0x0000d254:  e28db000      add	fp, sp, #0	; 0x0
0x0000d258:  e24dd014      sub	sp, sp, #20	; 0x14
0x0000d25c:  e50b0008      str	r0, [fp, #-8]
0x0000d260:  e50b100c      str	r1, [fp, #-12]
0x0000d264:  e50b2010      str	r2, [fp, #-16]
0x0000d268:  e50b3014      str	r3, [fp, #-20]
0x0000d26c:  e51b3008      ldr	r3, [fp, #-8]
0x0000d270:  e1a03c23      lsr	r3, r3, #24
0x0000d274:  e6ef2073      uxtb	r2, r3
0x0000d278:  e51b300c      ldr	r3, [fp, #-12]
0x0000d27c:  e5c32000      strb	r2, [r3]
0x0000d280:  e51b3008      ldr	r3, [fp, #-8]
0x0000d284:  e1a03823      lsr	r3, r3, #16
0x0000d288:  e6ef2073      uxtb	r2, r3
0x0000d28c:  e51b3010      ldr	r3, [fp, #-16]
0x0000d290:  e5c32000      strb	r2, [r3]
0x0000d294:  e51b3008      ldr	r3, [fp, #-8]
0x0000d298:  e1a03423      lsr	r3, r3, #8
0x0000d29c:  e6ef2073      uxtb	r2, r3
0x0000d2a0:  e51b3014      ldr	r3, [fp, #-20]
0x0000d2a4:  e5c32000      strb	r2, [r3]
0x0000d2a8:  e51b3008      ldr	r3, [fp, #-8]
0x0000d2ac:  e6ef2073      uxtb	r2, r3
0x0000d2b0:  e59b3004      ldr	r3, [fp, #4]
0x0000d2b4:  e5c32000      strb	r2, [r3]
0x0000d2b8:  e320f000      nop	{0}
0x0000d2bc:  e28bd000      add	sp, fp, #0	; 0x0
0x0000d2c0:  e49db004      pop	{fp}		; (ldr fp, [sp], #4)
0x0000d2c4:  e12fff1e      bx	lr

----------------
IN: run
0x0000f768:  e59b3008      ldr	r3, [fp, #8]
0x0000f76c:  e3530000      cmp	r3, #0	; 0x0
0x0000f770:  0a00000b      beq	0xf7a4

----------------
IN: run
0x0000f7a4:  e55b3189      ldrb	r3, [fp, #-393]
0x0000f7a8:  e1a02003      mov	r2, r3
0x0000f7ac:  e30532a8      movw	r3, #21160	; 0x52a8
0x0000f7b0:  e3403001      movt	r3, #1	; 0x1
0x0000f7b4:  e7932102      ldr	r2, [r3, r2, lsl #2]
0x0000f7b8:  e55b318a      ldrb	r3, [fp, #-394]
0x0000f7bc:  e1a01003      mov	r1, r3
0x0000f7c0:  e30536a8      movw	r3, #22184	; 0x56a8
0x0000f7c4:  e3403001      movt	r3, #1	; 0x1
0x0000f7c8:  e7933101      ldr	r3, [r3, r1, lsl #2]
0x0000f7cc:  e0222003      eor	r2, r2, r3
0x0000f7d0:  e55b318b      ldrb	r3, [fp, #-395]
0x0000f7d4:  e1a01003      mov	r1, r3
0x0000f7d8:  e3053aa8      movw	r3, #23208	; 0x5aa8
0x0000f7dc:  e3403001      movt	r3, #1	; 0x1
0x0000f7e0:  e7933101      ldr	r3, [r3, r1, lsl #2]
0x0000f7e4:  e1a01003      mov	r1, r3
0x0000f7e8:  e1a00002      mov	r0, r2
0x0000f7ec:  ebfff6c1      bl	0xd2f8

----------------
IN: subtractMod2_32b
0x0000d2f8:  e52db004      push	{fp}		; (str fp, [sp, #-4]!)
0x0000d2fc:  e28db000      add	fp, sp, #0	; 0x0
0x0000d300:  e24dd00c      sub	sp, sp, #12	; 0xc
0x0000d304:  e50b0008      str	r0, [fp, #-8]
0x0000d308:  e50b100c      str	r1, [fp, #-12]
0x0000d30c:  e51b200c      ldr	r2, [fp, #-12]
0x0000d310:  e51b3008      ldr	r3, [fp, #-8]
0x0000d314:  e1520003      cmp	r2, r3
0x0000d318:  8a000003      bhi	0xd32c

----------------
IN: subtractMod2_32b
0x0000d31c:  e51b2008      ldr	r2, [fp, #-8]
0x0000d320:  e51b300c      ldr	r3, [fp, #-12]
0x0000d324:  e0423003      sub	r3, r2, r3
0x0000d328:  ea000005      b	0xd344

----------------
IN: subtractMod2_32b
0x0000d344:  e1a00003      mov	r0, r3
0x0000d348:  e28bd000      add	sp, fp, #0	; 0x0
0x0000d34c:  e49db004      pop	{fp}		; (ldr fp, [sp], #4)
0x0000d350:  e12fff1e      bx	lr

----------------
IN: run
0x0000f7f0:  e1a02000      mov	r2, r0
0x0000f7f4:  e55b318c      ldrb	r3, [fp, #-396]
0x0000f7f8:  e1a01003      mov	r1, r3
0x0000f7fc:  e3053ea8      movw	r3, #24232	; 0x5ea8

----------------
IN: run
0x0000f800:  e3403001      movt	r3, #1	; 0x1
0x0000f804:  e7933101      ldr	r3, [r3, r1, lsl #2]
0x0000f808:  e1a01003      mov	r1, r3
0x0000f80c:  e1a00002      mov	r0, r2
0x0000f810:  ebfff6ac      bl	0xd2c8

----------------
IN: run
0x0000f814:  e50b0050      str	r0, [fp, #-80]
0x0000f818:  e59b3008      ldr	r3, [fp, #8]
0x0000f81c:  e3530000      cmp	r3, #0	; 0x0
0x0000f820:  0a000130      beq	0xfce8

----------------
IN: run
0x0000fce8:  e320f000      nop	{0}
0x0000fcec:  ea000002      b	0xfcfc

----------------
IN: run
0x0000fcfc:  e51b304c      ldr	r3, [fp, #-76]
0x0000fd00:  e2831001      add	r1, r3, #1	; 0x1
0x0000fd04:  e51b304c      ldr	r3, [fp, #-76]
0x0000fd08:  e1a03103      lsl	r3, r3, #2
0x0000fd0c:  e2433014      sub	r3, r3, #20	; 0x14
0x0000fd10:  e083300b      add	r3, r3, fp
0x0000fd14:  e5132174      ldr	r2, [r3, #-372]
0x0000fd18:  e1a03101      lsl	r3, r1, #2
0x0000fd1c:  e2433014      sub	r3, r3, #20	; 0x14
0x0000fd20:  e083300b      add	r3, r3, fp
0x0000fd24:  e5032130      str	r2, [r3, #-304]
0x0000fd28:  e51b304c      ldr	r3, [fp, #-76]
0x0000fd2c:  e1a03103      lsl	r3, r3, #2
0x0000fd30:  e2433014      sub	r3, r3, #20	; 0x14
0x0000fd34:  e083300b      add	r3, r3, fp
0x0000fd38:  e5131130      ldr	r1, [r3, #-304]
0x0000fd3c:  e51b304c      ldr	r3, [fp, #-76]
0x0000fd40:  e2833001      add	r3, r3, #1	; 0x1
0x0000fd44:  e51b2050      ldr	r2, [fp, #-80]
0x0000fd48:  e0222001      eor	r2, r2, r1
0x0000fd4c:  e1a03103      lsl	r3, r3, #2
0x0000fd50:  e2433014      sub	r3, r3, #20	; 0x14
0x0000fd54:  e083300b      add	r3, r3, fp
0x0000fd58:  e5032174      str	r2, [r3, #-372]
0x0000fd5c:  e59b3008      ldr	r3, [fp, #8]
0x0000fd60:  e3530000      cmp	r3, #0	; 0x0
0x0000fd64:  0a000024      beq	0xfdfc

----------------
IN: run
0x0000fdfc:  e51b304c      ldr	r3, [fp, #-76]
0x0000fe00:  e2833001      add	r3, r3, #1	; 0x1
0x0000fe04:  e50b304c      str	r3, [fp, #-76]
0x0000fe08:  e51b304c      ldr	r3, [fp, #-76]
0x0000fe0c:  e353000f      cmp	r3, #15	; 0xf
0x0000fe10:  dafffdd9      ble	0xf57c

----------------
IN: run
0x0000f6bc:  e3530001      cmp	r3, #1	; 0x1
0x0000f6c0:  0a000083      beq	0xf8d4

----------------
IN: run
0x0000f8d4:  e51b304c      ldr	r3, [fp, #-76]
0x0000f8d8:  e1a03103      lsl	r3, r3, #2
0x0000f8dc:  e2433014      sub	r3, r3, #20	; 0x14
0x0000f8e0:  e083300b      add	r3, r3, fp
0x0000f8e4:  e5132174      ldr	r2, [r3, #-372]
0x0000f8e8:  e51b3058      ldr	r3, [fp, #-88]
0x0000f8ec:  e0233002      eor	r3, r3, r2
0x0000f8f0:  e55b2059      ldrb	r2, [fp, #-89]
0x0000f8f4:  e1a01002      mov	r1, r2
0x0000f8f8:  e1a00003      mov	r0, r3
0x0000f8fc:  ebfff694      bl	0xd354

----------------
IN: run
0x0000f900:  e50b0060      str	r0, [fp, #-96]
0x0000f904:  e59b3008      ldr	r3, [fp, #8]
0x0000f908:  e3530000      cmp	r3, #0	; 0x0
0x0000f90c:  0a00000c      beq	0xf944

----------------
IN: run
0x0000f944:  e24b3f62      sub	r3, fp, #392	; 0x188
0x0000f948:  e2433003      sub	r3, r3, #3	; 0x3
0x0000f94c:  e24b2f62      sub	r2, fp, #392	; 0x188
0x0000f950:  e2422002      sub	r2, r2, #2	; 0x2
0x0000f954:  e24b1f62      sub	r1, fp, #392	; 0x188
0x0000f958:  e2411001      sub	r1, r1, #1	; 0x1
0x0000f95c:  e24b0f63      sub	r0, fp, #396	; 0x18c
0x0000f960:  e58d0000      str	r0, [sp]
0x0000f964:  e51b0060      ldr	r0, [fp, #-96]
0x0000f968:  ebfff638      bl	0xd250

----------------
IN: run
0x0000f96c:  e59b3008      ldr	r3, [fp, #8]
0x0000f970:  e3530000      cmp	r3, #0	; 0x0
0x0000f974:  0a00000b      beq	0xf9a8

----------------
IN: run
0x0000f9a8:  e55b3189      ldrb	r3, [fp, #-393]
0x0000f9ac:  e1a02003      mov	r2, r3
0x0000f9b0:  e30532a8      movw	r3, #21160	; 0x52a8
0x0000f9b4:  e3403001      movt	r3, #1	; 0x1
0x0000f9b8:  e7932102      ldr	r2, [r3, r2, lsl #2]
0x0000f9bc:  e55b318a      ldrb	r3, [fp, #-394]
0x0000f9c0:  e1a01003      mov	r1, r3
0x0000f9c4:  e30536a8      movw	r3, #22184	; 0x56a8
0x0000f9c8:  e3403001      movt	r3, #1	; 0x1
0x0000f9cc:  e7933101      ldr	r3, [r3, r1, lsl #2]
0x0000f9d0:  e1a01003      mov	r1, r3
0x0000f9d4:  e1a00002      mov	r0, r2
0x0000f9d8:  ebfff646      bl	0xd2f8

----------------
IN: subtractMod2_32b
0x0000d32c:  e3e02000      mvn	r2, #0	; 0x0
0x0000d330:  e51b3008      ldr	r3, [fp, #-8]
0x0000d334:  e0822003      add	r2, r2, r3
0x0000d338:  e51b300c      ldr	r3, [fp, #-12]
0x0000d33c:  e0423003      sub	r3, r2, r3
0x0000d340:  e2833001      add	r3, r3, #1	; 0x1
0x0000d344:  e1a00003      mov	r0, r3
0x0000d348:  e28bd000      add	sp, fp, #0	; 0x0
0x0000d34c:  e49db004      pop	{fp}		; (ldr fp, [sp], #4)
0x0000d350:  e12fff1e      bx	lr

----------------
IN: run
0x0000f9dc:  e1a02000      mov	r2, r0
0x0000f9e0:  e55b318b      ldrb	r3, [fp, #-395]
0x0000f9e4:  e1a01003      mov	r1, r3
0x0000f9e8:  e3053aa8      movw	r3, #23208	; 0x5aa8
0x0000f9ec:  e3403001      movt	r3, #1	; 0x1
0x0000f9f0:  e7933101      ldr	r3, [r3, r1, lsl #2]
0x0000f9f4:  e1a01003      mov	r1, r3
0x0000f9f8:  e1a00002      mov	r0, r2
0x0000f9fc:  ebfff631      bl	0xd2c8

----------------
IN: run
0x0000fa00:  e1a02000      mov	r2, r0
0x0000fa04:  e55b318c      ldrb	r3, [fp, #-396]
0x0000fa08:  e1a01003      mov	r1, r3
0x0000fa0c:  e3053ea8      movw	r3, #24232	; 0x5ea8
0x0000fa10:  e3403001      movt	r3, #1	; 0x1
0x0000fa14:  e7933101      ldr	r3, [r3, r1, lsl #2]
0x0000fa18:  e0233002      eor	r3, r3, r2
0x0000fa1c:  e50b3050      str	r3, [fp, #-80]
0x0000fa20:  e59b3008      ldr	r3, [fp, #8]
0x0000fa24:  e3530000      cmp	r3, #0	; 0x0
0x0000fa28:  0a0000b0      beq	0xfcf0

----------------
IN: run
0x0000fcf0:  e320f000      nop	{0}
0x0000fcf4:  ea000000      b	0xfcfc

----------------
IN: run
0x0000fadc:  e51b304c      ldr	r3, [fp, #-76]
0x0000fae0:  e1a03103      lsl	r3, r3, #2
0x0000fae4:  e2433014      sub	r3, r3, #20	; 0x14
0x0000fae8:  e083300b      add	r3, r3, fp
0x0000faec:  e5133174      ldr	r3, [r3, #-372]
0x0000faf0:  e1a01003      mov	r1, r3
0x0000faf4:  e51b0058      ldr	r0, [fp, #-88]
0x0000faf8:  ebfff5fe      bl	0xd2f8

----------------
IN: run
0x0000fafc:  e1a02000      mov	r2, r0
0x0000fb00:  e55b3059      ldrb	r3, [fp, #-89]
0x0000fb04:  e1a01003      mov	r1, r3
0x0000fb08:  e1a00002      mov	r0, r2
0x0000fb0c:  ebfff610      bl	0xd354

----------------
IN: run
0x0000fb10:  e50b0060      str	r0, [fp, #-96]
0x0000fb14:  e59b3008      ldr	r3, [fp, #8]
0x0000fb18:  e3530000      cmp	r3, #0	; 0x0
0x0000fb1c:  0a00000c      beq	0xfb54

----------------
IN: run
0x0000fb54:  e24b3f62      sub	r3, fp, #392	; 0x188
0x0000fb58:  e2433003      sub	r3, r3, #3	; 0x3
0x0000fb5c:  e24b2f62      sub	r2, fp, #392	; 0x188
0x0000fb60:  e2422002      sub	r2, r2, #2	; 0x2
0x0000fb64:  e24b1f62      sub	r1, fp, #392	; 0x188
0x0000fb68:  e2411001      sub	r1, r1, #1	; 0x1
0x0000fb6c:  e24b0f63      sub	r0, fp, #396	; 0x18c
0x0000fb70:  e58d0000      str	r0, [sp]
0x0000fb74:  e51b0060      ldr	r0, [fp, #-96]
0x0000fb78:  ebfff5b4      bl	0xd250

----------------
IN: run
0x0000fb7c:  e59b3008      ldr	r3, [fp, #8]
0x0000fb80:  e3530000      cmp	r3, #0	; 0x0
0x0000fb84:  0a00000b      beq	0xfbb8

----------------
IN: run
0x0000fbb8:  e55b3189      ldrb	r3, [fp, #-393]
0x0000fbbc:  e1a02003      mov	r2, r3
0x0000fbc0:  e30532a8      movw	r3, #21160	; 0x52a8
0x0000fbc4:  e3403001      movt	r3, #1	; 0x1
0x0000fbc8:  e7932102      ldr	r2, [r3, r2, lsl #2]
0x0000fbcc:  e55b318a      ldrb	r3, [fp, #-394]
0x0000fbd0:  e1a01003      mov	r1, r3
0x0000fbd4:  e30536a8      movw	r3, #22184	; 0x56a8
0x0000fbd8:  e3403001      movt	r3, #1	; 0x1
0x0000fbdc:  e7933101      ldr	r3, [r3, r1, lsl #2]
0x0000fbe0:  e1a01003      mov	r1, r3
0x0000fbe4:  e1a00002      mov	r0, r2
0x0000fbe8:  ebfff5b6      bl	0xd2c8

----------------
IN: run
0x0000fbec:  e1a02000      mov	r2, r0
0x0000fbf0:  e55b318b      ldrb	r3, [fp, #-395]
0x0000fbf4:  e1a01003      mov	r1, r3
0x0000fbf8:  e3053aa8      movw	r3, #23208	; 0x5aa8
0x0000fbfc:  e3403001      movt	r3, #1	; 0x1

----------------
IN: run
0x0000fc00:  e7933101      ldr	r3, [r3, r1, lsl #2]
0x0000fc04:  e0222003      eor	r2, r2, r3
0x0000fc08:  e55b318c      ldrb	r3, [fp, #-396]
0x0000fc0c:  e1a01003      mov	r1, r3
0x0000fc10:  e3053ea8      movw	r3, #24232	; 0x5ea8
0x0000fc14:  e3403001      movt	r3, #1	; 0x1
0x0000fc18:  e7933101      ldr	r3, [r3, r1, lsl #2]
0x0000fc1c:  e1a01003      mov	r1, r3
0x0000fc20:  e1a00002      mov	r0, r2
0x0000fc24:  ebfff5b3      bl	0xd2f8

----------------
IN: run
0x0000fc28:  e50b0050      str	r0, [fp, #-80]
0x0000fc2c:  e59b3008      ldr	r3, [fp, #8]
0x0000fc30:  e3530000      cmp	r3, #0	; 0x0
0x0000fc34:  0a00002f      beq	0xfcf8

----------------
IN: run
0x0000fcf8:  e320f000      nop	{0}
0x0000fcfc:  e51b304c      ldr	r3, [fp, #-76]
0x0000fd00:  e2831001      add	r1, r3, #1	; 0x1
0x0000fd04:  e51b304c      ldr	r3, [fp, #-76]
0x0000fd08:  e1a03103      lsl	r3, r3, #2
0x0000fd0c:  e2433014      sub	r3, r3, #20	; 0x14
0x0000fd10:  e083300b      add	r3, r3, fp
0x0000fd14:  e5132174      ldr	r2, [r3, #-372]
0x0000fd18:  e1a03101      lsl	r3, r1, #2
0x0000fd1c:  e2433014      sub	r3, r3, #20	; 0x14
0x0000fd20:  e083300b      add	r3, r3, fp
0x0000fd24:  e5032130      str	r2, [r3, #-304]
0x0000fd28:  e51b304c      ldr	r3, [fp, #-76]
0x0000fd2c:  e1a03103      lsl	r3, r3, #2
0x0000fd30:  e2433014      sub	r3, r3, #20	; 0x14
0x0000fd34:  e083300b      add	r3, r3, fp
0x0000fd38:  e5131130      ldr	r1, [r3, #-304]
0x0000fd3c:  e51b304c      ldr	r3, [fp, #-76]
0x0000fd40:  e2833001      add	r3, r3, #1	; 0x1
0x0000fd44:  e51b2050      ldr	r2, [fp, #-80]
0x0000fd48:  e0222001      eor	r2, r2, r1
0x0000fd4c:  e1a03103      lsl	r3, r3, #2
0x0000fd50:  e2433014      sub	r3, r3, #20	; 0x14
0x0000fd54:  e083300b      add	r3, r3, fp
0x0000fd58:  e5032174      str	r2, [r3, #-372]
0x0000fd5c:  e59b3008      ldr	r3, [fp, #8]
0x0000fd60:  e3530000      cmp	r3, #0	; 0x0
0x0000fd64:  0a000024      beq	0xfdfc

----------------
IN: run
0x0000fe14:  e51b3148      ldr	r3, [fp, #-328]
0x0000fe18:  e50b319c      str	r3, [fp, #-412]
0x0000fe1c:  e51b3104      ldr	r3, [fp, #-260]
0x0000fe20:  e50b3198      str	r3, [fp, #-408]
0x0000fe24:  e59b3008      ldr	r3, [fp, #8]
0x0000fe28:  e3530000      cmp	r3, #0	; 0x0
0x0000fe2c:  0a000008      beq	0xfe54

----------------
IN: run
0x0000fe54:  e51b3190      ldr	r3, [fp, #-400]
0x0000fe58:  e1a02003      mov	r2, r3
0x0000fe5c:  e24b3f67      sub	r3, fp, #412	; 0x19c
0x0000fe60:  e8930003      ldm	r3, {r0, r1}
0x0000fe64:  e8820003      stm	r2, {r0, r1}
0x0000fe68:  e51b0190      ldr	r0, [fp, #-400]
0x0000fe6c:  e24bd010      sub	sp, fp, #16	; 0x10
0x0000fe70:  e8bd8870      pop	{r4, r5, r6, fp, pc}

----------------
IN: encrypt
0x0000feb4:  e51b0008      ldr	r0, [fp, #-8]
0x0000feb8:  e24bd004      sub	sp, fp, #4	; 0x4
0x0000febc:  e8bd8800      pop	{fp, pc}

----------------
IN: _gcry_cipher_cfb_decrypt
0x0000cfac:  e24b302c      sub	r3, fp, #44	; 0x2c
0x0000cfb0:  e24b204c      sub	r2, fp, #76	; 0x4c
0x0000cfb4:  e8920003      ldm	r2, {r0, r1}
0x0000cfb8:  e8830003      stm	r3, {r0, r1}
0x0000cfbc:  e51b3038      ldr	r3, [fp, #-56]
0x0000cfc0:  e1a02003      mov	r2, r3
0x0000cfc4:  e24b302c      sub	r3, fp, #44	; 0x2c
0x0000cfc8:  e8930003      ldm	r3, {r0, r1}
0x0000cfcc:  eb000056      bl	0xd12c

----------------
IN: bytesFromBlock
0x0000d12c:  e52db004      push	{fp}		; (str fp, [sp, #-4]!)
0x0000d130:  e28db000      add	fp, sp, #0	; 0x0
0x0000d134:  e24dd014      sub	sp, sp, #20	; 0x14
0x0000d138:  e24b300c      sub	r3, fp, #12	; 0xc
0x0000d13c:  e8830003      stm	r3, {r0, r1}
0x0000d140:  e50b2010      str	r2, [fp, #-16]
0x0000d144:  e51b2008      ldr	r2, [fp, #-8]
0x0000d148:  e51b3010      ldr	r3, [fp, #-16]
0x0000d14c:  e2833007      add	r3, r3, #7	; 0x7
0x0000d150:  e6ef2072      uxtb	r2, r2
0x0000d154:  e5c32000      strb	r2, [r3]
0x0000d158:  e51b3008      ldr	r3, [fp, #-8]
0x0000d15c:  e1a02423      lsr	r2, r3, #8
0x0000d160:  e51b3010      ldr	r3, [fp, #-16]
0x0000d164:  e2833006      add	r3, r3, #6	; 0x6
0x0000d168:  e6ef2072      uxtb	r2, r2
0x0000d16c:  e5c32000      strb	r2, [r3]
0x0000d170:  e51b3008      ldr	r3, [fp, #-8]
0x0000d174:  e1a02823      lsr	r2, r3, #16
0x0000d178:  e51b3010      ldr	r3, [fp, #-16]
0x0000d17c:  e2833005      add	r3, r3, #5	; 0x5
0x0000d180:  e6ef2072      uxtb	r2, r2
0x0000d184:  e5c32000      strb	r2, [r3]
0x0000d188:  e51b3008      ldr	r3, [fp, #-8]
0x0000d18c:  e1a02c23      lsr	r2, r3, #24
0x0000d190:  e51b3010      ldr	r3, [fp, #-16]
0x0000d194:  e2833004      add	r3, r3, #4	; 0x4
0x0000d198:  e6ef2072      uxtb	r2, r2
0x0000d19c:  e5c32000      strb	r2, [r3]
0x0000d1a0:  e51b200c      ldr	r2, [fp, #-12]
0x0000d1a4:  e51b3010      ldr	r3, [fp, #-16]
0x0000d1a8:  e2833003      add	r3, r3, #3	; 0x3
0x0000d1ac:  e6ef2072      uxtb	r2, r2
0x0000d1b0:  e5c32000      strb	r2, [r3]
0x0000d1b4:  e51b300c      ldr	r3, [fp, #-12]
0x0000d1b8:  e1a02423      lsr	r2, r3, #8
0x0000d1bc:  e51b3010      ldr	r3, [fp, #-16]
0x0000d1c0:  e2833002      add	r3, r3, #2	; 0x2
0x0000d1c4:  e6ef2072      uxtb	r2, r2
0x0000d1c8:  e5c32000      strb	r2, [r3]
0x0000d1cc:  e51b300c      ldr	r3, [fp, #-12]
0x0000d1d0:  e1a02823      lsr	r2, r3, #16
0x0000d1d4:  e51b3010      ldr	r3, [fp, #-16]
0x0000d1d8:  e2833001      add	r3, r3, #1	; 0x1
0x0000d1dc:  e6ef2072      uxtb	r2, r2
0x0000d1e0:  e5c32000      strb	r2, [r3]
0x0000d1e4:  e51b300c      ldr	r3, [fp, #-12]
0x0000d1e8:  e1a03c23      lsr	r3, r3, #24
0x0000d1ec:  e6ef2073      uxtb	r2, r3
0x0000d1f0:  e51b3010      ldr	r3, [fp, #-16]
0x0000d1f4:  e5c32000      strb	r2, [r3]
0x0000d1f8:  e320f000      nop	{0}
0x0000d1fc:  e28bd000      add	sp, fp, #0	; 0x0
0x0000d200:  e49db004      pop	{fp}		; (ldr fp, [sp], #4)
0x0000d204:  e12fff1e      bx	lr

----------------
IN: _gcry_cipher_cfb_decrypt
0x0000cfd0:  e51b1038      ldr	r1, [fp, #-56]
0x0000cfd4:  e51b300c      ldr	r3, [fp, #-12]
0x0000cfd8:  e51b2044      ldr	r2, [fp, #-68]
0x0000cfdc:  e51b003c      ldr	r0, [fp, #-60]
0x0000cfe0:  ebfffd6c      bl	0xc598

----------------
IN: cipher_block_xor_n_copy
0x0000c598:  e92d4800      push	{fp, lr}
0x0000c59c:  e28db004      add	fp, sp, #4	; 0x4
0x0000c5a0:  e24dd018      sub	sp, sp, #24	; 0x18
0x0000c5a4:  e50b0008      str	r0, [fp, #-8]
0x0000c5a8:  e50b100c      str	r1, [fp, #-12]
0x0000c5ac:  e50b2010      str	r2, [fp, #-16]
0x0000c5b0:  e50b3014      str	r3, [fp, #-20]
0x0000c5b4:  e51b3014      ldr	r3, [fp, #-20]
0x0000c5b8:  e58d3000      str	r3, [sp]
0x0000c5bc:  e51b3010      ldr	r3, [fp, #-16]
0x0000c5c0:  e51b200c      ldr	r2, [fp, #-12]
0x0000c5c4:  e51b1010      ldr	r1, [fp, #-16]
0x0000c5c8:  e51b0008      ldr	r0, [fp, #-8]
0x0000c5cc:  ebfffef1      bl	0xc198

----------------
IN: cipher_block_xor_n_copy_2
0x0000c198:  e92d4800      push	{fp, lr}
0x0000c19c:  e28db004      add	fp, sp, #4	; 0x4
0x0000c1a0:  e24dd058      sub	sp, sp, #88	; 0x58
0x0000c1a4:  e50b0050      str	r0, [fp, #-80]
0x0000c1a8:  e50b1054      str	r1, [fp, #-84]
0x0000c1ac:  e50b2058      str	r2, [fp, #-88]
0x0000c1b0:  e50b305c      str	r3, [fp, #-92]
0x0000c1b4:  e51b3050      ldr	r3, [fp, #-80]
0x0000c1b8:  e50b300c      str	r3, [fp, #-12]
0x0000c1bc:  e51b3058      ldr	r3, [fp, #-88]
0x0000c1c0:  e50b3010      str	r3, [fp, #-16]
0x0000c1c4:  e51b3054      ldr	r3, [fp, #-84]
0x0000c1c8:  e50b3014      str	r3, [fp, #-20]
0x0000c1cc:  e51b305c      ldr	r3, [fp, #-92]
0x0000c1d0:  e50b3018      str	r3, [fp, #-24]
0x0000c1d4:  e59b3004      ldr	r3, [fp, #4]
0x0000c1d8:  e3530008      cmp	r3, #8	; 0x8
0x0000c1dc:  1a000036      bne	0xc2bc

----------------
IN: cipher_block_xor_n_copy_2
0x0000c1e0:  e51b0018      ldr	r0, [fp, #-24]
0x0000c1e4:  ebffff4b      bl	0xbf18

----------------
IN: cipher_block_xor_n_copy_2
0x0000c1e8:  e1a03000      mov	r3, r0
0x0000c1ec:  e50b3028      str	r3, [fp, #-40]
0x0000c1f0:  e51b3018      ldr	r3, [fp, #-24]
0x0000c1f4:  e2833004      add	r3, r3, #4	; 0x4
0x0000c1f8:  e1a00003      mov	r0, r3
0x0000c1fc:  ebffff45      bl	0xbf18

----------------
IN: cipher_block_xor_n_copy_2
0x0000c200:  e1a03000      mov	r3, r0
0x0000c204:  e50b3024      str	r3, [fp, #-36]
0x0000c208:  e51b0010      ldr	r0, [fp, #-16]
0x0000c20c:  ebffff41      bl	0xbf18

----------------
IN: cipher_block_xor_n_copy_2
0x0000c210:  e1a03000      mov	r3, r0
0x0000c214:  e50b3048      str	r3, [fp, #-72]
0x0000c218:  e51b3010      ldr	r3, [fp, #-16]
0x0000c21c:  e2833004      add	r3, r3, #4	; 0x4
0x0000c220:  e1a00003      mov	r0, r3
0x0000c224:  ebffff3b      bl	0xbf18

----------------
IN: cipher_block_xor_n_copy_2
0x0000c228:  e1a03000      mov	r3, r0
0x0000c22c:  e50b3044      str	r3, [fp, #-68]
0x0000c230:  e51b0014      ldr	r0, [fp, #-20]
0x0000c234:  ebffff37      bl	0xbf18

----------------
IN: cipher_block_xor_n_copy_2
0x0000c238:  e1a02000      mov	r2, r0
0x0000c23c:  e51b3048      ldr	r3, [fp, #-72]
0x0000c240:  e0233002      eor	r3, r3, r2
0x0000c244:  e50b3038      str	r3, [fp, #-56]
0x0000c248:  e51b3014      ldr	r3, [fp, #-20]
0x0000c24c:  e2833004      add	r3, r3, #4	; 0x4
0x0000c250:  e1a00003      mov	r0, r3
0x0000c254:  ebffff2f      bl	0xbf18

----------------
IN: cipher_block_xor_n_copy_2
0x0000c258:  e1a02000      mov	r2, r0
0x0000c25c:  e51b3044      ldr	r3, [fp, #-68]
0x0000c260:  e0233002      eor	r3, r3, r2
0x0000c264:  e50b3034      str	r3, [fp, #-52]
0x0000c268:  e51b3038      ldr	r3, [fp, #-56]
0x0000c26c:  e1a01003      mov	r1, r3
0x0000c270:  e51b000c      ldr	r0, [fp, #-12]
0x0000c274:  ebffff55      bl	0xbfd0

----------------
IN: cipher_block_xor_n_copy_2
0x0000c278:  e51b300c      ldr	r3, [fp, #-12]
0x0000c27c:  e2833004      add	r3, r3, #4	; 0x4
0x0000c280:  e51b2034      ldr	r2, [fp, #-52]
0x0000c284:  e1a01002      mov	r1, r2
0x0000c288:  e1a00003      mov	r0, r3
0x0000c28c:  ebffff4f      bl	0xbfd0

----------------
IN: cipher_block_xor_n_copy_2
0x0000c290:  e51b3028      ldr	r3, [fp, #-40]
0x0000c294:  e1a01003      mov	r1, r3
0x0000c298:  e51b0010      ldr	r0, [fp, #-16]
0x0000c29c:  ebffff4b      bl	0xbfd0

----------------
IN: cipher_block_xor_n_copy_2
0x0000c2a0:  e51b3010      ldr	r3, [fp, #-16]
0x0000c2a4:  e2833004      add	r3, r3, #4	; 0x4
0x0000c2a8:  e51b2024      ldr	r2, [fp, #-36]
0x0000c2ac:  e1a01002      mov	r1, r2
0x0000c2b0:  e1a00003      mov	r0, r3
0x0000c2b4:  ebffff45      bl	0xbfd0

----------------
IN: cipher_block_xor_n_copy_2
0x0000c2b8:  ea00004f      b	0xc3fc

----------------
IN: cipher_block_xor_n_copy_2
0x0000c3fc:  e320f000      nop	{0}

----------------
IN: cipher_block_xor_n_copy_2
0x0000c400:  e24bd004      sub	sp, fp, #4	; 0x4
0x0000c404:  e8bd8800      pop	{fp, pc}

----------------
IN: cipher_block_xor_n_copy
0x0000c5d0:  e320f000      nop	{0}
0x0000c5d4:  e24bd004      sub	sp, fp, #4	; 0x4
0x0000c5d8:  e8bd8800      pop	{fp, pc}

----------------
IN: _gcry_cipher_cfb_decrypt
0x0000cfe4:  e51b203c      ldr	r2, [fp, #-60]
0x0000cfe8:  e51b300c      ldr	r3, [fp, #-12]
0x0000cfec:  e0823003      add	r3, r2, r3
0x0000cff0:  e50b303c      str	r3, [fp, #-60]
0x0000cff4:  e51b2044      ldr	r2, [fp, #-68]
0x0000cff8:  e51b300c      ldr	r3, [fp, #-12]
0x0000cffc:  e0823003      add	r3, r2, r3

----------------
IN: _gcry_cipher_cfb_decrypt
0x0000d000:  e50b3044      str	r3, [fp, #-68]
0x0000d004:  e59b2004      ldr	r2, [fp, #4]
0x0000d008:  e51b300c      ldr	r3, [fp, #-12]
0x0000d00c:  e0423003      sub	r3, r2, r3
0x0000d010:  e58b3004      str	r3, [fp, #4]
0x0000d014:  e59b3004      ldr	r3, [fp, #4]
0x0000d018:  e3530000      cmp	r3, #0	; 0x0
0x0000d01c:  0a00003e      beq	0xd11c

----------------
IN: _gcry_cipher_cfb_decrypt
0x0000d020:  e51b3038      ldr	r3, [fp, #-56]
0x0000d024:  e2833010      add	r3, r3, #16	; 0x10
0x0000d028:  e51b1038      ldr	r1, [fp, #-56]
0x0000d02c:  e51b200c      ldr	r2, [fp, #-12]
0x0000d030:  e1a00003      mov	r0, r3
0x0000d034:  ebfffc06      bl	0xc054

----------------
IN: _gcry_cipher_cfb_decrypt
0x0000d038:  e51b2038      ldr	r2, [fp, #-56]
0x0000d03c:  e24b3034      sub	r3, fp, #52	; 0x34
0x0000d040:  e1a01002      mov	r1, r2
0x0000d044:  e1a00003      mov	r0, r3
0x0000d048:  eb000b9c      bl	0xfec0

----------------
IN: _gcry_cipher_cfb_decrypt
0x0000d04c:  e51b3038      ldr	r3, [fp, #-56]
0x0000d050:  e2831030      add	r1, r3, #48	; 0x30
0x0000d054:  e24b004c      sub	r0, fp, #76	; 0x4c
0x0000d058:  e3a03000      mov	r3, #0	; 0x0
0x0000d05c:  e58d3000      str	r3, [sp]
0x0000d060:  e24b3034      sub	r3, fp, #52	; 0x34
0x0000d064:  e893000c      ldm	r3, {r2, r3}
0x0000d068:  eb000b81      bl	0xfe74

----------------
IN: _gcry_cipher_cfb_decrypt
0x0000d06c:  e24b3034      sub	r3, fp, #52	; 0x34
0x0000d070:  e24b204c      sub	r2, fp, #76	; 0x4c
0x0000d074:  e8920003      ldm	r2, {r0, r1}
0x0000d078:  e8830003      stm	r3, {r0, r1}
0x0000d07c:  e51b3038      ldr	r3, [fp, #-56]
0x0000d080:  e1a02003      mov	r2, r3
0x0000d084:  e24b3034      sub	r3, fp, #52	; 0x34
0x0000d088:  e8930003      ldm	r3, {r0, r1}
0x0000d08c:  eb000026      bl	0xd12c

----------------
IN: _gcry_cipher_cfb_decrypt
0x0000d090:  e51b200c      ldr	r2, [fp, #-12]
0x0000d094:  e51b3038      ldr	r3, [fp, #-56]
0x0000d098:  e5832020      str	r2, [r3, #32]
0x0000d09c:  e51b3038      ldr	r3, [fp, #-56]
0x0000d0a0:  e5933020      ldr	r3, [r3, #32]
0x0000d0a4:  e1a02003      mov	r2, r3
0x0000d0a8:  e59b3004      ldr	r3, [fp, #4]
0x0000d0ac:  e0423003      sub	r3, r2, r3
0x0000d0b0:  e1a02003      mov	r2, r3
0x0000d0b4:  e51b3038      ldr	r3, [fp, #-56]
0x0000d0b8:  e5832020      str	r2, [r3, #32]
0x0000d0bc:  e51b1038      ldr	r1, [fp, #-56]
0x0000d0c0:  e59b3004      ldr	r3, [fp, #4]
0x0000d0c4:  e51b2044      ldr	r2, [fp, #-68]
0x0000d0c8:  e51b003c      ldr	r0, [fp, #-60]
0x0000d0cc:  ebfffd20      bl	0xc554

----------------
IN: buf_xor_n_copy
0x0000c554:  e92d4800      push	{fp, lr}
0x0000c558:  e28db004      add	fp, sp, #4	; 0x4
0x0000c55c:  e24dd018      sub	sp, sp, #24	; 0x18
0x0000c560:  e50b0008      str	r0, [fp, #-8]
0x0000c564:  e50b100c      str	r1, [fp, #-12]
0x0000c568:  e50b2010      str	r2, [fp, #-16]
0x0000c56c:  e50b3014      str	r3, [fp, #-20]
0x0000c570:  e51b3014      ldr	r3, [fp, #-20]
0x0000c574:  e58d3000      str	r3, [sp]
0x0000c578:  e51b3010      ldr	r3, [fp, #-16]
0x0000c57c:  e51b200c      ldr	r2, [fp, #-12]
0x0000c580:  e51b1010      ldr	r1, [fp, #-16]
0x0000c584:  e51b0008      ldr	r0, [fp, #-8]
0x0000c588:  ebffff9e      bl	0xc408

----------------
IN: buf_xor_n_copy_2
0x0000c408:  e92d4810      push	{r4, fp, lr}
0x0000c40c:  e28db008      add	fp, sp, #8	; 0x8
0x0000c410:  e24dd02c      sub	sp, sp, #44	; 0x2c
0x0000c414:  e50b0028      str	r0, [fp, #-40]
0x0000c418:  e50b102c      str	r1, [fp, #-44]
0x0000c41c:  e50b2030      str	r2, [fp, #-48]
0x0000c420:  e50b3034      str	r3, [fp, #-52]
0x0000c424:  e51b3028      ldr	r3, [fp, #-40]
0x0000c428:  e50b3010      str	r3, [fp, #-16]
0x0000c42c:  e51b3030      ldr	r3, [fp, #-48]
0x0000c430:  e50b3014      str	r3, [fp, #-20]
0x0000c434:  e51b302c      ldr	r3, [fp, #-44]
0x0000c438:  e50b3018      str	r3, [fp, #-24]
0x0000c43c:  e51b3034      ldr	r3, [fp, #-52]
0x0000c440:  e50b301c      str	r3, [fp, #-28]
0x0000c444:  ea00001e      b	0xc4c4

----------------
IN: buf_xor_n_copy_2
0x0000c4c4:  e59b3004      ldr	r3, [fp, #4]
0x0000c4c8:  e3530003      cmp	r3, #3	; 0x3
0x0000c4cc:  8affffdd      bhi	0xc448

----------------
IN: buf_xor_n_copy_2
0x0000c4d0:  ea000018      b	0xc538

----------------
IN: buf_xor_n_copy_2
0x0000c538:  e59b3004      ldr	r3, [fp, #4]
0x0000c53c:  e3530000      cmp	r3, #0	; 0x0
0x0000c540:  1affffe3      bne	0xc4d4

----------------
IN: buf_xor_n_copy_2
0x0000c4d4:  e51b301c      ldr	r3, [fp, #-28]
0x0000c4d8:  e2832001      add	r2, r3, #1	; 0x1
0x0000c4dc:  e50b201c      str	r2, [fp, #-28]
0x0000c4e0:  e5d33000      ldrb	r3, [r3]
0x0000c4e4:  e54b301d      strb	r3, [fp, #-29]
0x0000c4e8:  e51b3014      ldr	r3, [fp, #-20]
0x0000c4ec:  e5d31000      ldrb	r1, [r3]
0x0000c4f0:  e51b3018      ldr	r3, [fp, #-24]
0x0000c4f4:  e2832001      add	r2, r3, #1	; 0x1
0x0000c4f8:  e50b2018      str	r2, [fp, #-24]
0x0000c4fc:  e5d32000      ldrb	r2, [r3]
0x0000c500:  e51b3010      ldr	r3, [fp, #-16]
0x0000c504:  e2830001      add	r0, r3, #1	; 0x1
0x0000c508:  e50b0010      str	r0, [fp, #-16]
0x0000c50c:  e0222001      eor	r2, r2, r1
0x0000c510:  e6ef2072      uxtb	r2, r2
0x0000c514:  e5c32000      strb	r2, [r3]
0x0000c518:  e51b3014      ldr	r3, [fp, #-20]
0x0000c51c:  e2832001      add	r2, r3, #1	; 0x1
0x0000c520:  e50b2014      str	r2, [fp, #-20]
0x0000c524:  e55b201d      ldrb	r2, [fp, #-29]
0x0000c528:  e5c32000      strb	r2, [r3]
0x0000c52c:  e59b3004      ldr	r3, [fp, #4]
0x0000c530:  e2433001      sub	r3, r3, #1	; 0x1
0x0000c534:  e58b3004      str	r3, [fp, #4]
0x0000c538:  e59b3004      ldr	r3, [fp, #4]
0x0000c53c:  e3530000      cmp	r3, #0	; 0x0
0x0000c540:  1affffe3      bne	0xc4d4

----------------
IN: buf_xor_n_copy_2
0x0000c544:  e320f000      nop	{0}
0x0000c548:  e320f000      nop	{0}
0x0000c54c:  e24bd008      sub	sp, fp, #8	; 0x8
0x0000c550:  e8bd8810      pop	{r4, fp, pc}

----------------
IN: buf_xor_n_copy
0x0000c58c:  e320f000      nop	{0}
0x0000c590:  e24bd004      sub	sp, fp, #4	; 0x4
0x0000c594:  e8bd8800      pop	{fp, pc}

----------------
IN: _gcry_cipher_cfb_decrypt
0x0000d0d0:  e51b203c      ldr	r2, [fp, #-60]
0x0000d0d4:  e59b3004      ldr	r3, [fp, #4]
0x0000d0d8:  e0823003      add	r3, r2, r3
0x0000d0dc:  e50b303c      str	r3, [fp, #-60]
0x0000d0e0:  e51b2044      ldr	r2, [fp, #-68]
0x0000d0e4:  e59b3004      ldr	r3, [fp, #4]
0x0000d0e8:  e0823003      add	r3, r2, r3
0x0000d0ec:  e50b3044      str	r3, [fp, #-68]
0x0000d0f0:  e3a03000      mov	r3, #0	; 0x0
0x0000d0f4:  e58b3004      str	r3, [fp, #4]
0x0000d0f8:  e51b2038      ldr	r2, [fp, #-56]
0x0000d0fc:  e24b304c      sub	r3, fp, #76	; 0x4c
0x0000d100:  e1a01002      mov	r1, r2
0x0000d104:  e1a00003      mov	r0, r3
0x0000d108:  eb000b6c      bl	0xfec0

----------------
IN: _gcry_cipher_cfb_decrypt
0x0000d10c:  e24b3034      sub	r3, fp, #52	; 0x34
0x0000d110:  e24b204c      sub	r2, fp, #76	; 0x4c
0x0000d114:  e8920003      ldm	r2, {r0, r1}
0x0000d118:  e8830003      stm	r3, {r0, r1}
0x0000d11c:  e3a03000      mov	r3, #0	; 0x0
0x0000d120:  e1a00003      mov	r0, r3
0x0000d124:  e24bd004      sub	sp, fp, #4	; 0x4
0x0000d128:  e8bd8800      pop	{fp, pc}

----------------
IN: _gcry_cipher_decrypt
0x0000c9b8:  e1a03000      mov	r3, r0
0x0000c9bc:  e1a00003      mov	r0, r3
0x0000c9c0:  e24bd004      sub	sp, fp, #4	; 0x4
0x0000c9c4:  e8bd8800      pop	{fp, pc}

----------------
IN: decrypt_data
0x0000ba24:  e51b3030      ldr	r3, [fp, #-48]
0x0000ba28:  e5933004      ldr	r3, [r3, #4]
0x0000ba2c:  e1a00003      mov	r0, r3
0x0000ba30:  eb0003a8      bl	0xc8d8

----------------
IN: cipher_sync
0x0000c8d8:  e92d4800      push	{fp, lr}
0x0000c8dc:  e28db004      add	fp, sp, #4	; 0x4
0x0000c8e0:  e24dd008      sub	sp, sp, #8	; 0x8
0x0000c8e4:  e50b0008      str	r0, [fp, #-8]
0x0000c8e8:  e51b3008      ldr	r3, [fp, #-8]
0x0000c8ec:  e5933020      ldr	r3, [r3, #32]
0x0000c8f0:  e3530000      cmp	r3, #0	; 0x0
0x0000c8f4:  0a000017      beq	0xc958

----------------
IN: cipher_sync
0x0000c8f8:  e51b3008      ldr	r3, [fp, #-8]
0x0000c8fc:  e51b2008      ldr	r2, [fp, #-8]
0x0000c900:  e5922020      ldr	r2, [r2, #32]
0x0000c904:  e0830002      add	r0, r3, r2
0x0000c908:  e51b1008      ldr	r1, [fp, #-8]
0x0000c90c:  e51b3008      ldr	r3, [fp, #-8]
0x0000c910:  e5933020      ldr	r3, [r3, #32]
0x0000c914:  e2633008      rsb	r3, r3, #8	; 0x8
0x0000c918:  e1a02003      mov	r2, r3
0x0000c91c:  eb000efb      bl	0x10510

----------------
IN: memmove
0x00010548:  e51b200c      ldr	r2, [fp, #-12]
0x0001054c:  e51b3018      ldr	r3, [fp, #-24]
0x00010550:  e0823003      add	r3, r2, r3
0x00010554:  e51b2008      ldr	r2, [fp, #-8]
0x00010558:  e1520003      cmp	r2, r3
0x0001055c:  2a000020      bcs	0x105e4

----------------
IN: memmove
0x000105c4:  e51b200c      ldr	r2, [fp, #-12]
0x000105c8:  e2823001      add	r3, r2, #1	; 0x1
0x000105cc:  e50b300c      str	r3, [fp, #-12]
0x000105d0:  e51b3008      ldr	r3, [fp, #-8]
0x000105d4:  e2831001      add	r1, r3, #1	; 0x1
0x000105d8:  e50b1008      str	r1, [fp, #-8]
0x000105dc:  e5d22000      ldrb	r2, [r2]
0x000105e0:  e5c32000      strb	r2, [r3]
0x000105e4:  e51b3018      ldr	r3, [fp, #-24]
0x000105e8:  e2432001      sub	r2, r3, #1	; 0x1
0x000105ec:  e50b2018      str	r2, [fp, #-24]
0x000105f0:  e3530000      cmp	r3, #0	; 0x0
0x000105f4:  1afffff2      bne	0x105c4

----------------
IN: cipher_sync
0x0000c920:  e51b0008      ldr	r0, [fp, #-8]
0x0000c924:  e51b3008      ldr	r3, [fp, #-8]
0x0000c928:  e2832010      add	r2, r3, #16	; 0x10
0x0000c92c:  e51b3008      ldr	r3, [fp, #-8]
0x0000c930:  e5933020      ldr	r3, [r3, #32]
0x0000c934:  e2633008      rsb	r3, r3, #8	; 0x8
0x0000c938:  e0821003      add	r1, r2, r3
0x0000c93c:  e51b3008      ldr	r3, [fp, #-8]
0x0000c940:  e5933020      ldr	r3, [r3, #32]
0x0000c944:  e1a02003      mov	r2, r3
0x0000c948:  eb000ed3      bl	0x1049c

----------------
IN: cipher_sync
0x0000c94c:  e51b3008      ldr	r3, [fp, #-8]
0x0000c950:  e3a02000      mov	r2, #0	; 0x0
0x0000c954:  e5832020      str	r2, [r3, #32]
0x0000c958:  e320f000      nop	{0}
0x0000c95c:  e24bd004      sub	sp, fp, #4	; 0x4
0x0000c960:  e8bd8800      pop	{fp, pc}

----------------
IN: decrypt_data
0x0000ba34:  e24b3050      sub	r3, fp, #80	; 0x50
0x0000ba38:  e50b3028      str	r3, [fp, #-40]
0x0000ba3c:  e51b3064      ldr	r3, [fp, #-100]
0x0000ba40:  e5d33008      ldrb	r3, [r3, #8]
0x0000ba44:  e2033040      and	r3, r3, #64	; 0x40
0x0000ba48:  e6ef3073      uxtb	r3, r3
0x0000ba4c:  e3530000      cmp	r3, #0	; 0x0
0x0000ba50:  0a00001a      beq	0xbac0

----------------
IN: decrypt_data
0x0000bac0:  e3040458      movw	r0, #17496	; 0x4458
0x0000bac4:  e3400001      movt	r0, #1	; 0x1
0x0000bac8:  eb001de1      bl	0x13254

----------------
IN: tfp_format
0x00012d44:  e55b3005      ldrb	r3, [fp, #-5]
0x00012d48:  e3530025      cmp	r3, #37	; 0x25
0x00012d4c:  0a000005      beq	0x12d68

----------------
IN: tfp_format
0x00012d50:  e55b2005      ldrb	r2, [fp, #-5]
0x00012d54:  e51b3024      ldr	r3, [fp, #-36]
0x00012d58:  e1a01002      mov	r1, r2
0x00012d5c:  e51b0020      ldr	r0, [fp, #-32]
0x00012d60:  e12fff33      blx	r3

----------------
IN: putc_uart
0x0001332c:  e92d4800      push	{fp, lr}
0x00013330:  e28db004      add	fp, sp, #4	; 0x4
0x00013334:  e24dd008      sub	sp, sp, #8	; 0x8
0x00013338:  e50b0008      str	r0, [fp, #-8]
0x0001333c:  e1a03001      mov	r3, r1
0x00013340:  e54b3009      strb	r3, [fp, #-9]
0x00013344:  e55b3009      ldrb	r3, [fp, #-9]
0x00013348:  e1a00003      mov	r0, r3
0x0001334c:  ebffffe9      bl	0x132f8

----------------
IN: uart_putc
0x000132f8:  e52db004      push	{fp}		; (str fp, [sp, #-4]!)
0x000132fc:  e28db000      add	fp, sp, #0	; 0x0
0x00013300:  e24dd00c      sub	sp, sp, #12	; 0xc
0x00013304:  e1a03000      mov	r3, r0
0x00013308:  e54b3005      strb	r3, [fp, #-5]
0x0001330c:  e3a03a01      mov	r3, #4096	; 0x1000
0x00013310:  e341301f      movt	r3, #4127	; 0x101f
0x00013314:  e55b2005      ldrb	r2, [fp, #-5]
0x00013318:  e5832000      str	r2, [r3]
0x0001331c:  e320f000      nop	{0}
0x00013320:  e28bd000      add	sp, fp, #0	; 0x0
0x00013324:  e49db004      pop	{fp}		; (ldr fp, [sp], #4)
0x00013328:  e12fff1e      bx	lr

----------------
IN: putc_uart
0x00013350:  e320f000      nop	{0}
0x00013354:  e24bd004      sub	sp, fp, #4	; 0x4
0x00013358:  e8bd8800      pop	{fp, pc}

----------------
IN: tfp_format
0x00012d64:  ea00012d      b	0x13220

----------------
IN: decrypt_data
0x0000bacc:  e51b3030      ldr	r3, [fp, #-48]
0x0000bad0:  e5932000      ldr	r2, [r3]
0x0000bad4:  e2822001      add	r2, r2, #1	; 0x1
0x0000bad8:  e5832000      str	r2, [r3]
0x0000badc:  e51b3060      ldr	r3, [fp, #-96]
0x0000bae0:  e5d33009      ldrb	r3, [r3, #9]
0x0000bae4:  e51b2030      ldr	r2, [fp, #-48]
0x0000bae8:  e3530000      cmp	r3, #0	; 0x0
0x0000baec:  13a03001      movne	r3, #1	; 0x1
0x0000baf0:  03a03000      moveq	r3, #0	; 0x0
0x0000baf4:  e6ef1073      uxtb	r1, r3
0x0000baf8:  e5d23050      ldrb	r3, [r2, #80]
0x0000bafc:  e7c03011      bfi	r3, r1, #0, #1
0x0000bb00:  e5c23050      strb	r3, [r2, #80]
0x0000bb04:  e51b3030      ldr	r3, [fp, #-48]
0x0000bb08:  e51b2060      ldr	r2, [fp, #-96]
0x0000bb0c:  e5922000      ldr	r2, [r2]
0x0000bb10:  e5832078      str	r2, [r3, #120]
0x0000bb14:  e51b3060      ldr	r3, [fp, #-96]
0x0000bb18:  e5933010      ldr	r3, [r3, #16]
0x0000bb1c:  e51b2030      ldr	r2, [fp, #-48]
0x0000bb20:  e30b1d34      movw	r1, #48436	; 0xbd34
0x0000bb24:  e3401000      movt	r1, #0	; 0x0
0x0000bb28:  e1a00003      mov	r0, r3
0x0000bb2c:  ebfff762      bl	0x98bc

----------------
IN: iobuf_push_filter2
0x00009a18:  e51b3040      ldr	r3, [fp, #-64]
0x00009a1c:  e5933014      ldr	r3, [r3, #20]
0x00009a20:  e1a00003      mov	r0, r3
0x00009a24:  eb0019f4      bl	0x101fc

----------------
IN: decode_filter
0x0000bd34:  e92d4800      push	{fp, lr}
0x0000bd38:  e28db004      add	fp, sp, #4	; 0x4
0x0000bd3c:  e24dd028      sub	sp, sp, #40	; 0x28
0x0000bd40:  e50b0018      str	r0, [fp, #-24]
0x0000bd44:  e50b101c      str	r1, [fp, #-28]
0x0000bd48:  e50b2020      str	r2, [fp, #-32]
0x0000bd4c:  e50b3024      str	r3, [fp, #-36]
0x0000bd50:  e51b3018      ldr	r3, [fp, #-24]
0x0000bd54:  e50b300c      str	r3, [fp, #-12]
0x0000bd58:  e59b3004      ldr	r3, [fp, #4]
0x0000bd5c:  e5933000      ldr	r3, [r3]
0x0000bd60:  e50b3010      str	r3, [fp, #-16]
0x0000bd64:  e3a03000      mov	r3, #0	; 0x0
0x0000bd68:  e50b3008      str	r3, [fp, #-8]
0x0000bd6c:  e51b301c      ldr	r3, [fp, #-28]
0x0000bd70:  e3530003      cmp	r3, #3	; 0x3
0x0000bd74:  1a00000b      bne	0xbda8

----------------
IN: decode_filter
0x0000bda8:  e51b301c      ldr	r3, [fp, #-28]
0x0000bdac:  e3530003      cmp	r3, #3	; 0x3
0x0000bdb0:  1a000024      bne	0xbe48

----------------
IN: decode_filter
0x0000be48:  e51b301c      ldr	r3, [fp, #-28]
0x0000be4c:  e3530002      cmp	r3, #2	; 0x2
0x0000be50:  1a000001      bne	0xbe5c

----------------
IN: decode_filter
0x0000be5c:  e51b3008      ldr	r3, [fp, #-8]
0x0000be60:  e1a00003      mov	r0, r3
0x0000be64:  e24bd004      sub	sp, fp, #4	; 0x4
0x0000be68:  e8bd8800      pop	{fp, pc}

----------------
IN: decrypt_data
0x0000bb30:  e51b3060      ldr	r3, [fp, #-96]
0x0000bb34:  e5933010      ldr	r3, [r3, #16]
0x0000bb38:  e1a02003      mov	r2, r3
0x0000bb3c:  e51b105c      ldr	r1, [fp, #-92]
0x0000bb40:  e51b0058      ldr	r0, [fp, #-88]
0x0000bb44:  eb001efb      bl	0x13738

----------------
IN: proc_packets
0x00013738:  e92d4800      push	{fp, lr}
0x0001373c:  e28db004      add	fp, sp, #4	; 0x4
0x00013740:  e24dd018      sub	sp, sp, #24	; 0x18
0x00013744:  e50b0010      str	r0, [fp, #-16]
0x00013748:  e50b1014      str	r1, [fp, #-20]
0x0001374c:  e50b2018      str	r2, [fp, #-24]
0x00013750:  e3a00060      mov	r0, #96	; 0x60
0x00013754:  ebfff2c5      bl	0x10270

----------------
IN: proc_packets
0x00013758:  e1a03000      mov	r3, r0
0x0001375c:  e50b3008      str	r3, [fp, #-8]
0x00013760:  e51b3008      ldr	r3, [fp, #-8]
0x00013764:  e51b2010      ldr	r2, [fp, #-16]
0x00013768:  e5832000      str	r2, [r3]
0x0001376c:  e51b3008      ldr	r3, [fp, #-8]
0x00013770:  e51b2014      ldr	r2, [fp, #-20]
0x00013774:  e5832004      str	r2, [r3, #4]
0x00013778:  e51b2018      ldr	r2, [fp, #-24]
0x0001377c:  e51b1008      ldr	r1, [fp, #-8]
0x00013780:  e51b0010      ldr	r0, [fp, #-16]
0x00013784:  eb000042      bl	0x13894

----------------
IN: parse
0x00010b84:  e51b002c      ldr	r0, [fp, #-44]
0x00010b88:  ebffe636      bl	0xa468

----------------
IN: decode_filter
0x0000bd78:  e51b300c      ldr	r3, [fp, #-12]
0x0000bd7c:  e5d33050      ldrb	r3, [r3, #80]
0x0000bd80:  e2033006      and	r3, r3, #6	; 0x6
0x0000bd84:  e6ef3073      uxtb	r3, r3
0x0000bd88:  e3530000      cmp	r3, #0	; 0x0
0x0000bd8c:  0a000005      beq	0xbda8

----------------
IN: decode_filter
0x0000bdb4:  e3a03000      mov	r3, #0	; 0x0
0x0000bdb8:  e58d3000      str	r3, [sp]
0x0000bdbc:  e51b3010      ldr	r3, [fp, #-16]
0x0000bdc0:  e51b2024      ldr	r2, [fp, #-36]
0x0000bdc4:  e51b1020      ldr	r1, [fp, #-32]
0x0000bdc8:  e51b000c      ldr	r0, [fp, #-12]
0x0000bdcc:  ebffff6f      bl	0xbb90

----------------
IN: fill_buffer
0x0000bb90:  e92d4800      push	{fp, lr}
0x0000bb94:  e28db004      add	fp, sp, #4	; 0x4
0x0000bb98:  e24dd020      sub	sp, sp, #32	; 0x20
0x0000bb9c:  e50b0018      str	r0, [fp, #-24]
0x0000bba0:  e50b101c      str	r1, [fp, #-28]
0x0000bba4:  e50b2020      str	r2, [fp, #-32]
0x0000bba8:  e50b3024      str	r3, [fp, #-36]
0x0000bbac:  e59b3004      ldr	r3, [fp, #4]
0x0000bbb0:  e50b3008      str	r3, [fp, #-8]
0x0000bbb4:  e51b3018      ldr	r3, [fp, #-24]
0x0000bbb8:  e5d33050      ldrb	r3, [r3, #80]
0x0000bbbc:  e2033001      and	r3, r3, #1	; 0x1
0x0000bbc0:  e6ef3073      uxtb	r3, r3
0x0000bbc4:  e3530000      cmp	r3, #0	; 0x0
0x0000bbc8:  0a000044      beq	0xbce0

----------------
IN: fill_buffer
0x0000bbcc:  ea000018      b	0xbc34

----------------
IN: fill_buffer
0x0000bc34:  e51b2008      ldr	r2, [fp, #-8]
0x0000bc38:  e51b3024      ldr	r3, [fp, #-36]
0x0000bc3c:  e1520003      cmp	r2, r3
0x0000bc40:  3affffe2      bcc	0xbbd0

----------------
IN: fill_buffer
0x0000bbd0:  e51b2024      ldr	r2, [fp, #-36]
0x0000bbd4:  e51b3008      ldr	r3, [fp, #-8]
0x0000bbd8:  e0423003      sub	r3, r2, r3
0x0000bbdc:  e50b300c      str	r3, [fp, #-12]
0x0000bbe0:  e51b2020      ldr	r2, [fp, #-32]
0x0000bbe4:  e51b3008      ldr	r3, [fp, #-8]
0x0000bbe8:  e0823003      add	r3, r2, r3
0x0000bbec:  e51b200c      ldr	r2, [fp, #-12]
0x0000bbf0:  e1a01003      mov	r1, r3
0x0000bbf4:  e51b001c      ldr	r0, [fp, #-28]
0x0000bbf8:  ebfffa5a      bl	0xa568

----------------
IN: iobuf_read
0x0000a6c8:  e51b3008      ldr	r3, [fp, #-8]
0x0000a6cc:  e3530000      cmp	r3, #0	; 0x0
0x0000a6d0:  0a000008      beq	0xa6f8

----------------
IN: iobuf_read
0x0000a74c:  e51b3008      ldr	r3, [fp, #-8]
0x0000a750:  e3530000      cmp	r3, #0	; 0x0
0x0000a754:  0a000005      beq	0xa770

----------------
IN: iobuf_read
0x0000a758:  e51b3008      ldr	r3, [fp, #-8]
0x0000a75c:  e2832001      add	r2, r3, #1	; 0x1
0x0000a760:  e50b2008      str	r2, [fp, #-8]
0x0000a764:  e51b2014      ldr	r2, [fp, #-20]
0x0000a768:  e6ef2072      uxtb	r2, r2
0x0000a76c:  e5c32000      strb	r2, [r3]
0x0000a770:  e51b300c      ldr	r3, [fp, #-12]
0x0000a774:  e2833001      add	r3, r3, #1	; 0x1
0x0000a778:  e50b300c      str	r3, [fp, #-12]
0x0000a77c:  e51b300c      ldr	r3, [fp, #-12]
0x0000a780:  e51b2020      ldr	r2, [fp, #-32]
0x0000a784:  e1520003      cmp	r2, r3
0x0000a788:  8affffb4      bhi	0xa660

----------------
IN: iobuf_read
0x0000a660:  e51b300c      ldr	r3, [fp, #-12]
0x0000a664:  e51b2020      ldr	r2, [fp, #-32]
0x0000a668:  e1520003      cmp	r2, r3
0x0000a66c:  9a000032      bls	0xa73c

----------------
IN: iobuf_read
0x0000a73c:  e51b300c      ldr	r3, [fp, #-12]
0x0000a740:  e51b2020      ldr	r2, [fp, #-32]
0x0000a744:  e1520003      cmp	r2, r3
0x0000a748:  9a00000b      bls	0xa77c

----------------
IN: fill_buffer
0x0000bbfc:  e50b0010      str	r0, [fp, #-16]

----------------
IN: fill_buffer
0x0000bc00:  e51b3010      ldr	r3, [fp, #-16]
0x0000bc04:  e3730001      cmn	r3, #1	; 0x1
0x0000bc08:  1a000005      bne	0xbc24

----------------
IN: fill_buffer
0x0000bc24:  e51b3010      ldr	r3, [fp, #-16]
0x0000bc28:  e51b2008      ldr	r2, [fp, #-8]
0x0000bc2c:  e0823003      add	r3, r2, r3
0x0000bc30:  e50b3008      str	r3, [fp, #-8]
0x0000bc34:  e51b2008      ldr	r2, [fp, #-8]
0x0000bc38:  e51b3024      ldr	r3, [fp, #-36]
0x0000bc3c:  e1520003      cmp	r2, r3
0x0000bc40:  3affffe2      bcc	0xbbd0

----------------
IN: fill_buffer
0x0000bc44:  ea000036      b	0xbd24

----------------
IN: fill_buffer
0x0000bd24:  e51b3008      ldr	r3, [fp, #-8]
0x0000bd28:  e1a00003      mov	r0, r3
0x0000bd2c:  e24bd004      sub	sp, fp, #4	; 0x4
0x0000bd30:  e8bd8800      pop	{fp, pc}

----------------
IN: decode_filter
0x0000bdd0:  e50b0014      str	r0, [fp, #-20]
0x0000bdd4:  e51b3014      ldr	r3, [fp, #-20]
0x0000bdd8:  e3530000      cmp	r3, #0	; 0x0
0x0000bddc:  0a000008      beq	0xbe04

----------------
IN: decode_filter
0x0000bde0:  e51b300c      ldr	r3, [fp, #-12]
0x0000bde4:  e5930004      ldr	r0, [r3, #4]
0x0000bde8:  e3a03000      mov	r3, #0	; 0x0
0x0000bdec:  e58d3000      str	r3, [sp]
0x0000bdf0:  e3a03000      mov	r3, #0	; 0x0
0x0000bdf4:  e51b2014      ldr	r2, [fp, #-20]
0x0000bdf8:  e51b1024      ldr	r1, [fp, #-36]
0x0000bdfc:  eb0002d8      bl	0xc964

----------------
IN: _gcry_cipher_cfb_decrypt
0x0000ce2c:  e59b2004      ldr	r2, [fp, #4]
0x0000ce30:  e51b3008      ldr	r3, [fp, #-8]
0x0000ce34:  e1a03332      lsr	r3, r2, r3
0x0000ce38:  e50b301c      str	r3, [fp, #-28]
0x0000ce3c:  e51b1038      ldr	r1, [fp, #-56]
0x0000ce40:  e51b301c      ldr	r3, [fp, #-28]
0x0000ce44:  e58d3000      str	r3, [sp]
0x0000ce48:  e51b3044      ldr	r3, [fp, #-68]
0x0000ce4c:  e51b203c      ldr	r2, [fp, #-60]
0x0000ce50:  e51b0038      ldr	r0, [fp, #-56]
0x0000ce54:  ebfffef6      bl	0xca34

----------------
IN: _gcry_cast5_cfb_dec
0x0000ca34:  e92d4800      push	{fp, lr}
0x0000ca38:  e28db004      add	fp, sp, #4	; 0x4
0x0000ca3c:  e24dd060      sub	sp, sp, #96	; 0x60
0x0000ca40:  e50b0048      str	r0, [fp, #-72]
0x0000ca44:  e50b104c      str	r1, [fp, #-76]
0x0000ca48:  e50b2050      str	r2, [fp, #-80]
0x0000ca4c:  e50b3054      str	r3, [fp, #-84]
0x0000ca50:  e51b3050      ldr	r3, [fp, #-80]
0x0000ca54:  e50b3008      str	r3, [fp, #-8]
0x0000ca58:  e51b3054      ldr	r3, [fp, #-84]
0x0000ca5c:  e50b300c      str	r3, [fp, #-12]
0x0000ca60:  e3a03001      mov	r3, #1	; 0x1
0x0000ca64:  e50b3010      str	r3, [fp, #-16]
0x0000ca68:  ea00004d      b	0xcba4

----------------
IN: _gcry_cast5_cfb_dec
0x0000cba4:  e59b3004      ldr	r3, [fp, #4]
0x0000cba8:  e3530002      cmp	r3, #2	; 0x2
0x0000cbac:  8affffae      bhi	0xca6c

----------------
IN: _gcry_cast5_cfb_dec
0x0000ca6c:  e24b302c      sub	r3, fp, #44	; 0x2c
0x0000ca70:  e3a02008      mov	r2, #8	; 0x8
0x0000ca74:  e51b104c      ldr	r1, [fp, #-76]
0x0000ca78:  e1a00003      mov	r0, r3
0x0000ca7c:  ebfffd74      bl	0xc054

----------------
IN: _gcry_cast5_cfb_dec
0x0000ca80:  e24b302c      sub	r3, fp, #44	; 0x2c
0x0000ca84:  e2833008      add	r3, r3, #8	; 0x8
0x0000ca88:  e3a02010      mov	r2, #16	; 0x10
0x0000ca8c:  e51b100c      ldr	r1, [fp, #-12]
0x0000ca90:  e1a00003      mov	r0, r3
0x0000ca94:  ebfffd6e      bl	0xc054

----------------
IN: cipher_block_cpy
0x0000c0dc:  e51b000c      ldr	r0, [fp, #-12]
0x0000c0e0:  ebffff8c      bl	0xbf18

----------------
IN: cipher_block_cpy
0x0000c0e4:  e1a03000      mov	r3, r0
0x0000c0e8:  e50b301c      str	r3, [fp, #-28]
0x0000c0ec:  e51b300c      ldr	r3, [fp, #-12]
0x0000c0f0:  e2833004      add	r3, r3, #4	; 0x4
0x0000c0f4:  e1a00003      mov	r0, r3
0x0000c0f8:  ebffff86      bl	0xbf18

----------------
IN: cipher_block_cpy
0x0000c0fc:  e1a03000      mov	r3, r0
0x0000c100:  e50b3018      str	r3, [fp, #-24]
0x0000c104:  e51b300c      ldr	r3, [fp, #-12]
0x0000c108:  e2833008      add	r3, r3, #8	; 0x8
0x0000c10c:  e1a00003      mov	r0, r3
0x0000c110:  ebffff80      bl	0xbf18

----------------
IN: cipher_block_cpy
0x0000c114:  e1a03000      mov	r3, r0
0x0000c118:  e50b3014      str	r3, [fp, #-20]
0x0000c11c:  e51b300c      ldr	r3, [fp, #-12]
0x0000c120:  e283300c      add	r3, r3, #12	; 0xc
0x0000c124:  e1a00003      mov	r0, r3
0x0000c128:  ebffff7a      bl	0xbf18

----------------
IN: cipher_block_cpy
0x0000c12c:  e1a03000      mov	r3, r0
0x0000c130:  e50b3010      str	r3, [fp, #-16]
0x0000c134:  e51b301c      ldr	r3, [fp, #-28]
0x0000c138:  e1a01003      mov	r1, r3
0x0000c13c:  e51b0008      ldr	r0, [fp, #-8]
0x0000c140:  ebffffa2      bl	0xbfd0

----------------
IN: cipher_block_cpy
0x0000c144:  e51b3008      ldr	r3, [fp, #-8]
0x0000c148:  e2833004      add	r3, r3, #4	; 0x4
0x0000c14c:  e51b2018      ldr	r2, [fp, #-24]
0x0000c150:  e1a01002      mov	r1, r2
0x0000c154:  e1a00003      mov	r0, r3
0x0000c158:  ebffff9c      bl	0xbfd0

----------------
IN: cipher_block_cpy
0x0000c15c:  e51b3008      ldr	r3, [fp, #-8]
0x0000c160:  e2833008      add	r3, r3, #8	; 0x8
0x0000c164:  e51b2014      ldr	r2, [fp, #-20]
0x0000c168:  e1a01002      mov	r1, r2
0x0000c16c:  e1a00003      mov	r0, r3
0x0000c170:  ebffff96      bl	0xbfd0

----------------
IN: cipher_block_cpy
0x0000c174:  e51b3008      ldr	r3, [fp, #-8]
0x0000c178:  e283300c      add	r3, r3, #12	; 0xc
0x0000c17c:  e51b2010      ldr	r2, [fp, #-16]
0x0000c180:  e1a01002      mov	r1, r2
0x0000c184:  e1a00003      mov	r0, r3
0x0000c188:  ebffff90      bl	0xbfd0

----------------
IN: _gcry_cast5_cfb_dec
0x0000ca98:  e51b300c      ldr	r3, [fp, #-12]
0x0000ca9c:  e2833010      add	r3, r3, #16	; 0x10
0x0000caa0:  e3a02008      mov	r2, #8	; 0x8
0x0000caa4:  e1a01003      mov	r1, r3
0x0000caa8:  e51b004c      ldr	r0, [fp, #-76]
0x0000caac:  ebfffd68      bl	0xc054

----------------
IN: _gcry_cast5_cfb_dec
0x0000cab0:  e3a03000      mov	r3, #0	; 0x0
0x0000cab4:  e50b3014      str	r3, [fp, #-20]
0x0000cab8:  ea000020      b	0xcb40

----------------
IN: _gcry_cast5_cfb_dec
0x0000cb40:  e51b3014      ldr	r3, [fp, #-20]
0x0000cb44:  e3530002      cmp	r3, #2	; 0x2
0x0000cb48:  daffffdb      ble	0xcabc

----------------
IN: _gcry_cast5_cfb_dec
0x0000cabc:  e51b3014      ldr	r3, [fp, #-20]
0x0000cac0:  e1a03183      lsl	r3, r3, #3
0x0000cac4:  e1a02003      mov	r2, r3
0x0000cac8:  e24b302c      sub	r3, fp, #44	; 0x2c
0x0000cacc:  e0832002      add	r2, r3, r2
0x0000cad0:  e24b3044      sub	r3, fp, #68	; 0x44
0x0000cad4:  e1a01002      mov	r1, r2
0x0000cad8:  e1a00003      mov	r0, r3
0x0000cadc:  eb000cf7      bl	0xfec0

----------------
IN: _gcry_cast5_cfb_dec
0x0000cae0:  e51b3048      ldr	r3, [fp, #-72]
0x0000cae4:  e2831030      add	r1, r3, #48	; 0x30
0x0000cae8:  e24b005c      sub	r0, fp, #92	; 0x5c
0x0000caec:  e3a03000      mov	r3, #0	; 0x0
0x0000caf0:  e58d3000      str	r3, [sp]
0x0000caf4:  e24b3044      sub	r3, fp, #68	; 0x44
0x0000caf8:  e893000c      ldm	r3, {r2, r3}
0x0000cafc:  eb000cdc      bl	0xfe74

----------------
IN: _gcry_cast5_cfb_dec
0x0000cb00:  e24b3044      sub	r3, fp, #68	; 0x44
0x0000cb04:  e24b205c      sub	r2, fp, #92	; 0x5c
0x0000cb08:  e8920003      ldm	r2, {r0, r1}
0x0000cb0c:  e8830003      stm	r3, {r0, r1}
0x0000cb10:  e51b3014      ldr	r3, [fp, #-20]
0x0000cb14:  e1a03183      lsl	r3, r3, #3
0x0000cb18:  e1a02003      mov	r2, r3
0x0000cb1c:  e24b302c      sub	r3, fp, #44	; 0x2c
0x0000cb20:  e0833002      add	r3, r3, r2
0x0000cb24:  e1a02003      mov	r2, r3
0x0000cb28:  e24b3044      sub	r3, fp, #68	; 0x44
0x0000cb2c:  e8930003      ldm	r3, {r0, r1}
0x0000cb30:  eb00017d      bl	0xd12c

----------------
IN: _gcry_cast5_cfb_dec
0x0000cb34:  e51b3014      ldr	r3, [fp, #-20]
0x0000cb38:  e2833001      add	r3, r3, #1	; 0x1
0x0000cb3c:  e50b3014      str	r3, [fp, #-20]
0x0000cb40:  e51b3014      ldr	r3, [fp, #-20]
0x0000cb44:  e3530002      cmp	r3, #2	; 0x2
0x0000cb48:  daffffdb      ble	0xcabc

----------------
IN: _gcry_cast5_cfb_dec
0x0000cb4c:  e24b202c      sub	r2, fp, #44	; 0x2c
0x0000cb50:  e3a03000      mov	r3, #0	; 0x0
0x0000cb54:  e58d3000      str	r3, [sp]
0x0000cb58:  e3a03018      mov	r3, #24	; 0x18
0x0000cb5c:  e51b100c      ldr	r1, [fp, #-12]
0x0000cb60:  e51b0008      ldr	r0, [fp, #-8]
0x0000cb64:  ebfffe9c      bl	0xc5dc

----------------
IN: buf_xor
0x0000c5dc:  e92d4830      push	{r4, r5, fp, lr}
0x0000c5e0:  e28db00c      add	fp, sp, #12	; 0xc
0x0000c5e4:  e24dd020      sub	sp, sp, #32	; 0x20
0x0000c5e8:  e50b0020      str	r0, [fp, #-32]
0x0000c5ec:  e50b1024      str	r1, [fp, #-36]
0x0000c5f0:  e50b2028      str	r2, [fp, #-40]
0x0000c5f4:  e50b302c      str	r3, [fp, #-44]
0x0000c5f8:  e51b3020      ldr	r3, [fp, #-32]
0x0000c5fc:  e50b3010      str	r3, [fp, #-16]
0x0000c600:  e51b3024      ldr	r3, [fp, #-36]
0x0000c604:  e50b3014      str	r3, [fp, #-20]
0x0000c608:  e51b3028      ldr	r3, [fp, #-40]
0x0000c60c:  e50b3018      str	r3, [fp, #-24]
0x0000c610:  ea00002a      b	0xc6c0

----------------
IN: buf_xor
0x0000c6c0:  e51b302c      ldr	r3, [fp, #-44]
0x0000c6c4:  e3530003      cmp	r3, #3	; 0x3
0x0000c6c8:  8affffd1      bhi	0xc614

----------------
IN: buf_xor
0x0000c614:  e59b3004      ldr	r3, [fp, #4]
0x0000c618:  e3530000      cmp	r3, #0	; 0x0
0x0000c61c:  0a000011      beq	0xc668

----------------
IN: buf_xor
0x0000c668:  e51b0014      ldr	r0, [fp, #-20]
0x0000c66c:  ebfffe29      bl	0xbf18

----------------
IN: buf_xor
0x0000c670:  e1a04000      mov	r4, r0
0x0000c674:  e51b0018      ldr	r0, [fp, #-24]
0x0000c678:  ebfffe26      bl	0xbf18

----------------
IN: buf_xor
0x0000c67c:  e1a03000      mov	r3, r0
0x0000c680:  e0233004      eor	r3, r3, r4
0x0000c684:  e1a01003      mov	r1, r3
0x0000c688:  e51b0010      ldr	r0, [fp, #-16]
0x0000c68c:  ebfffe4f      bl	0xbfd0

----------------
IN: buf_xor
0x0000c690:  e51b3010      ldr	r3, [fp, #-16]
0x0000c694:  e2833004      add	r3, r3, #4	; 0x4
0x0000c698:  e50b3010      str	r3, [fp, #-16]
0x0000c69c:  e51b3014      ldr	r3, [fp, #-20]
0x0000c6a0:  e2833004      add	r3, r3, #4	; 0x4
0x0000c6a4:  e50b3014      str	r3, [fp, #-20]
0x0000c6a8:  e51b3018      ldr	r3, [fp, #-24]
0x0000c6ac:  e2833004      add	r3, r3, #4	; 0x4
0x0000c6b0:  e50b3018      str	r3, [fp, #-24]
0x0000c6b4:  e51b302c      ldr	r3, [fp, #-44]
0x0000c6b8:  e2433004      sub	r3, r3, #4	; 0x4
0x0000c6bc:  e50b302c      str	r3, [fp, #-44]
0x0000c6c0:  e51b302c      ldr	r3, [fp, #-44]
0x0000c6c4:  e3530003      cmp	r3, #3	; 0x3
0x0000c6c8:  8affffd1      bhi	0xc614

----------------
IN: buf_xor
0x0000c6cc:  ea000022      b	0xc75c

----------------
IN: buf_xor
0x0000c75c:  e51b302c      ldr	r3, [fp, #-44]
0x0000c760:  e3530000      cmp	r3, #0	; 0x0
0x0000c764:  1affffd9      bne	0xc6d0

----------------
IN: buf_xor
0x0000c768:  e320f000      nop	{0}
0x0000c76c:  e320f000      nop	{0}
0x0000c770:  e24bd00c      sub	sp, fp, #12	; 0xc
0x0000c774:  e8bd8830      pop	{r4, r5, fp, pc}

----------------
IN: _gcry_cast5_cfb_dec
0x0000cb68:  e3a01018      mov	r1, #24	; 0x18
0x0000cb6c:  e51b0008      ldr	r0, [fp, #-8]
0x0000cb70:  ebffff94      bl	0xc9c8

----------------
IN: ascii_dump
0x0000c9c8:  e92d4800      push	{fp, lr}
0x0000c9cc:  e28db004      add	fp, sp, #4	; 0x4
0x0000c9d0:  e24dd010      sub	sp, sp, #16	; 0x10
0x0000c9d4:  e50b0010      str	r0, [fp, #-16]
0x0000c9d8:  e50b1014      str	r1, [fp, #-20]
0x0000c9dc:  e3a03000      mov	r3, #0	; 0x0
0x0000c9e0:  e50b3008      str	r3, [fp, #-8]
0x0000c9e4:  ea00000a      b	0xca14

----------------
IN: ascii_dump
0x0000ca14:  e51b2008      ldr	r2, [fp, #-8]
0x0000ca18:  e51b3014      ldr	r3, [fp, #-20]
0x0000ca1c:  e1520003      cmp	r2, r3
0x0000ca20:  3afffff0      bcc	0xc9e8

----------------
IN: ascii_dump
0x0000c9e8:  e51b2010      ldr	r2, [fp, #-16]
0x0000c9ec:  e51b3008      ldr	r3, [fp, #-8]
0x0000c9f0:  e0823003      add	r3, r2, r3
0x0000c9f4:  e5d33000      ldrb	r3, [r3]
0x0000c9f8:  e1a01003      mov	r1, r3
0x0000c9fc:  e30404b4      movw	r0, #17588	; 0x44b4
0x0000ca00:  e3400001      movt	r0, #1	; 0x1
0x0000ca04:  eb001a12      bl	0x13254

----------------
IN: tfp_format
0x00012d68:  e3a03000      mov	r3, #0	; 0x0
0x00012d6c:  e54b3006      strb	r3, [fp, #-6]
0x00012d70:  e3a03000      mov	r3, #0	; 0x0
0x00012d74:  e54b3007      strb	r3, [fp, #-7]
0x00012d78:  e3a03000      mov	r3, #0	; 0x0
0x00012d7c:  e54b3008      strb	r3, [fp, #-8]
0x00012d80:  e3a03000      mov	r3, #0	; 0x0
0x00012d84:  e50b3018      str	r3, [fp, #-24]
0x00012d88:  e51b3028      ldr	r3, [fp, #-40]
0x00012d8c:  e2832001      add	r2, r3, #1	; 0x1
0x00012d90:  e50b2028      str	r2, [fp, #-40]
0x00012d94:  e5d33000      ldrb	r3, [r3]
0x00012d98:  e54b3005      strb	r3, [fp, #-5]
0x00012d9c:  e55b3005      ldrb	r3, [fp, #-5]
0x00012da0:  e3530030      cmp	r3, #48	; 0x30
0x00012da4:  1a000006      bne	0x12dc4

----------------
IN: tfp_format
0x00012dc4:  e55b3005      ldrb	r3, [fp, #-5]
0x00012dc8:  e353002f      cmp	r3, #47	; 0x2f
0x00012dcc:  9a000009      bls	0x12df8

----------------
IN: tfp_format
0x00012dd0:  e55b3005      ldrb	r3, [fp, #-5]
0x00012dd4:  e3530039      cmp	r3, #57	; 0x39
0x00012dd8:  8a000006      bhi	0x12df8

----------------
IN: tfp_format
0x00012df8:  e55b3005      ldrb	r3, [fp, #-5]
0x00012dfc:  e353006c      cmp	r3, #108	; 0x6c
0x00012e00:  1a000006      bne	0x12e20

----------------
IN: tfp_format
0x00012e20:  e55b3005      ldrb	r3, [fp, #-5]
0x00012e24:  e353007a      cmp	r3, #122	; 0x7a
0x00012e28:  ca0000f9      bgt	0x13214

----------------
IN: tfp_format
0x00012e2c:  e3530058      cmp	r3, #88	; 0x58
0x00012e30:  aa000004      bge	0x12e48

----------------
IN: tfp_format
0x00012e48:  e2433058      sub	r3, r3, #88	; 0x58
0x00012e4c:  e3530022      cmp	r3, #34	; 0x22
0x00012e50:  979ff103      ldrls	pc, [pc, r3, lsl #2]

----------------
IN: tfp_format
0x000131a8:  e51b302c      ldr	r3, [fp, #-44]
0x000131ac:  e2832004      add	r2, r3, #4	; 0x4
0x000131b0:  e50b202c      str	r2, [fp, #-44]
0x000131b4:  e5933000      ldr	r3, [r3]
0x000131b8:  e6ef2073      uxtb	r2, r3
0x000131bc:  e51b3024      ldr	r3, [fp, #-36]
0x000131c0:  e1a01002      mov	r1, r2
0x000131c4:  e51b0020      ldr	r0, [fp, #-32]
0x000131c8:  e12fff33      blx	r3

----------------
IN: tfp_format
0x000131cc:  ea000013      b	0x13220

----------------
IN: ascii_dump
0x0000ca08:  e51b3008      ldr	r3, [fp, #-8]
0x0000ca0c:  e2833001      add	r3, r3, #1	; 0x1
0x0000ca10:  e50b3008      str	r3, [fp, #-8]
0x0000ca14:  e51b2008      ldr	r2, [fp, #-8]
0x0000ca18:  e51b3014      ldr	r3, [fp, #-20]
0x0000ca1c:  e1520003      cmp	r2, r3
0x0000ca20:  3afffff0      bcc	0xc9e8

----------------
IN: ascii_dump
0x0000ca24:  e320f000      nop	{0}
0x0000ca28:  e320f000      nop	{0}
0x0000ca2c:  e24bd004      sub	sp, fp, #4	; 0x4
0x0000ca30:  e8bd8800      pop	{fp, pc}

----------------
IN: _gcry_cast5_cfb_dec
0x0000cb74:  e51b3008      ldr	r3, [fp, #-8]
0x0000cb78:  e2833018      add	r3, r3, #24	; 0x18
0x0000cb7c:  e50b3008      str	r3, [fp, #-8]
0x0000cb80:  e51b300c      ldr	r3, [fp, #-12]
0x0000cb84:  e2833018      add	r3, r3, #24	; 0x18
0x0000cb88:  e50b300c      str	r3, [fp, #-12]
0x0000cb8c:  e51b3010      ldr	r3, [fp, #-16]
0x0000cb90:  e2433001      sub	r3, r3, #1	; 0x1
0x0000cb94:  e50b3010      str	r3, [fp, #-16]
0x0000cb98:  e59b3004      ldr	r3, [fp, #4]
0x0000cb9c:  e2433003      sub	r3, r3, #3	; 0x3
0x0000cba0:  e58b3004      str	r3, [fp, #4]
0x0000cba4:  e59b3004      ldr	r3, [fp, #4]
0x0000cba8:  e3530002      cmp	r3, #2	; 0x2
0x0000cbac:  8affffae      bhi	0xca6c

----------------
IN: _gcry_cast5_cfb_dec
0x0000cbb0:  ea00002b      b	0xcc64

----------------
IN: _gcry_cast5_cfb_dec
0x0000cc64:  e59b3004      ldr	r3, [fp, #4]
0x0000cc68:  e3530000      cmp	r3, #0	; 0x0
0x0000cc6c:  1affffd0      bne	0xcbb4

----------------
IN: _gcry_cast5_cfb_dec
0x0000cbb4:  e24b3034      sub	r3, fp, #52	; 0x34
0x0000cbb8:  e51b104c      ldr	r1, [fp, #-76]
0x0000cbbc:  e1a00003      mov	r0, r3
0x0000cbc0:  eb000cbe      bl	0xfec0

----------------
IN: _gcry_cast5_cfb_dec
0x0000cbc4:  e51b3048      ldr	r3, [fp, #-72]
0x0000cbc8:  e2831030      add	r1, r3, #48	; 0x30
0x0000cbcc:  e51b3010      ldr	r3, [fp, #-16]
0x0000cbd0:  e3530000      cmp	r3, #0	; 0x0
0x0000cbd4:  c3a03001      movgt	r3, #1	; 0x1
0x0000cbd8:  d3a03000      movle	r3, #0	; 0x0
0x0000cbdc:  e6ef3073      uxtb	r3, r3
0x0000cbe0:  e24b005c      sub	r0, fp, #92	; 0x5c
0x0000cbe4:  e58d3000      str	r3, [sp]
0x0000cbe8:  e24b3034      sub	r3, fp, #52	; 0x34
0x0000cbec:  e893000c      ldm	r3, {r2, r3}
0x0000cbf0:  eb000c9f      bl	0xfe74

----------------
IN: _gcry_cast5_cfb_dec
0x0000cbf4:  e24b3034      sub	r3, fp, #52	; 0x34
0x0000cbf8:  e24b205c      sub	r2, fp, #92	; 0x5c
0x0000cbfc:  e8920003      ldm	r2, {r0, r1}

----------------
IN: _gcry_cast5_cfb_dec
0x0000cc00:  e8830003      stm	r3, {r0, r1}
0x0000cc04:  e51b204c      ldr	r2, [fp, #-76]
0x0000cc08:  e24b3034      sub	r3, fp, #52	; 0x34
0x0000cc0c:  e8930003      ldm	r3, {r0, r1}
0x0000cc10:  eb000145      bl	0xd12c

----------------
IN: _gcry_cast5_cfb_dec
0x0000cc14:  e3a03008      mov	r3, #8	; 0x8
0x0000cc18:  e51b200c      ldr	r2, [fp, #-12]
0x0000cc1c:  e51b104c      ldr	r1, [fp, #-76]
0x0000cc20:  e51b0008      ldr	r0, [fp, #-8]
0x0000cc24:  ebfffe5b      bl	0xc598

----------------
IN: _gcry_cast5_cfb_dec
0x0000cc28:  e3a01008      mov	r1, #8	; 0x8
0x0000cc2c:  e51b0008      ldr	r0, [fp, #-8]
0x0000cc30:  ebffff64      bl	0xc9c8

----------------
IN: _gcry_cast5_cfb_dec
0x0000cc34:  e51b3008      ldr	r3, [fp, #-8]
0x0000cc38:  e2833008      add	r3, r3, #8	; 0x8
0x0000cc3c:  e50b3008      str	r3, [fp, #-8]
0x0000cc40:  e51b300c      ldr	r3, [fp, #-12]
0x0000cc44:  e2833008      add	r3, r3, #8	; 0x8
0x0000cc48:  e50b300c      str	r3, [fp, #-12]
0x0000cc4c:  e51b3010      ldr	r3, [fp, #-16]
0x0000cc50:  e2433001      sub	r3, r3, #1	; 0x1
0x0000cc54:  e50b3010      str	r3, [fp, #-16]
0x0000cc58:  e59b3004      ldr	r3, [fp, #4]
0x0000cc5c:  e2433001      sub	r3, r3, #1	; 0x1
0x0000cc60:  e58b3004      str	r3, [fp, #4]
0x0000cc64:  e59b3004      ldr	r3, [fp, #4]
0x0000cc68:  e3530000      cmp	r3, #0	; 0x0
0x0000cc6c:  1affffd0      bne	0xcbb4

----------------
IN: _gcry_cast5_cfb_dec
0x0000cc70:  e24b302c      sub	r3, fp, #44	; 0x2c
0x0000cc74:  e3a01018      mov	r1, #24	; 0x18
0x0000cc78:  e1a00003      mov	r0, r3
0x0000cc7c:  eb000e62      bl	0x1060c

----------------
IN: wipememory
0x0001060c:  e52db004      push	{fp}		; (str fp, [sp, #-4]!)
0x00010610:  e28db000      add	fp, sp, #0	; 0x0
0x00010614:  e24dd014      sub	sp, sp, #20	; 0x14
0x00010618:  e50b0010      str	r0, [fp, #-16]
0x0001061c:  e50b1014      str	r1, [fp, #-20]
0x00010620:  e51b3010      ldr	r3, [fp, #-16]
0x00010624:  e50b3008      str	r3, [fp, #-8]
0x00010628:  ea000004      b	0x10640

----------------
IN: wipememory
0x00010640:  e51b3014      ldr	r3, [fp, #-20]
0x00010644:  e2432001      sub	r2, r3, #1	; 0x1
0x00010648:  e50b2014      str	r2, [fp, #-20]
0x0001064c:  e3530000      cmp	r3, #0	; 0x0
0x00010650:  1afffff5      bne	0x1062c

----------------
IN: wipememory
0x0001062c:  e51b3008      ldr	r3, [fp, #-8]
0x00010630:  e2832001      add	r2, r3, #1	; 0x1
0x00010634:  e50b2008      str	r2, [fp, #-8]
0x00010638:  e3a02000      mov	r2, #0	; 0x0
0x0001063c:  e5c32000      strb	r2, [r3]
0x00010640:  e51b3014      ldr	r3, [fp, #-20]
0x00010644:  e2432001      sub	r2, r3, #1	; 0x1
0x00010648:  e50b2014      str	r2, [fp, #-20]
0x0001064c:  e3530000      cmp	r3, #0	; 0x0
0x00010650:  1afffff5      bne	0x1062c

----------------
IN: wipememory
0x00010654:  e320f000      nop	{0}
0x00010658:  e320f000      nop	{0}
0x0001065c:  e28bd000      add	sp, fp, #0	; 0x0
0x00010660:  e49db004      pop	{fp}		; (ldr fp, [sp], #4)
0x00010664:  e12fff1e      bx	lr

----------------
IN: _gcry_cast5_cfb_dec
0x0000cc80:  e320f000      nop	{0}
0x0000cc84:  e24bd004      sub	sp, fp, #4	; 0x4
0x0000cc88:  e8bd8800      pop	{fp, pc}

----------------
IN: _gcry_cipher_cfb_decrypt
0x0000ce58:  e51b201c      ldr	r2, [fp, #-28]
0x0000ce5c:  e51b3008      ldr	r3, [fp, #-8]
0x0000ce60:  e1a03312      lsl	r3, r2, r3
0x0000ce64:  e51b203c      ldr	r2, [fp, #-60]
0x0000ce68:  e0823003      add	r3, r2, r3
0x0000ce6c:  e50b303c      str	r3, [fp, #-60]
0x0000ce70:  e51b201c      ldr	r2, [fp, #-28]
0x0000ce74:  e51b3008      ldr	r3, [fp, #-8]
0x0000ce78:  e1a03312      lsl	r3, r2, r3
0x0000ce7c:  e51b2044      ldr	r2, [fp, #-68]
0x0000ce80:  e0823003      add	r3, r2, r3
0x0000ce84:  e50b3044      str	r3, [fp, #-68]
0x0000ce88:  e51b201c      ldr	r2, [fp, #-28]
0x0000ce8c:  e51b3008      ldr	r3, [fp, #-8]
0x0000ce90:  e1a03312      lsl	r3, r2, r3
0x0000ce94:  e59b2004      ldr	r2, [fp, #4]
0x0000ce98:  e0423003      sub	r3, r2, r3
0x0000ce9c:  e58b3004      str	r3, [fp, #4]
0x0000cea0:  ea00002a      b	0xcf50

----------------
IN: _gcry_cipher_cfb_decrypt
0x0000d014:  e59b3004      ldr	r3, [fp, #4]
0x0000d018:  e3530000      cmp	r3, #0	; 0x0
0x0000d01c:  0a00003e      beq	0xd11c

----------------
IN: _gcry_cipher_cfb_decrypt
0x0000d11c:  e3a03000      mov	r3, #0	; 0x0
0x0000d120:  e1a00003      mov	r0, r3
0x0000d124:  e24bd004      sub	sp, fp, #4	; 0x4
0x0000d128:  e8bd8800      pop	{fp, pc}

----------------
IN: decode_filter
0x0000be00:  ea00000c      b	0xbe38

----------------
IN: decode_filter
0x0000be38:  e59b3004      ldr	r3, [fp, #4]
0x0000be3c:  e51b2014      ldr	r2, [fp, #-20]
0x0000be40:  e5832000      str	r2, [r3]
0x0000be44:  ea000004      b	0xbe5c

----------------
IN: parse
0x00010b8c:  e1a03000      mov	r3, r0
0x00010b90:  ea00000d      b	0x10bcc

----------------
IN: parse
0x00010bcc:  e50b3034      str	r3, [fp, #-52]
0x00010bd0:  e51b3034      ldr	r3, [fp, #-52]
0x00010bd4:  e3730001      cmn	r3, #1	; 0x1
0x00010bd8:  1a000002      bne	0x10be8

----------------
IN: parse
0x000113b0:  e320f000      nop	{0}
0x000113b4:  e51b1048      ldr	r1, [fp, #-72]
0x000113b8:  e3a00000      mov	r0, #0	; 0x0
0x000113bc:  ebffeaaa      bl	0xbe6c

----------------
IN: do_proc_packets
0x000139d8:  e24b3030      sub	r3, fp, #48	; 0x30
0x000139dc:  e1a01003      mov	r1, r3
0x000139e0:  e51b0008      ldr	r0, [fp, #-8]
0x000139e4:  ebffe120      bl	0xbe6c

----------------
IN: free_packet
0x0000be8c:  e51b3008      ldr	r3, [fp, #-8]
0x0000be90:  e5933004      ldr	r3, [r3, #4]
0x0000be94:  e3530000      cmp	r3, #0	; 0x0
0x0000be98:  1a000019      bne	0xbf04

----------------
IN: do_proc_packets
0x000139e8:  ea000069      b	0x13b94

----------------
IN: do_proc_packets
0x00013b94:  e51b303c      ldr	r3, [fp, #-60]
0x00013b98:  e593302c      ldr	r3, [r3, #44]
0x00013b9c:  e1a00003      mov	r0, r3
0x00013ba0:  ebfff1e6      bl	0x10340

----------------
IN: xfree
0x00010340:  e92d4800      push	{fp, lr}
0x00010344:  e28db004      add	fp, sp, #4	; 0x4
0x00010348:  e24dd008      sub	sp, sp, #8	; 0x8
0x0001034c:  e50b0008      str	r0, [fp, #-8]
0x00010350:  e51b3008      ldr	r3, [fp, #-8]
0x00010354:  e3530000      cmp	r3, #0	; 0x0
0x00010358:  0a000001      beq	0x10364

----------------
IN: xfree
0x00010364:  e320f000      nop	{0}
0x00010368:  e24bd004      sub	sp, fp, #4	; 0x4
0x0001036c:  e8bd8800      pop	{fp, pc}

----------------
IN: do_proc_packets
0x00013ba4:  e24b3030      sub	r3, fp, #48	; 0x30
0x00013ba8:  e1a01003      mov	r1, r3
0x00013bac:  e51b0008      ldr	r0, [fp, #-8]
0x00013bb0:  ebffe0ad      bl	0xbe6c

----------------
IN: do_proc_packets
0x00013bb4:  e51b3024      ldr	r3, [fp, #-36]
0x00013bb8:  e3530000      cmp	r3, #0	; 0x0
0x00013bbc:  0a000003      beq	0x13bd0

----------------
IN: do_proc_packets
0x00013bd0:  e51b0008      ldr	r0, [fp, #-8]
0x00013bd4:  ebfff1d9      bl	0x10340

----------------
IN: xfree
0x0001035c:  e51b0008      ldr	r0, [fp, #-8]
0x00010360:  ebffff57      bl	0x100c4

----------------
IN: free
0x000100c4:  e52db004      push	{fp}		; (str fp, [sp, #-4]!)
0x000100c8:  e28db000      add	fp, sp, #0	; 0x0
0x000100cc:  e24dd014      sub	sp, sp, #20	; 0x14
0x000100d0:  e50b0010      str	r0, [fp, #-16]
0x000100d4:  e51b3010      ldr	r3, [fp, #-16]
0x000100d8:  e3530000      cmp	r3, #0	; 0x0
0x000100dc:  0a000042      beq	0x101ec

----------------
IN: free
0x000100e0:  e51b3010      ldr	r3, [fp, #-16]
0x000100e4:  e243300c      sub	r3, r3, #12	; 0xc
0x000100e8:  e50b300c      str	r3, [fp, #-12]
0x000100ec:  e51b300c      ldr	r3, [fp, #-12]
0x000100f0:  e3a02001      mov	r2, #1	; 0x1
0x000100f4:  e5c32004      strb	r2, [r3, #4]
0x000100f8:  e51b300c      ldr	r3, [fp, #-12]
0x000100fc:  e5933008      ldr	r3, [r3, #8]
0x00010100:  e3530000      cmp	r3, #0	; 0x0
0x00010104:  0a000011      beq	0x10150

----------------
IN: free
0x00010108:  e51b300c      ldr	r3, [fp, #-12]
0x0001010c:  e5933008      ldr	r3, [r3, #8]
0x00010110:  e5d33004      ldrb	r3, [r3, #4]
0x00010114:  e3530000      cmp	r3, #0	; 0x0
0x00010118:  0a00000c      beq	0x10150

----------------
IN: free
0x00010150:  e30d300c      movw	r3, #53260	; 0xd00c
0x00010154:  e3403004      movt	r3, #4	; 0x4
0x00010158:  e5933000      ldr	r3, [r3]
0x0001015c:  e50b3008      str	r3, [fp, #-8]
0x00010160:  ea000019      b	0x101cc

----------------
IN: free
0x000101cc:  e51b3008      ldr	r3, [fp, #-8]
0x000101d0:  e3530000      cmp	r3, #0	; 0x0
0x000101d4:  0a000005      beq	0x101f0

----------------
IN: free
0x000101d8:  e51b3008      ldr	r3, [fp, #-8]
0x000101dc:  e5933008      ldr	r3, [r3, #8]
0x000101e0:  e3530000      cmp	r3, #0	; 0x0
0x000101e4:  1affffde      bne	0x10164

----------------
IN: free
0x00010164:  e51b3008      ldr	r3, [fp, #-8]
0x00010168:  e5d33004      ldrb	r3, [r3, #4]
0x0001016c:  e3530000      cmp	r3, #0	; 0x0
0x00010170:  0a000012      beq	0x101c0

----------------
IN: free
0x000101c0:  e51b3008      ldr	r3, [fp, #-8]
0x000101c4:  e5933008      ldr	r3, [r3, #8]
0x000101c8:  e50b3008      str	r3, [fp, #-8]
0x000101cc:  e51b3008      ldr	r3, [fp, #-8]
0x000101d0:  e3530000      cmp	r3, #0	; 0x0
0x000101d4:  0a000005      beq	0x101f0

----------------
IN: free
0x00010174:  e51b3008      ldr	r3, [fp, #-8]
0x00010178:  e5933000      ldr	r3, [r3]
0x0001017c:  e51b2008      ldr	r2, [fp, #-8]
0x00010180:  e0823003      add	r3, r2, r3
0x00010184:  e51b200c      ldr	r2, [fp, #-12]
0x00010188:  e1520003      cmp	r2, r3
0x0001018c:  1a00000b      bne	0x101c0

----------------
IN: free
0x000101e8:  ea000000      b	0x101f0

----------------
IN: free
0x000101f0:  e28bd000      add	sp, fp, #0	; 0x0
0x000101f4:  e49db004      pop	{fp}		; (ldr fp, [sp], #4)
0x000101f8:  e12fff1e      bx	lr

----------------
IN: do_proc_packets
0x00013bd8:  e51b300c      ldr	r3, [fp, #-12]
0x00013bdc:  e1a00003      mov	r0, r3
0x00013be0:  e24bd004      sub	sp, fp, #4	; 0x4
0x00013be4:  e8bd8800      pop	{fp, pc}

----------------
IN: proc_packets
0x00013788:  e50b000c      str	r0, [fp, #-12]
0x0001378c:  e51b0008      ldr	r0, [fp, #-8]
0x00013790:  ebfff2ea      bl	0x10340

----------------
IN: proc_packets
0x00013794:  e51b300c      ldr	r3, [fp, #-12]
0x00013798:  e1a00003      mov	r0, r3
0x0001379c:  e24bd004      sub	sp, fp, #4	; 0x4
0x000137a0:  e8bd8800      pop	{fp, pc}

----------------
IN: decrypt_data
0x0000bb48:  e51b3060      ldr	r3, [fp, #-96]
0x0000bb4c:  e3a02000      mov	r2, #0	; 0x0
0x0000bb50:  e5832010      str	r2, [r3, #16]
0x0000bb54:  ea000006      b	0xbb74

----------------
IN: decrypt_data
0x0000bb74:  e51b3030      ldr	r3, [fp, #-48]
0x0000bb78:  e1a00003      mov	r0, r3
0x0000bb7c:  ebfffda6      bl	0xb21c

----------------
IN: release_dfx_context
0x0000b21c:  e92d4800      push	{fp, lr}
0x0000b220:  e28db004      add	fp, sp, #4	; 0x4
0x0000b224:  e24dd008      sub	sp, sp, #8	; 0x8
0x0000b228:  e50b0008      str	r0, [fp, #-8]
0x0000b22c:  e51b3008      ldr	r3, [fp, #-8]
0x0000b230:  e3530000      cmp	r3, #0	; 0x0
0x0000b234:  0a00001d      beq	0xb2b0

----------------
IN: release_dfx_context
0x0000b2b0:  e320f000      nop	{0}
0x0000b2b4:  e24bd004      sub	sp, fp, #4	; 0x4
0x0000b2b8:  e8bd8800      pop	{fp, pc}

----------------
IN: decrypt_data
0x0000bb80:  e51b3010      ldr	r3, [fp, #-16]
0x0000bb84:  e1a00003      mov	r0, r3
0x0000bb88:  e24bd00c      sub	sp, fp, #12	; 0xc
0x0000bb8c:  e8bd8830      pop	{r4, r5, fp, pc}

----------------
IN: proc_encrypted
0x00013700:  e50b000c      str	r0, [fp, #-12]
0x00013704:  e51b300c      ldr	r3, [fp, #-12]
0x00013708:  e3530000      cmp	r3, #0	; 0x0
0x0001370c:  1a000005      bne	0x13728

----------------
IN: proc_encrypted
0x00013710:  e51b3014      ldr	r3, [fp, #-20]
0x00013714:  e3530000      cmp	r3, #0	; 0x0
0x00013718:  1a000002      bne	0x13728

----------------
IN: proc_encrypted
0x0001371c:  e51b3008      ldr	r3, [fp, #-8]
0x00013720:  e3833002      orr	r3, r3, #2	; 0x2
0x00013724:  e50b3008      str	r3, [fp, #-8]
0x00013728:  e320f000      nop	{0}
0x0001372c:  e320f000      nop	{0}
0x00013730:  e24bd004      sub	sp, fp, #4	; 0x4
0x00013734:  e8bd8800      pop	{fp, pc}

----------------
IN: do_proc_packets
0x00013a8c:  ea000003      b	0x13aa0

----------------
IN: parse
0x00010c20:  e3a0000e      mov	r0, #14	; 0xe
0x00010c24:  ebffff48      bl	0x1094c

----------------
IN: gpg_error
0x0001094c:  e52db004      push	{fp}		; (str fp, [sp, #-4]!)
0x00010950:  e28db000      add	fp, sp, #0	; 0x0
0x00010954:  e24dd00c      sub	sp, sp, #12	; 0xc
0x00010958:  e50b0008      str	r0, [fp, #-8]
0x0001095c:  e3a03000      mov	r3, #0	; 0x0
0x00010960:  e1a00003      mov	r0, r3
0x00010964:  e28bd000      add	sp, fp, #0	; 0x0
0x00010968:  e49db004      pop	{fp}		; (ldr fp, [sp], #4)
0x0001096c:  e12fff1e      bx	lr

----------------
IN: parse
0x00010c28:  e1a03000      mov	r3, r0
0x00010c2c:  e50b3008      str	r3, [fp, #-8]
0x00010c30:  ea0001fd      b	0x1142c

----------------
IN: parse
0x0001142c:  e51b3008      ldr	r3, [fp, #-8]
0x00011430:  e3530000      cmp	r3, #0	; 0x0
0x00011434:  1a000005      bne	0x11450

----------------
IN: decrypt_data
0x0000bb70:  e320f000      nop	{0}
0x0000bb74:  e51b3030      ldr	r3, [fp, #-48]
0x0000bb78:  e1a00003      mov	r0, r3
0x0000bb7c:  ebfffda6      bl	0xb21c

----------------
IN: parse
0x00010d34:  e51b3038      ldr	r3, [fp, #-56]
0x00010d38:  e50b3014      str	r3, [fp, #-20]
0x00010d3c:  ea000108      b	0x11164

----------------
IN: parse
0x000112e4:  ea000031      b	0x113b0

----------------
IN: free_packet
0x0000bf04:  e320f000      nop	{0}
0x0000bf08:  ea000000      b	0xbf10

----------------
IN: free_packet
0x0000bf10:  e24bd004      sub	sp, fp, #4	; 0x4
0x0000bf14:  e8bd8800      pop	{fp, pc}

----------------
IN: proc_encryption_packets
0x00013800:  e50b000c      str	r0, [fp, #-12]
0x00013804:  e51b300c      ldr	r3, [fp, #-12]
0x00013808:  e1a00003      mov	r0, r3
0x0001380c:  e24bd004      sub	sp, fp, #4	; 0x4
0x00013810:  e8bd8800      pop	{fp, pc}

----------------
IN: decrypt_memory
0x0000b1c4:  e50b0028      str	r0, [fp, #-40]
0x0000b1c8:  e51b3028      ldr	r3, [fp, #-40]
0x0000b1cc:  e1a00003      mov	r0, r3
0x0000b1d0:  e24bd004      sub	sp, fp, #4	; 0x4
0x0000b1d4:  e8bd8800      pop	{fp, pc}

----------------
IN: main
0x00013420:  e50b0010      str	r0, [fp, #-16]
0x00013424:  ea000002      b	0x13434

----------------
IN: main
0x00013434:  e320f003      wfi

