
build/kernel1.elf:     file format elf32-littlearm


Disassembly of section .text:

00008000 <__text_start>:
    8000:	e3a0d302 	mov	sp, #134217728	; 0x8000000
    8004:	eb000000 	bl	800c <main>
    8008:	eafffffe 	b	8008 <__text_start+0x8>

0000800c <main>:
    800c:	e92d41f0 	push	{r4, r5, r6, r7, r8, lr}
    8010:	e3a00000 	mov	r0, #0
    8014:	e59f7178 	ldr	r7, [pc, #376]	; 8194 <main+0x188>
    8018:	e24dd018 	sub	sp, sp, #24
    801c:	e59f3174 	ldr	r3, [pc, #372]	; 8198 <main+0x18c>
    8020:	e28d4008 	add	r4, sp, #8
    8024:	e08f7007 	add	r7, pc, r7
    8028:	e7971003 	ldr	r1, [r7, r3]
    802c:	eb00006a 	bl	81dc <init_printf>
    8030:	e59f0164 	ldr	r0, [pc, #356]	; 819c <main+0x190>
    8034:	e08f0000 	add	r0, pc, r0
    8038:	eb001bfe 	bl	f038 <tfp_printf>
    803c:	e59f315c 	ldr	r3, [pc, #348]	; 81a0 <main+0x194>
    8040:	e08f3003 	add	r3, pc, r3
    8044:	e893000f 	ldm	r3, {r0, r1, r2, r3}
    8048:	e884000f 	stm	r4, {r0, r1, r2, r3}
    804c:	e3a00024 	mov	r0, #36	; 0x24
    8050:	eb00133e 	bl	cd50 <malloc>
    8054:	e2505000 	subs	r5, r0, #0
    8058:	0a000043 	beq	816c <main+0x160>
    805c:	e3a02024 	mov	r2, #36	; 0x24
    8060:	e3a01000 	mov	r1, #0
    8064:	eb0013c8 	bl	cf8c <memset>
    8068:	e59f3134 	ldr	r3, [pc, #308]	; 81a4 <main+0x198>
    806c:	e1a01004 	mov	r1, r4
    8070:	e3a02010 	mov	r2, #16
    8074:	e1a00005 	mov	r0, r5
    8078:	e7978003 	ldr	r8, [r7, r3]
    807c:	e5983000 	ldr	r3, [r8]
    8080:	e58d3004 	str	r3, [sp, #4]
    8084:	e59f311c 	ldr	r3, [pc, #284]	; 81a8 <main+0x19c>
    8088:	e7974003 	ldr	r4, [r7, r3]
    808c:	e3a03000 	mov	r3, #0
    8090:	e58d4000 	str	r4, [sp]
    8094:	eb00215d 	bl	10610 <unified_decrypt>
    8098:	e1a03000 	mov	r3, r0
    809c:	e1a00005 	mov	r0, r5
    80a0:	e1a05003 	mov	r5, r3
    80a4:	eb001378 	bl	ce8c <free>
    80a8:	e59f00fc 	ldr	r0, [pc, #252]	; 81ac <main+0x1a0>
    80ac:	e08f0000 	add	r0, pc, r0
    80b0:	eb001be0 	bl	f038 <tfp_printf>
    80b4:	e3a00024 	mov	r0, #36	; 0x24
    80b8:	eb001324 	bl	cd50 <malloc>
    80bc:	e2503000 	subs	r3, r0, #0
    80c0:	0a000025 	beq	815c <main+0x150>
    80c4:	e3a02024 	mov	r2, #36	; 0x24
    80c8:	e3a01000 	mov	r1, #0
    80cc:	e1a06003 	mov	r6, r3
    80d0:	eb0013ad 	bl	cf8c <memset>
    80d4:	e5982000 	ldr	r2, [r8]
    80d8:	e1a00006 	mov	r0, r6
    80dc:	e59f30cc 	ldr	r3, [pc, #204]	; 81b0 <main+0x1a4>
    80e0:	e58d2004 	str	r2, [sp, #4]
    80e4:	e3a02000 	mov	r2, #0
    80e8:	e08f3003 	add	r3, pc, r3
    80ec:	e1a01002 	mov	r1, r2
    80f0:	e58d4000 	str	r4, [sp]
    80f4:	eb002145 	bl	10610 <unified_decrypt>
    80f8:	e1a04000 	mov	r4, r0
    80fc:	e59f00b0 	ldr	r0, [pc, #176]	; 81b4 <main+0x1a8>
    8100:	e08f0000 	add	r0, pc, r0
    8104:	eb001bcb 	bl	f038 <tfp_printf>
    8108:	e3550000 	cmp	r5, #0
    810c:	0a00001d 	beq	8188 <main+0x17c>
    8110:	e59f10a0 	ldr	r1, [pc, #160]	; 81b8 <main+0x1ac>
    8114:	e08f1001 	add	r1, pc, r1
    8118:	e59f009c 	ldr	r0, [pc, #156]	; 81bc <main+0x1b0>
    811c:	e08f0000 	add	r0, pc, r0
    8120:	eb001bc4 	bl	f038 <tfp_printf>
    8124:	e3540000 	cmp	r4, #0
    8128:	0a000013 	beq	817c <main+0x170>
    812c:	e59f108c 	ldr	r1, [pc, #140]	; 81c0 <main+0x1b4>
    8130:	e08f1001 	add	r1, pc, r1
    8134:	e59f0088 	ldr	r0, [pc, #136]	; 81c4 <main+0x1b8>
    8138:	e08f0000 	add	r0, pc, r0
    813c:	eb001bbd 	bl	f038 <tfp_printf>
    8140:	e59f0080 	ldr	r0, [pc, #128]	; 81c8 <main+0x1bc>
    8144:	e08f0000 	add	r0, pc, r0
    8148:	eb001bba 	bl	f038 <tfp_printf>
    814c:	e1a00006 	mov	r0, r6
    8150:	eb00134d 	bl	ce8c <free>
    8154:	e320f003 	wfi
    8158:	eafffffd 	b	8154 <main+0x148>
    815c:	e59f0068 	ldr	r0, [pc, #104]	; 81cc <main+0x1c0>
    8160:	e08f0000 	add	r0, pc, r0
    8164:	eb001bb3 	bl	f038 <tfp_printf>
    8168:	eafffff9 	b	8154 <main+0x148>
    816c:	e59f005c 	ldr	r0, [pc, #92]	; 81d0 <main+0x1c4>
    8170:	e08f0000 	add	r0, pc, r0
    8174:	eb001baf 	bl	f038 <tfp_printf>
    8178:	eafffff3 	b	814c <main+0x140>
    817c:	e59f1050 	ldr	r1, [pc, #80]	; 81d4 <main+0x1c8>
    8180:	e08f1001 	add	r1, pc, r1
    8184:	eaffffea 	b	8134 <main+0x128>
    8188:	e59f1048 	ldr	r1, [pc, #72]	; 81d8 <main+0x1cc>
    818c:	e08f1001 	add	r1, pc, r1
    8190:	eaffffe0 	b	8118 <main+0x10c>
    8194:	0000d208 	andeq	sp, r0, r8, lsl #4
    8198:	00015678 	andeq	r5, r1, r8, ror r6
    819c:	0000cc34 	andeq	ip, r0, r4, lsr ip
    81a0:	0000cd90 	muleq	r0, r0, sp
    81a4:	0001565c 	andeq	r5, r1, ip, asr r6
    81a8:	00015648 	andeq	r5, r1, r8, asr #12
    81ac:	0000cc10 	andeq	ip, r0, r0, lsl ip
    81b0:	0000cc3c 	andeq	ip, r0, ip, lsr ip
    81b4:	0000cc68 	andeq	ip, r0, r8, ror #24
    81b8:	0000cb4c 	andeq	ip, r0, ip, asr #22
    81bc:	0000cc68 	andeq	ip, r0, r8, ror #24
    81c0:	0000cb30 	andeq	ip, r0, r0, lsr fp
    81c4:	0000cc68 	andeq	ip, r0, r8, ror #24
    81c8:	0000cc70 	andeq	ip, r0, r0, ror ip
    81cc:	0000cb90 	muleq	r0, r0, fp
    81d0:	0000cb18 	andeq	ip, r0, r8, lsl fp
    81d4:	0000cad8 	ldrdeq	ip, [r0], -r8
    81d8:	0000cacc 	andeq	ip, r0, ip, asr #21

000081dc <init_printf>:
    81dc:	e59f2014 	ldr	r2, [pc, #20]	; 81f8 <init_printf+0x1c>
    81e0:	e59f3014 	ldr	r3, [pc, #20]	; 81fc <init_printf+0x20>
    81e4:	e08f2002 	add	r2, pc, r2
    81e8:	e08f3003 	add	r3, pc, r3
    81ec:	e5821000 	str	r1, [r2]
    81f0:	e5830000 	str	r0, [r3]
    81f4:	e12fff1e 	bx	lr
    81f8:	00022e20 	andeq	r2, r2, r0, lsr #28
    81fc:	00022e20 	andeq	r2, r2, r0, lsr #28

00008200 <fd_cache_invalidate>:
    8200:	e92d4070 	push	{r4, r5, r6, lr}
    8204:	e1a05000 	mov	r5, r0
    8208:	e59f403c 	ldr	r4, [pc, #60]	; 824c <fd_cache_invalidate+0x4c>
    820c:	eb001b89 	bl	f038 <tfp_printf>
    8210:	e59f2038 	ldr	r2, [pc, #56]	; 8250 <fd_cache_invalidate+0x50>
    8214:	e08f4004 	add	r4, pc, r4
    8218:	e1a03004 	mov	r3, r4
    821c:	e7943002 	ldr	r3, [r4, r2]
    8220:	e5933000 	ldr	r3, [r3]
    8224:	e3530000 	cmp	r3, #0
    8228:	1a000001 	bne	8234 <fd_cache_invalidate+0x34>
    822c:	e3a00000 	mov	r0, #0
    8230:	e8bd8070 	pop	{r4, r5, r6, pc}
    8234:	e59f0018 	ldr	r0, [pc, #24]	; 8254 <fd_cache_invalidate+0x54>
    8238:	e1a01005 	mov	r1, r5
    823c:	e08f0000 	add	r0, pc, r0
    8240:	eb001b7c 	bl	f038 <tfp_printf>
    8244:	e3a00000 	mov	r0, #0
    8248:	e8bd8070 	pop	{r4, r5, r6, pc}
    824c:	0000d018 	andeq	sp, r0, r8, lsl r0
    8250:	00015650 	andeq	r5, r1, r0, asr r6
    8254:	00009118 	andeq	r9, r0, r8, lsl r1

00008258 <file_filter>:
    8258:	e92d41f0 	push	{r4, r5, r6, r7, r8, lr}
    825c:	e3510003 	cmp	r1, #3
    8260:	e59d6018 	ldr	r6, [sp, #24]
    8264:	e1a04000 	mov	r4, r0
    8268:	e59fc14c 	ldr	ip, [pc, #332]	; 83bc <file_filter+0x164>
    826c:	e1a05003 	mov	r5, r3
    8270:	e5967000 	ldr	r7, [r6]
    8274:	e08fc00c 	add	ip, pc, ip
    8278:	0a00000d 	beq	82b4 <file_filter+0x5c>
    827c:	e3510004 	cmp	r1, #4
    8280:	0a000007 	beq	82a4 <file_filter+0x4c>
    8284:	e3510001 	cmp	r1, #1
    8288:	0a000018 	beq	82f0 <file_filter+0x98>
    828c:	e3510007 	cmp	r1, #7
    8290:	0a00003b 	beq	8384 <file_filter+0x12c>
    8294:	e3510002 	cmp	r1, #2
    8298:	0a000029 	beq	8344 <file_filter+0xec>
    829c:	e3a00000 	mov	r0, #0
    82a0:	e8bd81f0 	pop	{r4, r5, r6, r7, r8, pc}
    82a4:	e3a03000 	mov	r3, #0
    82a8:	e5863000 	str	r3, [r6]
    82ac:	e1a00003 	mov	r0, r3
    82b0:	e8bd81f0 	pop	{r4, r5, r6, r7, r8, pc}
    82b4:	e1a00007 	mov	r0, r7
    82b8:	eb001b5e 	bl	f038 <tfp_printf>
    82bc:	e5d43034 	ldrb	r3, [r4, #52]	; 0x34
    82c0:	e5d42035 	ldrb	r2, [r4, #53]	; 0x35
    82c4:	e1530002 	cmp	r3, r2
    82c8:	8a00000f 	bhi	830c <file_filter+0xb4>
    82cc:	e594000c 	ldr	r0, [r4, #12]
    82d0:	e3500000 	cmp	r0, #0
    82d4:	e3e00000 	mvn	r0, #0
    82d8:	13a03000 	movne	r3, #0
    82dc:	03a02001 	moveq	r2, #1
    82e0:	0584200c 	streq	r2, [r4, #12]
    82e4:	03a03000 	moveq	r3, #0
    82e8:	e5863000 	str	r3, [r6]
    82ec:	e8bd81f0 	pop	{r4, r5, r6, r7, r8, pc}
    82f0:	e3a03000 	mov	r3, #0
    82f4:	e580300c 	str	r3, [r0, #12]
    82f8:	e1a00003 	mov	r0, r3
    82fc:	e5843004 	str	r3, [r4, #4]
    8300:	e5843008 	str	r3, [r4, #8]
    8304:	e1c433b4 	strh	r3, [r4, #52]	; 0x34
    8308:	e8bd81f0 	pop	{r4, r5, r6, r7, r8, pc}
    830c:	e0433002 	sub	r3, r3, r2
    8310:	e2841014 	add	r1, r4, #20
    8314:	e1570003 	cmp	r7, r3
    8318:	e1a00005 	mov	r0, r5
    831c:	e0811002 	add	r1, r1, r2
    8320:	21a07003 	movcs	r7, r3
    8324:	e1a02007 	mov	r2, r7
    8328:	eb001359 	bl	d094 <memcpy>
    832c:	e5d43035 	ldrb	r3, [r4, #53]	; 0x35
    8330:	e3a00000 	mov	r0, #0
    8334:	e0833007 	add	r3, r3, r7
    8338:	e5c43035 	strb	r3, [r4, #53]	; 0x35
    833c:	e5867000 	str	r7, [r6]
    8340:	e8bd81f0 	pop	{r4, r5, r6, r7, r8, pc}
    8344:	e5902000 	ldr	r2, [r0]
    8348:	e3520001 	cmp	r2, #1
    834c:	9a000008 	bls	8374 <file_filter+0x11c>
    8350:	e59f3068 	ldr	r3, [pc, #104]	; 83c0 <file_filter+0x168>
    8354:	e79c3003 	ldr	r3, [ip, r3]
    8358:	e5933000 	ldr	r3, [r3]
    835c:	e3530000 	cmp	r3, #0
    8360:	0a000003 	beq	8374 <file_filter+0x11c>
    8364:	e59f0058 	ldr	r0, [pc, #88]	; 83c4 <file_filter+0x16c>
    8368:	e2841036 	add	r1, r4, #54	; 0x36
    836c:	e08f0000 	add	r0, pc, r0
    8370:	eb001b30 	bl	f038 <tfp_printf>
    8374:	e1a00004 	mov	r0, r4
    8378:	eb001300 	bl	cf80 <xfree>
    837c:	e3a00000 	mov	r0, #0
    8380:	e8bd81f0 	pop	{r4, r5, r6, r7, r8, pc}
    8384:	e5d02034 	ldrb	r2, [r0, #52]	; 0x34
    8388:	e3a03000 	mov	r3, #0
    838c:	e1530003 	cmp	r3, r3
    8390:	e2801014 	add	r1, r0, #20
    8394:	03a03001 	moveq	r3, #1
    8398:	0580300c 	streq	r3, [r0, #12]
    839c:	e1a00005 	mov	r0, r5
    83a0:	e1520007 	cmp	r2, r7
    83a4:	31a07002 	movcc	r7, r2
    83a8:	e1a02007 	mov	r2, r7
    83ac:	eb001338 	bl	d094 <memcpy>
    83b0:	e5867000 	str	r7, [r6]
    83b4:	e3a00000 	mov	r0, #0
    83b8:	e8bd81f0 	pop	{r4, r5, r6, r7, r8, pc}
    83bc:	0000cfb8 			; <UNDEFINED> instruction: 0x0000cfb8
    83c0:	00015650 	andeq	r5, r1, r0, asr r6
    83c4:	00009004 	andeq	r9, r0, r4

000083c8 <filter_flush>:
    83c8:	e92d4030 	push	{r4, r5, lr}
    83cc:	e1a04000 	mov	r4, r0
    83d0:	e5d03000 	ldrb	r3, [r0]
    83d4:	e24dd014 	sub	sp, sp, #20
    83d8:	e59f20f4 	ldr	r2, [pc, #244]	; 84d4 <filter_flush+0x10c>
    83dc:	e3530003 	cmp	r3, #3
    83e0:	e08f2002 	add	r2, pc, r2
    83e4:	0a000021 	beq	8470 <filter_flush+0xa8>
    83e8:	e3530002 	cmp	r3, #2
    83ec:	1a00001a 	bne	845c <filter_flush+0x94>
    83f0:	e590502c 	ldr	r5, [r0, #44]	; 0x2c
    83f4:	e3550000 	cmp	r5, #0
    83f8:	0a000030 	beq	84c0 <filter_flush+0xf8>
    83fc:	e594101c 	ldr	r1, [r4, #28]
    8400:	e28d200c 	add	r2, sp, #12
    8404:	e5943020 	ldr	r3, [r4, #32]
    8408:	e58d100c 	str	r1, [sp, #12]
    840c:	e3a01004 	mov	r1, #4
    8410:	e58d2000 	str	r2, [sp]
    8414:	e594203c 	ldr	r2, [r4, #60]	; 0x3c
    8418:	e5940030 	ldr	r0, [r4, #48]	; 0x30
    841c:	e12fff35 	blx	r5
    8420:	e3500000 	cmp	r0, #0
    8424:	15840028 	strne	r0, [r4, #40]	; 0x28
    8428:	1a000007 	bne	844c <filter_flush+0x84>
    842c:	e594201c 	ldr	r2, [r4, #28]
    8430:	e59d300c 	ldr	r3, [sp, #12]
    8434:	e1520003 	cmp	r2, r3
    8438:	0a000003 	beq	844c <filter_flush+0x84>
    843c:	e59f0094 	ldr	r0, [pc, #148]	; 84d8 <filter_flush+0x110>
    8440:	e08f0000 	add	r0, pc, r0
    8444:	eb001afb 	bl	f038 <tfp_printf>
    8448:	e3a0003f 	mov	r0, #63	; 0x3f
    844c:	e3a03000 	mov	r3, #0
    8450:	e584301c 	str	r3, [r4, #28]
    8454:	e28dd014 	add	sp, sp, #20
    8458:	e8bd8030 	pop	{r4, r5, pc}
    845c:	e59f0078 	ldr	r0, [pc, #120]	; 84dc <filter_flush+0x114>
    8460:	e08f0000 	add	r0, pc, r0
    8464:	eb001af3 	bl	f038 <tfp_printf>
    8468:	e594502c 	ldr	r5, [r4, #44]	; 0x2c
    846c:	eaffffe2 	b	83fc <filter_flush+0x34>
    8470:	e59f3068 	ldr	r3, [pc, #104]	; 84e0 <filter_flush+0x118>
    8474:	e5901014 	ldr	r1, [r0, #20]
    8478:	e7923003 	ldr	r3, [r2, r3]
    847c:	e2815a02 	add	r5, r1, #8192	; 0x2000
    8480:	e5933000 	ldr	r3, [r3]
    8484:	e3530000 	cmp	r3, #0
    8488:	1a000007 	bne	84ac <filter_flush+0xe4>
    848c:	e5940020 	ldr	r0, [r4, #32]
    8490:	e1a01005 	mov	r1, r5
    8494:	eb001307 	bl	d0b8 <xrealloc>
    8498:	e5840020 	str	r0, [r4, #32]
    849c:	e3a00000 	mov	r0, #0
    84a0:	e5845014 	str	r5, [r4, #20]
    84a4:	e28dd014 	add	sp, sp, #20
    84a8:	e8bd8030 	pop	{r4, r5, pc}
    84ac:	e59f0030 	ldr	r0, [pc, #48]	; 84e4 <filter_flush+0x11c>
    84b0:	e1a02005 	mov	r2, r5
    84b4:	e08f0000 	add	r0, pc, r0
    84b8:	eb001ade 	bl	f038 <tfp_printf>
    84bc:	eafffff2 	b	848c <filter_flush+0xc4>
    84c0:	e59f0020 	ldr	r0, [pc, #32]	; 84e8 <filter_flush+0x120>
    84c4:	e08f0000 	add	r0, pc, r0
    84c8:	eb001ada 	bl	f038 <tfp_printf>
    84cc:	e594502c 	ldr	r5, [r4, #44]	; 0x2c
    84d0:	eaffffc9 	b	83fc <filter_flush+0x34>
    84d4:	0000ce4c 	andeq	ip, r0, ip, asr #28
    84d8:	00008fa8 	andeq	r8, r0, r8, lsr #31
    84dc:	00008f50 	andeq	r8, r0, r0, asr pc
    84e0:	00015650 	andeq	r5, r1, r0, asr r6
    84e4:	00008ed4 	ldrdeq	r8, [r0], -r4
    84e8:	00008f08 	andeq	r8, r0, r8, lsl #30

000084ec <print_chain.part.0>:
    84ec:	e92d4ff0 	push	{r4, r5, r6, r7, r8, r9, sl, fp, lr}
    84f0:	e2504000 	subs	r4, r0, #0
    84f4:	e24dd03c 	sub	sp, sp, #60	; 0x3c
    84f8:	0a000026 	beq	8598 <print_chain.part.0+0xac>
    84fc:	e59fb09c 	ldr	fp, [pc, #156]	; 85a0 <print_chain.part.0+0xb4>
    8500:	e28d6018 	add	r6, sp, #24
    8504:	e59fa098 	ldr	sl, [pc, #152]	; 85a4 <print_chain.part.0+0xb8>
    8508:	e3a09020 	mov	r9, #32
    850c:	e08fb00b 	add	fp, pc, fp
    8510:	e08fa00a 	add	sl, pc, sl
    8514:	ea000010 	b	855c <print_chain.part.0+0x70>
    8518:	e5940030 	ldr	r0, [r4, #48]	; 0x30
    851c:	e58dc000 	str	ip, [sp]
    8520:	e12fff35 	blx	r5
    8524:	e594201c 	ldr	r2, [r4, #28]
    8528:	e1a03006 	mov	r3, r6
    852c:	e1a01007 	mov	r1, r7
    8530:	e1a0000a 	mov	r0, sl
    8534:	e58d2008 	str	r2, [sp, #8]
    8538:	e5942018 	ldr	r2, [r4, #24]
    853c:	e58d2004 	str	r2, [sp, #4]
    8540:	e5942024 	ldr	r2, [r4, #36]	; 0x24
    8544:	e58d2000 	str	r2, [sp]
    8548:	e1a02008 	mov	r2, r8
    854c:	eb001ab9 	bl	f038 <tfp_printf>
    8550:	e594403c 	ldr	r4, [r4, #60]	; 0x3c
    8554:	e3540000 	cmp	r4, #0
    8558:	0a00000e 	beq	8598 <print_chain.part.0+0xac>
    855c:	e594502c 	ldr	r5, [r4, #44]	; 0x2c
    8560:	e28dc014 	add	ip, sp, #20
    8564:	e5947040 	ldr	r7, [r4, #64]	; 0x40
    8568:	e1a03006 	mov	r3, r6
    856c:	e5948044 	ldr	r8, [r4, #68]	; 0x44
    8570:	e3550000 	cmp	r5, #0
    8574:	e58d9014 	str	r9, [sp, #20]
    8578:	e3a02000 	mov	r2, #0
    857c:	e3a01005 	mov	r1, #5
    8580:	1affffe4 	bne	8518 <print_chain.part.0+0x2c>
    8584:	e3a02002 	mov	r2, #2
    8588:	e1a0100b 	mov	r1, fp
    858c:	e1a00006 	mov	r0, r6
    8590:	eb0012bf 	bl	d094 <memcpy>
    8594:	eaffffe2 	b	8524 <print_chain.part.0+0x38>
    8598:	e28dd03c 	add	sp, sp, #60	; 0x3c
    859c:	e8bd8ff0 	pop	{r4, r5, r6, r7, r8, r9, sl, fp, pc}
    85a0:	00008f00 	andeq	r8, r0, r0, lsl #30
    85a4:	00008f00 	andeq	r8, r0, r0, lsl #30

000085a8 <fd_cache_open>:
    85a8:	e92d4070 	push	{r4, r5, r6, lr}
    85ac:	e1a04000 	mov	r4, r0
    85b0:	e59f0090 	ldr	r0, [pc, #144]	; 8648 <fd_cache_open+0xa0>
    85b4:	e1a05001 	mov	r5, r1
    85b8:	e1a01004 	mov	r1, r4
    85bc:	e08f0000 	add	r0, pc, r0
    85c0:	eb001a9c 	bl	f038 <tfp_printf>
    85c4:	e3a0102b 	mov	r1, #43	; 0x2b
    85c8:	e1a00005 	mov	r0, r5
    85cc:	eb001311 	bl	d218 <strchr>
    85d0:	e3500000 	cmp	r0, #0
    85d4:	0a000010 	beq	861c <fd_cache_open+0x74>
    85d8:	e1a00004 	mov	r0, r4
    85dc:	ebffff07 	bl	8200 <fd_cache_invalidate>
    85e0:	e3500000 	cmp	r0, #0
    85e4:	03a06002 	moveq	r6, #2
    85e8:	1a000009 	bne	8614 <fd_cache_open+0x6c>
    85ec:	e3a01062 	mov	r1, #98	; 0x62
    85f0:	e1a00005 	mov	r0, r5
    85f4:	eb001307 	bl	d218 <strchr>
    85f8:	e3500000 	cmp	r0, #0
    85fc:	e30021b6 	movw	r2, #438	; 0x1b6
    8600:	13866801 	orrne	r6, r6, #65536	; 0x10000
    8604:	e1a00004 	mov	r0, r4
    8608:	e1a01006 	mov	r1, r6
    860c:	e8bd4070 	pop	{r4, r5, r6, lr}
    8610:	ea00131c 	b	d288 <open>
    8614:	e3e00000 	mvn	r0, #0
    8618:	e8bd8070 	pop	{r4, r5, r6, pc}
    861c:	e3a01077 	mov	r1, #119	; 0x77
    8620:	e1a00005 	mov	r0, r5
    8624:	eb0012fb 	bl	d218 <strchr>
    8628:	e2506000 	subs	r6, r0, #0
    862c:	0affffee 	beq	85ec <fd_cache_open+0x44>
    8630:	e1a00004 	mov	r0, r4
    8634:	ebfffef1 	bl	8200 <fd_cache_invalidate>
    8638:	e3500000 	cmp	r0, #0
    863c:	1afffff4 	bne	8614 <fd_cache_open+0x6c>
    8640:	e3006601 	movw	r6, #1537	; 0x601
    8644:	eaffffe8 	b	85ec <fd_cache_open+0x44>
    8648:	00008e8c 	andeq	r8, r0, ip, lsl #29

0000864c <iobuf_alloc>:
    864c:	e1a03000 	mov	r3, r0
    8650:	e92d4030 	push	{r4, r5, lr}
    8654:	e24dd00c 	sub	sp, sp, #12
    8658:	e59f0098 	ldr	r0, [pc, #152]	; 86f8 <iobuf_alloc+0xac>
    865c:	e3530003 	cmp	r3, #3
    8660:	e58d1004 	str	r1, [sp, #4]
    8664:	83a02000 	movhi	r2, #0
    8668:	e08f0000 	add	r0, pc, r0
    866c:	e1a01003 	mov	r1, r3
    8670:	93a02001 	movls	r2, #1
    8674:	e1a05003 	mov	r5, r3
    8678:	eb001a6e 	bl	f038 <tfp_printf>
    867c:	e59d3004 	ldr	r3, [sp, #4]
    8680:	e3530000 	cmp	r3, #0
    8684:	0a000015 	beq	86e0 <iobuf_alloc+0x94>
    8688:	e3a01048 	mov	r1, #72	; 0x48
    868c:	e3a00001 	mov	r0, #1
    8690:	eb00126e 	bl	d050 <xcalloc>
    8694:	e1a04000 	mov	r4, r0
    8698:	e59d0004 	ldr	r0, [sp, #4]
    869c:	e5c45000 	strb	r5, [r4]
    86a0:	eb001242 	bl	cfb0 <xmalloc>
    86a4:	e59f2050 	ldr	r2, [pc, #80]	; 86fc <iobuf_alloc+0xb0>
    86a8:	e3a01000 	mov	r1, #0
    86ac:	e59d3004 	ldr	r3, [sp, #4]
    86b0:	e08f2002 	add	r2, pc, r2
    86b4:	e5843014 	str	r3, [r4, #20]
    86b8:	e5923000 	ldr	r3, [r2]
    86bc:	e5840020 	str	r0, [r4, #32]
    86c0:	e1a00004 	mov	r0, r4
    86c4:	e5841044 	str	r1, [r4, #68]	; 0x44
    86c8:	e2833001 	add	r3, r3, #1
    86cc:	e5841038 	str	r1, [r4, #56]	; 0x38
    86d0:	e5823000 	str	r3, [r2]
    86d4:	e5843040 	str	r3, [r4, #64]	; 0x40
    86d8:	e28dd00c 	add	sp, sp, #12
    86dc:	e8bd8030 	pop	{r4, r5, pc}
    86e0:	e59f0018 	ldr	r0, [pc, #24]	; 8700 <iobuf_alloc+0xb4>
    86e4:	e3a03a02 	mov	r3, #8192	; 0x2000
    86e8:	e58d3004 	str	r3, [sp, #4]
    86ec:	e08f0000 	add	r0, pc, r0
    86f0:	eb001a50 	bl	f038 <tfp_printf>
    86f4:	eaffffe3 	b	8688 <iobuf_alloc+0x3c>
    86f8:	00008e00 	andeq	r8, r0, r0, lsl #28
    86fc:	0002294c 	andeq	r2, r2, ip, asr #18
    8700:	00008d94 	muleq	r0, r4, sp

00008704 <iobuf_temp_with_content>:
    8704:	e92d4070 	push	{r4, r5, r6, lr}
    8708:	e1a04000 	mov	r4, r0
    870c:	e3a00001 	mov	r0, #1
    8710:	e1a06001 	mov	r6, r1
    8714:	ebffffcc 	bl	864c <iobuf_alloc>
    8718:	e1a05000 	mov	r5, r0
    871c:	e59f0044 	ldr	r0, [pc, #68]	; 8768 <iobuf_temp_with_content+0x64>
    8720:	e5951014 	ldr	r1, [r5, #20]
    8724:	e08f0000 	add	r0, pc, r0
    8728:	eb001a42 	bl	f038 <tfp_printf>
    872c:	e3560000 	cmp	r6, #0
    8730:	0a000009 	beq	875c <iobuf_temp_with_content+0x58>
    8734:	e0841006 	add	r1, r4, r6
    8738:	e2443001 	sub	r3, r4, #1
    873c:	e2411001 	sub	r1, r1, #1
    8740:	e2644001 	rsb	r4, r4, #1
    8744:	e0842003 	add	r2, r4, r3
    8748:	e5f3e001 	ldrb	lr, [r3, #1]!
    874c:	e595c020 	ldr	ip, [r5, #32]
    8750:	e1530001 	cmp	r3, r1
    8754:	e7cce002 	strb	lr, [ip, r2]
    8758:	1afffff9 	bne	8744 <iobuf_temp_with_content+0x40>
    875c:	e585601c 	str	r6, [r5, #28]
    8760:	e1a00005 	mov	r0, r5
    8764:	e8bd8070 	pop	{r4, r5, r6, pc}
    8768:	00008d84 	andeq	r8, r0, r4, lsl #27

0000876c <iobuf_ioctl>:
    876c:	e92d4ff0 	push	{r4, r5, r6, r7, r8, r9, sl, fp, lr}
    8770:	e1a04000 	mov	r4, r0
    8774:	e59f0418 	ldr	r0, [pc, #1048]	; 8b94 <iobuf_ioctl+0x428>
    8778:	e1a05001 	mov	r5, r1
    877c:	e59f8414 	ldr	r8, [pc, #1044]	; 8b98 <iobuf_ioctl+0x42c>
    8780:	e24dd034 	sub	sp, sp, #52	; 0x34
    8784:	e08f0000 	add	r0, pc, r0
    8788:	e1a06002 	mov	r6, r2
    878c:	e08f8008 	add	r8, pc, r8
    8790:	e1a07003 	mov	r7, r3
    8794:	eb001a27 	bl	f038 <tfp_printf>
    8798:	e3550001 	cmp	r5, #1
    879c:	0a000057 	beq	8900 <iobuf_ioctl+0x194>
    87a0:	e3550002 	cmp	r5, #2
    87a4:	0a000039 	beq	8890 <iobuf_ioctl+0x124>
    87a8:	e3550003 	cmp	r5, #3
    87ac:	0a000097 	beq	8a10 <iobuf_ioctl+0x2a4>
    87b0:	e3550004 	cmp	r5, #4
    87b4:	0a00007f 	beq	89b8 <iobuf_ioctl+0x24c>
    87b8:	e3550005 	cmp	r5, #5
    87bc:	1a00004c 	bne	88f4 <iobuf_ioctl+0x188>
    87c0:	e59f33d4 	ldr	r3, [pc, #980]	; 8b9c <iobuf_ioctl+0x430>
    87c4:	e7983003 	ldr	r3, [r8, r3]
    87c8:	e5933000 	ldr	r3, [r3]
    87cc:	e3530000 	cmp	r3, #0
    87d0:	0a000016 	beq	8830 <iobuf_ioctl+0xc4>
    87d4:	e3540000 	cmp	r4, #0
    87d8:	0a0000d9 	beq	8b44 <iobuf_ioctl+0x3d8>
    87dc:	e594a02c 	ldr	sl, [r4, #44]	; 0x2c
    87e0:	e3a03020 	mov	r3, #32
    87e4:	e594b040 	ldr	fp, [r4, #64]	; 0x40
    87e8:	e5949044 	ldr	r9, [r4, #68]	; 0x44
    87ec:	e35a0000 	cmp	sl, #0
    87f0:	e58d300c 	str	r3, [sp, #12]
    87f4:	0a0000d6 	beq	8b54 <iobuf_ioctl+0x3e8>
    87f8:	e5940030 	ldr	r0, [r4, #48]	; 0x30
    87fc:	e28d300c 	add	r3, sp, #12
    8800:	e58d3000 	str	r3, [sp]
    8804:	e1a01005 	mov	r1, r5
    8808:	e28d5010 	add	r5, sp, #16
    880c:	e3a02000 	mov	r2, #0
    8810:	e1a03005 	mov	r3, r5
    8814:	e12fff3a 	blx	sl
    8818:	e59f0380 	ldr	r0, [pc, #896]	; 8ba0 <iobuf_ioctl+0x434>
    881c:	e1a03005 	mov	r3, r5
    8820:	e1a02009 	mov	r2, r9
    8824:	e1a0100b 	mov	r1, fp
    8828:	e08f0000 	add	r0, pc, r0
    882c:	eb001a01 	bl	f038 <tfp_printf>
    8830:	e59f336c 	ldr	r3, [pc, #876]	; 8ba4 <iobuf_ioctl+0x438>
    8834:	e594202c 	ldr	r2, [r4, #44]	; 0x2c
    8838:	e7983003 	ldr	r3, [r8, r3]
    883c:	e1520003 	cmp	r2, r3
    8840:	1a00002b 	bne	88f4 <iobuf_ioctl+0x188>
    8844:	e3570000 	cmp	r7, #0
    8848:	13560000 	cmpne	r6, #0
    884c:	0a000028 	beq	88f4 <iobuf_ioctl+0x188>
    8850:	e59f0350 	ldr	r0, [pc, #848]	; 8ba8 <iobuf_ioctl+0x43c>
    8854:	e08f0000 	add	r0, pc, r0
    8858:	eb0019f6 	bl	f038 <tfp_printf>
    885c:	e5940030 	ldr	r0, [r4, #48]	; 0x30
    8860:	e28d300c 	add	r3, sp, #12
    8864:	e58d3000 	str	r3, [sp]
    8868:	e3a02000 	mov	r2, #0
    886c:	e58d600c 	str	r6, [sp, #12]
    8870:	e1a03007 	mov	r3, r7
    8874:	e3a01007 	mov	r1, #7
    8878:	ebfffe76 	bl	8258 <file_filter>
    887c:	e3500000 	cmp	r0, #0
    8880:	1a00001b 	bne	88f4 <iobuf_ioctl+0x188>
    8884:	e59d000c 	ldr	r0, [sp, #12]
    8888:	e28dd034 	add	sp, sp, #52	; 0x34
    888c:	e8bd8ff0 	pop	{r4, r5, r6, r7, r8, r9, sl, fp, pc}
    8890:	e59f3304 	ldr	r3, [pc, #772]	; 8b9c <iobuf_ioctl+0x430>
    8894:	e7983003 	ldr	r3, [r8, r3]
    8898:	e5933000 	ldr	r3, [r3]
    889c:	e3530000 	cmp	r3, #0
    88a0:	1a00003d 	bne	899c <iobuf_ioctl+0x230>
    88a4:	e2573000 	subs	r3, r7, #0
    88a8:	e1844006 	orr	r4, r4, r6
    88ac:	13a03001 	movne	r3, #1
    88b0:	e3540000 	cmp	r4, #0
    88b4:	13a03000 	movne	r3, #0
    88b8:	e3530000 	cmp	r3, #0
    88bc:	0a00000c 	beq	88f4 <iobuf_ioctl+0x188>
    88c0:	e1a00007 	mov	r0, r7
    88c4:	ebfffe4d 	bl	8200 <fd_cache_invalidate>
    88c8:	e2500000 	subs	r0, r0, #0
    88cc:	13a00001 	movne	r0, #1
    88d0:	e2600000 	rsb	r0, r0, #0
    88d4:	e28dd034 	add	sp, sp, #52	; 0x34
    88d8:	e8bd8ff0 	pop	{r4, r5, r6, r7, r8, r9, sl, fp, pc}
    88dc:	e594003c 	ldr	r0, [r4, #60]	; 0x3c
    88e0:	e3500000 	cmp	r0, #0
    88e4:	0a000023 	beq	8978 <iobuf_ioctl+0x20c>
    88e8:	e1a04000 	mov	r4, r0
    88ec:	e3540000 	cmp	r4, #0
    88f0:	1afffff9 	bne	88dc <iobuf_ioctl+0x170>
    88f4:	e3e00000 	mvn	r0, #0
    88f8:	e28dd034 	add	sp, sp, #52	; 0x34
    88fc:	e8bd8ff0 	pop	{r4, r5, r6, r7, r8, r9, sl, fp, pc}
    8900:	e59f3294 	ldr	r3, [pc, #660]	; 8b9c <iobuf_ioctl+0x430>
    8904:	e7983003 	ldr	r3, [r8, r3]
    8908:	e5933000 	ldr	r3, [r3]
    890c:	e3530000 	cmp	r3, #0
    8910:	0afffff5 	beq	88ec <iobuf_ioctl+0x180>
    8914:	e3540000 	cmp	r4, #0
    8918:	0a00006b 	beq	8acc <iobuf_ioctl+0x360>
    891c:	e594902c 	ldr	r9, [r4, #44]	; 0x2c
    8920:	e3a03020 	mov	r3, #32
    8924:	e594a040 	ldr	sl, [r4, #64]	; 0x40
    8928:	e5947044 	ldr	r7, [r4, #68]	; 0x44
    892c:	e3590000 	cmp	r9, #0
    8930:	e58d300c 	str	r3, [sp, #12]
    8934:	0a000068 	beq	8adc <iobuf_ioctl+0x370>
    8938:	e5940030 	ldr	r0, [r4, #48]	; 0x30
    893c:	e28d300c 	add	r3, sp, #12
    8940:	e58d3000 	str	r3, [sp]
    8944:	e28d5010 	add	r5, sp, #16
    8948:	e1a03005 	mov	r3, r5
    894c:	e3a02000 	mov	r2, #0
    8950:	e3a01005 	mov	r1, #5
    8954:	e12fff39 	blx	r9
    8958:	e59f024c 	ldr	r0, [pc, #588]	; 8bac <iobuf_ioctl+0x440>
    895c:	e1a03005 	mov	r3, r5
    8960:	e58d6000 	str	r6, [sp]
    8964:	e1a02007 	mov	r2, r7
    8968:	e08f0000 	add	r0, pc, r0
    896c:	e1a0100a 	mov	r1, sl
    8970:	eb0019b0 	bl	f038 <tfp_printf>
    8974:	eaffffdc 	b	88ec <iobuf_ioctl+0x180>
    8978:	e59f3224 	ldr	r3, [pc, #548]	; 8ba4 <iobuf_ioctl+0x438>
    897c:	e594202c 	ldr	r2, [r4, #44]	; 0x2c
    8980:	e7983003 	ldr	r3, [r8, r3]
    8984:	e1520003 	cmp	r2, r3
    8988:	05943030 	ldreq	r3, [r4, #48]	; 0x30
    898c:	05836004 	streq	r6, [r3, #4]
    8990:	0affffcf 	beq	88d4 <iobuf_ioctl+0x168>
    8994:	e3e00000 	mvn	r0, #0
    8998:	eaffffd6 	b	88f8 <iobuf_ioctl+0x18c>
    899c:	e3570000 	cmp	r7, #0
    89a0:	11a01007 	movne	r1, r7
    89a4:	0a000071 	beq	8b70 <iobuf_ioctl+0x404>
    89a8:	e59f0200 	ldr	r0, [pc, #512]	; 8bb0 <iobuf_ioctl+0x444>
    89ac:	e08f0000 	add	r0, pc, r0
    89b0:	eb0019a0 	bl	f038 <tfp_printf>
    89b4:	eaffffba 	b	88a4 <iobuf_ioctl+0x138>
    89b8:	e59f31dc 	ldr	r3, [pc, #476]	; 8b9c <iobuf_ioctl+0x430>
    89bc:	e7985003 	ldr	r5, [r8, r3]
    89c0:	e5950000 	ldr	r0, [r5]
    89c4:	e3500000 	cmp	r0, #0
    89c8:	0a00004a 	beq	8af8 <iobuf_ioctl+0x38c>
    89cc:	e3570000 	cmp	r7, #0
    89d0:	0a000069 	beq	8b7c <iobuf_ioctl+0x410>
    89d4:	e59f01d8 	ldr	r0, [pc, #472]	; 8bb4 <iobuf_ioctl+0x448>
    89d8:	e1a01007 	mov	r1, r7
    89dc:	e08f0000 	add	r0, pc, r0
    89e0:	eb001994 	bl	f038 <tfp_printf>
    89e4:	e1943006 	orrs	r3, r4, r6
    89e8:	1affffc1 	bne	88f4 <iobuf_ioctl+0x188>
    89ec:	e5950000 	ldr	r0, [r5]
    89f0:	e3500000 	cmp	r0, #0
    89f4:	0affffb6 	beq	88d4 <iobuf_ioctl+0x168>
    89f8:	e59f01b8 	ldr	r0, [pc, #440]	; 8bb8 <iobuf_ioctl+0x44c>
    89fc:	e1a01007 	mov	r1, r7
    8a00:	e08f0000 	add	r0, pc, r0
    8a04:	eb00198b 	bl	f038 <tfp_printf>
    8a08:	e3a00000 	mov	r0, #0
    8a0c:	eaffffb0 	b	88d4 <iobuf_ioctl+0x168>
    8a10:	e59f3184 	ldr	r3, [pc, #388]	; 8b9c <iobuf_ioctl+0x430>
    8a14:	e7983003 	ldr	r3, [r8, r3]
    8a18:	e5933000 	ldr	r3, [r3]
    8a1c:	e3530000 	cmp	r3, #0
    8a20:	0a00001c 	beq	8a98 <iobuf_ioctl+0x32c>
    8a24:	e3540000 	cmp	r4, #0
    8a28:	0a00003a 	beq	8b18 <iobuf_ioctl+0x3ac>
    8a2c:	e594902c 	ldr	r9, [r4, #44]	; 0x2c
    8a30:	e3a03020 	mov	r3, #32
    8a34:	e594a040 	ldr	sl, [r4, #64]	; 0x40
    8a38:	e5947044 	ldr	r7, [r4, #68]	; 0x44
    8a3c:	e3590000 	cmp	r9, #0
    8a40:	e58d300c 	str	r3, [sp, #12]
    8a44:	0a000037 	beq	8b28 <iobuf_ioctl+0x3bc>
    8a48:	e5940030 	ldr	r0, [r4, #48]	; 0x30
    8a4c:	e28d300c 	add	r3, sp, #12
    8a50:	e58d3000 	str	r3, [sp]
    8a54:	e28d5010 	add	r5, sp, #16
    8a58:	e1a03005 	mov	r3, r5
    8a5c:	e3a02000 	mov	r2, #0
    8a60:	e3a01005 	mov	r1, #5
    8a64:	e12fff39 	blx	r9
    8a68:	e59f014c 	ldr	r0, [pc, #332]	; 8bbc <iobuf_ioctl+0x450>
    8a6c:	e1a03005 	mov	r3, r5
    8a70:	e58d6000 	str	r6, [sp]
    8a74:	e1a02007 	mov	r2, r7
    8a78:	e08f0000 	add	r0, pc, r0
    8a7c:	e1a0100a 	mov	r1, sl
    8a80:	eb00196c 	bl	f038 <tfp_printf>
    8a84:	ea000003 	b	8a98 <iobuf_ioctl+0x32c>
    8a88:	e594303c 	ldr	r3, [r4, #60]	; 0x3c
    8a8c:	e3530000 	cmp	r3, #0
    8a90:	0a000003 	beq	8aa4 <iobuf_ioctl+0x338>
    8a94:	e1a04003 	mov	r4, r3
    8a98:	e3540000 	cmp	r4, #0
    8a9c:	1afffff9 	bne	8a88 <iobuf_ioctl+0x31c>
    8aa0:	eaffff93 	b	88f4 <iobuf_ioctl+0x188>
    8aa4:	e59f20f8 	ldr	r2, [pc, #248]	; 8ba4 <iobuf_ioctl+0x438>
    8aa8:	e594102c 	ldr	r1, [r4, #44]	; 0x2c
    8aac:	e7982002 	ldr	r2, [r8, r2]
    8ab0:	e1510002 	cmp	r1, r2
    8ab4:	01a00003 	moveq	r0, r3
    8ab8:	05942030 	ldreq	r2, [r4, #48]	; 0x30
    8abc:	05826008 	streq	r6, [r2, #8]
    8ac0:	0affff83 	beq	88d4 <iobuf_ioctl+0x168>
    8ac4:	e3e00000 	mvn	r0, #0
    8ac8:	eaffff8a 	b	88f8 <iobuf_ioctl+0x18c>
    8acc:	e3e07000 	mvn	r7, #0
    8ad0:	e3a03020 	mov	r3, #32
    8ad4:	e58d300c 	str	r3, [sp, #12]
    8ad8:	e1a0a007 	mov	sl, r7
    8adc:	e59f10dc 	ldr	r1, [pc, #220]	; 8bc0 <iobuf_ioctl+0x454>
    8ae0:	e28d5010 	add	r5, sp, #16
    8ae4:	e3a02002 	mov	r2, #2
    8ae8:	e1a00005 	mov	r0, r5
    8aec:	e08f1001 	add	r1, pc, r1
    8af0:	eb001167 	bl	d094 <memcpy>
    8af4:	eaffff97 	b	8958 <iobuf_ioctl+0x1ec>
    8af8:	e2577000 	subs	r7, r7, #0
    8afc:	e1844006 	orr	r4, r4, r6
    8b00:	13a07001 	movne	r7, #1
    8b04:	e3540000 	cmp	r4, #0
    8b08:	13a07000 	movne	r7, #0
    8b0c:	e3570000 	cmp	r7, #0
    8b10:	1affff6f 	bne	88d4 <iobuf_ioctl+0x168>
    8b14:	eaffff76 	b	88f4 <iobuf_ioctl+0x188>
    8b18:	e3e07000 	mvn	r7, #0
    8b1c:	e3a03020 	mov	r3, #32
    8b20:	e58d300c 	str	r3, [sp, #12]
    8b24:	e1a0a007 	mov	sl, r7
    8b28:	e59f1094 	ldr	r1, [pc, #148]	; 8bc4 <iobuf_ioctl+0x458>
    8b2c:	e28d5010 	add	r5, sp, #16
    8b30:	e3a02002 	mov	r2, #2
    8b34:	e1a00005 	mov	r0, r5
    8b38:	e08f1001 	add	r1, pc, r1
    8b3c:	eb001154 	bl	d094 <memcpy>
    8b40:	eaffffc8 	b	8a68 <iobuf_ioctl+0x2fc>
    8b44:	e3e09000 	mvn	r9, #0
    8b48:	e3a03020 	mov	r3, #32
    8b4c:	e58d300c 	str	r3, [sp, #12]
    8b50:	e1a0b009 	mov	fp, r9
    8b54:	e59f106c 	ldr	r1, [pc, #108]	; 8bc8 <iobuf_ioctl+0x45c>
    8b58:	e28d5010 	add	r5, sp, #16
    8b5c:	e3a02002 	mov	r2, #2
    8b60:	e1a00005 	mov	r0, r5
    8b64:	e08f1001 	add	r1, pc, r1
    8b68:	eb001149 	bl	d094 <memcpy>
    8b6c:	eaffff29 	b	8818 <iobuf_ioctl+0xac>
    8b70:	e59f1054 	ldr	r1, [pc, #84]	; 8bcc <iobuf_ioctl+0x460>
    8b74:	e08f1001 	add	r1, pc, r1
    8b78:	eaffff8a 	b	89a8 <iobuf_ioctl+0x23c>
    8b7c:	e59f104c 	ldr	r1, [pc, #76]	; 8bd0 <iobuf_ioctl+0x464>
    8b80:	e59f004c 	ldr	r0, [pc, #76]	; 8bd4 <iobuf_ioctl+0x468>
    8b84:	e08f1001 	add	r1, pc, r1
    8b88:	e08f0000 	add	r0, pc, r0
    8b8c:	eb001929 	bl	f038 <tfp_printf>
    8b90:	eaffff57 	b	88f4 <iobuf_ioctl+0x188>
    8b94:	00008d48 	andeq	r8, r0, r8, asr #26
    8b98:	0000caa0 	andeq	ip, r0, r0, lsr #21
    8b9c:	00015650 	andeq	r5, r1, r0, asr r6
    8ba0:	00008d6c 	andeq	r8, r0, ip, ror #26
    8ba4:	00015668 	andeq	r5, r1, r8, ror #12
    8ba8:	00008d60 	andeq	r8, r0, r0, ror #26
    8bac:	00008b7c 	andeq	r8, r0, ip, ror fp
    8bb0:	00008b60 	andeq	r8, r0, r0, ror #22
    8bb4:	00008b7c 	andeq	r8, r0, ip, ror fp
    8bb8:	00008b78 	andeq	r8, r0, r8, ror fp
    8bbc:	00008ab8 			; <UNDEFINED> instruction: 0x00008ab8
    8bc0:	00008920 	andeq	r8, r0, r0, lsr #18
    8bc4:	000088d4 	ldrdeq	r8, [r0], -r4
    8bc8:	000088a8 	andeq	r8, r0, r8, lsr #17
    8bcc:	00008898 	muleq	r0, r8, r8
    8bd0:	00008a4c 	andeq	r8, r0, ip, asr #20
    8bd4:	000089d0 	ldrdeq	r8, [r0], -r0

00008bd8 <iobuf_fdopen>:
    8bd8:	e1a03001 	mov	r3, r1
    8bdc:	e3a01077 	mov	r1, #119	; 0x77
    8be0:	e92d43f0 	push	{r4, r5, r6, r7, r8, r9, lr}
    8be4:	e1a07000 	mov	r7, r0
    8be8:	e59f60dc 	ldr	r6, [pc, #220]	; 8ccc <iobuf_fdopen+0xf4>
    8bec:	e24dd014 	sub	sp, sp, #20
    8bf0:	e1a00003 	mov	r0, r3
    8bf4:	e3a08000 	mov	r8, #0
    8bf8:	e08f6006 	add	r6, pc, r6
    8bfc:	eb001185 	bl	d218 <strchr>
    8c00:	e3500000 	cmp	r0, #0
    8c04:	e3a01a02 	mov	r1, #8192	; 0x2000
    8c08:	13a00002 	movne	r0, #2
    8c0c:	01a00008 	moveq	r0, r8
    8c10:	e3a09001 	mov	r9, #1
    8c14:	ebfffe8c 	bl	864c <iobuf_alloc>
    8c18:	e1a05000 	mov	r5, r0
    8c1c:	e3a0004c 	mov	r0, #76	; 0x4c
    8c20:	eb0010e2 	bl	cfb0 <xmalloc>
    8c24:	e59f10a4 	ldr	r1, [pc, #164]	; 8cd0 <iobuf_fdopen+0xf8>
    8c28:	e1a02007 	mov	r2, r7
    8c2c:	e5807000 	str	r7, [r0]
    8c30:	e2807036 	add	r7, r0, #54	; 0x36
    8c34:	e08f1001 	add	r1, pc, r1
    8c38:	e1a04000 	mov	r4, r0
    8c3c:	e5809010 	str	r9, [r0, #16]
    8c40:	e5808004 	str	r8, [r0, #4]
    8c44:	e1a00007 	mov	r0, r7
    8c48:	eb00190d 	bl	f084 <tfp_sprintf>
    8c4c:	e59f3080 	ldr	r3, [pc, #128]	; 8cd4 <iobuf_fdopen+0xfc>
    8c50:	e1a01009 	mov	r1, r9
    8c54:	e1a00004 	mov	r0, r4
    8c58:	e1a02008 	mov	r2, r8
    8c5c:	e7963003 	ldr	r3, [r6, r3]
    8c60:	e5854030 	str	r4, [r5, #48]	; 0x30
    8c64:	e585302c 	str	r3, [r5, #44]	; 0x2c
    8c68:	e28d300c 	add	r3, sp, #12
    8c6c:	e58d3000 	str	r3, [sp]
    8c70:	e1a03008 	mov	r3, r8
    8c74:	ebfffd77 	bl	8258 <file_filter>
    8c78:	e59f3058 	ldr	r3, [pc, #88]	; 8cd8 <iobuf_fdopen+0x100>
    8c7c:	e7963003 	ldr	r3, [r6, r3]
    8c80:	e5933000 	ldr	r3, [r3]
    8c84:	e1530008 	cmp	r3, r8
    8c88:	0a000007 	beq	8cac <iobuf_fdopen+0xd4>
    8c8c:	e59f3048 	ldr	r3, [pc, #72]	; 8cdc <iobuf_fdopen+0x104>
    8c90:	e59f0048 	ldr	r0, [pc, #72]	; 8ce0 <iobuf_fdopen+0x108>
    8c94:	e5952044 	ldr	r2, [r5, #68]	; 0x44
    8c98:	e5951040 	ldr	r1, [r5, #64]	; 0x40
    8c9c:	e08f3003 	add	r3, pc, r3
    8ca0:	e08f0000 	add	r0, pc, r0
    8ca4:	e58d7000 	str	r7, [sp]
    8ca8:	eb0018e2 	bl	f038 <tfp_printf>
    8cac:	e3a03000 	mov	r3, #0
    8cb0:	e3a02001 	mov	r2, #1
    8cb4:	e3a01003 	mov	r1, #3
    8cb8:	e1a00005 	mov	r0, r5
    8cbc:	ebfffeaa 	bl	876c <iobuf_ioctl>
    8cc0:	e1a00005 	mov	r0, r5
    8cc4:	e28dd014 	add	sp, sp, #20
    8cc8:	e8bd83f0 	pop	{r4, r5, r6, r7, r8, r9, pc}
    8ccc:	0000c634 	andeq	ip, r0, r4, lsr r6
    8cd0:	000089a4 	andeq	r8, r0, r4, lsr #19
    8cd4:	00015668 	andeq	r5, r1, r8, ror #12
    8cd8:	00015650 	andeq	r5, r1, r0, asr r6
    8cdc:	00009144 	andeq	r9, r0, r4, asr #2
    8ce0:	00008940 	andeq	r8, r0, r0, asr #18

00008ce4 <iobuf_push_filter2>:
    8ce4:	e92d43f0 	push	{r4, r5, r6, r7, r8, r9, lr}
    8ce8:	e24dd034 	sub	sp, sp, #52	; 0x34
    8cec:	e5d0c000 	ldrb	ip, [r0]
    8cf0:	e1a09003 	mov	r9, r3
    8cf4:	e59f81bc 	ldr	r8, [pc, #444]	; 8eb8 <iobuf_push_filter2+0x1d4>
    8cf8:	e3a03000 	mov	r3, #0
    8cfc:	e58d3008 	str	r3, [sp, #8]
    8d00:	e35c0002 	cmp	ip, #2
    8d04:	e08f8008 	add	r8, pc, r8
    8d08:	e1a04000 	mov	r4, r0
    8d0c:	e1a05001 	mov	r5, r1
    8d10:	e1a07002 	mov	r7, r2
    8d14:	0a00005c 	beq	8e8c <iobuf_push_filter2+0x1a8>
    8d18:	e5943044 	ldr	r3, [r4, #68]	; 0x44
    8d1c:	e353003f 	cmp	r3, #63	; 0x3f
    8d20:	ca000039 	bgt	8e0c <iobuf_push_filter2+0x128>
    8d24:	e3a00048 	mov	r0, #72	; 0x48
    8d28:	eb0010a0 	bl	cfb0 <xmalloc>
    8d2c:	e3a02048 	mov	r2, #72	; 0x48
    8d30:	e1a01004 	mov	r1, r4
    8d34:	e1a06000 	mov	r6, r0
    8d38:	eb0010d5 	bl	d094 <memcpy>
    8d3c:	e5d42000 	ldrb	r2, [r4]
    8d40:	e3a03000 	mov	r3, #0
    8d44:	e584302c 	str	r3, [r4, #44]	; 0x2c
    8d48:	e5843030 	str	r3, [r4, #48]	; 0x30
    8d4c:	e3520003 	cmp	r2, #3
    8d50:	e5843034 	str	r3, [r4, #52]	; 0x34
    8d54:	e5843024 	str	r3, [r4, #36]	; 0x24
    8d58:	0a000026 	beq	8df8 <iobuf_push_filter2+0x114>
    8d5c:	e3520001 	cmp	r2, #1
    8d60:	05c43000 	strbeq	r3, [r4]
    8d64:	03a00a02 	moveq	r0, #8192	; 0x2000
    8d68:	15940014 	ldrne	r0, [r4, #20]
    8d6c:	05840014 	streq	r0, [r4, #20]
    8d70:	eb00108e 	bl	cfb0 <xmalloc>
    8d74:	e1c620d8 	ldrd	r2, [r6, #8]
    8d78:	e584603c 	str	r6, [r4, #60]	; 0x3c
    8d7c:	e5966044 	ldr	r6, [r6, #68]	; 0x44
    8d80:	e0833002 	add	r3, r3, r2
    8d84:	e59f2130 	ldr	r2, [pc, #304]	; 8ebc <iobuf_push_filter2+0x1d8>
    8d88:	e2866001 	add	r6, r6, #1
    8d8c:	e584300c 	str	r3, [r4, #12]
    8d90:	e3a03000 	mov	r3, #0
    8d94:	e5840020 	str	r0, [r4, #32]
    8d98:	e5849034 	str	r9, [r4, #52]	; 0x34
    8d9c:	e584502c 	str	r5, [r4, #44]	; 0x2c
    8da0:	e5847030 	str	r7, [r4, #48]	; 0x30
    8da4:	e5846044 	str	r6, [r4, #68]	; 0x44
    8da8:	e584301c 	str	r3, [r4, #28]
    8dac:	e5843018 	str	r3, [r4, #24]
    8db0:	e5843008 	str	r3, [r4, #8]
    8db4:	e5843004 	str	r3, [r4, #4]
    8db8:	e5843010 	str	r3, [r4, #16]
    8dbc:	e7988002 	ldr	r8, [r8, r2]
    8dc0:	e5982000 	ldr	r2, [r8]
    8dc4:	e1520003 	cmp	r2, r3
    8dc8:	1a000015 	bne	8e24 <iobuf_push_filter2+0x140>
    8dcc:	e3550000 	cmp	r5, #0
    8dd0:	0a000006 	beq	8df0 <iobuf_push_filter2+0x10c>
    8dd4:	e594203c 	ldr	r2, [r4, #60]	; 0x3c
    8dd8:	e28d1008 	add	r1, sp, #8
    8ddc:	e5940030 	ldr	r0, [r4, #48]	; 0x30
    8de0:	e3a03000 	mov	r3, #0
    8de4:	e58d1000 	str	r1, [sp]
    8de8:	e3a01001 	mov	r1, #1
    8dec:	e12fff35 	blx	r5
    8df0:	e28dd034 	add	sp, sp, #52	; 0x34
    8df4:	e8bd83f0 	pop	{r4, r5, r6, r7, r8, r9, pc}
    8df8:	e3a00a02 	mov	r0, #8192	; 0x2000
    8dfc:	e3a03002 	mov	r3, #2
    8e00:	e5840014 	str	r0, [r4, #20]
    8e04:	e5c43000 	strb	r3, [r4]
    8e08:	eaffffd8 	b	8d70 <iobuf_push_filter2+0x8c>
    8e0c:	e59f00ac 	ldr	r0, [pc, #172]	; 8ec0 <iobuf_push_filter2+0x1dc>
    8e10:	e08f0000 	add	r0, pc, r0
    8e14:	eb001887 	bl	f038 <tfp_printf>
    8e18:	e3a00059 	mov	r0, #89	; 0x59
    8e1c:	e28dd034 	add	sp, sp, #52	; 0x34
    8e20:	e8bd83f0 	pop	{r4, r5, r6, r7, r8, r9, pc}
    8e24:	e1550003 	cmp	r5, r3
    8e28:	e3a02020 	mov	r2, #32
    8e2c:	e5949040 	ldr	r9, [r4, #64]	; 0x40
    8e30:	e58d200c 	str	r2, [sp, #12]
    8e34:	0a000018 	beq	8e9c <iobuf_push_filter2+0x1b8>
    8e38:	e1a02003 	mov	r2, r3
    8e3c:	e1a00007 	mov	r0, r7
    8e40:	e28d300c 	add	r3, sp, #12
    8e44:	e28d7010 	add	r7, sp, #16
    8e48:	e58d3000 	str	r3, [sp]
    8e4c:	e3a01005 	mov	r1, #5
    8e50:	e1a03007 	mov	r3, r7
    8e54:	e12fff35 	blx	r5
    8e58:	e59f0064 	ldr	r0, [pc, #100]	; 8ec4 <iobuf_push_filter2+0x1e0>
    8e5c:	e1a03007 	mov	r3, r7
    8e60:	e1a02006 	mov	r2, r6
    8e64:	e1a01009 	mov	r1, r9
    8e68:	e08f0000 	add	r0, pc, r0
    8e6c:	eb001871 	bl	f038 <tfp_printf>
    8e70:	e5983000 	ldr	r3, [r8]
    8e74:	e3530000 	cmp	r3, #0
    8e78:	0a000001 	beq	8e84 <iobuf_push_filter2+0x1a0>
    8e7c:	e1a00004 	mov	r0, r4
    8e80:	ebfffd99 	bl	84ec <print_chain.part.0>
    8e84:	e594502c 	ldr	r5, [r4, #44]	; 0x2c
    8e88:	eaffffcf 	b	8dcc <iobuf_push_filter2+0xe8>
    8e8c:	ebfffd4d 	bl	83c8 <filter_flush>
    8e90:	e3500000 	cmp	r0, #0
    8e94:	0affff9f 	beq	8d18 <iobuf_push_filter2+0x34>
    8e98:	eaffffd4 	b	8df0 <iobuf_push_filter2+0x10c>
    8e9c:	e59f1024 	ldr	r1, [pc, #36]	; 8ec8 <iobuf_push_filter2+0x1e4>
    8ea0:	e28d7010 	add	r7, sp, #16
    8ea4:	e3a02002 	mov	r2, #2
    8ea8:	e1a00007 	mov	r0, r7
    8eac:	e08f1001 	add	r1, pc, r1
    8eb0:	eb001077 	bl	d094 <memcpy>
    8eb4:	eaffffe7 	b	8e58 <iobuf_push_filter2+0x174>
    8eb8:	0000c528 	andeq	ip, r0, r8, lsr #10
    8ebc:	00015650 	andeq	r5, r1, r0, asr r6
    8ec0:	000087ec 	andeq	r8, r0, ip, ror #15
    8ec4:	000087c4 	andeq	r8, r0, r4, asr #15
    8ec8:	00008560 	andeq	r8, r0, r0, ror #10

00008ecc <iobuf_push_filter>:
    8ecc:	e3a03000 	mov	r3, #0
    8ed0:	eaffff83 	b	8ce4 <iobuf_push_filter2>

00008ed4 <iobuf_pop_filter>:
    8ed4:	e92d4ff0 	push	{r4, r5, r6, r7, r8, r9, sl, fp, lr}
    8ed8:	e1a06000 	mov	r6, r0
    8edc:	e59f02b4 	ldr	r0, [pc, #692]	; 9198 <iobuf_pop_filter+0x2c4>
    8ee0:	e24dd034 	sub	sp, sp, #52	; 0x34
    8ee4:	e59f42b0 	ldr	r4, [pc, #688]	; 919c <iobuf_pop_filter+0x2c8>
    8ee8:	e1a08001 	mov	r8, r1
    8eec:	e08f0000 	add	r0, pc, r0
    8ef0:	e1a09002 	mov	r9, r2
    8ef4:	e5961008 	ldr	r1, [r6, #8]
    8ef8:	e08f4004 	add	r4, pc, r4
    8efc:	eb00184d 	bl	f038 <tfp_printf>
    8f00:	e59f1298 	ldr	r1, [pc, #664]	; 91a0 <iobuf_pop_filter+0x2cc>
    8f04:	e3a02000 	mov	r2, #0
    8f08:	e58d2008 	str	r2, [sp, #8]
    8f0c:	e1a03004 	mov	r3, r4
    8f10:	e7947001 	ldr	r7, [r4, r1]
    8f14:	e5973000 	ldr	r3, [r7]
    8f18:	e1530002 	cmp	r3, r2
    8f1c:	1a000039 	bne	9008 <iobuf_pop_filter+0x134>
    8f20:	e5d62000 	ldrb	r2, [r6]
    8f24:	e20230fd 	and	r3, r2, #253	; 0xfd
    8f28:	e3530001 	cmp	r3, #1
    8f2c:	0a00002e 	beq	8fec <iobuf_pop_filter+0x118>
    8f30:	e596502c 	ldr	r5, [r6, #44]	; 0x2c
    8f34:	e3550000 	cmp	r5, #0
    8f38:	11a04006 	movne	r4, r6
    8f3c:	1a000004 	bne	8f54 <iobuf_pop_filter+0x80>
    8f40:	ea00007c 	b	9138 <iobuf_pop_filter+0x264>
    8f44:	e594403c 	ldr	r4, [r4, #60]	; 0x3c
    8f48:	e3540000 	cmp	r4, #0
    8f4c:	0a00006d 	beq	9108 <iobuf_pop_filter+0x234>
    8f50:	e594502c 	ldr	r5, [r4, #44]	; 0x2c
    8f54:	e1580005 	cmp	r8, r5
    8f58:	1afffff9 	bne	8f44 <iobuf_pop_filter+0x70>
    8f5c:	e3590000 	cmp	r9, #0
    8f60:	0a000002 	beq	8f70 <iobuf_pop_filter+0x9c>
    8f64:	e5943030 	ldr	r3, [r4, #48]	; 0x30
    8f68:	e1530009 	cmp	r3, r9
    8f6c:	1afffff4 	bne	8f44 <iobuf_pop_filter+0x70>
    8f70:	e3520002 	cmp	r2, #2
    8f74:	0a000038 	beq	905c <iobuf_pop_filter+0x188>
    8f78:	e594502c 	ldr	r5, [r4, #44]	; 0x2c
    8f7c:	e3550000 	cmp	r5, #0
    8f80:	0a000008 	beq	8fa8 <iobuf_pop_filter+0xd4>
    8f84:	e594203c 	ldr	r2, [r4, #60]	; 0x3c
    8f88:	e28d3008 	add	r3, sp, #8
    8f8c:	e5940030 	ldr	r0, [r4, #48]	; 0x30
    8f90:	e3a01002 	mov	r1, #2
    8f94:	e58d3000 	str	r3, [sp]
    8f98:	e3a03000 	mov	r3, #0
    8f9c:	e12fff35 	blx	r5
    8fa0:	e3500000 	cmp	r0, #0
    8fa4:	1a00000e 	bne	8fe4 <iobuf_pop_filter+0x110>
    8fa8:	e5940030 	ldr	r0, [r4, #48]	; 0x30
    8fac:	e3500000 	cmp	r0, #0
    8fb0:	0a000002 	beq	8fc0 <iobuf_pop_filter+0xec>
    8fb4:	e5943034 	ldr	r3, [r4, #52]	; 0x34
    8fb8:	e3530000 	cmp	r3, #0
    8fbc:	1a00002b 	bne	9070 <iobuf_pop_filter+0x19c>
    8fc0:	e1560004 	cmp	r6, r4
    8fc4:	0a000034 	beq	909c <iobuf_pop_filter+0x1c8>
    8fc8:	e594503c 	ldr	r5, [r4, #60]	; 0x3c
    8fcc:	e3550000 	cmp	r5, #0
    8fd0:	0a000053 	beq	9124 <iobuf_pop_filter+0x250>
    8fd4:	e59f01c8 	ldr	r0, [pc, #456]	; 91a4 <iobuf_pop_filter+0x2d0>
    8fd8:	e08f0000 	add	r0, pc, r0
    8fdc:	eb001815 	bl	f038 <tfp_printf>
    8fe0:	e3a00000 	mov	r0, #0
    8fe4:	e28dd034 	add	sp, sp, #52	; 0x34
    8fe8:	e8bd8ff0 	pop	{r4, r5, r6, r7, r8, r9, sl, fp, pc}
    8fec:	e596003c 	ldr	r0, [r6, #60]	; 0x3c
    8ff0:	e16f0f10 	clz	r0, r0
    8ff4:	e1a002a0 	lsr	r0, r0, #5
    8ff8:	eb00180e 	bl	f038 <tfp_printf>
    8ffc:	e3a00000 	mov	r0, #0
    9000:	e28dd034 	add	sp, sp, #52	; 0x34
    9004:	e8bd8ff0 	pop	{r4, r5, r6, r7, r8, r9, sl, fp, pc}
    9008:	e596402c 	ldr	r4, [r6, #44]	; 0x2c
    900c:	e3a03020 	mov	r3, #32
    9010:	e5965040 	ldr	r5, [r6, #64]	; 0x40
    9014:	e1540002 	cmp	r4, r2
    9018:	e596a044 	ldr	sl, [r6, #68]	; 0x44
    901c:	e58d300c 	str	r3, [sp, #12]
    9020:	0a000016 	beq	9080 <iobuf_pop_filter+0x1ac>
    9024:	e5960030 	ldr	r0, [r6, #48]	; 0x30
    9028:	e28d300c 	add	r3, sp, #12
    902c:	e58d3000 	str	r3, [sp]
    9030:	e28db010 	add	fp, sp, #16
    9034:	e1a0300b 	mov	r3, fp
    9038:	e3a01005 	mov	r1, #5
    903c:	e12fff34 	blx	r4
    9040:	e59f0160 	ldr	r0, [pc, #352]	; 91a8 <iobuf_pop_filter+0x2d4>
    9044:	e1a0300b 	mov	r3, fp
    9048:	e1a0200a 	mov	r2, sl
    904c:	e1a01005 	mov	r1, r5
    9050:	e08f0000 	add	r0, pc, r0
    9054:	eb0017f7 	bl	f038 <tfp_printf>
    9058:	eaffffb0 	b	8f20 <iobuf_pop_filter+0x4c>
    905c:	e1a00004 	mov	r0, r4
    9060:	ebfffcd8 	bl	83c8 <filter_flush>
    9064:	e3500000 	cmp	r0, #0
    9068:	0affffc2 	beq	8f78 <iobuf_pop_filter+0xa4>
    906c:	eaffffdc 	b	8fe4 <iobuf_pop_filter+0x110>
    9070:	eb000fc2 	bl	cf80 <xfree>
    9074:	e3a03000 	mov	r3, #0
    9078:	e5843030 	str	r3, [r4, #48]	; 0x30
    907c:	eaffffcf 	b	8fc0 <iobuf_pop_filter+0xec>
    9080:	e59f1124 	ldr	r1, [pc, #292]	; 91ac <iobuf_pop_filter+0x2d8>
    9084:	e28db010 	add	fp, sp, #16
    9088:	e3a02002 	mov	r2, #2
    908c:	e1a0000b 	mov	r0, fp
    9090:	e08f1001 	add	r1, pc, r1
    9094:	eb000ffe 	bl	d094 <memcpy>
    9098:	eaffffe8 	b	9040 <iobuf_pop_filter+0x16c>
    909c:	e596503c 	ldr	r5, [r6, #60]	; 0x3c
    90a0:	e3550000 	cmp	r5, #0
    90a4:	0a000036 	beq	9184 <iobuf_pop_filter+0x2b0>
    90a8:	e5960020 	ldr	r0, [r6, #32]
    90ac:	eb000fb3 	bl	cf80 <xfree>
    90b0:	e5960038 	ldr	r0, [r6, #56]	; 0x38
    90b4:	eb000fb1 	bl	cf80 <xfree>
    90b8:	e3a02048 	mov	r2, #72	; 0x48
    90bc:	e1a01005 	mov	r1, r5
    90c0:	e1a00006 	mov	r0, r6
    90c4:	eb000ff2 	bl	d094 <memcpy>
    90c8:	e1a00005 	mov	r0, r5
    90cc:	eb000fab 	bl	cf80 <xfree>
    90d0:	e59f00d8 	ldr	r0, [pc, #216]	; 91b0 <iobuf_pop_filter+0x2dc>
    90d4:	e3a01048 	mov	r1, #72	; 0x48
    90d8:	e08f0000 	add	r0, pc, r0
    90dc:	eb0017d5 	bl	f038 <tfp_printf>
    90e0:	e5970000 	ldr	r0, [r7]
    90e4:	e3500000 	cmp	r0, #0
    90e8:	0affffbd 	beq	8fe4 <iobuf_pop_filter+0x110>
    90ec:	e59f00c0 	ldr	r0, [pc, #192]	; 91b4 <iobuf_pop_filter+0x2e0>
    90f0:	e5962044 	ldr	r2, [r6, #68]	; 0x44
    90f4:	e08f0000 	add	r0, pc, r0
    90f8:	e5961040 	ldr	r1, [r6, #64]	; 0x40
    90fc:	eb0017cd 	bl	f038 <tfp_printf>
    9100:	e3a00000 	mov	r0, #0
    9104:	eaffffb6 	b	8fe4 <iobuf_pop_filter+0x110>
    9108:	e59f00a8 	ldr	r0, [pc, #168]	; 91b8 <iobuf_pop_filter+0x2e4>
    910c:	e08f0000 	add	r0, pc, r0
    9110:	eb0017c8 	bl	f038 <tfp_printf>
    9114:	e5d62000 	ldrb	r2, [r6]
    9118:	e3520002 	cmp	r2, #2
    911c:	1affff95 	bne	8f78 <iobuf_pop_filter+0xa4>
    9120:	eaffffcd 	b	905c <iobuf_pop_filter+0x188>
    9124:	e59f0090 	ldr	r0, [pc, #144]	; 91bc <iobuf_pop_filter+0x2e8>
    9128:	e08f0000 	add	r0, pc, r0
    912c:	eb0017c1 	bl	f038 <tfp_printf>
    9130:	e1a00005 	mov	r0, r5
    9134:	eaffffaa 	b	8fe4 <iobuf_pop_filter+0x110>
    9138:	e596403c 	ldr	r4, [r6, #60]	; 0x3c
    913c:	e1a00004 	mov	r0, r4
    9140:	eb0017bc 	bl	f038 <tfp_printf>
    9144:	e5960020 	ldr	r0, [r6, #32]
    9148:	eb000f8c 	bl	cf80 <xfree>
    914c:	e5960038 	ldr	r0, [r6, #56]	; 0x38
    9150:	eb000f8a 	bl	cf80 <xfree>
    9154:	e59f0064 	ldr	r0, [pc, #100]	; 91c0 <iobuf_pop_filter+0x2ec>
    9158:	e3a01048 	mov	r1, #72	; 0x48
    915c:	e08f0000 	add	r0, pc, r0
    9160:	eb0017b4 	bl	f038 <tfp_printf>
    9164:	e3a02048 	mov	r2, #72	; 0x48
    9168:	e1a01004 	mov	r1, r4
    916c:	e1a00006 	mov	r0, r6
    9170:	eb000fc7 	bl	d094 <memcpy>
    9174:	e1a00004 	mov	r0, r4
    9178:	eb000f80 	bl	cf80 <xfree>
    917c:	e1a00005 	mov	r0, r5
    9180:	eaffff97 	b	8fe4 <iobuf_pop_filter+0x110>
    9184:	e59f0038 	ldr	r0, [pc, #56]	; 91c4 <iobuf_pop_filter+0x2f0>
    9188:	e08f0000 	add	r0, pc, r0
    918c:	eb0017a9 	bl	f038 <tfp_printf>
    9190:	e1a00005 	mov	r0, r5
    9194:	eaffff92 	b	8fe4 <iobuf_pop_filter+0x110>
    9198:	00008758 	andeq	r8, r0, r8, asr r7
    919c:	0000c334 	andeq	ip, r0, r4, lsr r3
    91a0:	00015650 	andeq	r5, r1, r0, asr r6
    91a4:	00008760 	andeq	r8, r0, r0, ror #14
    91a8:	0000860c 	andeq	r8, r0, ip, lsl #12
    91ac:	0000837c 	andeq	r8, r0, ip, ror r3
    91b0:	000085ec 	andeq	r8, r0, ip, ror #11
    91b4:	000085fc 	strdeq	r8, [r0], -ip
    91b8:	00008660 	andeq	r8, r0, r0, ror #12
    91bc:	000085e4 	andeq	r8, r0, r4, ror #11
    91c0:	00008518 	andeq	r8, r0, r8, lsl r5
    91c4:	0000850c 	andeq	r8, r0, ip, lsl #10

000091c8 <iobuf_readbyte>:
    91c8:	e92d40f0 	push	{r4, r5, r6, r7, lr}
    91cc:	e24dd01c 	sub	sp, sp, #28
    91d0:	e59f62c4 	ldr	r6, [pc, #708]	; 949c <iobuf_readbyte+0x2d4>
    91d4:	e1a04000 	mov	r4, r0
    91d8:	e58d000c 	str	r0, [sp, #12]
    91dc:	e5d00000 	ldrb	r0, [r0]
    91e0:	e08f6006 	add	r6, pc, r6
    91e4:	e2403002 	sub	r3, r0, #2
    91e8:	e3530001 	cmp	r3, #1
    91ec:	9a00009e 	bls	946c <iobuf_readbyte+0x2a4>
    91f0:	e5943004 	ldr	r3, [r4, #4]
    91f4:	e3530000 	cmp	r3, #0
    91f8:	1a00000d 	bne	9234 <iobuf_readbyte+0x6c>
    91fc:	e5941018 	ldr	r1, [r4, #24]
    9200:	e594201c 	ldr	r2, [r4, #28]
    9204:	e1510002 	cmp	r1, r2
    9208:	2a00000e 	bcs	9248 <iobuf_readbyte+0x80>
    920c:	e5943020 	ldr	r3, [r4, #32]
    9210:	e2812001 	add	r2, r1, #1
    9214:	e5842018 	str	r2, [r4, #24]
    9218:	e7d35001 	ldrb	r5, [r3, r1]
    921c:	e5943008 	ldr	r3, [r4, #8]
    9220:	e2833001 	add	r3, r3, #1
    9224:	e5843008 	str	r3, [r4, #8]
    9228:	e1a00005 	mov	r0, r5
    922c:	e28dd01c 	add	sp, sp, #28
    9230:	e8bd80f0 	pop	{r4, r5, r6, r7, pc}
    9234:	e5942008 	ldr	r2, [r4, #8]
    9238:	e1530002 	cmp	r3, r2
    923c:	caffffee 	bgt	91fc <iobuf_readbyte+0x34>
    9240:	e3e05000 	mvn	r5, #0
    9244:	eafffff7 	b	9228 <iobuf_readbyte+0x60>
    9248:	e3500001 	cmp	r0, #1
    924c:	0afffffb 	beq	9240 <iobuf_readbyte+0x78>
    9250:	e5940020 	ldr	r0, [r4, #32]
    9254:	e0422001 	sub	r2, r2, r1
    9258:	e584201c 	str	r2, [r4, #28]
    925c:	e0801001 	add	r1, r0, r1
    9260:	eb000fb1 	bl	d12c <memmove>
    9264:	e594301c 	ldr	r3, [r4, #28]
    9268:	e3a02000 	mov	r2, #0
    926c:	e5842018 	str	r2, [r4, #24]
    9270:	e1530002 	cmp	r3, r2
    9274:	0a00000a 	beq	92a4 <iobuf_readbyte+0xdc>
    9278:	e594502c 	ldr	r5, [r4, #44]	; 0x2c
    927c:	e3550000 	cmp	r5, #0
    9280:	0a000073 	beq	9454 <iobuf_readbyte+0x28c>
    9284:	e5941024 	ldr	r1, [r4, #36]	; 0x24
    9288:	e3510000 	cmp	r1, #0
    928c:	0a00007d 	beq	9488 <iobuf_readbyte+0x2c0>
    9290:	e5943020 	ldr	r3, [r4, #32]
    9294:	e2821001 	add	r1, r2, #1
    9298:	e5841018 	str	r1, [r4, #24]
    929c:	e7d35002 	ldrb	r5, [r3, r2]
    92a0:	eaffffdd 	b	921c <iobuf_readbyte+0x54>
    92a4:	e5942024 	ldr	r2, [r4, #36]	; 0x24
    92a8:	e3520000 	cmp	r2, #0
    92ac:	0a000015 	beq	9308 <iobuf_readbyte+0x140>
    92b0:	e594503c 	ldr	r5, [r4, #60]	; 0x3c
    92b4:	e3550000 	cmp	r5, #0
    92b8:	0a000063 	beq	944c <iobuf_readbyte+0x284>
    92bc:	e5940020 	ldr	r0, [r4, #32]
    92c0:	eb000f2e 	bl	cf80 <xfree>
    92c4:	e5940038 	ldr	r0, [r4, #56]	; 0x38
    92c8:	eb000f2c 	bl	cf80 <xfree>
    92cc:	e3a02048 	mov	r2, #72	; 0x48
    92d0:	e1a01005 	mov	r1, r5
    92d4:	e1a00004 	mov	r0, r4
    92d8:	eb000f6d 	bl	d094 <memcpy>
    92dc:	e1a00005 	mov	r0, r5
    92e0:	eb000f26 	bl	cf80 <xfree>
    92e4:	e59f31b4 	ldr	r3, [pc, #436]	; 94a0 <iobuf_readbyte+0x2d8>
    92e8:	e7963003 	ldr	r3, [r6, r3]
    92ec:	e5933000 	ldr	r3, [r3]
    92f0:	e3530000 	cmp	r3, #0
    92f4:	0affffd1 	beq	9240 <iobuf_readbyte+0x78>
    92f8:	e1a00004 	mov	r0, r4
    92fc:	e3e05000 	mvn	r5, #0
    9300:	ebfffc79 	bl	84ec <print_chain.part.0>
    9304:	eaffffc7 	b	9228 <iobuf_readbyte+0x60>
    9308:	e5942028 	ldr	r2, [r4, #40]	; 0x28
    930c:	e3520000 	cmp	r2, #0
    9310:	1affffca 	bne	9240 <iobuf_readbyte+0x78>
    9314:	e594502c 	ldr	r5, [r4, #44]	; 0x2c
    9318:	e3550000 	cmp	r5, #0
    931c:	0affffc7 	beq	9240 <iobuf_readbyte+0x78>
    9320:	e5942014 	ldr	r2, [r4, #20]
    9324:	e0422003 	sub	r2, r2, r3
    9328:	e58d2010 	str	r2, [sp, #16]
    932c:	e3520000 	cmp	r2, #0
    9330:	0a000042 	beq	9440 <iobuf_readbyte+0x278>
    9334:	e5942020 	ldr	r2, [r4, #32]
    9338:	e28d1010 	add	r1, sp, #16
    933c:	e5940030 	ldr	r0, [r4, #48]	; 0x30
    9340:	e0823003 	add	r3, r2, r3
    9344:	e594203c 	ldr	r2, [r4, #60]	; 0x3c
    9348:	e58d1000 	str	r1, [sp]
    934c:	e3a01003 	mov	r1, #3
    9350:	e12fff35 	blx	r5
    9354:	e594201c 	ldr	r2, [r4, #28]
    9358:	e3700001 	cmn	r0, #1
    935c:	e59d3010 	ldr	r3, [sp, #16]
    9360:	e1a05000 	mov	r5, r0
    9364:	e0823003 	add	r3, r2, r3
    9368:	e584301c 	str	r3, [r4, #28]
    936c:	1a00002d 	bne	9428 <iobuf_readbyte+0x260>
    9370:	e594702c 	ldr	r7, [r4, #44]	; 0x2c
    9374:	e3a03000 	mov	r3, #0
    9378:	e594203c 	ldr	r2, [r4, #60]	; 0x3c
    937c:	e28d1014 	add	r1, sp, #20
    9380:	e58d1000 	str	r1, [sp]
    9384:	e3a01002 	mov	r1, #2
    9388:	e5940030 	ldr	r0, [r4, #48]	; 0x30
    938c:	e58d3014 	str	r3, [sp, #20]
    9390:	e12fff37 	blx	r7
    9394:	e3500000 	cmp	r0, #0
    9398:	1a00002f 	bne	945c <iobuf_readbyte+0x294>
    939c:	e5940030 	ldr	r0, [r4, #48]	; 0x30
    93a0:	e3500000 	cmp	r0, #0
    93a4:	0a000002 	beq	93b4 <iobuf_readbyte+0x1ec>
    93a8:	e5943034 	ldr	r3, [r4, #52]	; 0x34
    93ac:	e3530000 	cmp	r3, #0
    93b0:	1a000032 	bne	9480 <iobuf_readbyte+0x2b8>
    93b4:	e594301c 	ldr	r3, [r4, #28]
    93b8:	e3a02000 	mov	r2, #0
    93bc:	e5842030 	str	r2, [r4, #48]	; 0x30
    93c0:	e1530002 	cmp	r3, r2
    93c4:	e584202c 	str	r2, [r4, #44]	; 0x2c
    93c8:	e3a02001 	mov	r2, #1
    93cc:	e5842024 	str	r2, [r4, #36]	; 0x24
    93d0:	1a000019 	bne	943c <iobuf_readbyte+0x274>
    93d4:	e594703c 	ldr	r7, [r4, #60]	; 0x3c
    93d8:	e3570000 	cmp	r7, #0
    93dc:	0affff91 	beq	9228 <iobuf_readbyte+0x60>
    93e0:	e5940020 	ldr	r0, [r4, #32]
    93e4:	eb000ee5 	bl	cf80 <xfree>
    93e8:	e5940038 	ldr	r0, [r4, #56]	; 0x38
    93ec:	eb000ee3 	bl	cf80 <xfree>
    93f0:	e3a02048 	mov	r2, #72	; 0x48
    93f4:	e1a01007 	mov	r1, r7
    93f8:	e1a00004 	mov	r0, r4
    93fc:	eb000f24 	bl	d094 <memcpy>
    9400:	e1a00007 	mov	r0, r7
    9404:	eb000edd 	bl	cf80 <xfree>
    9408:	e59f3090 	ldr	r3, [pc, #144]	; 94a0 <iobuf_readbyte+0x2d8>
    940c:	e7963003 	ldr	r3, [r6, r3]
    9410:	e5933000 	ldr	r3, [r3]
    9414:	e3530000 	cmp	r3, #0
    9418:	0affff82 	beq	9228 <iobuf_readbyte+0x60>
    941c:	e1a00004 	mov	r0, r4
    9420:	ebfffc31 	bl	84ec <print_chain.part.0>
    9424:	eaffff7f 	b	9228 <iobuf_readbyte+0x60>
    9428:	e3500000 	cmp	r0, #0
    942c:	0a000002 	beq	943c <iobuf_readbyte+0x274>
    9430:	e5840028 	str	r0, [r4, #40]	; 0x28
    9434:	e3530000 	cmp	r3, #0
    9438:	0affff80 	beq	9240 <iobuf_readbyte+0x78>
    943c:	e5942018 	ldr	r2, [r4, #24]
    9440:	e1520003 	cmp	r2, r3
    9444:	3affff91 	bcc	9290 <iobuf_readbyte+0xc8>
    9448:	eaffff7c 	b	9240 <iobuf_readbyte+0x78>
    944c:	e5845024 	str	r5, [r4, #36]	; 0x24
    9450:	eaffff7a 	b	9240 <iobuf_readbyte+0x78>
    9454:	e1a02005 	mov	r2, r5
    9458:	eaffff8c 	b	9290 <iobuf_readbyte+0xc8>
    945c:	e59f0040 	ldr	r0, [pc, #64]	; 94a4 <iobuf_readbyte+0x2dc>
    9460:	e08f0000 	add	r0, pc, r0
    9464:	eb0016f3 	bl	f038 <tfp_printf>
    9468:	eaffffcb 	b	939c <iobuf_readbyte+0x1d4>
    946c:	e59f0034 	ldr	r0, [pc, #52]	; 94a8 <iobuf_readbyte+0x2e0>
    9470:	e3e05000 	mvn	r5, #0
    9474:	e08f0000 	add	r0, pc, r0
    9478:	eb0016ee 	bl	f038 <tfp_printf>
    947c:	eaffff69 	b	9228 <iobuf_readbyte+0x60>
    9480:	eb000ebe 	bl	cf80 <xfree>
    9484:	eaffffca 	b	93b4 <iobuf_readbyte+0x1ec>
    9488:	e5942028 	ldr	r2, [r4, #40]	; 0x28
    948c:	e3520000 	cmp	r2, #0
    9490:	11a02001 	movne	r2, r1
    9494:	1affff7d 	bne	9290 <iobuf_readbyte+0xc8>
    9498:	eaffffa0 	b	9320 <iobuf_readbyte+0x158>
    949c:	0000c04c 	andeq	ip, r0, ip, asr #32
    94a0:	00015650 	andeq	r5, r1, r0, asr r6
    94a4:	0000836c 	andeq	r8, r0, ip, ror #6
    94a8:	00008328 	andeq	r8, r0, r8, lsr #6

000094ac <iobuf_read>:
    94ac:	e92d41f0 	push	{r4, r5, r6, r7, r8, lr}
    94b0:	e1a06000 	mov	r6, r0
    94b4:	e59f0138 	ldr	r0, [pc, #312]	; 95f4 <iobuf_read+0x148>
    94b8:	e1a07002 	mov	r7, r2
    94bc:	e5962004 	ldr	r2, [r6, #4]
    94c0:	e1a04001 	mov	r4, r1
    94c4:	e08f0000 	add	r0, pc, r0
    94c8:	e1a01007 	mov	r1, r7
    94cc:	eb0016d9 	bl	f038 <tfp_printf>
    94d0:	e5d63000 	ldrb	r3, [r6]
    94d4:	e2433002 	sub	r3, r3, #2
    94d8:	e3530001 	cmp	r3, #1
    94dc:	9a00003f 	bls	95e0 <iobuf_read+0x134>
    94e0:	e5965004 	ldr	r5, [r6, #4]
    94e4:	e3550000 	cmp	r5, #0
    94e8:	0a000011 	beq	9534 <iobuf_read+0x88>
    94ec:	e2575000 	subs	r5, r7, #0
    94f0:	0a000014 	beq	9548 <iobuf_read+0x9c>
    94f4:	e3a08000 	mov	r8, #0
    94f8:	ea000004 	b	9510 <iobuf_read+0x64>
    94fc:	e3540000 	cmp	r4, #0
    9500:	e2888001 	add	r8, r8, #1
    9504:	14c40001 	strbne	r0, [r4], #1
    9508:	e1580007 	cmp	r8, r7
    950c:	0a00000d 	beq	9548 <iobuf_read+0x9c>
    9510:	e1a00006 	mov	r0, r6
    9514:	ebffff2b 	bl	91c8 <iobuf_readbyte>
    9518:	e3700001 	cmn	r0, #1
    951c:	1afffff6 	bne	94fc <iobuf_read+0x50>
    9520:	e3580000 	cmp	r8, #0
    9524:	11a05008 	movne	r5, r8
    9528:	03e05000 	mvneq	r5, #0
    952c:	e1a00005 	mov	r0, r5
    9530:	e8bd81f0 	pop	{r4, r5, r6, r7, r8, pc}
    9534:	e1550007 	cmp	r5, r7
    9538:	3a00001a 	bcc	95a8 <iobuf_read+0xfc>
    953c:	e5963008 	ldr	r3, [r6, #8]
    9540:	e0833005 	add	r3, r3, r5
    9544:	e5863008 	str	r3, [r6, #8]
    9548:	e1a00005 	mov	r0, r5
    954c:	e8bd81f0 	pop	{r4, r5, r6, r7, r8, pc}
    9550:	e1580001 	cmp	r8, r1
    9554:	21a08001 	movcs	r8, r1
    9558:	e3540000 	cmp	r4, #0
    955c:	e0832008 	add	r2, r3, r8
    9560:	0a000019 	beq	95cc <iobuf_read+0x120>
    9564:	e5961020 	ldr	r1, [r6, #32]
    9568:	e1a00004 	mov	r0, r4
    956c:	e0855008 	add	r5, r5, r8
    9570:	e1a02008 	mov	r2, r8
    9574:	e0811003 	add	r1, r1, r3
    9578:	e0844008 	add	r4, r4, r8
    957c:	eb000ec4 	bl	d094 <memcpy>
    9580:	e5963018 	ldr	r3, [r6, #24]
    9584:	e1570005 	cmp	r7, r5
    9588:	e0833008 	add	r3, r3, r8
    958c:	e5863018 	str	r3, [r6, #24]
    9590:	9affffe9 	bls	953c <iobuf_read+0x90>
    9594:	e3a03000 	mov	r3, #0
    9598:	e4c43001 	strb	r3, [r4], #1
    959c:	e2855001 	add	r5, r5, #1
    95a0:	e1550007 	cmp	r5, r7
    95a4:	2affffe4 	bcs	953c <iobuf_read+0x90>
    95a8:	e5963018 	ldr	r3, [r6, #24]
    95ac:	e596201c 	ldr	r2, [r6, #28]
    95b0:	e0478005 	sub	r8, r7, r5
    95b4:	e1530002 	cmp	r3, r2
    95b8:	e0421003 	sub	r1, r2, r3
    95bc:	3affffe3 	bcc	9550 <iobuf_read+0xa4>
    95c0:	e3540000 	cmp	r4, #0
    95c4:	1afffff2 	bne	9594 <iobuf_read+0xe8>
    95c8:	eafffff3 	b	959c <iobuf_read+0xf0>
    95cc:	e0855008 	add	r5, r5, r8
    95d0:	e1570005 	cmp	r7, r5
    95d4:	e5862018 	str	r2, [r6, #24]
    95d8:	8affffef 	bhi	959c <iobuf_read+0xf0>
    95dc:	eaffffd6 	b	953c <iobuf_read+0x90>
    95e0:	e59f0010 	ldr	r0, [pc, #16]	; 95f8 <iobuf_read+0x14c>
    95e4:	e3e05000 	mvn	r5, #0
    95e8:	e08f0000 	add	r0, pc, r0
    95ec:	eb001691 	bl	f038 <tfp_printf>
    95f0:	eaffffd4 	b	9548 <iobuf_read+0x9c>
    95f4:	00008324 	andeq	r8, r0, r4, lsr #6
    95f8:	0000821c 	andeq	r8, r0, ip, lsl r2

000095fc <iobuf_writebyte>:
    95fc:	e92d4070 	push	{r4, r5, r6, lr}
    9600:	e1a04000 	mov	r4, r0
    9604:	e59f0090 	ldr	r0, [pc, #144]	; 969c <iobuf_writebyte+0xa0>
    9608:	e1a06001 	mov	r6, r1
    960c:	e08f0000 	add	r0, pc, r0
    9610:	eb001688 	bl	f038 <tfp_printf>
    9614:	e5d43000 	ldrb	r3, [r4]
    9618:	e3530001 	cmp	r3, #1
    961c:	9a000019 	bls	9688 <iobuf_writebyte+0x8c>
    9620:	e594001c 	ldr	r0, [r4, #28]
    9624:	e5943014 	ldr	r3, [r4, #20]
    9628:	e1500003 	cmp	r0, r3
    962c:	0a00000b 	beq	9660 <iobuf_writebyte+0x64>
    9630:	e1500003 	cmp	r0, r3
    9634:	e3a05000 	mov	r5, #0
    9638:	23a00000 	movcs	r0, #0
    963c:	33a00001 	movcc	r0, #1
    9640:	eb00167c 	bl	f038 <tfp_printf>
    9644:	e594301c 	ldr	r3, [r4, #28]
    9648:	e5942020 	ldr	r2, [r4, #32]
    964c:	e2831001 	add	r1, r3, #1
    9650:	e584101c 	str	r1, [r4, #28]
    9654:	e7c26003 	strb	r6, [r2, r3]
    9658:	e1a00005 	mov	r0, r5
    965c:	e8bd8070 	pop	{r4, r5, r6, pc}
    9660:	e1a00004 	mov	r0, r4
    9664:	ebfffb57 	bl	83c8 <filter_flush>
    9668:	e2505000 	subs	r5, r0, #0
    966c:	0594001c 	ldreq	r0, [r4, #28]
    9670:	05943014 	ldreq	r3, [r4, #20]
    9674:	0affffed 	beq	9630 <iobuf_writebyte+0x34>
    9678:	e59f0020 	ldr	r0, [pc, #32]	; 96a0 <iobuf_writebyte+0xa4>
    967c:	e08f0000 	add	r0, pc, r0
    9680:	eb00166c 	bl	f038 <tfp_printf>
    9684:	eafffff3 	b	9658 <iobuf_writebyte+0x5c>
    9688:	e59f0014 	ldr	r0, [pc, #20]	; 96a4 <iobuf_writebyte+0xa8>
    968c:	e3e05000 	mvn	r5, #0
    9690:	e08f0000 	add	r0, pc, r0
    9694:	eb001667 	bl	f038 <tfp_printf>
    9698:	eaffffee 	b	9658 <iobuf_writebyte+0x5c>
    969c:	00008224 	andeq	r8, r0, r4, lsr #4
    96a0:	000081fc 	strdeq	r8, [r0], -ip
    96a4:	000081b8 			; <UNDEFINED> instruction: 0x000081b8

000096a8 <iobuf_write>:
    96a8:	e92d41f0 	push	{r4, r5, r6, r7, r8, lr}
    96ac:	e1a06000 	mov	r6, r0
    96b0:	e59f00bc 	ldr	r0, [pc, #188]	; 9774 <iobuf_write+0xcc>
    96b4:	e1a07001 	mov	r7, r1
    96b8:	e1a01002 	mov	r1, r2
    96bc:	e1a05002 	mov	r5, r2
    96c0:	e08f0000 	add	r0, pc, r0
    96c4:	eb00165b 	bl	f038 <tfp_printf>
    96c8:	e5d63000 	ldrb	r3, [r6]
    96cc:	e3530001 	cmp	r3, #1
    96d0:	9a000022 	bls	9760 <iobuf_write+0xb8>
    96d4:	e59f809c 	ldr	r8, [pc, #156]	; 9778 <iobuf_write+0xd0>
    96d8:	e3550000 	cmp	r5, #0
    96dc:	e08f8008 	add	r8, pc, r8
    96e0:	0a000009 	beq	970c <iobuf_write+0x64>
    96e4:	e596201c 	ldr	r2, [r6, #28]
    96e8:	e5963014 	ldr	r3, [r6, #20]
    96ec:	e1520003 	cmp	r2, r3
    96f0:	3a000007 	bcc	9714 <iobuf_write+0x6c>
    96f4:	e1a00006 	mov	r0, r6
    96f8:	ebfffb32 	bl	83c8 <filter_flush>
    96fc:	e3500000 	cmp	r0, #0
    9700:	18bd81f0 	popne	{r4, r5, r6, r7, r8, pc}
    9704:	e3550000 	cmp	r5, #0
    9708:	1afffff5 	bne	96e4 <iobuf_write+0x3c>
    970c:	e3a00000 	mov	r0, #0
    9710:	e8bd81f0 	pop	{r4, r5, r6, r7, r8, pc}
    9714:	e0433002 	sub	r3, r3, r2
    9718:	e1a01007 	mov	r1, r7
    971c:	e1550003 	cmp	r5, r3
    9720:	e5960020 	ldr	r0, [r6, #32]
    9724:	21a04003 	movcs	r4, r3
    9728:	31a04005 	movcc	r4, r5
    972c:	e0800002 	add	r0, r0, r2
    9730:	e1a02004 	mov	r2, r4
    9734:	eb000e56 	bl	d094 <memcpy>
    9738:	e1a01004 	mov	r1, r4
    973c:	e1a00008 	mov	r0, r8
    9740:	eb00163c 	bl	f038 <tfp_printf>
    9744:	e596301c 	ldr	r3, [r6, #28]
    9748:	e0555004 	subs	r5, r5, r4
    974c:	e0833004 	add	r3, r3, r4
    9750:	e586301c 	str	r3, [r6, #28]
    9754:	0affffec 	beq	970c <iobuf_write+0x64>
    9758:	e0877004 	add	r7, r7, r4
    975c:	eaffffe4 	b	96f4 <iobuf_write+0x4c>
    9760:	e59f0014 	ldr	r0, [pc, #20]	; 977c <iobuf_write+0xd4>
    9764:	e08f0000 	add	r0, pc, r0
    9768:	eb001632 	bl	f038 <tfp_printf>
    976c:	e3e00000 	mvn	r0, #0
    9770:	e8bd81f0 	pop	{r4, r5, r6, r7, r8, pc}
    9774:	000081c8 	andeq	r8, r0, r8, asr #3
    9778:	000081e8 	andeq	r8, r0, r8, ror #3
    977c:	00008134 	andeq	r8, r0, r4, lsr r1

00009780 <block_filter>:
    9780:	e59fc7ec 	ldr	ip, [pc, #2028]	; 9f74 <block_filter+0x7f4>
    9784:	e92d4ff8 	push	{r3, r4, r5, r6, r7, r8, r9, sl, fp, lr}
    9788:	e1a06001 	mov	r6, r1
    978c:	e08fc00c 	add	ip, pc, ip
    9790:	e1a05000 	mov	r5, r0
    9794:	e59fe7dc 	ldr	lr, [pc, #2012]	; 9f78 <block_filter+0x7f8>
    9798:	e1a0100c 	mov	r1, ip
    979c:	e59d8028 	ldr	r8, [sp, #40]	; 0x28
    97a0:	e1a07002 	mov	r7, r2
    97a4:	e79c000e 	ldr	r0, [ip, lr]
    97a8:	e1a0a003 	mov	sl, r3
    97ac:	e7901106 	ldr	r1, [r0, r6, lsl #2]
    97b0:	e59f07c4 	ldr	r0, [pc, #1988]	; 9f7c <block_filter+0x7fc>
    97b4:	e08f0000 	add	r0, pc, r0
    97b8:	eb00161e 	bl	f038 <tfp_printf>
    97bc:	e5984000 	ldr	r4, [r8]
    97c0:	e3560003 	cmp	r6, #3
    97c4:	0a000019 	beq	9830 <block_filter+0xb0>
    97c8:	e3560004 	cmp	r6, #4
    97cc:	0a0000ac 	beq	9a84 <block_filter+0x304>
    97d0:	e3560001 	cmp	r6, #1
    97d4:	0a000004 	beq	97ec <block_filter+0x6c>
    97d8:	e3560002 	cmp	r6, #2
    97dc:	0a0000fe 	beq	9bdc <block_filter+0x45c>
    97e0:	e3a09000 	mov	r9, #0
    97e4:	e1a00009 	mov	r0, r9
    97e8:	e8bd8ff8 	pop	{r3, r4, r5, r6, r7, r8, r9, sl, fp, pc}
    97ec:	e595300c 	ldr	r3, [r5, #12]
    97f0:	e3530000 	cmp	r3, #0
    97f4:	13a03000 	movne	r3, #0
    97f8:	15853008 	strne	r3, [r5, #8]
    97fc:	1a000004 	bne	9814 <block_filter+0x94>
    9800:	e5953000 	ldr	r3, [r5]
    9804:	e3530000 	cmp	r3, #0
    9808:	05853004 	streq	r3, [r5, #4]
    980c:	15953004 	ldrne	r3, [r5, #4]
    9810:	e5853008 	str	r3, [r5, #8]
    9814:	e3a03000 	mov	r3, #0
    9818:	e585301c 	str	r3, [r5, #28]
    981c:	e1a09003 	mov	r9, r3
    9820:	e5853010 	str	r3, [r5, #16]
    9824:	e1a00009 	mov	r0, r9
    9828:	e5853014 	str	r3, [r5, #20]
    982c:	e8bd8ff8 	pop	{r3, r4, r5, r6, r7, r8, r9, sl, fp, pc}
    9830:	e59f0748 	ldr	r0, [pc, #1864]	; 9f80 <block_filter+0x800>
    9834:	e1a01004 	mov	r1, r4
    9838:	e08f0000 	add	r0, pc, r0
    983c:	eb0015fd 	bl	f038 <tfp_printf>
    9840:	e1a00004 	mov	r0, r4
    9844:	eb0015fb 	bl	f038 <tfp_printf>
    9848:	e595901c 	ldr	r9, [r5, #28]
    984c:	e3590000 	cmp	r9, #0
    9850:	13a06000 	movne	r6, #0
    9854:	13e09000 	mvnne	r9, #0
    9858:	1a00001f 	bne	98dc <block_filter+0x15c>
    985c:	e3540000 	cmp	r4, #0
    9860:	0a0001bc 	beq	9f58 <block_filter+0x7d8>
    9864:	e5953004 	ldr	r3, [r5, #4]
    9868:	e3530000 	cmp	r3, #0
    986c:	e1a06003 	mov	r6, r3
    9870:	11a06009 	movne	r6, r9
    9874:	0a00001b 	beq	98e8 <block_filter+0x168>
    9878:	e1a02003 	mov	r2, r3
    987c:	e3520000 	cmp	r2, #0
    9880:	e1a0100a 	mov	r1, sl
    9884:	e1a00007 	mov	r0, r7
    9888:	0a000016 	beq	98e8 <block_filter+0x168>
    988c:	e1520004 	cmp	r2, r4
    9890:	31a0b002 	movcc	fp, r2
    9894:	21a0b004 	movcs	fp, r4
    9898:	e1a0200b 	mov	r2, fp
    989c:	ebffff02 	bl	94ac <iobuf_read>
    98a0:	e15b0000 	cmp	fp, r0
    98a4:	e08aa000 	add	sl, sl, r0
    98a8:	da000021 	ble	9934 <block_filter+0x1b4>
    98ac:	e595c004 	ldr	ip, [r5, #4]
    98b0:	e3700001 	cmn	r0, #1
    98b4:	11a03000 	movne	r3, r0
    98b8:	03a03000 	moveq	r3, #0
    98bc:	e59f06c0 	ldr	r0, [pc, #1728]	; 9f84 <block_filter+0x804>
    98c0:	e1a01005 	mov	r1, r5
    98c4:	10844003 	addne	r4, r4, r3
    98c8:	e3a09059 	mov	r9, #89	; 0x59
    98cc:	e08f0000 	add	r0, pc, r0
    98d0:	e1a02004 	mov	r2, r4
    98d4:	e083300c 	add	r3, r3, ip
    98d8:	eb0015d6 	bl	f038 <tfp_printf>
    98dc:	e5886000 	str	r6, [r8]
    98e0:	e1a00009 	mov	r0, r9
    98e4:	e8bd8ff8 	pop	{r3, r4, r5, r6, r7, r8, r9, sl, fp, pc}
    98e8:	e595200c 	ldr	r2, [r5, #12]
    98ec:	e3520002 	cmp	r2, #2
    98f0:	0a00004c 	beq	9a28 <block_filter+0x2a8>
    98f4:	e3520000 	cmp	r2, #0
    98f8:	0affffde 	beq	9878 <block_filter+0xf8>
    98fc:	e59f0684 	ldr	r0, [pc, #1668]	; 9f88 <block_filter+0x808>
    9900:	e08f0000 	add	r0, pc, r0
    9904:	eb0015cb 	bl	f038 <tfp_printf>
    9908:	e5953018 	ldr	r3, [r5, #24]
    990c:	e3530000 	cmp	r3, #0
    9910:	0a00000f 	beq	9954 <block_filter+0x1d4>
    9914:	e35300bf 	cmp	r3, #191	; 0xbf
    9918:	e3a02000 	mov	r2, #0
    991c:	e5852018 	str	r2, [r5, #24]
    9920:	ca00001b 	bgt	9994 <block_filter+0x214>
    9924:	e5853004 	str	r3, [r5, #4]
    9928:	e3a02002 	mov	r2, #2
    992c:	e585200c 	str	r2, [r5, #12]
    9930:	eaffffd0 	b	9878 <block_filter+0xf8>
    9934:	e5953004 	ldr	r3, [r5, #4]
    9938:	e0544000 	subs	r4, r4, r0
    993c:	e0432000 	sub	r2, r3, r0
    9940:	e0866000 	add	r6, r6, r0
    9944:	e1a03002 	mov	r3, r2
    9948:	e5852004 	str	r2, [r5, #4]
    994c:	1affffca 	bne	987c <block_filter+0xfc>
    9950:	eaffffe1 	b	98dc <block_filter+0x15c>
    9954:	e5973010 	ldr	r3, [r7, #16]
    9958:	e3530000 	cmp	r3, #0
    995c:	1a000037 	bne	9a40 <block_filter+0x2c0>
    9960:	e5973018 	ldr	r3, [r7, #24]
    9964:	e597201c 	ldr	r2, [r7, #28]
    9968:	e1530002 	cmp	r3, r2
    996c:	2a000033 	bcs	9a40 <block_filter+0x2c0>
    9970:	e5972008 	ldr	r2, [r7, #8]
    9974:	e5971020 	ldr	r1, [r7, #32]
    9978:	e2822001 	add	r2, r2, #1
    997c:	e5872008 	str	r2, [r7, #8]
    9980:	e2832001 	add	r2, r3, #1
    9984:	e5872018 	str	r2, [r7, #24]
    9988:	e7d13003 	ldrb	r3, [r1, r3]
    998c:	e35300bf 	cmp	r3, #191	; 0xbf
    9990:	da00001f 	ble	9a14 <block_filter+0x294>
    9994:	e35300df 	cmp	r3, #223	; 0xdf
    9998:	ca000032 	bgt	9a68 <block_filter+0x2e8>
    999c:	e5972010 	ldr	r2, [r7, #16]
    99a0:	e24330c0 	sub	r3, r3, #192	; 0xc0
    99a4:	e1a03403 	lsl	r3, r3, #8
    99a8:	e3520000 	cmp	r2, #0
    99ac:	e5853004 	str	r3, [r5, #4]
    99b0:	1a000010 	bne	99f8 <block_filter+0x278>
    99b4:	e5972018 	ldr	r2, [r7, #24]
    99b8:	e597101c 	ldr	r1, [r7, #28]
    99bc:	e1520001 	cmp	r2, r1
    99c0:	2a00000c 	bcs	99f8 <block_filter+0x278>
    99c4:	e5971008 	ldr	r1, [r7, #8]
    99c8:	e28330c0 	add	r3, r3, #192	; 0xc0
    99cc:	e5970020 	ldr	r0, [r7, #32]
    99d0:	e2811001 	add	r1, r1, #1
    99d4:	e5871008 	str	r1, [r7, #8]
    99d8:	e2821001 	add	r1, r2, #1
    99dc:	e5871018 	str	r1, [r7, #24]
    99e0:	e7d02002 	ldrb	r2, [r0, r2]
    99e4:	e0823003 	add	r3, r2, r3
    99e8:	e3a02002 	mov	r2, #2
    99ec:	e5853004 	str	r3, [r5, #4]
    99f0:	e585200c 	str	r2, [r5, #12]
    99f4:	eaffff9f 	b	9878 <block_filter+0xf8>
    99f8:	e1a00007 	mov	r0, r7
    99fc:	ebfffdf1 	bl	91c8 <iobuf_readbyte>
    9a00:	e3700001 	cmn	r0, #1
    9a04:	15953004 	ldrne	r3, [r5, #4]
    9a08:	128330c0 	addne	r3, r3, #192	; 0xc0
    9a0c:	10833000 	addne	r3, r3, r0
    9a10:	0a0000e7 	beq	9db4 <block_filter+0x634>
    9a14:	e5853004 	str	r3, [r5, #4]
    9a18:	e3530000 	cmp	r3, #0
    9a1c:	e3a02002 	mov	r2, #2
    9a20:	e585200c 	str	r2, [r5, #12]
    9a24:	1affff93 	bne	9878 <block_filter+0xf8>
    9a28:	e16f9f16 	clz	r9, r6
    9a2c:	e3a03001 	mov	r3, #1
    9a30:	e585301c 	str	r3, [r5, #28]
    9a34:	e1a092a9 	lsr	r9, r9, #5
    9a38:	e2699000 	rsb	r9, r9, #0
    9a3c:	eaffffa6 	b	98dc <block_filter+0x15c>
    9a40:	e1a00007 	mov	r0, r7
    9a44:	ebfffddf 	bl	91c8 <iobuf_readbyte>
    9a48:	e3700001 	cmn	r0, #1
    9a4c:	e1a03000 	mov	r3, r0
    9a50:	1affffcd 	bne	998c <block_filter+0x20c>
    9a54:	e59f0530 	ldr	r0, [pc, #1328]	; 9f8c <block_filter+0x80c>
    9a58:	e3a09059 	mov	r9, #89	; 0x59
    9a5c:	e08f0000 	add	r0, pc, r0
    9a60:	eb001574 	bl	f038 <tfp_printf>
    9a64:	eaffff9c 	b	98dc <block_filter+0x15c>
    9a68:	e35300ff 	cmp	r3, #255	; 0xff
    9a6c:	0a000063 	beq	9c00 <block_filter+0x480>
    9a70:	e203301f 	and	r3, r3, #31
    9a74:	e3a02001 	mov	r2, #1
    9a78:	e1a03312 	lsl	r3, r2, r3
    9a7c:	e5853004 	str	r3, [r5, #4]
    9a80:	eaffff7c 	b	9878 <block_filter+0xf8>
    9a84:	e59f0504 	ldr	r0, [pc, #1284]	; 9f90 <block_filter+0x810>
    9a88:	e595100c 	ldr	r1, [r5, #12]
    9a8c:	e08f0000 	add	r0, pc, r0
    9a90:	eb001568 	bl	f038 <tfp_printf>
    9a94:	e595300c 	ldr	r3, [r5, #12]
    9a98:	e3530000 	cmp	r3, #0
    9a9c:	0affff4f 	beq	97e0 <block_filter+0x60>
    9aa0:	e5950014 	ldr	r0, [r5, #20]
    9aa4:	e0806004 	add	r6, r0, r4
    9aa8:	e3560c02 	cmp	r6, #512	; 0x200
    9aac:	3a000089 	bcc	9cd8 <block_filter+0x558>
    9ab0:	e3560b01 	cmp	r6, #1024	; 0x400
    9ab4:	3a0000c3 	bcc	9dc8 <block_filter+0x648>
    9ab8:	e3a03b01 	mov	r3, #1024	; 0x400
    9abc:	e3a0200a 	mov	r2, #10
    9ac0:	e1a03083 	lsl	r3, r3, #1
    9ac4:	e1a00002 	mov	r0, r2
    9ac8:	e1560003 	cmp	r6, r3
    9acc:	e2822001 	add	r2, r2, #1
    9ad0:	2afffffa 	bcs	9ac0 <block_filter+0x340>
    9ad4:	e350001f 	cmp	r0, #31
    9ad8:	e38080e0 	orr	r8, r0, #224	; 0xe0
    9adc:	e1a040a3 	lsr	r4, r3, #1
    9ae0:	c3a00000 	movgt	r0, #0
    9ae4:	d3a00001 	movle	r0, #1
    9ae8:	eb001552 	bl	f038 <tfp_printf>
    9aec:	e1a01008 	mov	r1, r8
    9af0:	e1a00007 	mov	r0, r7
    9af4:	ebfffec0 	bl	95fc <iobuf_writebyte>
    9af8:	e5959014 	ldr	r9, [r5, #20]
    9afc:	e3590000 	cmp	r9, #0
    9b00:	1a000009 	bne	9b2c <block_filter+0x3ac>
    9b04:	e1540006 	cmp	r4, r6
    9b08:	21a04006 	movcs	r4, r6
    9b0c:	e1a02004 	mov	r2, r4
    9b10:	e1a0100a 	mov	r1, sl
    9b14:	e1a00007 	mov	r0, r7
    9b18:	ebfffee2 	bl	96a8 <iobuf_write>
    9b1c:	e3500000 	cmp	r0, #0
    9b20:	0a000013 	beq	9b74 <block_filter+0x3f4>
    9b24:	e3e09000 	mvn	r9, #0
    9b28:	eaffff2d 	b	97e4 <block_filter+0x64>
    9b2c:	e0466009 	sub	r6, r6, r9
    9b30:	e2490c02 	sub	r0, r9, #512	; 0x200
    9b34:	e16f0f10 	clz	r0, r0
    9b38:	e1a002a0 	lsr	r0, r0, #5
    9b3c:	eb00153d 	bl	f038 <tfp_printf>
    9b40:	e5951010 	ldr	r1, [r5, #16]
    9b44:	e1a02009 	mov	r2, r9
    9b48:	e1a00007 	mov	r0, r7
    9b4c:	ebfffed5 	bl	96a8 <iobuf_write>
    9b50:	e2509000 	subs	r9, r0, #0
    9b54:	e3a03000 	mov	r3, #0
    9b58:	e5853014 	str	r3, [r5, #20]
    9b5c:	13a09001 	movne	r9, #1
    9b60:	e1540006 	cmp	r4, r6
    9b64:	e2699000 	rsb	r9, r9, #0
    9b68:	21a04006 	movcs	r4, r6
    9b6c:	e3540000 	cmp	r4, #0
    9b70:	1affffe5 	bne	9b0c <block_filter+0x38c>
    9b74:	e16f3f19 	clz	r3, r9
    9b78:	e0466004 	sub	r6, r6, r4
    9b7c:	e1a032a3 	lsr	r3, r3, #5
    9b80:	e08aa004 	add	sl, sl, r4
    9b84:	e3560c02 	cmp	r6, #512	; 0x200
    9b88:	33a02000 	movcc	r2, #0
    9b8c:	22032001 	andcs	r2, r3, #1
    9b90:	e3520000 	cmp	r2, #0
    9b94:	1affffc5 	bne	9ab0 <block_filter+0x330>
    9b98:	e3560000 	cmp	r6, #0
    9b9c:	03a03000 	moveq	r3, #0
    9ba0:	12033001 	andne	r3, r3, #1
    9ba4:	e3530000 	cmp	r3, #0
    9ba8:	0affff0d 	beq	97e4 <block_filter+0x64>
    9bac:	e59f03e0 	ldr	r0, [pc, #992]	; 9f94 <block_filter+0x814>
    9bb0:	e08f0000 	add	r0, pc, r0
    9bb4:	eb00151f 	bl	f038 <tfp_printf>
    9bb8:	e5950010 	ldr	r0, [r5, #16]
    9bbc:	e3500000 	cmp	r0, #0
    9bc0:	0a0000e0 	beq	9f48 <block_filter+0x7c8>
    9bc4:	e1a02006 	mov	r2, r6
    9bc8:	e1a0100a 	mov	r1, sl
    9bcc:	e3a09000 	mov	r9, #0
    9bd0:	eb000d2f 	bl	d094 <memcpy>
    9bd4:	e5856014 	str	r6, [r5, #20]
    9bd8:	eaffff01 	b	97e4 <block_filter+0x64>
    9bdc:	e5953000 	ldr	r3, [r5]
    9be0:	e3530002 	cmp	r3, #2
    9be4:	0a00007b 	beq	9dd8 <block_filter+0x658>
    9be8:	e5959004 	ldr	r9, [r5, #4]
    9bec:	e3590000 	cmp	r9, #0
    9bf0:	1a00006a 	bne	9da0 <block_filter+0x620>
    9bf4:	e1a00005 	mov	r0, r5
    9bf8:	eb000ce0 	bl	cf80 <xfree>
    9bfc:	eafffef8 	b	97e4 <block_filter+0x64>
    9c00:	e5973010 	ldr	r3, [r7, #16]
    9c04:	e3530000 	cmp	r3, #0
    9c08:	1a000003 	bne	9c1c <block_filter+0x49c>
    9c0c:	e5973018 	ldr	r3, [r7, #24]
    9c10:	e597201c 	ldr	r2, [r7, #28]
    9c14:	e1530002 	cmp	r3, r2
    9c18:	3a000056 	bcc	9d78 <block_filter+0x5f8>
    9c1c:	e1a00007 	mov	r0, r7
    9c20:	ebfffd68 	bl	91c8 <iobuf_readbyte>
    9c24:	e5972010 	ldr	r2, [r7, #16]
    9c28:	e1a03c00 	lsl	r3, r0, #24
    9c2c:	e5853004 	str	r3, [r5, #4]
    9c30:	e3520000 	cmp	r2, #0
    9c34:	0597201c 	ldreq	r2, [r7, #28]
    9c38:	1a000002 	bne	9c48 <block_filter+0x4c8>
    9c3c:	e5971018 	ldr	r1, [r7, #24]
    9c40:	e1510002 	cmp	r1, r2
    9c44:	3a00002f 	bcc	9d08 <block_filter+0x588>
    9c48:	e1a00007 	mov	r0, r7
    9c4c:	ebfffd5d 	bl	91c8 <iobuf_readbyte>
    9c50:	e5971010 	ldr	r1, [r7, #16]
    9c54:	e5952004 	ldr	r2, [r5, #4]
    9c58:	e1a03800 	lsl	r3, r0, #16
    9c5c:	e3510000 	cmp	r1, #0
    9c60:	e20338ff 	and	r3, r3, #16711680	; 0xff0000
    9c64:	e1833002 	orr	r3, r3, r2
    9c68:	e5853004 	str	r3, [r5, #4]
    9c6c:	0597201c 	ldreq	r2, [r7, #28]
    9c70:	1a000002 	bne	9c80 <block_filter+0x500>
    9c74:	e5971018 	ldr	r1, [r7, #24]
    9c78:	e1510002 	cmp	r1, r2
    9c7c:	3a00002b 	bcc	9d30 <block_filter+0x5b0>
    9c80:	e1a00007 	mov	r0, r7
    9c84:	ebfffd4f 	bl	91c8 <iobuf_readbyte>
    9c88:	e5971010 	ldr	r1, [r7, #16]
    9c8c:	e5952004 	ldr	r2, [r5, #4]
    9c90:	e1a03400 	lsl	r3, r0, #8
    9c94:	e3510000 	cmp	r1, #0
    9c98:	e6ff3073 	uxth	r3, r3
    9c9c:	e1833002 	orr	r3, r3, r2
    9ca0:	e5853004 	str	r3, [r5, #4]
    9ca4:	0597201c 	ldreq	r2, [r7, #28]
    9ca8:	1a000002 	bne	9cb8 <block_filter+0x538>
    9cac:	e5971018 	ldr	r1, [r7, #24]
    9cb0:	e1510002 	cmp	r1, r2
    9cb4:	3a000027 	bcc	9d58 <block_filter+0x5d8>
    9cb8:	e1a00007 	mov	r0, r7
    9cbc:	ebfffd41 	bl	91c8 <iobuf_readbyte>
    9cc0:	e3700001 	cmn	r0, #1
    9cc4:	e1a02000 	mov	r2, r0
    9cc8:	15953004 	ldrne	r3, [r5, #4]
    9ccc:	0a000098 	beq	9f34 <block_filter+0x7b4>
    9cd0:	e1823003 	orr	r3, r2, r3
    9cd4:	eaffff4e 	b	9a14 <block_filter+0x294>
    9cd8:	e5953010 	ldr	r3, [r5, #16]
    9cdc:	e3530000 	cmp	r3, #0
    9ce0:	0a000058 	beq	9e48 <block_filter+0x6c8>
    9ce4:	e0830000 	add	r0, r3, r0
    9ce8:	e1a02004 	mov	r2, r4
    9cec:	e1a0100a 	mov	r1, sl
    9cf0:	e3a09000 	mov	r9, #0
    9cf4:	eb000ce6 	bl	d094 <memcpy>
    9cf8:	e5953014 	ldr	r3, [r5, #20]
    9cfc:	e0834004 	add	r4, r3, r4
    9d00:	e5854014 	str	r4, [r5, #20]
    9d04:	eafffeb6 	b	97e4 <block_filter+0x64>
    9d08:	e5970008 	ldr	r0, [r7, #8]
    9d0c:	e597c020 	ldr	ip, [r7, #32]
    9d10:	e2800001 	add	r0, r0, #1
    9d14:	e5870008 	str	r0, [r7, #8]
    9d18:	e2810001 	add	r0, r1, #1
    9d1c:	e5870018 	str	r0, [r7, #24]
    9d20:	e7dc1001 	ldrb	r1, [ip, r1]
    9d24:	e1833801 	orr	r3, r3, r1, lsl #16
    9d28:	e5853004 	str	r3, [r5, #4]
    9d2c:	eaffffd0 	b	9c74 <block_filter+0x4f4>
    9d30:	e5970008 	ldr	r0, [r7, #8]
    9d34:	e597c020 	ldr	ip, [r7, #32]
    9d38:	e2800001 	add	r0, r0, #1
    9d3c:	e5870008 	str	r0, [r7, #8]
    9d40:	e2810001 	add	r0, r1, #1
    9d44:	e5870018 	str	r0, [r7, #24]
    9d48:	e7dc1001 	ldrb	r1, [ip, r1]
    9d4c:	e1833401 	orr	r3, r3, r1, lsl #8
    9d50:	e5853004 	str	r3, [r5, #4]
    9d54:	eaffffd4 	b	9cac <block_filter+0x52c>
    9d58:	e5972008 	ldr	r2, [r7, #8]
    9d5c:	e5970020 	ldr	r0, [r7, #32]
    9d60:	e2822001 	add	r2, r2, #1
    9d64:	e5872008 	str	r2, [r7, #8]
    9d68:	e2812001 	add	r2, r1, #1
    9d6c:	e5872018 	str	r2, [r7, #24]
    9d70:	e7d02001 	ldrb	r2, [r0, r1]
    9d74:	eaffffd5 	b	9cd0 <block_filter+0x550>
    9d78:	e5971008 	ldr	r1, [r7, #8]
    9d7c:	e5970020 	ldr	r0, [r7, #32]
    9d80:	e2811001 	add	r1, r1, #1
    9d84:	e5871008 	str	r1, [r7, #8]
    9d88:	e2831001 	add	r1, r3, #1
    9d8c:	e5871018 	str	r1, [r7, #24]
    9d90:	e7d03003 	ldrb	r3, [r0, r3]
    9d94:	e1a03c03 	lsl	r3, r3, #24
    9d98:	e5853004 	str	r3, [r5, #4]
    9d9c:	eaffffa6 	b	9c3c <block_filter+0x4bc>
    9da0:	e59f01f0 	ldr	r0, [pc, #496]	; 9f98 <block_filter+0x818>
    9da4:	e3a09000 	mov	r9, #0
    9da8:	e08f0000 	add	r0, pc, r0
    9dac:	eb0014a1 	bl	f038 <tfp_printf>
    9db0:	eaffff8f 	b	9bf4 <block_filter+0x474>
    9db4:	e59f01e0 	ldr	r0, [pc, #480]	; 9f9c <block_filter+0x81c>
    9db8:	e3a09059 	mov	r9, #89	; 0x59
    9dbc:	e08f0000 	add	r0, pc, r0
    9dc0:	eb00149c 	bl	f038 <tfp_printf>
    9dc4:	eafffec4 	b	98dc <block_filter+0x15c>
    9dc8:	e3a00001 	mov	r0, #1
    9dcc:	e3a04c02 	mov	r4, #512	; 0x200
    9dd0:	e3a080e9 	mov	r8, #233	; 0xe9
    9dd4:	eaffff43 	b	9ae8 <block_filter+0x368>
    9dd8:	e595900c 	ldr	r9, [r5, #12]
    9ddc:	e3590000 	cmp	r9, #0
    9de0:	0affff83 	beq	9bf4 <block_filter+0x474>
    9de4:	e5956014 	ldr	r6, [r5, #20]
    9de8:	e35600bf 	cmp	r6, #191	; 0xbf
    9dec:	9a000047 	bls	9f10 <block_filter+0x790>
    9df0:	e3560d83 	cmp	r6, #8384	; 0x20c0
    9df4:	2a000019 	bcs	9e60 <block_filter+0x6e0>
    9df8:	e59f01a0 	ldr	r0, [pc, #416]	; 9fa0 <block_filter+0x820>
    9dfc:	e24680c0 	sub	r8, r6, #192	; 0xc0
    9e00:	e1a01006 	mov	r1, r6
    9e04:	e08f0000 	add	r0, pc, r0
    9e08:	eb00148a 	bl	f038 <tfp_printf>
    9e0c:	e1a01428 	lsr	r1, r8, #8
    9e10:	e1a00007 	mov	r0, r7
    9e14:	e28110c0 	add	r1, r1, #192	; 0xc0
    9e18:	ebfffdf7 	bl	95fc <iobuf_writebyte>
    9e1c:	e2504000 	subs	r4, r0, #0
    9e20:	0a00004e 	beq	9f60 <block_filter+0x7e0>
    9e24:	e2544000 	subs	r4, r4, #0
    9e28:	e5950010 	ldr	r0, [r5, #16]
    9e2c:	13a04001 	movne	r4, #1
    9e30:	e2649000 	rsb	r9, r4, #0
    9e34:	eb000c51 	bl	cf80 <xfree>
    9e38:	e3a03000 	mov	r3, #0
    9e3c:	e5853010 	str	r3, [r5, #16]
    9e40:	e5853014 	str	r3, [r5, #20]
    9e44:	eaffff6a 	b	9bf4 <block_filter+0x474>
    9e48:	e3a00c02 	mov	r0, #512	; 0x200
    9e4c:	eb000c57 	bl	cfb0 <xmalloc>
    9e50:	e1a03000 	mov	r3, r0
    9e54:	e5853010 	str	r3, [r5, #16]
    9e58:	e5950014 	ldr	r0, [r5, #20]
    9e5c:	eaffffa0 	b	9ce4 <block_filter+0x564>
    9e60:	e59f013c 	ldr	r0, [pc, #316]	; 9fa4 <block_filter+0x824>
    9e64:	e1a01006 	mov	r1, r6
    9e68:	e08f0000 	add	r0, pc, r0
    9e6c:	eb001471 	bl	f038 <tfp_printf>
    9e70:	e3a010ff 	mov	r1, #255	; 0xff
    9e74:	e1a00007 	mov	r0, r7
    9e78:	ebfffddf 	bl	95fc <iobuf_writebyte>
    9e7c:	e2504000 	subs	r4, r0, #0
    9e80:	1affffe7 	bne	9e24 <block_filter+0x6a4>
    9e84:	e1a01c26 	lsr	r1, r6, #24
    9e88:	e1a00007 	mov	r0, r7
    9e8c:	ebfffdda 	bl	95fc <iobuf_writebyte>
    9e90:	e2504000 	subs	r4, r0, #0
    9e94:	1affffe2 	bne	9e24 <block_filter+0x6a4>
    9e98:	e7e71856 	ubfx	r1, r6, #16, #8
    9e9c:	e1a00007 	mov	r0, r7
    9ea0:	ebfffdd5 	bl	95fc <iobuf_writebyte>
    9ea4:	e2504000 	subs	r4, r0, #0
    9ea8:	1affffdd 	bne	9e24 <block_filter+0x6a4>
    9eac:	e7e71456 	ubfx	r1, r6, #8, #8
    9eb0:	e1a00007 	mov	r0, r7
    9eb4:	ebfffdd0 	bl	95fc <iobuf_writebyte>
    9eb8:	e2504000 	subs	r4, r0, #0
    9ebc:	1affffd8 	bne	9e24 <block_filter+0x6a4>
    9ec0:	e6ef1076 	uxtb	r1, r6
    9ec4:	e1a00007 	mov	r0, r7
    9ec8:	ebfffdcb 	bl	95fc <iobuf_writebyte>
    9ecc:	e1a04000 	mov	r4, r0
    9ed0:	e16f3f14 	clz	r3, r4
    9ed4:	e3560000 	cmp	r6, #0
    9ed8:	e1a032a3 	lsr	r3, r3, #5
    9edc:	03a03000 	moveq	r3, #0
    9ee0:	e3530000 	cmp	r3, #0
    9ee4:	0affffce 	beq	9e24 <block_filter+0x6a4>
    9ee8:	e59f00b8 	ldr	r0, [pc, #184]	; 9fa8 <block_filter+0x828>
    9eec:	e1a01006 	mov	r1, r6
    9ef0:	e08f0000 	add	r0, pc, r0
    9ef4:	eb00144f 	bl	f038 <tfp_printf>
    9ef8:	e5951010 	ldr	r1, [r5, #16]
    9efc:	e1a02006 	mov	r2, r6
    9f00:	e1a00007 	mov	r0, r7
    9f04:	ebfffde7 	bl	96a8 <iobuf_write>
    9f08:	e1a04000 	mov	r4, r0
    9f0c:	eaffffc4 	b	9e24 <block_filter+0x6a4>
    9f10:	e1a01006 	mov	r1, r6
    9f14:	e1a00007 	mov	r0, r7
    9f18:	ebfffdb7 	bl	95fc <iobuf_writebyte>
    9f1c:	e1a04000 	mov	r4, r0
    9f20:	e1a01006 	mov	r1, r6
    9f24:	e59f0080 	ldr	r0, [pc, #128]	; 9fac <block_filter+0x82c>
    9f28:	e08f0000 	add	r0, pc, r0
    9f2c:	eb001441 	bl	f038 <tfp_printf>
    9f30:	eaffffe6 	b	9ed0 <block_filter+0x750>
    9f34:	e59f0074 	ldr	r0, [pc, #116]	; 9fb0 <block_filter+0x830>
    9f38:	e3a09059 	mov	r9, #89	; 0x59
    9f3c:	e08f0000 	add	r0, pc, r0
    9f40:	eb00143c 	bl	f038 <tfp_printf>
    9f44:	eafffe64 	b	98dc <block_filter+0x15c>
    9f48:	e3a00c02 	mov	r0, #512	; 0x200
    9f4c:	eb000c17 	bl	cfb0 <xmalloc>
    9f50:	e5850010 	str	r0, [r5, #16]
    9f54:	eaffff1a 	b	9bc4 <block_filter+0x444>
    9f58:	e1a06009 	mov	r6, r9
    9f5c:	eafffe5e 	b	98dc <block_filter+0x15c>
    9f60:	e6ef1078 	uxtb	r1, r8
    9f64:	e1a00007 	mov	r0, r7
    9f68:	ebfffda3 	bl	95fc <iobuf_writebyte>
    9f6c:	e1a04000 	mov	r4, r0
    9f70:	eaffffd6 	b	9ed0 <block_filter+0x750>
    9f74:	0000baa0 	andeq	fp, r0, r0, lsr #21
    9f78:	00015640 	andeq	r5, r1, r0, asr #12
    9f7c:	00008128 	andeq	r8, r0, r8, lsr #2
    9f80:	000080b8 	strheq	r8, [r0], -r8	; <UNPREDICTABLE>
    9f84:	00008108 	andeq	r8, r0, r8, lsl #2
    9f88:	00008008 	andeq	r8, r0, r8
    9f8c:	00007f00 	andeq	r7, r0, r0, lsl #30
    9f90:	00007f7c 	andeq	r7, r0, ip, ror pc
    9f94:	00007e6c 	andeq	r7, r0, ip, ror #28
    9f98:	00007d44 	andeq	r7, r0, r4, asr #26
    9f9c:	00007bc8 	andeq	r7, r0, r8, asr #23
    9fa0:	00007c64 	andeq	r7, r0, r4, ror #24
    9fa4:	00007c2c 	andeq	r7, r0, ip, lsr #24
    9fa8:	00007bd0 	ldrdeq	r7, [r0], -r0
    9fac:	00007b14 	andeq	r7, r0, r4, lsl fp
    9fb0:	00007a70 	andeq	r7, r0, r0, ror sl

00009fb4 <iobuf_tell>:
    9fb4:	e590200c 	ldr	r2, [r0, #12]
    9fb8:	e5900008 	ldr	r0, [r0, #8]
    9fbc:	e0820000 	add	r0, r2, r0
    9fc0:	e12fff1e 	bx	lr

00009fc4 <iobuf_set_partial_body_length_mode>:
    9fc4:	e92d4070 	push	{r4, r5, r6, lr}
    9fc8:	e1a04000 	mov	r4, r0
    9fcc:	e59f00b8 	ldr	r0, [pc, #184]	; a08c <iobuf_set_partial_body_length_mode+0xc8>
    9fd0:	e1a05001 	mov	r5, r1
    9fd4:	e08f0000 	add	r0, pc, r0
    9fd8:	eb001416 	bl	f038 <tfp_printf>
    9fdc:	e3550000 	cmp	r5, #0
    9fe0:	1a000015 	bne	a03c <iobuf_set_partial_body_length_mode+0x78>
    9fe4:	e5d43000 	ldrb	r3, [r4]
    9fe8:	e3530000 	cmp	r3, #0
    9fec:	0a00000e 	beq	a02c <iobuf_set_partial_body_length_mode+0x68>
    9ff0:	e59f0098 	ldr	r0, [pc, #152]	; a090 <iobuf_set_partial_body_length_mode+0xcc>
    9ff4:	e59f5098 	ldr	r5, [pc, #152]	; a094 <iobuf_set_partial_body_length_mode+0xd0>
    9ff8:	e08f0000 	add	r0, pc, r0
    9ffc:	e08f5005 	add	r5, pc, r5
    a000:	eb00140c 	bl	f038 <tfp_printf>
    a004:	e594002c 	ldr	r0, [r4, #44]	; 0x2c
    a008:	e0400005 	sub	r0, r0, r5
    a00c:	e16f0f10 	clz	r0, r0
    a010:	e1a002a0 	lsr	r0, r0, #5
    a014:	eb001407 	bl	f038 <tfp_printf>
    a018:	e1a01005 	mov	r1, r5
    a01c:	e1a00004 	mov	r0, r4
    a020:	e3a02000 	mov	r2, #0
    a024:	e8bd4070 	pop	{r4, r5, r6, lr}
    a028:	eafffba9 	b	8ed4 <iobuf_pop_filter>
    a02c:	e59f0064 	ldr	r0, [pc, #100]	; a098 <iobuf_set_partial_body_length_mode+0xd4>
    a030:	e08f0000 	add	r0, pc, r0
    a034:	eb0013ff 	bl	f038 <tfp_printf>
    a038:	eaffffec 	b	9ff0 <iobuf_set_partial_body_length_mode+0x2c>
    a03c:	e3a01020 	mov	r1, #32
    a040:	e3a00001 	mov	r0, #1
    a044:	eb000c01 	bl	d050 <xcalloc>
    a048:	e5d41000 	ldrb	r1, [r4]
    a04c:	e3a03001 	mov	r3, #1
    a050:	e580300c 	str	r3, [r0, #12]
    a054:	e3a03000 	mov	r3, #0
    a058:	e5801000 	str	r1, [r0]
    a05c:	e1a06000 	mov	r6, r0
    a060:	e5803004 	str	r3, [r0, #4]
    a064:	e59f0030 	ldr	r0, [pc, #48]	; a09c <iobuf_set_partial_body_length_mode+0xd8>
    a068:	e5865018 	str	r5, [r6, #24]
    a06c:	e08f0000 	add	r0, pc, r0
    a070:	eb0013f0 	bl	f038 <tfp_printf>
    a074:	e59f1024 	ldr	r1, [pc, #36]	; a0a0 <iobuf_set_partial_body_length_mode+0xdc>
    a078:	e1a02006 	mov	r2, r6
    a07c:	e1a00004 	mov	r0, r4
    a080:	e08f1001 	add	r1, pc, r1
    a084:	e8bd4070 	pop	{r4, r5, r6, lr}
    a088:	eafffb8f 	b	8ecc <iobuf_push_filter>
    a08c:	00007b38 	andeq	r7, r0, r8, lsr fp
    a090:	00007b80 	andeq	r7, r0, r0, lsl #23
    a094:	fffff77c 			; <UNDEFINED> instruction: 0xfffff77c
    a098:	00007b04 	andeq	r7, r0, r4, lsl #22
    a09c:	00007b40 	andeq	r7, r0, r0, asr #22
    a0a0:	fffff6f8 			; <UNDEFINED> instruction: 0xfffff6f8

0000a0a4 <translate_file_handle>:
    a0a4:	e12fff1e 	bx	lr

0000a0a8 <iobuf_skip_rest>:
    a0a8:	e3520000 	cmp	r2, #0
    a0ac:	e92d4070 	push	{r4, r5, r6, lr}
    a0b0:	e1a04000 	mov	r4, r0
    a0b4:	1a000031 	bne	a180 <iobuf_skip_rest+0xd8>
    a0b8:	e3510000 	cmp	r1, #0
    a0bc:	e1a05001 	mov	r5, r1
    a0c0:	08bd8070 	popeq	{r4, r5, r6, pc}
    a0c4:	e5943010 	ldr	r3, [r4, #16]
    a0c8:	e1a00004 	mov	r0, r4
    a0cc:	e3530000 	cmp	r3, #0
    a0d0:	0a000014 	beq	a128 <iobuf_skip_rest+0x80>
    a0d4:	e2455001 	sub	r5, r5, #1
    a0d8:	ebfffc3a 	bl	91c8 <iobuf_readbyte>
    a0dc:	e3700001 	cmn	r0, #1
    a0e0:	08bd8070 	popeq	{r4, r5, r6, pc}
    a0e4:	e3550000 	cmp	r5, #0
    a0e8:	1a00000a 	bne	a118 <iobuf_skip_rest+0x70>
    a0ec:	e8bd8070 	pop	{r4, r5, r6, pc}
    a0f0:	e1530005 	cmp	r3, r5
    a0f4:	e5941008 	ldr	r1, [r4, #8]
    a0f8:	21a03005 	movcs	r3, r5
    a0fc:	e0455003 	sub	r5, r5, r3
    a100:	e0811003 	add	r1, r1, r3
    a104:	e3550000 	cmp	r5, #0
    a108:	e0833002 	add	r3, r3, r2
    a10c:	e5841008 	str	r1, [r4, #8]
    a110:	e5843018 	str	r3, [r4, #24]
    a114:	08bd8070 	popeq	{r4, r5, r6, pc}
    a118:	e5943010 	ldr	r3, [r4, #16]
    a11c:	e1a00004 	mov	r0, r4
    a120:	e3530000 	cmp	r3, #0
    a124:	1affffea 	bne	a0d4 <iobuf_skip_rest+0x2c>
    a128:	e5942018 	ldr	r2, [r4, #24]
    a12c:	e594101c 	ldr	r1, [r4, #28]
    a130:	e1520001 	cmp	r2, r1
    a134:	e0413002 	sub	r3, r1, r2
    a138:	3affffec 	bcc	a0f0 <iobuf_skip_rest+0x48>
    a13c:	eaffffe4 	b	a0d4 <iobuf_skip_rest+0x2c>
    a140:	e594101c 	ldr	r1, [r4, #28]
    a144:	e5942018 	ldr	r2, [r4, #24]
    a148:	e1520001 	cmp	r2, r1
    a14c:	2a000007 	bcs	a170 <iobuf_skip_rest+0xc8>
    a150:	e5943008 	ldr	r3, [r4, #8]
    a154:	e5841018 	str	r1, [r4, #24]
    a158:	e0433002 	sub	r3, r3, r2
    a15c:	e5942018 	ldr	r2, [r4, #24]
    a160:	e0833001 	add	r3, r3, r1
    a164:	e1520001 	cmp	r2, r1
    a168:	e5843008 	str	r3, [r4, #8]
    a16c:	3afffff7 	bcc	a150 <iobuf_skip_rest+0xa8>
    a170:	e1a00004 	mov	r0, r4
    a174:	ebfffc13 	bl	91c8 <iobuf_readbyte>
    a178:	e3700001 	cmn	r0, #1
    a17c:	08bd8070 	popeq	{r4, r5, r6, pc}
    a180:	e5943010 	ldr	r3, [r4, #16]
    a184:	e3530000 	cmp	r3, #0
    a188:	1afffff8 	bne	a170 <iobuf_skip_rest+0xc8>
    a18c:	eaffffeb 	b	a140 <iobuf_skip_rest+0x98>

0000a190 <log_hexdump>:
    a190:	e92d4ff0 	push	{r4, r5, r6, r7, r8, r9, sl, fp, lr}
    a194:	e1a06000 	mov	r6, r0
    a198:	e59f013c 	ldr	r0, [pc, #316]	; a2dc <log_hexdump+0x14c>
    a19c:	e1a07001 	mov	r7, r1
    a1a0:	e24dd02c 	sub	sp, sp, #44	; 0x2c
    a1a4:	e08f0000 	add	r0, pc, r0
    a1a8:	eb0013a2 	bl	f038 <tfp_printf>
    a1ac:	e3570000 	cmp	r7, #0
    a1b0:	da000041 	ble	a2bc <log_hexdump+0x12c>
    a1b4:	e59f3124 	ldr	r3, [pc, #292]	; a2e0 <log_hexdump+0x150>
    a1b8:	e3a0a000 	mov	sl, #0
    a1bc:	e59f9120 	ldr	r9, [pc, #288]	; a2e4 <log_hexdump+0x154>
    a1c0:	e59f8120 	ldr	r8, [pc, #288]	; a2e8 <log_hexdump+0x158>
    a1c4:	e59f5120 	ldr	r5, [pc, #288]	; a2ec <log_hexdump+0x15c>
    a1c8:	e08f3003 	add	r3, pc, r3
    a1cc:	e58d3004 	str	r3, [sp, #4]
    a1d0:	e28d3013 	add	r3, sp, #19
    a1d4:	e08f9009 	add	r9, pc, r9
    a1d8:	e08f8008 	add	r8, pc, r8
    a1dc:	e08f5005 	add	r5, pc, r5
    a1e0:	e58d3008 	str	r3, [sp, #8]
    a1e4:	e28d3014 	add	r3, sp, #20
    a1e8:	e58d300c 	str	r3, [sp, #12]
    a1ec:	e59d0004 	ldr	r0, [sp, #4]
    a1f0:	e3570010 	cmp	r7, #16
    a1f4:	e1a0100a 	mov	r1, sl
    a1f8:	e3a0b000 	mov	fp, #0
    a1fc:	b1a04007 	movlt	r4, r7
    a200:	a3a04010 	movge	r4, #16
    a204:	eb00138b 	bl	f038 <tfp_printf>
    a208:	ea000006 	b	a228 <log_hexdump+0x98>
    a20c:	e59f00dc 	ldr	r0, [pc, #220]	; a2f0 <log_hexdump+0x160>
    a210:	e7d6100b 	ldrb	r1, [r6, fp]
    a214:	e28bb001 	add	fp, fp, #1
    a218:	e08f0000 	add	r0, pc, r0
    a21c:	eb001385 	bl	f038 <tfp_printf>
    a220:	e35b0010 	cmp	fp, #16
    a224:	0a00000a 	beq	a254 <log_hexdump+0xc4>
    a228:	e31b0001 	tst	fp, #1
    a22c:	0a000027 	beq	a2d0 <log_hexdump+0x140>
    a230:	e31b0007 	tst	fp, #7
    a234:	0a000022 	beq	a2c4 <log_hexdump+0x134>
    a238:	e154000b 	cmp	r4, fp
    a23c:	e1a00005 	mov	r0, r5
    a240:	cafffff1 	bgt	a20c <log_hexdump+0x7c>
    a244:	e28bb001 	add	fp, fp, #1
    a248:	eb00137a 	bl	f038 <tfp_printf>
    a24c:	e35b0010 	cmp	fp, #16
    a250:	1afffff4 	bne	a228 <log_hexdump+0x98>
    a254:	e59f0098 	ldr	r0, [pc, #152]	; a2f4 <log_hexdump+0x164>
    a258:	e08f0000 	add	r0, pc, r0
    a25c:	eb001375 	bl	f038 <tfp_printf>
    a260:	e59d1008 	ldr	r1, [sp, #8]
    a264:	e2462001 	sub	r2, r6, #1
    a268:	e082c004 	add	ip, r2, r4
    a26c:	e5f23001 	ldrb	r3, [r2, #1]!
    a270:	e2430020 	sub	r0, r3, #32
    a274:	e350005e 	cmp	r0, #94	; 0x5e
    a278:	83a0302e 	movhi	r3, #46	; 0x2e
    a27c:	e152000c 	cmp	r2, ip
    a280:	e5e13001 	strb	r3, [r1, #1]!
    a284:	1afffff8 	bne	a26c <log_hexdump+0xdc>
    a288:	e59f0068 	ldr	r0, [pc, #104]	; a2f8 <log_hexdump+0x168>
    a28c:	e2843028 	add	r3, r4, #40	; 0x28
    a290:	e08d3003 	add	r3, sp, r3
    a294:	e3a02000 	mov	r2, #0
    a298:	e08f0000 	add	r0, pc, r0
    a29c:	e59d100c 	ldr	r1, [sp, #12]
    a2a0:	e0477004 	sub	r7, r7, r4
    a2a4:	e5432014 	strb	r2, [r3, #-20]	; 0xffffffec
    a2a8:	e0866004 	add	r6, r6, r4
    a2ac:	eb001361 	bl	f038 <tfp_printf>
    a2b0:	e08aa004 	add	sl, sl, r4
    a2b4:	e3570000 	cmp	r7, #0
    a2b8:	caffffcb 	bgt	a1ec <log_hexdump+0x5c>
    a2bc:	e28dd02c 	add	sp, sp, #44	; 0x2c
    a2c0:	e8bd8ff0 	pop	{r4, r5, r6, r7, r8, r9, sl, fp, pc}
    a2c4:	e1a00008 	mov	r0, r8
    a2c8:	eb00135a 	bl	f038 <tfp_printf>
    a2cc:	eaffffd9 	b	a238 <log_hexdump+0xa8>
    a2d0:	e1a00009 	mov	r0, r9
    a2d4:	eb001357 	bl	f038 <tfp_printf>
    a2d8:	eaffffd4 	b	a230 <log_hexdump+0xa0>
    a2dc:	00007abc 			; <UNDEFINED> instruction: 0x00007abc
    a2e0:	00007aa4 	andeq	r7, r0, r4, lsr #21
    a2e4:	00007ce8 	andeq	r7, r0, r8, ror #25
    a2e8:	00007ce4 	andeq	r7, r0, r4, ror #25
    a2ec:	00007aa0 	andeq	r7, r0, r0, lsr #21
    a2f0:	00007a5c 	andeq	r7, r0, ip, asr sl
    a2f4:	00007a24 	andeq	r7, r0, r4, lsr #20
    a2f8:	0000abd4 	ldrdeq	sl, [r0], -r4

0000a2fc <decrypt_memory>:
    a2fc:	e92d43f0 	push	{r4, r5, r6, r7, r8, r9, lr}
    a300:	e1a07000 	mov	r7, r0
    a304:	e59f00fc 	ldr	r0, [pc, #252]	; a408 <decrypt_memory+0x10c>
    a308:	e24dd014 	sub	sp, sp, #20
    a30c:	e59f80f8 	ldr	r8, [pc, #248]	; a40c <decrypt_memory+0x110>
    a310:	e1a05002 	mov	r5, r2
    a314:	e08f0000 	add	r0, pc, r0
    a318:	e1a06001 	mov	r6, r1
    a31c:	e08f8008 	add	r8, pc, r8
    a320:	eb001344 	bl	f038 <tfp_printf>
    a324:	e5875020 	str	r5, [r7, #32]
    a328:	e1a00006 	mov	r0, r6
    a32c:	e3a04000 	mov	r4, #0
    a330:	e1a01005 	mov	r1, r5
    a334:	e58d400c 	str	r4, [sp, #12]
    a338:	ebfff8f1 	bl	8704 <iobuf_temp_with_content>
    a33c:	e2506000 	subs	r6, r0, #0
    a340:	0a00002e 	beq	a400 <decrypt_memory+0x104>
    a344:	e59f50c4 	ldr	r5, [pc, #196]	; a410 <decrypt_memory+0x114>
    a348:	e1a01004 	mov	r1, r4
    a34c:	e1a00004 	mov	r0, r4
    a350:	e08f5005 	add	r5, pc, r5
    a354:	ebffff52 	bl	a0a4 <translate_file_handle>
    a358:	e1a01005 	mov	r1, r5
    a35c:	ebfffa1d 	bl	8bd8 <iobuf_fdopen>
    a360:	e1a01005 	mov	r1, r5
    a364:	e1a00004 	mov	r0, r4
    a368:	ebfff88e 	bl	85a8 <fd_cache_open>
    a36c:	e1a09000 	mov	r9, r0
    a370:	e1a00004 	mov	r0, r4
    a374:	eb001894 	bl	105cc <strlen>
    a378:	e2800038 	add	r0, r0, #56	; 0x38
    a37c:	eb000b0b 	bl	cfb0 <xmalloc>
    a380:	e5804010 	str	r4, [r0, #16]
    a384:	e1a05000 	mov	r5, r0
    a388:	e5809000 	str	r9, [r0]
    a38c:	e1a01004 	mov	r1, r4
    a390:	e2800036 	add	r0, r0, #54	; 0x36
    a394:	eb000b85 	bl	d1b0 <strcpy>
    a398:	e1a00004 	mov	r0, r4
    a39c:	eb000bdb 	bl	d310 <xstrdup>
    a3a0:	e59f306c 	ldr	r3, [pc, #108]	; a414 <decrypt_memory+0x118>
    a3a4:	e3a01001 	mov	r1, #1
    a3a8:	e5860038 	str	r0, [r6, #56]	; 0x38
    a3ac:	e1a02004 	mov	r2, r4
    a3b0:	e7983003 	ldr	r3, [r8, r3]
    a3b4:	e1a00005 	mov	r0, r5
    a3b8:	e586302c 	str	r3, [r6, #44]	; 0x2c
    a3bc:	e28d300c 	add	r3, sp, #12
    a3c0:	e5851008 	str	r1, [r5, #8]
    a3c4:	e5865030 	str	r5, [r6, #48]	; 0x30
    a3c8:	e58d3000 	str	r3, [sp]
    a3cc:	e1a03004 	mov	r3, r4
    a3d0:	ebfff7a0 	bl	8258 <file_filter>
    a3d4:	e1a01004 	mov	r1, r4
    a3d8:	e1a02006 	mov	r2, r6
    a3dc:	e1a00007 	mov	r0, r7
    a3e0:	eb001bc3 	bl	112f4 <proc_encryption_packets>
    a3e4:	e1a04000 	mov	r4, r0
    a3e8:	e59f0028 	ldr	r0, [pc, #40]	; a418 <decrypt_memory+0x11c>
    a3ec:	e08f0000 	add	r0, pc, r0
    a3f0:	eb001310 	bl	f038 <tfp_printf>
    a3f4:	e1a00004 	mov	r0, r4
    a3f8:	e28dd014 	add	sp, sp, #20
    a3fc:	e8bd83f0 	pop	{r4, r5, r6, r7, r8, r9, pc}
    a400:	e3e04000 	mvn	r4, #0
    a404:	eafffffa 	b	a3f4 <decrypt_memory+0xf8>
    a408:	0000796c 	andeq	r7, r0, ip, ror #18
    a40c:	0000af10 	andeq	sl, r0, r0, lsl pc
    a410:	00007940 	andeq	r7, r0, r0, asr #18
    a414:	00015668 	andeq	r5, r1, r8, ror #12
    a418:	000078a8 	andeq	r7, r0, r8, lsr #17

0000a41c <release_dfx_context>:
    a41c:	e92d4070 	push	{r4, r5, r6, lr}
    a420:	e2504000 	subs	r4, r0, #0
    a424:	08bd8070 	popeq	{r4, r5, r6, pc}
    a428:	e5940000 	ldr	r0, [r4]
    a42c:	eb001301 	bl	f038 <tfp_printf>
    a430:	e5945000 	ldr	r5, [r4]
    a434:	e2455001 	sub	r5, r5, #1
    a438:	e5845000 	str	r5, [r4]
    a43c:	e3550000 	cmp	r5, #0
    a440:	18bd8070 	popne	{r4, r5, r6, pc}
    a444:	e5940004 	ldr	r0, [r4, #4]
    a448:	eb000acc 	bl	cf80 <xfree>
    a44c:	e5940008 	ldr	r0, [r4, #8]
    a450:	e5845004 	str	r5, [r4, #4]
    a454:	eb000ac9 	bl	cf80 <xfree>
    a458:	e5845008 	str	r5, [r4, #8]
    a45c:	e1a00004 	mov	r0, r4
    a460:	e8bd4070 	pop	{r4, r5, r6, lr}
    a464:	ea000ac5 	b	cf80 <xfree>

0000a468 <decode_filter>:
    a468:	e92d47f0 	push	{r4, r5, r6, r7, r8, r9, sl, lr}
    a46c:	e24dd008 	sub	sp, sp, #8
    a470:	e1a05000 	mov	r5, r0
    a474:	e1a04001 	mov	r4, r1
    a478:	e59d9028 	ldr	r9, [sp, #40]	; 0x28
    a47c:	e1a07002 	mov	r7, r2
    a480:	e59f01e4 	ldr	r0, [pc, #484]	; a66c <decode_filter+0x204>
    a484:	e1a06003 	mov	r6, r3
    a488:	e5992000 	ldr	r2, [r9]
    a48c:	e08f0000 	add	r0, pc, r0
    a490:	e5953078 	ldr	r3, [r5, #120]	; 0x78
    a494:	eb0012e7 	bl	f038 <tfp_printf>
    a498:	e3540003 	cmp	r4, #3
    a49c:	0a000004 	beq	a4b4 <decode_filter+0x4c>
    a4a0:	e3540002 	cmp	r4, #2
    a4a4:	13a00000 	movne	r0, #0
    a4a8:	0a000046 	beq	a5c8 <decode_filter+0x160>
    a4ac:	e28dd008 	add	sp, sp, #8
    a4b0:	e8bd87f0 	pop	{r4, r5, r6, r7, r8, r9, sl, pc}
    a4b4:	e5d54050 	ldrb	r4, [r5, #80]	; 0x50
    a4b8:	e214a006 	ands	sl, r4, #6
    a4bc:	1a000063 	bne	a650 <decode_filter+0x1e8>
    a4c0:	e59f01a8 	ldr	r0, [pc, #424]	; a670 <decode_filter+0x208>
    a4c4:	e5998000 	ldr	r8, [r9]
    a4c8:	e08f0000 	add	r0, pc, r0
    a4cc:	eb0012d9 	bl	f038 <tfp_printf>
    a4d0:	e59f019c 	ldr	r0, [pc, #412]	; a674 <decode_filter+0x20c>
    a4d4:	e08f0000 	add	r0, pc, r0
    a4d8:	eb0012d6 	bl	f038 <tfp_printf>
    a4dc:	e5d53050 	ldrb	r3, [r5, #80]	; 0x50
    a4e0:	e2134001 	ands	r4, r3, #1
    a4e4:	1a000024 	bne	a57c <decode_filter+0x114>
    a4e8:	e3580000 	cmp	r8, #0
    a4ec:	0a000050 	beq	a634 <decode_filter+0x1cc>
    a4f0:	e595c078 	ldr	ip, [r5, #120]	; 0x78
    a4f4:	ea00000b 	b	a528 <decode_filter+0xc0>
    a4f8:	e152000c 	cmp	r2, ip
    a4fc:	e1a00007 	mov	r0, r7
    a500:	21a0200c 	movcs	r2, ip
    a504:	ebfffbe8 	bl	94ac <iobuf_read>
    a508:	e3700001 	cmn	r0, #1
    a50c:	0a000041 	beq	a618 <decode_filter+0x1b0>
    a510:	e595c078 	ldr	ip, [r5, #120]	; 0x78
    a514:	e0844000 	add	r4, r4, r0
    a518:	e1580004 	cmp	r8, r4
    a51c:	e04cc000 	sub	ip, ip, r0
    a520:	e585c078 	str	ip, [r5, #120]	; 0x78
    a524:	9a00003f 	bls	a628 <decode_filter+0x1c0>
    a528:	e0482004 	sub	r2, r8, r4
    a52c:	e35c0000 	cmp	ip, #0
    a530:	e0861004 	add	r1, r6, r4
    a534:	1affffef 	bne	a4f8 <decode_filter+0x90>
    a538:	e5d53050 	ldrb	r3, [r5, #80]	; 0x50
    a53c:	e3a02001 	mov	r2, #1
    a540:	e7c23092 	bfi	r3, r2, #1, #2
    a544:	e5c53050 	strb	r3, [r5, #80]	; 0x50
    a548:	e3540000 	cmp	r4, #0
    a54c:	1a000022 	bne	a5dc <decode_filter+0x174>
    a550:	e5d53050 	ldrb	r3, [r5, #80]	; 0x50
    a554:	e2134006 	ands	r4, r3, #6
    a558:	e3e00000 	mvn	r0, #0
    a55c:	03a02001 	moveq	r2, #1
    a560:	13a04000 	movne	r4, #0
    a564:	05d53050 	ldrbeq	r3, [r5, #80]	; 0x50
    a568:	07c23092 	bfieq	r3, r2, #1, #2
    a56c:	05c53050 	strbeq	r3, [r5, #80]	; 0x50
    a570:	e5894000 	str	r4, [r9]
    a574:	e28dd008 	add	sp, sp, #8
    a578:	e8bd87f0 	pop	{r4, r5, r6, r7, r8, r9, sl, pc}
    a57c:	e59f00f4 	ldr	r0, [pc, #244]	; a678 <decode_filter+0x210>
    a580:	e1a02008 	mov	r2, r8
    a584:	e1a0100a 	mov	r1, sl
    a588:	e08f0000 	add	r0, pc, r0
    a58c:	eb0012a9 	bl	f038 <tfp_printf>
    a590:	e3580000 	cmp	r8, #0
    a594:	11a0400a 	movne	r4, sl
    a598:	1a000003 	bne	a5ac <decode_filter+0x144>
    a59c:	eaffffeb 	b	a550 <decode_filter+0xe8>
    a5a0:	e0844000 	add	r4, r4, r0
    a5a4:	e1580004 	cmp	r8, r4
    a5a8:	9a00000b 	bls	a5dc <decode_filter+0x174>
    a5ac:	e0482004 	sub	r2, r8, r4
    a5b0:	e1a00007 	mov	r0, r7
    a5b4:	e0861004 	add	r1, r6, r4
    a5b8:	ebfffbbb 	bl	94ac <iobuf_read>
    a5bc:	e3700001 	cmn	r0, #1
    a5c0:	1afffff6 	bne	a5a0 <decode_filter+0x138>
    a5c4:	eaffffdb 	b	a538 <decode_filter+0xd0>
    a5c8:	e1a00005 	mov	r0, r5
    a5cc:	ebffff92 	bl	a41c <release_dfx_context>
    a5d0:	e3a00000 	mov	r0, #0
    a5d4:	e28dd008 	add	sp, sp, #8
    a5d8:	e8bd87f0 	pop	{r4, r5, r6, r7, r8, r9, sl, pc}
    a5dc:	e5950004 	ldr	r0, [r5, #4]
    a5e0:	e3500000 	cmp	r0, #0
    a5e4:	0a000003 	beq	a5f8 <decode_filter+0x190>
    a5e8:	e59f008c 	ldr	r0, [pc, #140]	; a67c <decode_filter+0x214>
    a5ec:	e08f0000 	add	r0, pc, r0
    a5f0:	eb001290 	bl	f038 <tfp_printf>
    a5f4:	e5950004 	ldr	r0, [r5, #4]
    a5f8:	e3a05000 	mov	r5, #0
    a5fc:	e1a01006 	mov	r1, r6
    a600:	e58d5000 	str	r5, [sp]
    a604:	e1a03005 	mov	r3, r5
    a608:	e1a02004 	mov	r2, r4
    a60c:	eb00098c 	bl	cc44 <_gcry_cipher_decrypt>
    a610:	e1a00005 	mov	r0, r5
    a614:	eaffffd5 	b	a570 <decode_filter+0x108>
    a618:	e5d53050 	ldrb	r3, [r5, #80]	; 0x50
    a61c:	e595c078 	ldr	ip, [r5, #120]	; 0x78
    a620:	e3833006 	orr	r3, r3, #6
    a624:	e5c53050 	strb	r3, [r5, #80]	; 0x50
    a628:	e35c0000 	cmp	ip, #0
    a62c:	1affffc5 	bne	a548 <decode_filter+0xe0>
    a630:	eaffffc0 	b	a538 <decode_filter+0xd0>
    a634:	e5952078 	ldr	r2, [r5, #120]	; 0x78
    a638:	e3520000 	cmp	r2, #0
    a63c:	03a02001 	moveq	r2, #1
    a640:	07c23092 	bfieq	r3, r2, #1, #2
    a644:	05c53050 	strbeq	r3, [r5, #80]	; 0x50
    a648:	06ef3073 	uxtbeq	r3, r3
    a64c:	eaffffc0 	b	a554 <decode_filter+0xec>
    a650:	e59f0028 	ldr	r0, [pc, #40]	; a680 <decode_filter+0x218>
    a654:	e08f0000 	add	r0, pc, r0
    a658:	eb001276 	bl	f038 <tfp_printf>
    a65c:	e3a03000 	mov	r3, #0
    a660:	e3e00000 	mvn	r0, #0
    a664:	e5893000 	str	r3, [r9]
    a668:	eaffff8f 	b	a4ac <decode_filter+0x44>
    a66c:	00007820 	andeq	r7, r0, r0, lsr #16
    a670:	0000783c 	andeq	r7, r0, ip, lsr r8
    a674:	00007850 	andeq	r7, r0, r0, asr r8
    a678:	000077ac 	andeq	r7, r0, ip, lsr #15
    a67c:	0000776c 	andeq	r7, r0, ip, ror #14
    a680:	00007688 	andeq	r7, r0, r8, lsl #13

0000a684 <decrypt_data>:
    a684:	e92d47f0 	push	{r4, r5, r6, r7, r8, r9, sl, lr}
    a688:	e24dd030 	sub	sp, sp, #48	; 0x30
    a68c:	e1a07000 	mov	r7, r0
    a690:	e3a06000 	mov	r6, #0
    a694:	e59f0334 	ldr	r0, [pc, #820]	; a9d0 <decrypt_data+0x34c>
    a698:	e1a08001 	mov	r8, r1
    a69c:	e59d9050 	ldr	r9, [sp, #80]	; 0x50
    a6a0:	e1a04002 	mov	r4, r2
    a6a4:	e08f0000 	add	r0, pc, r0
    a6a8:	e1a05003 	mov	r5, r3
    a6ac:	eb001261 	bl	f038 <tfp_printf>
    a6b0:	e5896000 	str	r6, [r9]
    a6b4:	e3a01080 	mov	r1, #128	; 0x80
    a6b8:	e3a00001 	mov	r0, #1
    a6bc:	eb000ac1 	bl	d1c8 <xtrycalloc>
    a6c0:	e1500006 	cmp	r0, r6
    a6c4:	e58d000c 	str	r0, [sp, #12]
    a6c8:	0a0000be 	beq	a9c8 <decrypt_data+0x344>
    a6cc:	e5901078 	ldr	r1, [r0, #120]	; 0x78
    a6d0:	e3a03001 	mov	r3, #1
    a6d4:	e5803000 	str	r3, [r0]
    a6d8:	e59f02f4 	ldr	r0, [pc, #756]	; a9d4 <decrypt_data+0x350>
    a6dc:	e08f0000 	add	r0, pc, r0
    a6e0:	eb001254 	bl	f038 <tfp_printf>
    a6e4:	e59f12ec 	ldr	r1, [pc, #748]	; a9d8 <decrypt_data+0x354>
    a6e8:	e3a00017 	mov	r0, #23
    a6ec:	e58d6000 	str	r6, [sp]
    a6f0:	e08f1001 	add	r1, pc, r1
    a6f4:	e5953000 	ldr	r3, [r5]
    a6f8:	e5d4200a 	ldrb	r2, [r4, #10]
    a6fc:	eb00124d 	bl	f038 <tfp_printf>
    a700:	e5d4900b 	ldrb	r9, [r4, #11]
    a704:	e3590000 	cmp	r9, #0
    a708:	1a000057 	bne	a86c <decrypt_data+0x1e8>
    a70c:	e5943000 	ldr	r3, [r4]
    a710:	e2433001 	sub	r3, r3, #1
    a714:	e3530008 	cmp	r3, #8
    a718:	9a000082 	bls	a928 <decrypt_data+0x2a4>
    a71c:	e3a02004 	mov	r2, #4
    a720:	e1a01009 	mov	r1, r9
    a724:	e28d000c 	add	r0, sp, #12
    a728:	eb000a17 	bl	cf8c <memset>
    a72c:	e59d600c 	ldr	r6, [sp, #12]
    a730:	e3a00040 	mov	r0, #64	; 0x40
    a734:	eb000985 	bl	cd50 <malloc>
    a738:	e59d300c 	ldr	r3, [sp, #12]
    a73c:	e5860004 	str	r0, [r6, #4]
    a740:	e5930004 	ldr	r0, [r3, #4]
    a744:	e3500000 	cmp	r0, #0
    a748:	0a00009e 	beq	a9c8 <decrypt_data+0x344>
    a74c:	e3a02040 	mov	r2, #64	; 0x40
    a750:	e1a01009 	mov	r1, r9
    a754:	eb000a0c 	bl	cf8c <memset>
    a758:	e59d300c 	ldr	r3, [sp, #12]
    a75c:	e5952004 	ldr	r2, [r5, #4]
    a760:	e5930004 	ldr	r0, [r3, #4]
    a764:	e595100c 	ldr	r1, [r5, #12]
    a768:	eb00073d 	bl	c464 <_gcry_cipher_setkey>
    a76c:	e5943010 	ldr	r3, [r4, #16]
    a770:	e1a06000 	mov	r6, r0
    a774:	e3530000 	cmp	r3, #0
    a778:	0a000063 	beq	a90c <decrypt_data+0x288>
    a77c:	e59d300c 	ldr	r3, [sp, #12]
    a780:	e1a01009 	mov	r1, r9
    a784:	e3a02008 	mov	r2, #8
    a788:	e5930004 	ldr	r0, [r3, #4]
    a78c:	eb000745 	bl	c4a8 <_gcry_cipher_setiv>
    a790:	e5941000 	ldr	r1, [r4]
    a794:	e3510000 	cmp	r1, #0
    a798:	028da00f 	addeq	sl, sp, #15
    a79c:	028d9019 	addeq	r9, sp, #25
    a7a0:	0a000009 	beq	a7cc <decrypt_data+0x148>
    a7a4:	ea000063 	b	a938 <decrypt_data+0x2b4>
    a7a8:	e5821018 	str	r1, [r2, #24]
    a7ac:	e5921008 	ldr	r1, [r2, #8]
    a7b0:	e5920020 	ldr	r0, [r2, #32]
    a7b4:	e2811001 	add	r1, r1, #1
    a7b8:	e5821008 	str	r1, [r2, #8]
    a7bc:	e7d00003 	ldrb	r0, [r0, r3]
    a7c0:	e5ea0001 	strb	r0, [sl, #1]!
    a7c4:	e15a0009 	cmp	sl, r9
    a7c8:	0a00000d 	beq	a804 <decrypt_data+0x180>
    a7cc:	e5942010 	ldr	r2, [r4, #16]
    a7d0:	e5923010 	ldr	r3, [r2, #16]
    a7d4:	e1a00002 	mov	r0, r2
    a7d8:	e3530000 	cmp	r3, #0
    a7dc:	1a000004 	bne	a7f4 <decrypt_data+0x170>
    a7e0:	e5923018 	ldr	r3, [r2, #24]
    a7e4:	e592101c 	ldr	r1, [r2, #28]
    a7e8:	e1530001 	cmp	r3, r1
    a7ec:	e2831001 	add	r1, r3, #1
    a7f0:	3affffec 	bcc	a7a8 <decrypt_data+0x124>
    a7f4:	ebfffa73 	bl	91c8 <iobuf_readbyte>
    a7f8:	e3700001 	cmn	r0, #1
    a7fc:	e6ef0070 	uxtb	r0, r0
    a800:	1affffee 	bne	a7c0 <decrypt_data+0x13c>
    a804:	e59d300c 	ldr	r3, [sp, #12]
    a808:	e3a0200a 	mov	r2, #10
    a80c:	e28d1010 	add	r1, sp, #16
    a810:	e5930004 	ldr	r0, [r3, #4]
    a814:	e3a03000 	mov	r3, #0
    a818:	e58d3000 	str	r3, [sp]
    a81c:	eb000908 	bl	cc44 <_gcry_cipher_decrypt>
    a820:	e59d300c 	ldr	r3, [sp, #12]
    a824:	e5930004 	ldr	r0, [r3, #4]
    a828:	eb000729 	bl	c4d4 <cipher_sync>
    a82c:	e5d53008 	ldrb	r3, [r5, #8]
    a830:	e3130040 	tst	r3, #64	; 0x40
    a834:	0a000013 	beq	a888 <decrypt_data+0x204>
    a838:	e5dd2016 	ldrb	r2, [sp, #22]
    a83c:	e5dd3018 	ldrb	r3, [sp, #24]
    a840:	e1520003 	cmp	r2, r3
    a844:	1a000003 	bne	a858 <decrypt_data+0x1d4>
    a848:	e5dd2017 	ldrb	r2, [sp, #23]
    a84c:	e5dd3019 	ldrb	r3, [sp, #25]
    a850:	e1520003 	cmp	r2, r3
    a854:	0a00000b 	beq	a888 <decrypt_data+0x204>
    a858:	e59f017c 	ldr	r0, [pc, #380]	; a9dc <decrypt_data+0x358>
    a85c:	e08f0000 	add	r0, pc, r0
    a860:	eb0011f4 	bl	f038 <tfp_printf>
    a864:	e59d000c 	ldr	r0, [sp, #12]
    a868:	ea000002 	b	a878 <decrypt_data+0x1f4>
    a86c:	e59d000c 	ldr	r0, [sp, #12]
    a870:	e3a0600c 	mov	r6, #12
    a874:	e3406200 	movt	r6, #512	; 0x200
    a878:	ebfffee7 	bl	a41c <release_dfx_context>
    a87c:	e1a00006 	mov	r0, r6
    a880:	e28dd030 	add	sp, sp, #48	; 0x30
    a884:	e8bd87f0 	pop	{r4, r5, r6, r7, r8, r9, sl, pc}
    a888:	e59f0150 	ldr	r0, [pc, #336]	; a9e0 <decrypt_data+0x35c>
    a88c:	e08f0000 	add	r0, pc, r0
    a890:	eb0011e8 	bl	f038 <tfp_printf>
    a894:	e59d200c 	ldr	r2, [sp, #12]
    a898:	e5940010 	ldr	r0, [r4, #16]
    a89c:	e5923000 	ldr	r3, [r2]
    a8a0:	e5d2c050 	ldrb	ip, [r2, #80]	; 0x50
    a8a4:	e59f1138 	ldr	r1, [pc, #312]	; a9e4 <decrypt_data+0x360>
    a8a8:	e2833001 	add	r3, r3, #1
    a8ac:	e5823000 	str	r3, [r2]
    a8b0:	e5d43009 	ldrb	r3, [r4, #9]
    a8b4:	e08f1001 	add	r1, pc, r1
    a8b8:	e2533000 	subs	r3, r3, #0
    a8bc:	13a03001 	movne	r3, #1
    a8c0:	e7c0c013 	bfi	ip, r3, #0, #1
    a8c4:	e5c2c050 	strb	ip, [r2, #80]	; 0x50
    a8c8:	e5943000 	ldr	r3, [r4]
    a8cc:	e5823078 	str	r3, [r2, #120]	; 0x78
    a8d0:	ebfff97d 	bl	8ecc <iobuf_push_filter>
    a8d4:	e5942010 	ldr	r2, [r4, #16]
    a8d8:	e1a01008 	mov	r1, r8
    a8dc:	e1a00007 	mov	r0, r7
    a8e0:	eb001a6d 	bl	1129c <proc_packets>
    a8e4:	e59d000c 	ldr	r0, [sp, #12]
    a8e8:	e3a0200e 	mov	r2, #14
    a8ec:	e3402200 	movt	r2, #512	; 0x200
    a8f0:	e3a01000 	mov	r1, #0
    a8f4:	e5d03050 	ldrb	r3, [r0, #80]	; 0x50
    a8f8:	e5841010 	str	r1, [r4, #16]
    a8fc:	e7e130d3 	ubfx	r3, r3, #1, #2
    a900:	e3530001 	cmp	r3, #1
    a904:	81a06002 	movhi	r6, r2
    a908:	eaffffda 	b	a878 <decrypt_data+0x1f4>
    a90c:	e59f00d4 	ldr	r0, [pc, #212]	; a9e8 <decrypt_data+0x364>
    a910:	e3a0600e 	mov	r6, #14
    a914:	e3406200 	movt	r6, #512	; 0x200
    a918:	e08f0000 	add	r0, pc, r0
    a91c:	eb0011c5 	bl	f038 <tfp_printf>
    a920:	e59d000c 	ldr	r0, [sp, #12]
    a924:	eaffffd3 	b	a878 <decrypt_data+0x1f4>
    a928:	e59d000c 	ldr	r0, [sp, #12]
    a92c:	e3a0600e 	mov	r6, #14
    a930:	e3406200 	movt	r6, #512	; 0x200
    a934:	eaffffcf 	b	a878 <decrypt_data+0x1f4>
    a938:	e59f00ac 	ldr	r0, [pc, #172]	; a9ec <decrypt_data+0x368>
    a93c:	e28da00f 	add	sl, sp, #15
    a940:	e28d9019 	add	r9, sp, #25
    a944:	e08f0000 	add	r0, pc, r0
    a948:	eb0011ba 	bl	f038 <tfp_printf>
    a94c:	e5942000 	ldr	r2, [r4]
    a950:	ea00000a 	b	a980 <decrypt_data+0x2fc>
    a954:	e5930008 	ldr	r0, [r3, #8]
    a958:	e583c018 	str	ip, [r3, #24]
    a95c:	e593c020 	ldr	ip, [r3, #32]
    a960:	e2800001 	add	r0, r0, #1
    a964:	e5830008 	str	r0, [r3, #8]
    a968:	e7dc0001 	ldrb	r0, [ip, r1]
    a96c:	e5ea0001 	strb	r0, [sl, #1]!
    a970:	e2422001 	sub	r2, r2, #1
    a974:	e159000a 	cmp	r9, sl
    a978:	e5842000 	str	r2, [r4]
    a97c:	0affffa0 	beq	a804 <decrypt_data+0x180>
    a980:	e3520000 	cmp	r2, #0
    a984:	0affff9e 	beq	a804 <decrypt_data+0x180>
    a988:	e5943010 	ldr	r3, [r4, #16]
    a98c:	e5931010 	ldr	r1, [r3, #16]
    a990:	e1a00003 	mov	r0, r3
    a994:	e3510000 	cmp	r1, #0
    a998:	1a000004 	bne	a9b0 <decrypt_data+0x32c>
    a99c:	e5931018 	ldr	r1, [r3, #24]
    a9a0:	e593c01c 	ldr	ip, [r3, #28]
    a9a4:	e151000c 	cmp	r1, ip
    a9a8:	e281c001 	add	ip, r1, #1
    a9ac:	3affffe8 	bcc	a954 <decrypt_data+0x2d0>
    a9b0:	ebfffa04 	bl	91c8 <iobuf_readbyte>
    a9b4:	e3700001 	cmn	r0, #1
    a9b8:	e6ef0070 	uxtb	r0, r0
    a9bc:	0affff90 	beq	a804 <decrypt_data+0x180>
    a9c0:	e5942000 	ldr	r2, [r4]
    a9c4:	eaffffe8 	b	a96c <decrypt_data+0x2e8>
    a9c8:	e3e06000 	mvn	r6, #0
    a9cc:	eaffffaa 	b	a87c <decrypt_data+0x1f8>
    a9d0:	000076cc 	andeq	r7, r0, ip, asr #13
    a9d4:	000076a4 	andeq	r7, r0, r4, lsr #13
    a9d8:	000076a4 	andeq	r7, r0, r4, lsr #13
    a9dc:	00007578 	andeq	r7, r0, r8, ror r5
    a9e0:	00007558 	andeq	r7, r0, r8, asr r5
    a9e4:	fffffbac 			; <UNDEFINED> instruction: 0xfffffbac
    a9e8:	00007488 	andeq	r7, r0, r8, lsl #9
    a9ec:	00007480 	andeq	r7, r0, r0, lsl #9

0000a9f0 <free_packet>:
    a9f0:	e3500000 	cmp	r0, #0
    a9f4:	e92d4010 	push	{r4, lr}
    a9f8:	e1a04001 	mov	r4, r1
    a9fc:	0a000007 	beq	aa20 <free_packet+0x30>
    aa00:	e5903004 	ldr	r3, [r0, #4]
    aa04:	e3530000 	cmp	r3, #0
    aa08:	0a000004 	beq	aa20 <free_packet+0x30>
    aa0c:	e5d01000 	ldrb	r1, [r0]
    aa10:	e59f0050 	ldr	r0, [pc, #80]	; aa68 <free_packet+0x78>
    aa14:	e8bd4010 	pop	{r4, lr}
    aa18:	e08f0000 	add	r0, pc, r0
    aa1c:	ea001185 	b	f038 <tfp_printf>
    aa20:	e3540000 	cmp	r4, #0
    aa24:	08bd8010 	popeq	{r4, pc}
    aa28:	e5943008 	ldr	r3, [r4, #8]
    aa2c:	e3530000 	cmp	r3, #0
    aa30:	08bd8010 	popeq	{r4, pc}
    aa34:	e594300c 	ldr	r3, [r4, #12]
    aa38:	e3530000 	cmp	r3, #0
    aa3c:	1a000003 	bne	aa50 <free_packet+0x60>
    aa40:	e3a03000 	mov	r3, #0
    aa44:	e5c43004 	strb	r3, [r4, #4]
    aa48:	e5843008 	str	r3, [r4, #8]
    aa4c:	e8bd8010 	pop	{r4, pc}
    aa50:	e3a01000 	mov	r1, #0
    aa54:	e2840004 	add	r0, r4, #4
    aa58:	ebffffe4 	bl	a9f0 <free_packet>
    aa5c:	e3a03000 	mov	r3, #0
    aa60:	e584300c 	str	r3, [r4, #12]
    aa64:	eafffff5 	b	aa40 <free_packet+0x50>
    aa68:	000073dc 	ldrdeq	r7, [r0], -ip

0000aa6c <run>:
    aa6c:	e92d4ff0 	push	{r4, r5, r6, r7, r8, r9, sl, fp, lr}
    aa70:	e24ddf75 	sub	sp, sp, #468	; 0x1d4
    aa74:	e59fcff0 	ldr	ip, [pc, #4080]	; ba6c <run+0x1000>
    aa78:	e3a05000 	mov	r5, #0
    aa7c:	e58d0060 	str	r0, [sp, #96]	; 0x60
    aa80:	e28d00a0 	add	r0, sp, #160	; 0xa0
    aa84:	e08fc00c 	add	ip, pc, ip
    aa88:	e1a04001 	mov	r4, r1
    aa8c:	e880000c 	stm	r0, {r2, r3}
    aa90:	e59d30a4 	ldr	r3, [sp, #164]	; 0xa4
    aa94:	e28d00a8 	add	r0, sp, #168	; 0xa8
    aa98:	e58d206c 	str	r2, [sp, #108]	; 0x6c
    aa9c:	e3a02010 	mov	r2, #16
    aaa0:	e58d3070 	str	r3, [sp, #112]	; 0x70
    aaa4:	e58dc064 	str	ip, [sp, #100]	; 0x64
    aaa8:	e58d0074 	str	r0, [sp, #116]	; 0x74
    aaac:	e58d50a8 	str	r5, [sp, #168]	; 0xa8
    aab0:	e5805004 	str	r5, [r0, #4]
    aab4:	e5805008 	str	r5, [r0, #8]
    aab8:	e580500c 	str	r5, [r0, #12]
    aabc:	eb000974 	bl	d094 <memcpy>
    aac0:	e59d31fc 	ldr	r3, [sp, #508]	; 0x1fc
    aac4:	e58d50b8 	str	r5, [sp, #184]	; 0xb8
    aac8:	e1530005 	cmp	r3, r5
    aacc:	e28d30b8 	add	r3, sp, #184	; 0xb8
    aad0:	e58d50bc 	str	r5, [sp, #188]	; 0xbc
    aad4:	e58d50c0 	str	r5, [sp, #192]	; 0xc0
    aad8:	e58d50c4 	str	r5, [sp, #196]	; 0xc4
    aadc:	e58d3078 	str	r3, [sp, #120]	; 0x78
    aae0:	1a00042c 	bne	bb98 <run+0x112c>
    aae4:	e59f4f84 	ldr	r4, [pc, #3972]	; ba70 <run+0x1004>
    aae8:	e3a02080 	mov	r2, #128	; 0x80
    aaec:	e59f3f80 	ldr	r3, [pc, #3968]	; ba74 <run+0x1008>
    aaf0:	e3a01000 	mov	r1, #0
    aaf4:	e08f4004 	add	r4, pc, r4
    aaf8:	e28d0e15 	add	r0, sp, #336	; 0x150
    aafc:	e08f3003 	add	r3, pc, r3
    ab00:	e58d307c 	str	r3, [sp, #124]	; 0x7c
    ab04:	e58d4080 	str	r4, [sp, #128]	; 0x80
    ab08:	eb00091f 	bl	cf8c <memset>
    ab0c:	e59d2064 	ldr	r2, [sp, #100]	; 0x64
    ab10:	e59f3f60 	ldr	r3, [pc, #3936]	; ba78 <run+0x100c>
    ab14:	e7929003 	ldr	r9, [r2, r3]
    ab18:	e59f3f5c 	ldr	r3, [pc, #3932]	; ba7c <run+0x1010>
    ab1c:	e792a003 	ldr	sl, [r2, r3]
    ab20:	e59f3f58 	ldr	r3, [pc, #3928]	; ba80 <run+0x1014>
    ab24:	e7928003 	ldr	r8, [r2, r3]
    ab28:	e59f3f54 	ldr	r3, [pc, #3924]	; ba84 <run+0x1018>
    ab2c:	e792b003 	ldr	fp, [r2, r3]
    ab30:	e3a03000 	mov	r3, #0
    ab34:	e58d301c 	str	r3, [sp, #28]
    ab38:	e28d2e16 	add	r2, sp, #352	; 0x160
    ab3c:	e58d3038 	str	r3, [sp, #56]	; 0x38
    ab40:	e28d30c8 	add	r3, sp, #200	; 0xc8
    ab44:	e58d3068 	str	r3, [sp, #104]	; 0x68
    ab48:	e284300f 	add	r3, r4, #15
    ab4c:	e58d3084 	str	r3, [sp, #132]	; 0x84
    ab50:	e1a0300a 	mov	r3, sl
    ab54:	e58d2018 	str	r2, [sp, #24]
    ab58:	e1a0a009 	mov	sl, r9
    ab5c:	e1a09003 	mov	r9, r3
    ab60:	e59d31fc 	ldr	r3, [sp, #508]	; 0x1fc
    ab64:	e3530000 	cmp	r3, #0
    ab68:	1a000383 	bne	b97c <run+0xf10>
    ab6c:	e59d21fc 	ldr	r2, [sp, #508]	; 0x1fc
    ab70:	e5dd30b6 	ldrb	r3, [sp, #182]	; 0xb6
    ab74:	e59d10a8 	ldr	r1, [sp, #168]	; 0xa8
    ab78:	e3520000 	cmp	r2, #0
    ab7c:	e5dd20b4 	ldrb	r2, [sp, #180]	; 0xb4
    ab80:	e79a3103 	ldr	r3, [sl, r3, lsl #2]
    ab84:	e7992102 	ldr	r2, [r9, r2, lsl #2]
    ab88:	e0233002 	eor	r3, r3, r2
    ab8c:	e5dd20b7 	ldrb	r2, [sp, #183]	; 0xb7
    ab90:	e0233001 	eor	r3, r3, r1
    ab94:	e7982102 	ldr	r2, [r8, r2, lsl #2]
    ab98:	e0233002 	eor	r3, r3, r2
    ab9c:	e5dd20b5 	ldrb	r2, [sp, #181]	; 0xb5
    aba0:	e79b2102 	ldr	r2, [fp, r2, lsl #2]
    aba4:	e0233002 	eor	r3, r3, r2
    aba8:	e5dd20b3 	ldrb	r2, [sp, #179]	; 0xb3
    abac:	e7982102 	ldr	r2, [r8, r2, lsl #2]
    abb0:	e0236002 	eor	r6, r3, r2
    abb4:	e5dd30b1 	ldrb	r3, [sp, #177]	; 0xb1
    abb8:	e1a01c26 	lsr	r1, r6, #24
    abbc:	e59d20b0 	ldr	r2, [sp, #176]	; 0xb0
    abc0:	e79b3103 	ldr	r3, [fp, r3, lsl #2]
    abc4:	e7e75456 	ubfx	r5, r6, #8, #8
    abc8:	e0233002 	eor	r3, r3, r2
    abcc:	e79a2101 	ldr	r2, [sl, r1, lsl #2]
    abd0:	e58d1020 	str	r1, [sp, #32]
    abd4:	e0233002 	eor	r3, r3, r2
    abd8:	e7992105 	ldr	r2, [r9, r5, lsl #2]
    abdc:	e7e71856 	ubfx	r1, r6, #16, #8
    abe0:	e0233002 	eor	r3, r3, r2
    abe4:	e6ef2076 	uxtb	r2, r6
    abe8:	e58d1030 	str	r1, [sp, #48]	; 0x30
    abec:	e7981101 	ldr	r1, [r8, r1, lsl #2]
    abf0:	e58d2024 	str	r2, [sp, #36]	; 0x24
    abf4:	e79b2102 	ldr	r2, [fp, r2, lsl #2]
    abf8:	e0233001 	eor	r3, r3, r1
    abfc:	e0232002 	eor	r2, r3, r2
    ac00:	e5dd30b2 	ldrb	r3, [sp, #178]	; 0xb2
    ac04:	e6ef0072 	uxtb	r0, r2
    ac08:	e58d1034 	str	r1, [sp, #52]	; 0x34
    ac0c:	e79a1103 	ldr	r1, [sl, r3, lsl #2]
    ac10:	e59d30b4 	ldr	r3, [sp, #180]	; 0xb4
    ac14:	e7e7c452 	ubfx	ip, r2, #8, #8
    ac18:	e0211003 	eor	r1, r1, r3
    ac1c:	e79a3100 	ldr	r3, [sl, r0, lsl #2]
    ac20:	e58d203c 	str	r2, [sp, #60]	; 0x3c
    ac24:	e0211003 	eor	r1, r1, r3
    ac28:	e1a03002 	mov	r3, r2
    ac2c:	e58d20bc 	str	r2, [sp, #188]	; 0xbc
    ac30:	e7e72852 	ubfx	r2, r2, #16, #8
    ac34:	e58d0028 	str	r0, [sp, #40]	; 0x28
    ac38:	e58dc02c 	str	ip, [sp, #44]	; 0x2c
    ac3c:	e58d60b8 	str	r6, [sp, #184]	; 0xb8
    ac40:	e58d2044 	str	r2, [sp, #68]	; 0x44
    ac44:	e799010c 	ldr	r0, [r9, ip, lsl #2]
    ac48:	e0211000 	eor	r1, r1, r0
    ac4c:	e58d0040 	str	r0, [sp, #64]	; 0x40
    ac50:	e1a00c23 	lsr	r0, r3, #24
    ac54:	e7983102 	ldr	r3, [r8, r2, lsl #2]
    ac58:	e79b2100 	ldr	r2, [fp, r0, lsl #2]
    ac5c:	e0211003 	eor	r1, r1, r3
    ac60:	e58d204c 	str	r2, [sp, #76]	; 0x4c
    ac64:	e0212002 	eor	r2, r1, r2
    ac68:	e58d0048 	str	r0, [sp, #72]	; 0x48
    ac6c:	e7e70452 	ubfx	r0, r2, #8, #8
    ac70:	e5dd10b0 	ldrb	r1, [sp, #176]	; 0xb0
    ac74:	e79a7100 	ldr	r7, [sl, r0, lsl #2]
    ac78:	e7e70852 	ubfx	r0, r2, #16, #8
    ac7c:	e7991101 	ldr	r1, [r9, r1, lsl #2]
    ac80:	e799c100 	ldr	ip, [r9, r0, lsl #2]
    ac84:	e58d0054 	str	r0, [sp, #84]	; 0x54
    ac88:	e59d00ac 	ldr	r0, [sp, #172]	; 0xac
    ac8c:	e58d2050 	str	r2, [sp, #80]	; 0x50
    ac90:	e0211000 	eor	r1, r1, r0
    ac94:	e1a00002 	mov	r0, r2
    ac98:	e58d20c0 	str	r2, [sp, #192]	; 0xc0
    ac9c:	e6ef2072 	uxtb	r2, r2
    aca0:	e0211007 	eor	r1, r1, r7
    aca4:	e021100c 	eor	r1, r1, ip
    aca8:	e58dc058 	str	ip, [sp, #88]	; 0x58
    acac:	e1a0cc20 	lsr	ip, r0, #24
    acb0:	e7980102 	ldr	r0, [r8, r2, lsl #2]
    acb4:	e58dc05c 	str	ip, [sp, #92]	; 0x5c
    acb8:	e0211000 	eor	r1, r1, r0
    acbc:	e79b010c 	ldr	r0, [fp, ip, lsl #2]
    acc0:	e0214000 	eor	r4, r1, r0
    acc4:	e58d40c4 	str	r4, [sp, #196]	; 0xc4
    acc8:	1a0003dc 	bne	bc40 <run+0x11d4>
    accc:	e59d1040 	ldr	r1, [sp, #64]	; 0x40
    acd0:	e59de018 	ldr	lr, [sp, #24]
    acd4:	e0211003 	eor	r1, r1, r3
    acd8:	e59d005c 	ldr	r0, [sp, #92]	; 0x5c
    acdc:	e1a03001 	mov	r3, r1
    ace0:	e59d104c 	ldr	r1, [sp, #76]	; 0x4c
    ace4:	e79a0100 	ldr	r0, [sl, r0, lsl #2]
    ace8:	e0233001 	eor	r3, r3, r1
    acec:	e0277003 	eor	r7, r7, r3
    acf0:	e59d302c 	ldr	r3, [sp, #44]	; 0x2c
    acf4:	e59d1054 	ldr	r1, [sp, #84]	; 0x54
    acf8:	e79b3103 	ldr	r3, [fp, r3, lsl #2]
    acfc:	e7981101 	ldr	r1, [r8, r1, lsl #2]
    ad00:	e58d302c 	str	r3, [sp, #44]	; 0x2c
    ad04:	e7993102 	ldr	r3, [r9, r2, lsl #2]
    ad08:	e59d21fc 	ldr	r2, [sp, #508]	; 0x1fc
    ad0c:	e0277003 	eor	r7, r7, r3
    ad10:	e7e73454 	ubfx	r3, r4, #8, #8
    ad14:	e3520000 	cmp	r2, #0
    ad18:	e50e700c 	str	r7, [lr, #-12]
    ad1c:	e79ac103 	ldr	ip, [sl, r3, lsl #2]
    ad20:	e59d3028 	ldr	r3, [sp, #40]	; 0x28
    ad24:	e59d702c 	ldr	r7, [sp, #44]	; 0x2c
    ad28:	e7983103 	ldr	r3, [r8, r3, lsl #2]
    ad2c:	e79ae105 	ldr	lr, [sl, r5, lsl #2]
    ad30:	e0233007 	eor	r3, r3, r7
    ad34:	e79b7105 	ldr	r7, [fp, r5, lsl #2]
    ad38:	e59d5058 	ldr	r5, [sp, #88]	; 0x58
    ad3c:	e023300e 	eor	r3, r3, lr
    ad40:	e0233005 	eor	r3, r3, r5
    ad44:	e59de018 	ldr	lr, [sp, #24]
    ad48:	e0233000 	eor	r3, r3, r0
    ad4c:	e50e3010 	str	r3, [lr, #-16]
    ad50:	e59d3024 	ldr	r3, [sp, #36]	; 0x24
    ad54:	e59d0034 	ldr	r0, [sp, #52]	; 0x34
    ad58:	e7983103 	ldr	r3, [r8, r3, lsl #2]
    ad5c:	e1a02c24 	lsr	r2, r4, #24
    ad60:	e0233007 	eor	r3, r3, r7
    ad64:	e0211003 	eor	r1, r1, r3
    ad68:	e59d3020 	ldr	r3, [sp, #32]
    ad6c:	e58d7040 	str	r7, [sp, #64]	; 0x40
    ad70:	e79b3103 	ldr	r3, [fp, r3, lsl #2]
    ad74:	e0200003 	eor	r0, r0, r3
    ad78:	e6ef3074 	uxtb	r3, r4
    ad7c:	e02cc000 	eor	ip, ip, r0
    ad80:	e7993103 	ldr	r3, [r9, r3, lsl #2]
    ad84:	e79a0102 	ldr	r0, [sl, r2, lsl #2]
    ad88:	e02cc003 	eor	ip, ip, r3
    ad8c:	e7e73854 	ubfx	r3, r4, #16, #8
    ad90:	e0211000 	eor	r1, r1, r0
    ad94:	e7993103 	ldr	r3, [r9, r3, lsl #2]
    ad98:	e0211003 	eor	r1, r1, r3
    ad9c:	e50e1008 	str	r1, [lr, #-8]
    ada0:	e79b3102 	ldr	r3, [fp, r2, lsl #2]
    ada4:	e02cc003 	eor	ip, ip, r3
    ada8:	e59d301c 	ldr	r3, [sp, #28]
    adac:	e50ec004 	str	ip, [lr, #-4]
    adb0:	e2832003 	add	r2, r3, #3
    adb4:	1a0003e3 	bne	bd48 <run+0x12dc>
    adb8:	e59d3040 	ldr	r3, [sp, #64]	; 0x40
    adbc:	e59d202c 	ldr	r2, [sp, #44]	; 0x2c
    adc0:	e0266003 	eor	r6, r6, r3
    adc4:	e59d3044 	ldr	r3, [sp, #68]	; 0x44
    adc8:	e79a3103 	ldr	r3, [sl, r3, lsl #2]
    adcc:	e0222003 	eor	r2, r2, r3
    add0:	e1a03002 	mov	r3, r2
    add4:	e59d2020 	ldr	r2, [sp, #32]
    add8:	e7982102 	ldr	r2, [r8, r2, lsl #2]
    addc:	e0233002 	eor	r3, r3, r2
    ade0:	e59d2028 	ldr	r2, [sp, #40]	; 0x28
    ade4:	e7992102 	ldr	r2, [r9, r2, lsl #2]
    ade8:	e0233002 	eor	r3, r3, r2
    adec:	e59d2048 	ldr	r2, [sp, #72]	; 0x48
    adf0:	e7982102 	ldr	r2, [r8, r2, lsl #2]
    adf4:	e0233002 	eor	r3, r3, r2
    adf8:	e59d2050 	ldr	r2, [sp, #80]	; 0x50
    adfc:	e0233002 	eor	r3, r3, r2
    ae00:	e59d2030 	ldr	r2, [sp, #48]	; 0x30
    ae04:	e1a00c23 	lsr	r0, r3, #24
    ae08:	e79ae102 	ldr	lr, [sl, r2, lsl #2]
    ae0c:	e59d203c 	ldr	r2, [sp, #60]	; 0x3c
    ae10:	e7e7c853 	ubfx	ip, r3, #16, #8
    ae14:	e022200e 	eor	r2, r2, lr
    ae18:	e58d30a8 	str	r3, [sp, #168]	; 0xa8
    ae1c:	e1a0e002 	mov	lr, r2
    ae20:	e59d2024 	ldr	r2, [sp, #36]	; 0x24
    ae24:	e7991102 	ldr	r1, [r9, r2, lsl #2]
    ae28:	e59d21fc 	ldr	r2, [sp, #508]	; 0x1fc
    ae2c:	e0247001 	eor	r7, r4, r1
    ae30:	e3520000 	cmp	r2, #0
    ae34:	e7e72453 	ubfx	r2, r3, #8, #8
    ae38:	e6ef3073 	uxtb	r3, r3
    ae3c:	e7991102 	ldr	r1, [r9, r2, lsl #2]
    ae40:	e79a2100 	ldr	r2, [sl, r0, lsl #2]
    ae44:	e79b3103 	ldr	r3, [fp, r3, lsl #2]
    ae48:	e0266002 	eor	r6, r6, r2
    ae4c:	e798210c 	ldr	r2, [r8, ip, lsl #2]
    ae50:	e0266001 	eor	r6, r6, r1
    ae54:	e0222006 	eor	r2, r2, r6
    ae58:	e0222003 	eor	r2, r2, r3
    ae5c:	e7e75852 	ubfx	r5, r2, #16, #8
    ae60:	e6ef3072 	uxtb	r3, r2
    ae64:	e58d20ac 	str	r2, [sp, #172]	; 0xac
    ae68:	e79a3103 	ldr	r3, [sl, r3, lsl #2]
    ae6c:	e58d1024 	str	r1, [sp, #36]	; 0x24
    ae70:	e02ee003 	eor	lr, lr, r3
    ae74:	e7e73452 	ubfx	r3, r2, #8, #8
    ae78:	e1a02c22 	lsr	r2, r2, #24
    ae7c:	e7993103 	ldr	r3, [r9, r3, lsl #2]
    ae80:	e79b1102 	ldr	r1, [fp, r2, lsl #2]
    ae84:	e02ee003 	eor	lr, lr, r3
    ae88:	e58d3028 	str	r3, [sp, #40]	; 0x28
    ae8c:	e7983105 	ldr	r3, [r8, r5, lsl #2]
    ae90:	e023300e 	eor	r3, r3, lr
    ae94:	e0233001 	eor	r3, r3, r1
    ae98:	e7e74453 	ubfx	r4, r3, #8, #8
    ae9c:	e6ef1073 	uxtb	r1, r3
    aea0:	e7e7e853 	ubfx	lr, r3, #16, #8
    aea4:	e7986101 	ldr	r6, [r8, r1, lsl #2]
    aea8:	e79a1104 	ldr	r1, [sl, r4, lsl #2]
    aeac:	e58d30b0 	str	r3, [sp, #176]	; 0xb0
    aeb0:	e0211007 	eor	r1, r1, r7
    aeb4:	e799710e 	ldr	r7, [r9, lr, lsl #2]
    aeb8:	e1a03c23 	lsr	r3, r3, #24
    aebc:	e0211007 	eor	r1, r1, r7
    aec0:	e0266001 	eor	r6, r6, r1
    aec4:	e79b1103 	ldr	r1, [fp, r3, lsl #2]
    aec8:	e0266001 	eor	r6, r6, r1
    aecc:	e58d60b4 	str	r6, [sp, #180]	; 0xb4
    aed0:	1a00037f 	bne	bcd4 <run+0x1268>
    aed4:	e7990100 	ldr	r0, [r9, r0, lsl #2]
    aed8:	e79ac10c 	ldr	ip, [sl, ip, lsl #2]
    aedc:	e58d003c 	str	r0, [sp, #60]	; 0x3c
    aee0:	e5dd00b7 	ldrb	r0, [sp, #183]	; 0xb7
    aee4:	e79a1105 	ldr	r1, [sl, r5, lsl #2]
    aee8:	e58dc034 	str	ip, [sp, #52]	; 0x34
    aeec:	e798c100 	ldr	ip, [r8, r0, lsl #2]
    aef0:	e5dd00b4 	ldrb	r0, [sp, #180]	; 0xb4
    aef4:	e58d1040 	str	r1, [sp, #64]	; 0x40
    aef8:	e58d0030 	str	r0, [sp, #48]	; 0x30
    aefc:	e1a06000 	mov	r6, r0
    af00:	e5dd10a8 	ldrb	r1, [sp, #168]	; 0xa8
    af04:	e5dd00b0 	ldrb	r0, [sp, #176]	; 0xb0
    af08:	e7992102 	ldr	r2, [r9, r2, lsl #2]
    af0c:	e58d0020 	str	r0, [sp, #32]
    af10:	e5dd70b5 	ldrb	r7, [sp, #181]	; 0xb5
    af14:	e79a0101 	ldr	r0, [sl, r1, lsl #2]
    af18:	e79b6106 	ldr	r6, [fp, r6, lsl #2]
    af1c:	e58d2044 	str	r2, [sp, #68]	; 0x44
    af20:	e020000c 	eor	r0, r0, ip
    af24:	e5dd20ac 	ldrb	r2, [sp, #172]	; 0xac
    af28:	e58dc02c 	str	ip, [sp, #44]	; 0x2c
    af2c:	e798c107 	ldr	ip, [r8, r7, lsl #2]
    af30:	e7981101 	ldr	r1, [r8, r1, lsl #2]
    af34:	e02cc006 	eor	ip, ip, r6
    af38:	e79a6102 	ldr	r6, [sl, r2, lsl #2]
    af3c:	e79b2102 	ldr	r2, [fp, r2, lsl #2]
    af40:	e0211006 	eor	r1, r1, r6
    af44:	e59d6028 	ldr	r6, [sp, #40]	; 0x28
    af48:	e59d51fc 	ldr	r5, [sp, #508]	; 0x1fc
    af4c:	e0211006 	eor	r1, r1, r6
    af50:	e59d6020 	ldr	r6, [sp, #32]
    af54:	e3550000 	cmp	r5, #0
    af58:	e5dd50b6 	ldrb	r5, [sp, #182]	; 0xb6
    af5c:	e79b6106 	ldr	r6, [fp, r6, lsl #2]
    af60:	e0222006 	eor	r2, r2, r6
    af64:	e59d6040 	ldr	r6, [sp, #64]	; 0x40
    af68:	e0222006 	eor	r2, r2, r6
    af6c:	e59d6044 	ldr	r6, [sp, #68]	; 0x44
    af70:	e0226006 	eor	r6, r2, r6
    af74:	e79b2105 	ldr	r2, [fp, r5, lsl #2]
    af78:	e0200002 	eor	r0, r0, r2
    af7c:	e59d2024 	ldr	r2, [sp, #36]	; 0x24
    af80:	e0200002 	eor	r0, r0, r2
    af84:	e7992105 	ldr	r2, [r9, r5, lsl #2]
    af88:	e022200c 	eor	r2, r2, ip
    af8c:	e59dc034 	ldr	ip, [sp, #52]	; 0x34
    af90:	e022200c 	eor	r2, r2, ip
    af94:	e59dc03c 	ldr	ip, [sp, #60]	; 0x3c
    af98:	e022200c 	eor	r2, r2, ip
    af9c:	e59dc018 	ldr	ip, [sp, #24]
    afa0:	e58c2004 	str	r2, [ip, #4]
    afa4:	e798c103 	ldr	ip, [r8, r3, lsl #2]
    afa8:	e79a3103 	ldr	r3, [sl, r3, lsl #2]
    afac:	e021100c 	eor	r1, r1, ip
    afb0:	e0200003 	eor	r0, r0, r3
    afb4:	e79b310e 	ldr	r3, [fp, lr, lsl #2]
    afb8:	e59d2018 	ldr	r2, [sp, #24]
    afbc:	e0211003 	eor	r1, r1, r3
    afc0:	e7983104 	ldr	r3, [r8, r4, lsl #2]
    afc4:	e5821008 	str	r1, [r2, #8]
    afc8:	e0233006 	eor	r3, r3, r6
    afcc:	e582300c 	str	r3, [r2, #12]
    afd0:	e59d301c 	ldr	r3, [sp, #28]
    afd4:	e5820000 	str	r0, [r2]
    afd8:	e2831004 	add	r1, r3, #4
    afdc:	e2832007 	add	r2, r3, #7
    afe0:	1a0003e2 	bne	bf70 <run+0x1504>
    afe4:	e59d302c 	ldr	r3, [sp, #44]	; 0x2c
    afe8:	e79a210e 	ldr	r2, [sl, lr, lsl #2]
    afec:	e59de1fc 	ldr	lr, [sp, #508]	; 0x1fc
    aff0:	e023300c 	eor	r3, r3, ip
    aff4:	e79a0105 	ldr	r0, [sl, r5, lsl #2]
    aff8:	e1a0c003 	mov	ip, r3
    affc:	e59d3030 	ldr	r3, [sp, #48]	; 0x30
    b000:	e35e0000 	cmp	lr, #0
    b004:	e59de0a8 	ldr	lr, [sp, #168]	; 0xa8
    b008:	e7995103 	ldr	r5, [r9, r3, lsl #2]
    b00c:	e02cc00e 	eor	ip, ip, lr
    b010:	e79b7107 	ldr	r7, [fp, r7, lsl #2]
    b014:	e02cc000 	eor	ip, ip, r0
    b018:	e02cc005 	eor	ip, ip, r5
    b01c:	e027700c 	eor	r7, r7, ip
    b020:	e79b1104 	ldr	r1, [fp, r4, lsl #2]
    b024:	e1a0ec27 	lsr	lr, r7, #24
    b028:	e59d00b0 	ldr	r0, [sp, #176]	; 0xb0
    b02c:	e7e7c457 	ubfx	ip, r7, #8, #8
    b030:	e0211000 	eor	r1, r1, r0
    b034:	e79a010e 	ldr	r0, [sl, lr, lsl #2]
    b038:	e7e74857 	ubfx	r4, r7, #16, #8
    b03c:	e0211000 	eor	r1, r1, r0
    b040:	e799010c 	ldr	r0, [r9, ip, lsl #2]
    b044:	e58dc024 	str	ip, [sp, #36]	; 0x24
    b048:	e6efc077 	uxtb	ip, r7
    b04c:	e0211000 	eor	r1, r1, r0
    b050:	e58d003c 	str	r0, [sp, #60]	; 0x3c
    b054:	e7980104 	ldr	r0, [r8, r4, lsl #2]
    b058:	e58dc028 	str	ip, [sp, #40]	; 0x28
    b05c:	e0211000 	eor	r1, r1, r0
    b060:	e79b010c 	ldr	r0, [fp, ip, lsl #2]
    b064:	e59d3020 	ldr	r3, [sp, #32]
    b068:	e0210000 	eor	r0, r1, r0
    b06c:	e59d10b4 	ldr	r1, [sp, #180]	; 0xb4
    b070:	e6efc070 	uxtb	ip, r0
    b074:	e58de020 	str	lr, [sp, #32]
    b078:	e7e7e450 	ubfx	lr, r0, #8, #8
    b07c:	e0211002 	eor	r1, r1, r2
    b080:	e79a210c 	ldr	r2, [sl, ip, lsl #2]
    b084:	e58dc044 	str	ip, [sp, #68]	; 0x44
    b088:	e799c10e 	ldr	ip, [r9, lr, lsl #2]
    b08c:	e0211002 	eor	r1, r1, r2
    b090:	e58d2034 	str	r2, [sp, #52]	; 0x34
    b094:	e7e72850 	ubfx	r2, r0, #16, #8
    b098:	e021100c 	eor	r1, r1, ip
    b09c:	e58dc04c 	str	ip, [sp, #76]	; 0x4c
    b0a0:	e1a0cc20 	lsr	ip, r0, #24
    b0a4:	e7993103 	ldr	r3, [r9, r3, lsl #2]
    b0a8:	e58d4030 	str	r4, [sp, #48]	; 0x30
    b0ac:	e58d0040 	str	r0, [sp, #64]	; 0x40
    b0b0:	e58d00bc 	str	r0, [sp, #188]	; 0xbc
    b0b4:	e58d2050 	str	r2, [sp, #80]	; 0x50
    b0b8:	e58d70b8 	str	r7, [sp, #184]	; 0xb8
    b0bc:	e58de048 	str	lr, [sp, #72]	; 0x48
    b0c0:	e58dc02c 	str	ip, [sp, #44]	; 0x2c
    b0c4:	e7980102 	ldr	r0, [r8, r2, lsl #2]
    b0c8:	e59d40ac 	ldr	r4, [sp, #172]	; 0xac
    b0cc:	e0211000 	eor	r1, r1, r0
    b0d0:	e79b010c 	ldr	r0, [fp, ip, lsl #2]
    b0d4:	e0244003 	eor	r4, r4, r3
    b0d8:	e0211000 	eor	r1, r1, r0
    b0dc:	e7e72451 	ubfx	r2, r1, #8, #8
    b0e0:	e6ef6071 	uxtb	r6, r1
    b0e4:	e7e75851 	ubfx	r5, r1, #16, #8
    b0e8:	e79a3102 	ldr	r3, [sl, r2, lsl #2]
    b0ec:	e58d1054 	str	r1, [sp, #84]	; 0x54
    b0f0:	e0244003 	eor	r4, r4, r3
    b0f4:	e58d10c0 	str	r1, [sp, #192]	; 0xc0
    b0f8:	e1a03c21 	lsr	r3, r1, #24
    b0fc:	e7991105 	ldr	r1, [r9, r5, lsl #2]
    b100:	e0244001 	eor	r4, r4, r1
    b104:	e7981106 	ldr	r1, [r8, r6, lsl #2]
    b108:	e0244001 	eor	r4, r4, r1
    b10c:	e79b1103 	ldr	r1, [fp, r3, lsl #2]
    b110:	e0244001 	eor	r4, r4, r1
    b114:	e58d40c4 	str	r4, [sp, #196]	; 0xc4
    b118:	1a00036e 	bne	bed8 <run+0x146c>
    b11c:	e59dc050 	ldr	ip, [sp, #80]	; 0x50
    b120:	e59de048 	ldr	lr, [sp, #72]	; 0x48
    b124:	e59d004c 	ldr	r0, [sp, #76]	; 0x4c
    b128:	e59d1034 	ldr	r1, [sp, #52]	; 0x34
    b12c:	e79ac10c 	ldr	ip, [sl, ip, lsl #2]
    b130:	e79be10e 	ldr	lr, [fp, lr, lsl #2]
    b134:	e0211000 	eor	r1, r1, r0
    b138:	e58de034 	str	lr, [sp, #52]	; 0x34
    b13c:	e59d0030 	ldr	r0, [sp, #48]	; 0x30
    b140:	e798e102 	ldr	lr, [r8, r2, lsl #2]
    b144:	e58dc030 	str	ip, [sp, #48]	; 0x30
    b148:	e59d21fc 	ldr	r2, [sp, #508]	; 0x1fc
    b14c:	e798c103 	ldr	ip, [r8, r3, lsl #2]
    b150:	e7e73454 	ubfx	r3, r4, #8, #8
    b154:	e3520000 	cmp	r2, #0
    b158:	e58d1058 	str	r1, [sp, #88]	; 0x58
    b15c:	e7982103 	ldr	r2, [r8, r3, lsl #2]
    b160:	e59d3028 	ldr	r3, [sp, #40]	; 0x28
    b164:	e79a0100 	ldr	r0, [sl, r0, lsl #2]
    b168:	e79a1103 	ldr	r1, [sl, r3, lsl #2]
    b16c:	e59d303c 	ldr	r3, [sp, #60]	; 0x3c
    b170:	e58d004c 	str	r0, [sp, #76]	; 0x4c
    b174:	e0233001 	eor	r3, r3, r1
    b178:	e79b6106 	ldr	r6, [fp, r6, lsl #2]
    b17c:	e1a01003 	mov	r1, r3
    b180:	e59d3020 	ldr	r3, [sp, #32]
    b184:	e7993103 	ldr	r3, [r9, r3, lsl #2]
    b188:	e0233000 	eor	r3, r3, r0
    b18c:	e0233002 	eor	r3, r3, r2
    b190:	e6ef2074 	uxtb	r2, r4
    b194:	e59d0030 	ldr	r0, [sp, #48]	; 0x30
    b198:	e79b2102 	ldr	r2, [fp, r2, lsl #2]
    b19c:	e0233002 	eor	r3, r3, r2
    b1a0:	e59d202c 	ldr	r2, [sp, #44]	; 0x2c
    b1a4:	e58d303c 	str	r3, [sp, #60]	; 0x3c
    b1a8:	e7992102 	ldr	r2, [r9, r2, lsl #2]
    b1ac:	e0222000 	eor	r2, r2, r0
    b1b0:	e59d0034 	ldr	r0, [sp, #52]	; 0x34
    b1b4:	e0222000 	eor	r2, r2, r0
    b1b8:	e022200e 	eor	r2, r2, lr
    b1bc:	e0222006 	eor	r2, r2, r6
    b1c0:	e59d6018 	ldr	r6, [sp, #24]
    b1c4:	e1a00c24 	lsr	r0, r4, #24
    b1c8:	e586201c 	str	r2, [r6, #28]
    b1cc:	e79a2105 	ldr	r2, [sl, r5, lsl #2]
    b1d0:	e79b5105 	ldr	r5, [fp, r5, lsl #2]
    b1d4:	e0211002 	eor	r1, r1, r2
    b1d8:	e7e72854 	ubfx	r2, r4, #16, #8
    b1dc:	e79be102 	ldr	lr, [fp, r2, lsl #2]
    b1e0:	e59d2024 	ldr	r2, [sp, #36]	; 0x24
    b1e4:	e59d3058 	ldr	r3, [sp, #88]	; 0x58
    b1e8:	e7982102 	ldr	r2, [r8, r2, lsl #2]
    b1ec:	e0222003 	eor	r2, r2, r3
    b1f0:	e022200c 	eor	r2, r2, ip
    b1f4:	e0222005 	eor	r2, r2, r5
    b1f8:	e5862018 	str	r2, [r6, #24]
    b1fc:	e7982100 	ldr	r2, [r8, r0, lsl #2]
    b200:	e59d303c 	ldr	r3, [sp, #60]	; 0x3c
    b204:	e0211002 	eor	r1, r1, r2
    b208:	e7992100 	ldr	r2, [r9, r0, lsl #2]
    b20c:	e02ee001 	eor	lr, lr, r1
    b210:	e0233002 	eor	r3, r3, r2
    b214:	e5863014 	str	r3, [r6, #20]
    b218:	e59d301c 	ldr	r3, [sp, #28]
    b21c:	e586e010 	str	lr, [r6, #16]
    b220:	e2831008 	add	r1, r3, #8
    b224:	e283200b 	add	r2, r3, #11
    b228:	1a000315 	bne	be84 <run+0x1418>
    b22c:	e59d3034 	ldr	r3, [sp, #52]	; 0x34
    b230:	e59d1030 	ldr	r1, [sp, #48]	; 0x30
    b234:	e59d204c 	ldr	r2, [sp, #76]	; 0x4c
    b238:	e0211003 	eor	r1, r1, r3
    b23c:	e59d3040 	ldr	r3, [sp, #64]	; 0x40
    b240:	e0233002 	eor	r3, r3, r2
    b244:	e59d2020 	ldr	r2, [sp, #32]
    b248:	e7982102 	ldr	r2, [r8, r2, lsl #2]
    b24c:	e0211002 	eor	r1, r1, r2
    b250:	e59d2044 	ldr	r2, [sp, #68]	; 0x44
    b254:	e7992102 	ldr	r2, [r9, r2, lsl #2]
    b258:	e0211002 	eor	r1, r1, r2
    b25c:	e59d202c 	ldr	r2, [sp, #44]	; 0x2c
    b260:	e7982102 	ldr	r2, [r8, r2, lsl #2]
    b264:	e0211002 	eor	r1, r1, r2
    b268:	e59d2054 	ldr	r2, [sp, #84]	; 0x54
    b26c:	e0211002 	eor	r1, r1, r2
    b270:	e59d2024 	ldr	r2, [sp, #36]	; 0x24
    b274:	e7e7c851 	ubfx	ip, r1, #16, #8
    b278:	e79be102 	ldr	lr, [fp, r2, lsl #2]
    b27c:	e59d2028 	ldr	r2, [sp, #40]	; 0x28
    b280:	e798510c 	ldr	r5, [r8, ip, lsl #2]
    b284:	e7992102 	ldr	r2, [r9, r2, lsl #2]
    b288:	e7e70451 	ubfx	r0, r1, #8, #8
    b28c:	e0244002 	eor	r4, r4, r2
    b290:	e59d21fc 	ldr	r2, [sp, #508]	; 0x1fc
    b294:	e02ee007 	eor	lr, lr, r7
    b298:	e58d10a8 	str	r1, [sp, #168]	; 0xa8
    b29c:	e3520000 	cmp	r2, #0
    b2a0:	e1a02c21 	lsr	r2, r1, #24
    b2a4:	e6ef1071 	uxtb	r1, r1
    b2a8:	e58d5020 	str	r5, [sp, #32]
    b2ac:	e79ac102 	ldr	ip, [sl, r2, lsl #2]
    b2b0:	e79b1101 	ldr	r1, [fp, r1, lsl #2]
    b2b4:	e02ee00c 	eor	lr, lr, ip
    b2b8:	e799c100 	ldr	ip, [r9, r0, lsl #2]
    b2bc:	e02cc00e 	eor	ip, ip, lr
    b2c0:	e02cc005 	eor	ip, ip, r5
    b2c4:	e02cc001 	eor	ip, ip, r1
    b2c8:	e7e7e85c 	ubfx	lr, ip, #16, #8
    b2cc:	e6ef107c 	uxtb	r1, ip
    b2d0:	e58dc0ac 	str	ip, [sp, #172]	; 0xac
    b2d4:	e79a1101 	ldr	r1, [sl, r1, lsl #2]
    b2d8:	e798510e 	ldr	r5, [r8, lr, lsl #2]
    b2dc:	e0233001 	eor	r3, r3, r1
    b2e0:	e7e7145c 	ubfx	r1, ip, #8, #8
    b2e4:	e1a0cc2c 	lsr	ip, ip, #24
    b2e8:	e58d5024 	str	r5, [sp, #36]	; 0x24
    b2ec:	e79be10c 	ldr	lr, [fp, ip, lsl #2]
    b2f0:	e799c101 	ldr	ip, [r9, r1, lsl #2]
    b2f4:	e023300c 	eor	r3, r3, ip
    b2f8:	e0233005 	eor	r3, r3, r5
    b2fc:	e023300e 	eor	r3, r3, lr
    b300:	e7e7c453 	ubfx	ip, r3, #8, #8
    b304:	e58d30b0 	str	r3, [sp, #176]	; 0xb0
    b308:	e79a510c 	ldr	r5, [sl, ip, lsl #2]
    b30c:	e7e7c853 	ubfx	ip, r3, #16, #8
    b310:	e0244005 	eor	r4, r4, r5
    b314:	e799c10c 	ldr	ip, [r9, ip, lsl #2]
    b318:	e024400c 	eor	r4, r4, ip
    b31c:	e58dc028 	str	ip, [sp, #40]	; 0x28
    b320:	e6efc073 	uxtb	ip, r3
    b324:	e1a03c23 	lsr	r3, r3, #24
    b328:	e798c10c 	ldr	ip, [r8, ip, lsl #2]
    b32c:	e024400c 	eor	r4, r4, ip
    b330:	e79bc103 	ldr	ip, [fp, r3, lsl #2]
    b334:	e024400c 	eor	r4, r4, ip
    b338:	e58d40b4 	str	r4, [sp, #180]	; 0xb4
    b33c:	1a0002af 	bne	be00 <run+0x1394>
    b340:	e79bc101 	ldr	ip, [fp, r1, lsl #2]
    b344:	e79b0100 	ldr	r0, [fp, r0, lsl #2]
    b348:	e5dd10b5 	ldrb	r1, [sp, #181]	; 0xb5
    b34c:	e79b2102 	ldr	r2, [fp, r2, lsl #2]
    b350:	e58d0030 	str	r0, [sp, #48]	; 0x30
    b354:	e79a0101 	ldr	r0, [sl, r1, lsl #2]
    b358:	e5dd10b4 	ldrb	r1, [sp, #180]	; 0xb4
    b35c:	e5dd70ac 	ldrb	r7, [sp, #172]	; 0xac
    b360:	e7991101 	ldr	r1, [r9, r1, lsl #2]
    b364:	e58d2034 	str	r2, [sp, #52]	; 0x34
    b368:	e5dd20b0 	ldrb	r2, [sp, #176]	; 0xb0
    b36c:	e0200001 	eor	r0, r0, r1
    b370:	e58dc02c 	str	ip, [sp, #44]	; 0x2c
    b374:	e7981107 	ldr	r1, [r8, r7, lsl #2]
    b378:	e799c102 	ldr	ip, [r9, r2, lsl #2]
    b37c:	e7997107 	ldr	r7, [r9, r7, lsl #2]
    b380:	e5dd60a8 	ldrb	r6, [sp, #168]	; 0xa8
    b384:	e02cc007 	eor	ip, ip, r7
    b388:	e02cc005 	eor	ip, ip, r5
    b38c:	e59d5024 	ldr	r5, [sp, #36]	; 0x24
    b390:	e59d41fc 	ldr	r4, [sp, #508]	; 0x1fc
    b394:	e02cc005 	eor	ip, ip, r5
    b398:	e59d5018 	ldr	r5, [sp, #24]
    b39c:	e3540000 	cmp	r4, #0
    b3a0:	e02cc00e 	eor	ip, ip, lr
    b3a4:	e585c024 	str	ip, [r5, #36]	; 0x24
    b3a8:	e79ac106 	ldr	ip, [sl, r6, lsl #2]
    b3ac:	e5dd40b6 	ldrb	r4, [sp, #182]	; 0xb6
    b3b0:	e5dd20b7 	ldrb	r2, [sp, #183]	; 0xb7
    b3b4:	e021100c 	eor	r1, r1, ip
    b3b8:	e59dc028 	ldr	ip, [sp, #40]	; 0x28
    b3bc:	e799e104 	ldr	lr, [r9, r4, lsl #2]
    b3c0:	e79a2102 	ldr	r2, [sl, r2, lsl #2]
    b3c4:	e02cc001 	eor	ip, ip, r1
    b3c8:	e7981106 	ldr	r1, [r8, r6, lsl #2]
    b3cc:	e022200e 	eor	r2, r2, lr
    b3d0:	e0222001 	eor	r2, r2, r1
    b3d4:	e59d1030 	ldr	r1, [sp, #48]	; 0x30
    b3d8:	e59de020 	ldr	lr, [sp, #32]
    b3dc:	e0222001 	eor	r2, r2, r1
    b3e0:	e79b1104 	ldr	r1, [fp, r4, lsl #2]
    b3e4:	e0211000 	eor	r1, r1, r0
    b3e8:	e59d0034 	ldr	r0, [sp, #52]	; 0x34
    b3ec:	e021100e 	eor	r1, r1, lr
    b3f0:	e0211000 	eor	r1, r1, r0
    b3f4:	e585102c 	str	r1, [r5, #44]	; 0x2c
    b3f8:	e79a1103 	ldr	r1, [sl, r3, lsl #2]
    b3fc:	e7983103 	ldr	r3, [r8, r3, lsl #2]
    b400:	e021100c 	eor	r1, r1, ip
    b404:	e59dc02c 	ldr	ip, [sp, #44]	; 0x2c
    b408:	e0222003 	eor	r2, r2, r3
    b40c:	e59d301c 	ldr	r3, [sp, #28]
    b410:	e021100c 	eor	r1, r1, ip
    b414:	e5851020 	str	r1, [r5, #32]
    b418:	e283100c 	add	r1, r3, #12
    b41c:	e5852028 	str	r2, [r5, #40]	; 0x28
    b420:	e283200f 	add	r2, r3, #15
    b424:	1a0001f4 	bne	bbfc <run+0x1190>
    b428:	e59d3038 	ldr	r3, [sp, #56]	; 0x38
    b42c:	e3530001 	cmp	r3, #1
    b430:	e59d301c 	ldr	r3, [sp, #28]
    b434:	e2833010 	add	r3, r3, #16
    b438:	e58d301c 	str	r3, [sp, #28]
    b43c:	e59d3018 	ldr	r3, [sp, #24]
    b440:	e2833040 	add	r3, r3, #64	; 0x40
    b444:	e58d3018 	str	r3, [sp, #24]
    b448:	1a000146 	bne	b968 <run+0xefc>
    b44c:	e3a02040 	mov	r2, #64	; 0x40
    b450:	e3a01000 	mov	r1, #0
    b454:	e28d00cc 	add	r0, sp, #204	; 0xcc
    b458:	eb0006cb 	bl	cf8c <memset>
    b45c:	e59d306c 	ldr	r3, [sp, #108]	; 0x6c
    b460:	e3a02040 	mov	r2, #64	; 0x40
    b464:	e3a01000 	mov	r1, #0
    b468:	e28d0e11 	add	r0, sp, #272	; 0x110
    b46c:	e58d30c8 	str	r3, [sp, #200]	; 0xc8
    b470:	eb0006c5 	bl	cf8c <memset>
    b474:	e59d31fc 	ldr	r3, [sp, #508]	; 0x1fc
    b478:	e3530000 	cmp	r3, #0
    b47c:	1a0001c1 	bne	bb88 <run+0x111c>
    b480:	e59d2064 	ldr	r2, [sp, #100]	; 0x64
    b484:	e28d7f43 	add	r7, sp, #268	; 0x10c
    b488:	e59f35f8 	ldr	r3, [pc, #1528]	; ba88 <run+0x101c>
    b48c:	e3a04001 	mov	r4, #1
    b490:	e59d5068 	ldr	r5, [sp, #104]	; 0x68
    b494:	e7923003 	ldr	r3, [r2, r3]
    b498:	e59d6070 	ldr	r6, [sp, #112]	; 0x70
    b49c:	e58d3020 	str	r3, [sp, #32]
    b4a0:	e59f35e4 	ldr	r3, [pc, #1508]	; ba8c <run+0x1020>
    b4a4:	e7923003 	ldr	r3, [r2, r3]
    b4a8:	e58d3024 	str	r3, [sp, #36]	; 0x24
    b4ac:	e59f35dc 	ldr	r3, [pc, #1500]	; ba90 <run+0x1024>
    b4b0:	e7923003 	ldr	r3, [r2, r3]
    b4b4:	e58d3028 	str	r3, [sp, #40]	; 0x28
    b4b8:	e59f35d4 	ldr	r3, [pc, #1492]	; ba94 <run+0x1028>
    b4bc:	e7923003 	ldr	r3, [r2, r3]
    b4c0:	e58d7018 	str	r7, [sp, #24]
    b4c4:	e58d302c 	str	r3, [sp, #44]	; 0x2c
    b4c8:	e30a3aab 	movw	r3, #43691	; 0xaaab
    b4cc:	e34a3aaa 	movt	r3, #43690	; 0xaaaa
    b4d0:	e58d301c 	str	r3, [sp, #28]
    b4d4:	e59f35bc 	ldr	r3, [pc, #1468]	; ba98 <run+0x102c>
    b4d8:	e08f3003 	add	r3, pc, r3
    b4dc:	e58d3034 	str	r3, [sp, #52]	; 0x34
    b4e0:	e59f35b4 	ldr	r3, [pc, #1460]	; ba9c <run+0x1030>
    b4e4:	e08f3003 	add	r3, pc, r3
    b4e8:	e58d3038 	str	r3, [sp, #56]	; 0x38
    b4ec:	ea000021 	b	b578 <run+0xb0c>
    b4f0:	e0899006 	add	r9, r9, r6
    b4f4:	e26aa020 	rsb	sl, sl, #32
    b4f8:	e59d2024 	ldr	r2, [sp, #36]	; 0x24
    b4fc:	e1a09a79 	ror	r9, r9, sl
    b500:	e7e73859 	ubfx	r3, r9, #16, #8
    b504:	e59d1020 	ldr	r1, [sp, #32]
    b508:	e7923103 	ldr	r3, [r2, r3, lsl #2]
    b50c:	e1a02c29 	lsr	r2, r9, #24
    b510:	e7912102 	ldr	r2, [r1, r2, lsl #2]
    b514:	e59d1028 	ldr	r1, [sp, #40]	; 0x28
    b518:	e0233002 	eor	r3, r3, r2
    b51c:	e7e72459 	ubfx	r2, r9, #8, #8
    b520:	e6ef9079 	uxtb	r9, r9
    b524:	e7912102 	ldr	r2, [r1, r2, lsl #2]
    b528:	e0433002 	sub	r3, r3, r2
    b52c:	e59d202c 	ldr	r2, [sp, #44]	; 0x2c
    b530:	e7922109 	ldr	r2, [r2, r9, lsl #2]
    b534:	e0833002 	add	r3, r3, r2
    b538:	e5952000 	ldr	r2, [r5]
    b53c:	e5856004 	str	r6, [r5, #4]
    b540:	e1a06004 	mov	r6, r4
    b544:	e0233002 	eor	r3, r3, r2
    b548:	e59d2018 	ldr	r2, [sp, #24]
    b54c:	e5823004 	str	r3, [r2, #4]
    b550:	e59d3018 	ldr	r3, [sp, #24]
    b554:	e2844001 	add	r4, r4, #1
    b558:	e3540011 	cmp	r4, #17
    b55c:	e2855004 	add	r5, r5, #4
    b560:	e2833004 	add	r3, r3, #4
    b564:	e58d3018 	str	r3, [sp, #24]
    b568:	0a00012b 	beq	ba1c <run+0xfb0>
    b56c:	e28d3e1d 	add	r3, sp, #464	; 0x1d0
    b570:	e0836106 	add	r6, r3, r6, lsl #2
    b574:	e51660c4 	ldr	r6, [r6, #-196]	; 0xffffff3c
    b578:	e59d31f8 	ldr	r3, [sp, #504]	; 0x1f8
    b57c:	e2448001 	sub	r8, r4, #1
    b580:	e3530000 	cmp	r3, #0
    b584:	e59d31fc 	ldr	r3, [sp, #508]	; 0x1fc
    b588:	12647010 	rsbne	r7, r4, #16
    b58c:	01a07008 	moveq	r7, r8
    b590:	e3530000 	cmp	r3, #0
    b594:	e28d3e1d 	add	r3, sp, #464	; 0x1d0
    b598:	e0833107 	add	r3, r3, r7, lsl #2
    b59c:	e287b010 	add	fp, r7, #16
    b5a0:	e5139080 	ldr	r9, [r3, #-128]	; 0xffffff80
    b5a4:	e28d3e1d 	add	r3, sp, #464	; 0x1d0
    b5a8:	e083310b 	add	r3, r3, fp, lsl #2
    b5ac:	e5133080 	ldr	r3, [r3, #-128]	; 0xffffff80
    b5b0:	e203a01f 	and	sl, r3, #31
    b5b4:	1a00001e 	bne	b634 <run+0xbc8>
    b5b8:	e59d301c 	ldr	r3, [sp, #28]
    b5bc:	e0832793 	umull	r2, r3, r3, r7
    b5c0:	e3a02003 	mov	r2, #3
    b5c4:	e1a030a3 	lsr	r3, r3, #1
    b5c8:	e0637392 	mls	r3, r2, r3, r7
    b5cc:	e3530001 	cmp	r3, #1
    b5d0:	0a000076 	beq	b7b0 <run+0xd44>
    b5d4:	e3530002 	cmp	r3, #2
    b5d8:	1affffc4 	bne	b4f0 <run+0xa84>
    b5dc:	e59d31fc 	ldr	r3, [sp, #508]	; 0x1fc
    b5e0:	e0497006 	sub	r7, r9, r6
    b5e4:	e3530000 	cmp	r3, #0
    b5e8:	e26a3020 	rsb	r3, sl, #32
    b5ec:	e1a07377 	ror	r7, r7, r3
    b5f0:	1a0000b0 	bne	b8b8 <run+0xe4c>
    b5f4:	e7e73857 	ubfx	r3, r7, #16, #8
    b5f8:	e59d2024 	ldr	r2, [sp, #36]	; 0x24
    b5fc:	e59d1020 	ldr	r1, [sp, #32]
    b600:	e7923103 	ldr	r3, [r2, r3, lsl #2]
    b604:	e1a02c27 	lsr	r2, r7, #24
    b608:	e7912102 	ldr	r2, [r1, r2, lsl #2]
    b60c:	e59d1028 	ldr	r1, [sp, #40]	; 0x28
    b610:	e0833002 	add	r3, r3, r2
    b614:	e7e72457 	ubfx	r2, r7, #8, #8
    b618:	e6ef7077 	uxtb	r7, r7
    b61c:	e7912102 	ldr	r2, [r1, r2, lsl #2]
    b620:	e0233002 	eor	r3, r3, r2
    b624:	e59d202c 	ldr	r2, [sp, #44]	; 0x2c
    b628:	e7922107 	ldr	r2, [r2, r7, lsl #2]
    b62c:	e0433002 	sub	r3, r3, r2
    b630:	eaffffc0 	b	b538 <run+0xacc>
    b634:	e59f0464 	ldr	r0, [pc, #1124]	; baa0 <run+0x1034>
    b638:	e1a01008 	mov	r1, r8
    b63c:	e58d3030 	str	r3, [sp, #48]	; 0x30
    b640:	e08f0000 	add	r0, pc, r0
    b644:	eb000e7b 	bl	f038 <tfp_printf>
    b648:	e59d3030 	ldr	r3, [sp, #48]	; 0x30
    b64c:	e1a01007 	mov	r1, r7
    b650:	e59f044c 	ldr	r0, [pc, #1100]	; baa4 <run+0x1038>
    b654:	e1a02009 	mov	r2, r9
    b658:	e88d0408 	stm	sp, {r3, sl}
    b65c:	e08f0000 	add	r0, pc, r0
    b660:	e1a0300b 	mov	r3, fp
    b664:	eb000e73 	bl	f038 <tfp_printf>
    b668:	e59f0438 	ldr	r0, [pc, #1080]	; baa8 <run+0x103c>
    b66c:	e1a02006 	mov	r2, r6
    b670:	e5951000 	ldr	r1, [r5]
    b674:	e08f0000 	add	r0, pc, r0
    b678:	eb000e6e 	bl	f038 <tfp_printf>
    b67c:	e59d301c 	ldr	r3, [sp, #28]
    b680:	e0832793 	umull	r2, r3, r3, r7
    b684:	e3a02003 	mov	r2, #3
    b688:	e1a030a3 	lsr	r3, r3, #1
    b68c:	e0637392 	mls	r3, r2, r3, r7
    b690:	e3530001 	cmp	r3, #1
    b694:	0a000058 	beq	b7fc <run+0xd90>
    b698:	e3530002 	cmp	r3, #2
    b69c:	0affffce 	beq	b5dc <run+0xb70>
    b6a0:	e0897006 	add	r7, r9, r6
    b6a4:	e26a3020 	rsb	r3, sl, #32
    b6a8:	e59f03fc 	ldr	r0, [pc, #1020]	; baac <run+0x1040>
    b6ac:	e1a01009 	mov	r1, r9
    b6b0:	e1a07377 	ror	r7, r7, r3
    b6b4:	e1a02006 	mov	r2, r6
    b6b8:	e08f0000 	add	r0, pc, r0
    b6bc:	e1a0300a 	mov	r3, sl
    b6c0:	e58d7000 	str	r7, [sp]
    b6c4:	e7e7a857 	ubfx	sl, r7, #16, #8
    b6c8:	eb000e5a 	bl	f038 <tfp_printf>
    b6cc:	e59f03dc 	ldr	r0, [pc, #988]	; bab0 <run+0x1044>
    b6d0:	e1a0200a 	mov	r2, sl
    b6d4:	e1a09c27 	lsr	r9, r7, #24
    b6d8:	e7e7b457 	ubfx	fp, r7, #8, #8
    b6dc:	e6ef7077 	uxtb	r7, r7
    b6e0:	e08f0000 	add	r0, pc, r0
    b6e4:	e1a0300b 	mov	r3, fp
    b6e8:	e58d7000 	str	r7, [sp]
    b6ec:	e1a01009 	mov	r1, r9
    b6f0:	eb000e50 	bl	f038 <tfp_printf>
    b6f4:	e59d302c 	ldr	r3, [sp, #44]	; 0x2c
    b6f8:	e58d700c 	str	r7, [sp, #12]
    b6fc:	e7930107 	ldr	r0, [r3, r7, lsl #2]
    b700:	e59d3028 	ldr	r3, [sp, #40]	; 0x28
    b704:	e58d0010 	str	r0, [sp, #16]
    b708:	e793c10b 	ldr	ip, [r3, fp, lsl #2]
    b70c:	e59d3020 	ldr	r3, [sp, #32]
    b710:	e58db004 	str	fp, [sp, #4]
    b714:	e7932109 	ldr	r2, [r3, r9, lsl #2]
    b718:	e59d3024 	ldr	r3, [sp, #36]	; 0x24
    b71c:	e58dc008 	str	ip, [sp, #8]
    b720:	e793110a 	ldr	r1, [r3, sl, lsl #2]
    b724:	e1a0300a 	mov	r3, sl
    b728:	e0227001 	eor	r7, r2, r1
    b72c:	e047700c 	sub	r7, r7, ip
    b730:	e0877000 	add	r7, r7, r0
    b734:	e59f0378 	ldr	r0, [pc, #888]	; bab4 <run+0x1048>
    b738:	e58d1000 	str	r1, [sp]
    b73c:	e1a01009 	mov	r1, r9
    b740:	e08f0000 	add	r0, pc, r0
    b744:	eb000e3b 	bl	f038 <tfp_printf>
    b748:	e59f0368 	ldr	r0, [pc, #872]	; bab8 <run+0x104c>
    b74c:	e1a01007 	mov	r1, r7
    b750:	e08f0000 	add	r0, pc, r0
    b754:	eb000e37 	bl	f038 <tfp_printf>
    b758:	e5959000 	ldr	r9, [r5]
    b75c:	e1a01008 	mov	r1, r8
    b760:	e59d3018 	ldr	r3, [sp, #24]
    b764:	e027a009 	eor	sl, r7, r9
    b768:	e59d0034 	ldr	r0, [sp, #52]	; 0x34
    b76c:	e5856004 	str	r6, [r5, #4]
    b770:	e583a004 	str	sl, [r3, #4]
    b774:	eb000e2f 	bl	f038 <tfp_printf>
    b778:	e59d0038 	ldr	r0, [sp, #56]	; 0x38
    b77c:	e1a03006 	mov	r3, r6
    b780:	e1a02008 	mov	r2, r8
    b784:	e1a01004 	mov	r1, r4
    b788:	e1a06004 	mov	r6, r4
    b78c:	eb000e29 	bl	f038 <tfp_printf>
    b790:	e59f0324 	ldr	r0, [pc, #804]	; babc <run+0x1050>
    b794:	e1a03009 	mov	r3, r9
    b798:	e1a02008 	mov	r2, r8
    b79c:	e1a01004 	mov	r1, r4
    b7a0:	e08f0000 	add	r0, pc, r0
    b7a4:	e88d0480 	stm	sp, {r7, sl}
    b7a8:	eb000e22 	bl	f038 <tfp_printf>
    b7ac:	eaffff67 	b	b550 <run+0xae4>
    b7b0:	e0299006 	eor	r9, r9, r6
    b7b4:	e26aa020 	rsb	sl, sl, #32
    b7b8:	e59d2028 	ldr	r2, [sp, #40]	; 0x28
    b7bc:	e1a09a79 	ror	r9, r9, sl
    b7c0:	e7e73459 	ubfx	r3, r9, #8, #8
    b7c4:	e59d1020 	ldr	r1, [sp, #32]
    b7c8:	e7923103 	ldr	r3, [r2, r3, lsl #2]
    b7cc:	e1a02c29 	lsr	r2, r9, #24
    b7d0:	e7912102 	ldr	r2, [r1, r2, lsl #2]
    b7d4:	e59d1024 	ldr	r1, [sp, #36]	; 0x24
    b7d8:	e0833002 	add	r3, r3, r2
    b7dc:	e7e72859 	ubfx	r2, r9, #16, #8
    b7e0:	e6ef9079 	uxtb	r9, r9
    b7e4:	e7912102 	ldr	r2, [r1, r2, lsl #2]
    b7e8:	e0433002 	sub	r3, r3, r2
    b7ec:	e59d202c 	ldr	r2, [sp, #44]	; 0x2c
    b7f0:	e7922109 	ldr	r2, [r2, r9, lsl #2]
    b7f4:	e0233002 	eor	r3, r3, r2
    b7f8:	eaffff4e 	b	b538 <run+0xacc>
    b7fc:	e0297006 	eor	r7, r9, r6
    b800:	e26a3020 	rsb	r3, sl, #32
    b804:	e59f02b4 	ldr	r0, [pc, #692]	; bac0 <run+0x1054>
    b808:	e1a01009 	mov	r1, r9
    b80c:	e1a07377 	ror	r7, r7, r3
    b810:	e1a02006 	mov	r2, r6
    b814:	e58d7000 	str	r7, [sp]
    b818:	e1a0300a 	mov	r3, sl
    b81c:	e08f0000 	add	r0, pc, r0
    b820:	e7e7a857 	ubfx	sl, r7, #16, #8
    b824:	eb000e03 	bl	f038 <tfp_printf>
    b828:	e59f0294 	ldr	r0, [pc, #660]	; bac4 <run+0x1058>
    b82c:	e1a0200a 	mov	r2, sl
    b830:	e1a09c27 	lsr	r9, r7, #24
    b834:	e7e7b457 	ubfx	fp, r7, #8, #8
    b838:	e6ef7077 	uxtb	r7, r7
    b83c:	e58d7000 	str	r7, [sp]
    b840:	e1a0300b 	mov	r3, fp
    b844:	e08f0000 	add	r0, pc, r0
    b848:	e1a01009 	mov	r1, r9
    b84c:	eb000df9 	bl	f038 <tfp_printf>
    b850:	e59d302c 	ldr	r3, [sp, #44]	; 0x2c
    b854:	e59d2020 	ldr	r2, [sp, #32]
    b858:	e7931107 	ldr	r1, [r3, r7, lsl #2]
    b85c:	e59d3028 	ldr	r3, [sp, #40]	; 0x28
    b860:	e7922109 	ldr	r2, [r2, r9, lsl #2]
    b864:	e793310b 	ldr	r3, [r3, fp, lsl #2]
    b868:	e58d700c 	str	r7, [sp, #12]
    b86c:	e58d3008 	str	r3, [sp, #8]
    b870:	e0827003 	add	r7, r2, r3
    b874:	e59d3024 	ldr	r3, [sp, #36]	; 0x24
    b878:	e58d1010 	str	r1, [sp, #16]
    b87c:	e793010a 	ldr	r0, [r3, sl, lsl #2]
    b880:	e1a0300a 	mov	r3, sl
    b884:	e58db004 	str	fp, [sp, #4]
    b888:	e58d0000 	str	r0, [sp]
    b88c:	e0477000 	sub	r7, r7, r0
    b890:	e59f0230 	ldr	r0, [pc, #560]	; bac8 <run+0x105c>
    b894:	e0277001 	eor	r7, r7, r1
    b898:	e1a01009 	mov	r1, r9
    b89c:	e08f0000 	add	r0, pc, r0
    b8a0:	eb000de4 	bl	f038 <tfp_printf>
    b8a4:	e59f0220 	ldr	r0, [pc, #544]	; bacc <run+0x1060>
    b8a8:	e1a01007 	mov	r1, r7
    b8ac:	e08f0000 	add	r0, pc, r0
    b8b0:	eb000de0 	bl	f038 <tfp_printf>
    b8b4:	eaffffa7 	b	b758 <run+0xcec>
    b8b8:	e59f0210 	ldr	r0, [pc, #528]	; bad0 <run+0x1064>
    b8bc:	e1a0300a 	mov	r3, sl
    b8c0:	e58d7000 	str	r7, [sp]
    b8c4:	e1a01009 	mov	r1, r9
    b8c8:	e08f0000 	add	r0, pc, r0
    b8cc:	e1a02006 	mov	r2, r6
    b8d0:	e7e7a857 	ubfx	sl, r7, #16, #8
    b8d4:	eb000dd7 	bl	f038 <tfp_printf>
    b8d8:	e59f01f4 	ldr	r0, [pc, #500]	; bad4 <run+0x1068>
    b8dc:	e1a0200a 	mov	r2, sl
    b8e0:	e1a09c27 	lsr	r9, r7, #24
    b8e4:	e7e7b457 	ubfx	fp, r7, #8, #8
    b8e8:	e6ef7077 	uxtb	r7, r7
    b8ec:	e58d7000 	str	r7, [sp]
    b8f0:	e1a0300b 	mov	r3, fp
    b8f4:	e08f0000 	add	r0, pc, r0
    b8f8:	e1a01009 	mov	r1, r9
    b8fc:	eb000dcd 	bl	f038 <tfp_printf>
    b900:	e59d302c 	ldr	r3, [sp, #44]	; 0x2c
    b904:	e58d700c 	str	r7, [sp, #12]
    b908:	e7930107 	ldr	r0, [r3, r7, lsl #2]
    b90c:	e59d3028 	ldr	r3, [sp, #40]	; 0x28
    b910:	e58d0010 	str	r0, [sp, #16]
    b914:	e793c10b 	ldr	ip, [r3, fp, lsl #2]
    b918:	e59d3020 	ldr	r3, [sp, #32]
    b91c:	e58db004 	str	fp, [sp, #4]
    b920:	e7932109 	ldr	r2, [r3, r9, lsl #2]
    b924:	e59d3024 	ldr	r3, [sp, #36]	; 0x24
    b928:	e58dc008 	str	ip, [sp, #8]
    b92c:	e793110a 	ldr	r1, [r3, sl, lsl #2]
    b930:	e1a0300a 	mov	r3, sl
    b934:	e0817002 	add	r7, r1, r2
    b938:	e027700c 	eor	r7, r7, ip
    b93c:	e0477000 	sub	r7, r7, r0
    b940:	e59f0190 	ldr	r0, [pc, #400]	; bad8 <run+0x106c>
    b944:	e58d1000 	str	r1, [sp]
    b948:	e1a01009 	mov	r1, r9
    b94c:	e08f0000 	add	r0, pc, r0
    b950:	eb000db8 	bl	f038 <tfp_printf>
    b954:	e59f0180 	ldr	r0, [pc, #384]	; badc <run+0x1070>
    b958:	e1a01007 	mov	r1, r7
    b95c:	e08f0000 	add	r0, pc, r0
    b960:	eb000db4 	bl	f038 <tfp_printf>
    b964:	eaffff7b 	b	b758 <run+0xcec>
    b968:	e3a03001 	mov	r3, #1
    b96c:	e58d3038 	str	r3, [sp, #56]	; 0x38
    b970:	e59d31fc 	ldr	r3, [sp, #508]	; 0x1fc
    b974:	e3530000 	cmp	r3, #0
    b978:	0afffc7b 	beq	ab6c <run+0x100>
    b97c:	e59d1038 	ldr	r1, [sp, #56]	; 0x38
    b980:	e59d007c 	ldr	r0, [sp, #124]	; 0x7c
    b984:	e59f4154 	ldr	r4, [pc, #340]	; bae0 <run+0x1074>
    b988:	eb000daa 	bl	f038 <tfp_printf>
    b98c:	e59f0150 	ldr	r0, [pc, #336]	; bae4 <run+0x1078>
    b990:	e59d5074 	ldr	r5, [sp, #116]	; 0x74
    b994:	e08f0000 	add	r0, pc, r0
    b998:	e08f4004 	add	r4, pc, r4
    b99c:	eb000da5 	bl	f038 <tfp_printf>
    b9a0:	e59d6078 	ldr	r6, [sp, #120]	; 0x78
    b9a4:	e4951004 	ldr	r1, [r5], #4
    b9a8:	e1a00004 	mov	r0, r4
    b9ac:	eb000da1 	bl	f038 <tfp_printf>
    b9b0:	e1560005 	cmp	r6, r5
    b9b4:	1afffffa 	bne	b9a4 <run+0xf38>
    b9b8:	e59f0128 	ldr	r0, [pc, #296]	; bae8 <run+0x107c>
    b9bc:	e59f4128 	ldr	r4, [pc, #296]	; baec <run+0x1080>
    b9c0:	e08f0000 	add	r0, pc, r0
    b9c4:	e08f4004 	add	r4, pc, r4
    b9c8:	eb000d9a 	bl	f038 <tfp_printf>
    b9cc:	e59f011c 	ldr	r0, [pc, #284]	; baf0 <run+0x1084>
    b9d0:	e08f0000 	add	r0, pc, r0
    b9d4:	eb000d97 	bl	f038 <tfp_printf>
    b9d8:	e59d3080 	ldr	r3, [sp, #128]	; 0x80
    b9dc:	e59d6084 	ldr	r6, [sp, #132]	; 0x84
    b9e0:	e2835008 	add	r5, r3, #8
    b9e4:	e3a0300b 	mov	r3, #11
    b9e8:	ea000000 	b	b9f0 <run+0xf84>
    b9ec:	e5f53001 	ldrb	r3, [r5, #1]!
    b9f0:	e2833e1d 	add	r3, r3, #464	; 0x1d0
    b9f4:	e1a00004 	mov	r0, r4
    b9f8:	e08d3003 	add	r3, sp, r3
    b9fc:	e5531128 	ldrb	r1, [r3, #-296]	; 0xfffffed8
    ba00:	eb000d8c 	bl	f038 <tfp_printf>
    ba04:	e1560005 	cmp	r6, r5
    ba08:	1afffff7 	bne	b9ec <run+0xf80>
    ba0c:	e59f00e0 	ldr	r0, [pc, #224]	; baf4 <run+0x1088>
    ba10:	e08f0000 	add	r0, pc, r0
    ba14:	eb000d87 	bl	f038 <tfp_printf>
    ba18:	eafffc53 	b	ab6c <run+0x100>
    ba1c:	e59d31fc 	ldr	r3, [sp, #508]	; 0x1fc
    ba20:	e59d514c 	ldr	r5, [sp, #332]	; 0x14c
    ba24:	e59d4108 	ldr	r4, [sp, #264]	; 0x108
    ba28:	e3530000 	cmp	r3, #0
    ba2c:	1a000005 	bne	ba48 <run+0xfdc>
    ba30:	e59d3060 	ldr	r3, [sp, #96]	; 0x60
    ba34:	e5835000 	str	r5, [r3]
    ba38:	e1a00003 	mov	r0, r3
    ba3c:	e5834004 	str	r4, [r3, #4]
    ba40:	e28ddf75 	add	sp, sp, #468	; 0x1d4
    ba44:	e8bd8ff0 	pop	{r4, r5, r6, r7, r8, r9, sl, fp, pc}
    ba48:	e59f00a8 	ldr	r0, [pc, #168]	; baf8 <run+0x108c>
    ba4c:	e08f0000 	add	r0, pc, r0
    ba50:	eb000d78 	bl	f038 <tfp_printf>
    ba54:	e59f00a0 	ldr	r0, [pc, #160]	; bafc <run+0x1090>
    ba58:	e1a02004 	mov	r2, r4
    ba5c:	e1a01005 	mov	r1, r5
    ba60:	e08f0000 	add	r0, pc, r0
    ba64:	eb000d73 	bl	f038 <tfp_printf>
    ba68:	eafffff0 	b	ba30 <run+0xfc4>
    ba6c:	0000a7a8 	andeq	sl, r0, r8, lsr #15
    ba70:	000078b0 			; <UNDEFINED> instruction: 0x000078b0
    ba74:	00007378 	andeq	r7, r0, r8, ror r3
    ba78:	00015674 	andeq	r5, r1, r4, ror r6
    ba7c:	0001564c 	andeq	r5, r1, ip, asr #12
    ba80:	00015658 	andeq	r5, r1, r8, asr r6
    ba84:	00015644 	andeq	r5, r1, r4, asr #12
    ba88:	00015654 	andeq	r5, r1, r4, asr r6
    ba8c:	0001566c 	andeq	r5, r1, ip, ror #12
    ba90:	0001563c 	andeq	r5, r1, ip, lsr r6
    ba94:	00015660 	andeq	r5, r1, r0, ror #12
    ba98:	00006bd8 	ldrdeq	r6, [r0], -r8
    ba9c:	00006be0 	andeq	r6, r0, r0, ror #23
    baa0:	00006924 	andeq	r6, r0, r4, lsr #18
    baa4:	00006918 	andeq	r6, r0, r8, lsl r9
    baa8:	00006930 	andeq	r6, r0, r0, lsr r9
    baac:	00006a50 	andeq	r6, r0, r0, asr sl
    bab0:	00006920 	andeq	r6, r0, r0, lsr #18
    bab4:	000068e0 	andeq	r6, r0, r0, ror #17
    bab8:	00006918 	andeq	r6, r0, r8, lsl r9
    babc:	0000693c 	andeq	r6, r0, ip, lsr r9
    bac0:	0000692c 	andeq	r6, r0, ip, lsr #18
    bac4:	000067bc 			; <UNDEFINED> instruction: 0x000067bc
    bac8:	00006784 	andeq	r6, r0, r4, lsl #15
    bacc:	000067bc 			; <UNDEFINED> instruction: 0x000067bc
    bad0:	000066f4 	strdeq	r6, [r0], -r4
    bad4:	0000670c 	andeq	r6, r0, ip, lsl #14
    bad8:	000066d4 	ldrdeq	r6, [r0], -r4
    badc:	0000670c 	andeq	r6, r0, ip, lsl #14
    bae0:	00006510 	andeq	r6, r0, r0, lsl r5
    bae4:	00006500 	andeq	r6, r0, r0, lsl #10
    bae8:	00006430 	andeq	r6, r0, r0, lsr r4
    baec:	000064fc 	strdeq	r6, [r0], -ip
    baf0:	000064e0 	andeq	r6, r0, r0, ror #9
    baf4:	000063e0 	andeq	r6, r0, r0, ror #7
    baf8:	00006634 	andeq	r6, r0, r4, lsr r6
    bafc:	00006638 	andeq	r6, r0, r8, lsr r6
    bb00:	000063bc 			; <UNDEFINED> instruction: 0x000063bc
    bb04:	00006264 	andeq	r6, r0, r4, ror #4
    bb08:	00006288 	andeq	r6, r0, r8, lsl #5
    bb0c:	00006270 	andeq	r6, r0, r0, ror r2
    bb10:	00006260 	andeq	r6, r0, r0, ror #4
    bb14:	00006270 	andeq	r6, r0, r0, ror r2
    bb18:	000062d8 	ldrdeq	r6, [r0], -r8
    bb1c:	000062a0 	andeq	r6, r0, r0, lsr #5
    bb20:	000061bc 			; <UNDEFINED> instruction: 0x000061bc
    bb24:	0000627c 	andeq	r6, r0, ip, ror r2
    bb28:	00006258 	andeq	r6, r0, r8, asr r2
    bb2c:	00006140 	andeq	r6, r0, r0, asr #2
    bb30:	00006228 	andeq	r6, r0, r8, lsr #4
    bb34:	000061c8 	andeq	r6, r0, r8, asr #3
    bb38:	000060e8 	andeq	r6, r0, r8, ror #1
    bb3c:	00006188 	andeq	r6, r0, r8, lsl #3
    bb40:	00006150 	andeq	r6, r0, r0, asr r1
    bb44:	00006060 	andeq	r6, r0, r0, rrx
    bb48:	00006600 	andeq	r6, r0, r0, lsl #12
    bb4c:	00006140 	andeq	r6, r0, r0, asr #2
    bb50:	00006114 	andeq	r6, r0, r4, lsl r1
    bb54:	00005ffc 	strdeq	r5, [r0], -ip
    bb58:	00006128 	andeq	r6, r0, r8, lsr #2
    bb5c:	0000609c 	muleq	r0, ip, r0
    bb60:	00005fbc 			; <UNDEFINED> instruction: 0x00005fbc
    bb64:	00006050 	andeq	r6, r0, r0, asr r0
    bb68:	00006018 	andeq	r6, r0, r8, lsl r0
    bb6c:	00005f24 	andeq	r5, r0, r4, lsr #30
    bb70:	00006038 	andeq	r6, r0, r8, lsr r0
    bb74:	00005fc0 	andeq	r5, r0, r0, asr #31
    bb78:	00005ea8 	andeq	r5, r0, r8, lsr #29
    bb7c:	00005f64 	andeq	r5, r0, r4, ror #30
    bb80:	00005f2c 	andeq	r5, r0, ip, lsr #30
    bb84:	00005e48 	andeq	r5, r0, r8, asr #28
    bb88:	e51f0090 	ldr	r0, [pc, #-144]	; bb00 <run+0x1094>
    bb8c:	e08f0000 	add	r0, pc, r0
    bb90:	eb000d28 	bl	f038 <tfp_printf>
    bb94:	eafffe39 	b	b480 <run+0xa14>
    bb98:	e51f009c 	ldr	r0, [pc, #-156]	; bb04 <run+0x1098>
    bb9c:	e2446004 	sub	r6, r4, #4
    bba0:	e51f50a0 	ldr	r5, [pc, #-160]	; bb08 <run+0x109c>
    bba4:	e284400c 	add	r4, r4, #12
    bba8:	e08f0000 	add	r0, pc, r0
    bbac:	e08f5005 	add	r5, pc, r5
    bbb0:	eb000d20 	bl	f038 <tfp_printf>
    bbb4:	e51f00b0 	ldr	r0, [pc, #-176]	; bb0c <run+0x10a0>
    bbb8:	e08f0000 	add	r0, pc, r0
    bbbc:	eb000d1d 	bl	f038 <tfp_printf>
    bbc0:	e5b61004 	ldr	r1, [r6, #4]!
    bbc4:	e1a00005 	mov	r0, r5
    bbc8:	eb000d1a 	bl	f038 <tfp_printf>
    bbcc:	e1540006 	cmp	r4, r6
    bbd0:	1afffffa 	bne	bbc0 <run+0x1154>
    bbd4:	e51f00cc 	ldr	r0, [pc, #-204]	; bb10 <run+0x10a4>
    bbd8:	e59d106c 	ldr	r1, [sp, #108]	; 0x6c
    bbdc:	e08f0000 	add	r0, pc, r0
    bbe0:	e59d2070 	ldr	r2, [sp, #112]	; 0x70
    bbe4:	eb000d13 	bl	f038 <tfp_printf>
    bbe8:	e51f00dc 	ldr	r0, [pc, #-220]	; bb14 <run+0x10a8>
    bbec:	e59d11f8 	ldr	r1, [sp, #504]	; 0x1f8
    bbf0:	e08f0000 	add	r0, pc, r0
    bbf4:	eb000d0f 	bl	f038 <tfp_printf>
    bbf8:	eafffbb9 	b	aae4 <run+0x78>
    bbfc:	e51f00ec 	ldr	r0, [pc, #-236]	; bb18 <run+0x10ac>
    bc00:	e51f50ec 	ldr	r5, [pc, #-236]	; bb1c <run+0x10b0>
    bc04:	e08f0000 	add	r0, pc, r0
    bc08:	e08f5005 	add	r5, pc, r5
    bc0c:	eb000d09 	bl	f038 <tfp_printf>
    bc10:	e59d3018 	ldr	r3, [sp, #24]
    bc14:	e2836020 	add	r6, r3, #32
    bc18:	e2834030 	add	r4, r3, #48	; 0x30
    bc1c:	e4961004 	ldr	r1, [r6], #4
    bc20:	e1a00005 	mov	r0, r5
    bc24:	eb000d03 	bl	f038 <tfp_printf>
    bc28:	e1540006 	cmp	r4, r6
    bc2c:	1afffffa 	bne	bc1c <run+0x11b0>
    bc30:	e51f0118 	ldr	r0, [pc, #-280]	; bb20 <run+0x10b4>
    bc34:	e08f0000 	add	r0, pc, r0
    bc38:	eb000cfe 	bl	f038 <tfp_printf>
    bc3c:	eafffdf9 	b	b428 <run+0x9bc>
    bc40:	e58d3094 	str	r3, [sp, #148]	; 0x94
    bc44:	e51f0128 	ldr	r0, [pc, #-296]	; bb24 <run+0x10b8>
    bc48:	e51f3128 	ldr	r3, [pc, #-296]	; bb28 <run+0x10bc>
    bc4c:	e08f0000 	add	r0, pc, r0
    bc50:	e08f3003 	add	r3, pc, r3
    bc54:	e58d2098 	str	r2, [sp, #152]	; 0x98
    bc58:	e58d3088 	str	r3, [sp, #136]	; 0x88
    bc5c:	eb000cf5 	bl	f038 <tfp_printf>
    bc60:	e58d5090 	str	r5, [sp, #144]	; 0x90
    bc64:	e28d00bc 	add	r0, sp, #188	; 0xbc
    bc68:	e59d5088 	ldr	r5, [sp, #136]	; 0x88
    bc6c:	e1a01006 	mov	r1, r6
    bc70:	e58d608c 	str	r6, [sp, #140]	; 0x8c
    bc74:	e59d6068 	ldr	r6, [sp, #104]	; 0x68
    bc78:	e58d409c 	str	r4, [sp, #156]	; 0x9c
    bc7c:	e1a04000 	mov	r4, r0
    bc80:	e1a00005 	mov	r0, r5
    bc84:	eb000ceb 	bl	f038 <tfp_printf>
    bc88:	e1560004 	cmp	r6, r4
    bc8c:	0a000004 	beq	bca4 <run+0x1238>
    bc90:	e4941004 	ldr	r1, [r4], #4
    bc94:	e1a00005 	mov	r0, r5
    bc98:	eb000ce6 	bl	f038 <tfp_printf>
    bc9c:	e1560004 	cmp	r6, r4
    bca0:	1afffffa 	bne	bc90 <run+0x1224>
    bca4:	e51f0180 	ldr	r0, [pc, #-384]	; bb2c <run+0x10c0>
    bca8:	e59d3094 	ldr	r3, [sp, #148]	; 0x94
    bcac:	e59d2098 	ldr	r2, [sp, #152]	; 0x98
    bcb0:	e08f0000 	add	r0, pc, r0
    bcb4:	e59d608c 	ldr	r6, [sp, #140]	; 0x8c
    bcb8:	e58d2088 	str	r2, [sp, #136]	; 0x88
    bcbc:	e58d308c 	str	r3, [sp, #140]	; 0x8c
    bcc0:	e59d5090 	ldr	r5, [sp, #144]	; 0x90
    bcc4:	e59d409c 	ldr	r4, [sp, #156]	; 0x9c
    bcc8:	eb000cda 	bl	f038 <tfp_printf>
    bccc:	e1cd28d8 	ldrd	r2, [sp, #136]	; 0x88
    bcd0:	eafffbfd 	b	accc <run+0x260>
    bcd4:	e51f01ac 	ldr	r0, [pc, #-428]	; bb30 <run+0x10c4>
    bcd8:	e51f41ac 	ldr	r4, [pc, #-428]	; bb34 <run+0x10c8>
    bcdc:	e08f0000 	add	r0, pc, r0
    bce0:	e08f4004 	add	r4, pc, r4
    bce4:	eb000cd3 	bl	f038 <tfp_printf>
    bce8:	e59d5074 	ldr	r5, [sp, #116]	; 0x74
    bcec:	e59d6078 	ldr	r6, [sp, #120]	; 0x78
    bcf0:	e4951004 	ldr	r1, [r5], #4
    bcf4:	e1a00004 	mov	r0, r4
    bcf8:	eb000cce 	bl	f038 <tfp_printf>
    bcfc:	e1560005 	cmp	r6, r5
    bd00:	1afffffa 	bne	bcf0 <run+0x1284>
    bd04:	e51f01d4 	ldr	r0, [pc, #-468]	; bb38 <run+0x10cc>
    bd08:	e08f0000 	add	r0, pc, r0
    bd0c:	eb000cc9 	bl	f038 <tfp_printf>
    bd10:	e5dd30a9 	ldrb	r3, [sp, #169]	; 0xa9
    bd14:	e5ddc0aa 	ldrb	ip, [sp, #170]	; 0xaa
    bd18:	e7993103 	ldr	r3, [r9, r3, lsl #2]
    bd1c:	e5dd00ab 	ldrb	r0, [sp, #171]	; 0xab
    bd20:	e58d3024 	str	r3, [sp, #36]	; 0x24
    bd24:	e5dd30ad 	ldrb	r3, [sp, #173]	; 0xad
    bd28:	e5dde0b2 	ldrb	lr, [sp, #178]	; 0xb2
    bd2c:	e7993103 	ldr	r3, [r9, r3, lsl #2]
    bd30:	e5dd50ae 	ldrb	r5, [sp, #174]	; 0xae
    bd34:	e58d3028 	str	r3, [sp, #40]	; 0x28
    bd38:	e5dd20af 	ldrb	r2, [sp, #175]	; 0xaf
    bd3c:	e5dd30b3 	ldrb	r3, [sp, #179]	; 0xb3
    bd40:	e5dd40b1 	ldrb	r4, [sp, #177]	; 0xb1
    bd44:	eafffc62 	b	aed4 <run+0x468>
    bd48:	e51f0214 	ldr	r0, [pc, #-532]	; bb3c <run+0x10d0>
    bd4c:	e1a01003 	mov	r1, r3
    bd50:	e51f7218 	ldr	r7, [pc, #-536]	; bb40 <run+0x10d4>
    bd54:	e08f0000 	add	r0, pc, r0
    bd58:	e08f7007 	add	r7, pc, r7
    bd5c:	eb000cb5 	bl	f038 <tfp_printf>
    bd60:	e59d3018 	ldr	r3, [sp, #24]
    bd64:	e58d4034 	str	r4, [sp, #52]	; 0x34
    bd68:	e1a04007 	mov	r4, r7
    bd6c:	e2435010 	sub	r5, r3, #16
    bd70:	e1a07003 	mov	r7, r3
    bd74:	e4951004 	ldr	r1, [r5], #4
    bd78:	e1a00004 	mov	r0, r4
    bd7c:	eb000cad 	bl	f038 <tfp_printf>
    bd80:	e1570005 	cmp	r7, r5
    bd84:	1afffffa 	bne	bd74 <run+0x1308>
    bd88:	e51f024c 	ldr	r0, [pc, #-588]	; bb44 <run+0x10d8>
    bd8c:	e59d4034 	ldr	r4, [sp, #52]	; 0x34
    bd90:	e08f0000 	add	r0, pc, r0
    bd94:	e51f7254 	ldr	r7, [pc, #-596]	; bb48 <run+0x10dc>
    bd98:	eb000ca6 	bl	f038 <tfp_printf>
    bd9c:	e51f0258 	ldr	r0, [pc, #-600]	; bb4c <run+0x10e0>
    bda0:	e51f5258 	ldr	r5, [pc, #-600]	; bb50 <run+0x10e4>
    bda4:	e08f7007 	add	r7, pc, r7
    bda8:	e08f0000 	add	r0, pc, r0
    bdac:	e08f5005 	add	r5, pc, r5
    bdb0:	eb000ca0 	bl	f038 <tfp_printf>
    bdb4:	e58d4034 	str	r4, [sp, #52]	; 0x34
    bdb8:	e2872007 	add	r2, r7, #7
    bdbc:	e1a04005 	mov	r4, r5
    bdc0:	e3a03003 	mov	r3, #3
    bdc4:	e1a05002 	mov	r5, r2
    bdc8:	ea000000 	b	bdd0 <run+0x1364>
    bdcc:	e5f73001 	ldrb	r3, [r7, #1]!
    bdd0:	e2833e1d 	add	r3, r3, #464	; 0x1d0
    bdd4:	e1a00004 	mov	r0, r4
    bdd8:	e08d3003 	add	r3, sp, r3
    bddc:	e5531118 	ldrb	r1, [r3, #-280]	; 0xfffffee8
    bde0:	eb000c94 	bl	f038 <tfp_printf>
    bde4:	e1550007 	cmp	r5, r7
    bde8:	1afffff7 	bne	bdcc <run+0x1360>
    bdec:	e51f02a0 	ldr	r0, [pc, #-672]	; bb54 <run+0x10e8>
    bdf0:	e59d4034 	ldr	r4, [sp, #52]	; 0x34
    bdf4:	e08f0000 	add	r0, pc, r0
    bdf8:	eb000c8e 	bl	f038 <tfp_printf>
    bdfc:	eafffbed 	b	adb8 <run+0x34c>
    be00:	e51f02b0 	ldr	r0, [pc, #-688]	; bb58 <run+0x10ec>
    be04:	e51f42b0 	ldr	r4, [pc, #-688]	; bb5c <run+0x10f0>
    be08:	e08f0000 	add	r0, pc, r0
    be0c:	e08f4004 	add	r4, pc, r4
    be10:	eb000c88 	bl	f038 <tfp_printf>
    be14:	e59d5074 	ldr	r5, [sp, #116]	; 0x74
    be18:	e59d6078 	ldr	r6, [sp, #120]	; 0x78
    be1c:	e4951004 	ldr	r1, [r5], #4
    be20:	e1a00004 	mov	r0, r4
    be24:	eb000c83 	bl	f038 <tfp_printf>
    be28:	e1560005 	cmp	r6, r5
    be2c:	1afffffa 	bne	be1c <run+0x13b0>
    be30:	e51f02d8 	ldr	r0, [pc, #-728]	; bb60 <run+0x10f4>
    be34:	e08f0000 	add	r0, pc, r0
    be38:	eb000c7e 	bl	f038 <tfp_printf>
    be3c:	e5dd30b2 	ldrb	r3, [sp, #178]	; 0xb2
    be40:	e5dd10ad 	ldrb	r1, [sp, #173]	; 0xad
    be44:	e7993103 	ldr	r3, [r9, r3, lsl #2]
    be48:	e5dd00a9 	ldrb	r0, [sp, #169]	; 0xa9
    be4c:	e58d3028 	str	r3, [sp, #40]	; 0x28
    be50:	e5dd30b1 	ldrb	r3, [sp, #177]	; 0xb1
    be54:	e5dd20ab 	ldrb	r2, [sp, #171]	; 0xab
    be58:	e79a5103 	ldr	r5, [sl, r3, lsl #2]
    be5c:	e5dd30ae 	ldrb	r3, [sp, #174]	; 0xae
    be60:	e7983103 	ldr	r3, [r8, r3, lsl #2]
    be64:	e58d3024 	str	r3, [sp, #36]	; 0x24
    be68:	e5dd30af 	ldrb	r3, [sp, #175]	; 0xaf
    be6c:	e79be103 	ldr	lr, [fp, r3, lsl #2]
    be70:	e5dd30aa 	ldrb	r3, [sp, #170]	; 0xaa
    be74:	e7983103 	ldr	r3, [r8, r3, lsl #2]
    be78:	e58d3020 	str	r3, [sp, #32]
    be7c:	e5dd30b3 	ldrb	r3, [sp, #179]	; 0xb3
    be80:	eafffd2e 	b	b340 <run+0x8d4>
    be84:	e51f0328 	ldr	r0, [pc, #-808]	; bb64 <run+0x10f8>
    be88:	e51f6328 	ldr	r6, [pc, #-808]	; bb68 <run+0x10fc>
    be8c:	e08f0000 	add	r0, pc, r0
    be90:	e08f6006 	add	r6, pc, r6
    be94:	eb000c67 	bl	f038 <tfp_printf>
    be98:	e59d3018 	ldr	r3, [sp, #24]
    be9c:	e58d403c 	str	r4, [sp, #60]	; 0x3c
    bea0:	e1a04006 	mov	r4, r6
    bea4:	e2835010 	add	r5, r3, #16
    bea8:	e2833020 	add	r3, r3, #32
    beac:	e1a06003 	mov	r6, r3
    beb0:	e4951004 	ldr	r1, [r5], #4
    beb4:	e1a00004 	mov	r0, r4
    beb8:	eb000c5e 	bl	f038 <tfp_printf>
    bebc:	e1560005 	cmp	r6, r5
    bec0:	1afffffa 	bne	beb0 <run+0x1444>
    bec4:	e51f0360 	ldr	r0, [pc, #-864]	; bb6c <run+0x1100>
    bec8:	e59d403c 	ldr	r4, [sp, #60]	; 0x3c
    becc:	e08f0000 	add	r0, pc, r0
    bed0:	eb000c58 	bl	f038 <tfp_printf>
    bed4:	eafffcd4 	b	b22c <run+0x7c0>
    bed8:	e58d3090 	str	r3, [sp, #144]	; 0x90
    bedc:	e51f0374 	ldr	r0, [pc, #-884]	; bb70 <run+0x1104>
    bee0:	e51f3374 	ldr	r3, [pc, #-884]	; bb74 <run+0x1108>
    bee4:	e08f0000 	add	r0, pc, r0
    bee8:	e08f3003 	add	r3, pc, r3
    beec:	e58d2088 	str	r2, [sp, #136]	; 0x88
    bef0:	e58d3058 	str	r3, [sp, #88]	; 0x58
    bef4:	eb000c4f 	bl	f038 <tfp_printf>
    bef8:	e58d508c 	str	r5, [sp, #140]	; 0x8c
    befc:	e28d00bc 	add	r0, sp, #188	; 0xbc
    bf00:	e59d5058 	ldr	r5, [sp, #88]	; 0x58
    bf04:	e1a01007 	mov	r1, r7
    bf08:	e58d705c 	str	r7, [sp, #92]	; 0x5c
    bf0c:	e59d7068 	ldr	r7, [sp, #104]	; 0x68
    bf10:	e58d4094 	str	r4, [sp, #148]	; 0x94
    bf14:	e1a04000 	mov	r4, r0
    bf18:	e1a00005 	mov	r0, r5
    bf1c:	eb000c45 	bl	f038 <tfp_printf>
    bf20:	e1570004 	cmp	r7, r4
    bf24:	0a000004 	beq	bf3c <run+0x14d0>
    bf28:	e4941004 	ldr	r1, [r4], #4
    bf2c:	e1a00005 	mov	r0, r5
    bf30:	eb000c40 	bl	f038 <tfp_printf>
    bf34:	e1570004 	cmp	r7, r4
    bf38:	1afffffa 	bne	bf28 <run+0x14bc>
    bf3c:	e51f03cc 	ldr	r0, [pc, #-972]	; bb78 <run+0x110c>
    bf40:	e59d2088 	ldr	r2, [sp, #136]	; 0x88
    bf44:	e59d3090 	ldr	r3, [sp, #144]	; 0x90
    bf48:	e08f0000 	add	r0, pc, r0
    bf4c:	e59d705c 	ldr	r7, [sp, #92]	; 0x5c
    bf50:	e58d3058 	str	r3, [sp, #88]	; 0x58
    bf54:	e58d205c 	str	r2, [sp, #92]	; 0x5c
    bf58:	e59d508c 	ldr	r5, [sp, #140]	; 0x8c
    bf5c:	e59d4094 	ldr	r4, [sp, #148]	; 0x94
    bf60:	eb000c34 	bl	f038 <tfp_printf>
    bf64:	e59d205c 	ldr	r2, [sp, #92]	; 0x5c
    bf68:	e59d3058 	ldr	r3, [sp, #88]	; 0x58
    bf6c:	eafffc6a 	b	b11c <run+0x6b0>
    bf70:	e51f03fc 	ldr	r0, [pc, #-1020]	; bb7c <run+0x1110>
    bf74:	e51f43fc 	ldr	r4, [pc, #-1020]	; bb80 <run+0x1114>
    bf78:	e08f0000 	add	r0, pc, r0
    bf7c:	e08f4004 	add	r4, pc, r4
    bf80:	eb000c2c 	bl	f038 <tfp_printf>
    bf84:	e59d3018 	ldr	r3, [sp, #24]
    bf88:	e1a06003 	mov	r6, r3
    bf8c:	e2835010 	add	r5, r3, #16
    bf90:	e4961004 	ldr	r1, [r6], #4
    bf94:	e1a00004 	mov	r0, r4
    bf98:	eb000c26 	bl	f038 <tfp_printf>
    bf9c:	e1550006 	cmp	r5, r6
    bfa0:	1afffffa 	bne	bf90 <run+0x1524>
    bfa4:	e51f0428 	ldr	r0, [pc, #-1064]	; bb84 <run+0x1118>
    bfa8:	e08f0000 	add	r0, pc, r0
    bfac:	eb000c21 	bl	f038 <tfp_printf>
    bfb0:	e5dd30b7 	ldrb	r3, [sp, #183]	; 0xb7
    bfb4:	e5dd50b6 	ldrb	r5, [sp, #182]	; 0xb6
    bfb8:	e7983103 	ldr	r3, [r8, r3, lsl #2]
    bfbc:	e5dd70b5 	ldrb	r7, [sp, #181]	; 0xb5
    bfc0:	e58d302c 	str	r3, [sp, #44]	; 0x2c
    bfc4:	e5dd30b3 	ldrb	r3, [sp, #179]	; 0xb3
    bfc8:	e5dd40b1 	ldrb	r4, [sp, #177]	; 0xb1
    bfcc:	e798c103 	ldr	ip, [r8, r3, lsl #2]
    bfd0:	e5dd30b4 	ldrb	r3, [sp, #180]	; 0xb4
    bfd4:	e5dde0b2 	ldrb	lr, [sp, #178]	; 0xb2
    bfd8:	e58d3030 	str	r3, [sp, #48]	; 0x30
    bfdc:	e5dd30b0 	ldrb	r3, [sp, #176]	; 0xb0
    bfe0:	e58d3020 	str	r3, [sp, #32]
    bfe4:	eafffbfe 	b	afe4 <run+0x578>

0000bfe8 <buf_get_le32>:
    bfe8:	e3500000 	cmp	r0, #0
    bfec:	012fff1e 	bxeq	lr
    bff0:	e5d01000 	ldrb	r1, [r0]
    bff4:	e5d02001 	ldrb	r2, [r0, #1]
    bff8:	e5d03002 	ldrb	r3, [r0, #2]
    bffc:	e5d0c003 	ldrb	ip, [r0, #3]
    c000:	e1a00803 	lsl	r0, r3, #16
    c004:	e1800c0c 	orr	r0, r0, ip, lsl #24
    c008:	e1800001 	orr	r0, r0, r1
    c00c:	e1800402 	orr	r0, r0, r2, lsl #8
    c010:	e12fff1e 	bx	lr

0000c014 <buf_put_le32>:
    c014:	e1a0cc21 	lsr	ip, r1, #24
    c018:	e1a02821 	lsr	r2, r1, #16
    c01c:	e1a03421 	lsr	r3, r1, #8
    c020:	e5c0c003 	strb	ip, [r0, #3]
    c024:	e5c02002 	strb	r2, [r0, #2]
    c028:	e5c03001 	strb	r3, [r0, #1]
    c02c:	e5c01000 	strb	r1, [r0]
    c030:	e12fff1e 	bx	lr

0000c034 <cipher_block_cpy>:
    c034:	e3520008 	cmp	r2, #8
    c038:	e92d41f0 	push	{r4, r5, r6, r7, r8, lr}
    c03c:	e1a04000 	mov	r4, r0
    c040:	e1a05001 	mov	r5, r1
    c044:	e1a00001 	mov	r0, r1
    c048:	0a000017 	beq	c0ac <cipher_block_cpy+0x78>
    c04c:	ebffffe5 	bl	bfe8 <buf_get_le32>
    c050:	e1a08000 	mov	r8, r0
    c054:	e2850004 	add	r0, r5, #4
    c058:	ebffffe2 	bl	bfe8 <buf_get_le32>
    c05c:	e1a07000 	mov	r7, r0
    c060:	e2850008 	add	r0, r5, #8
    c064:	ebffffdf 	bl	bfe8 <buf_get_le32>
    c068:	e1a06000 	mov	r6, r0
    c06c:	e285000c 	add	r0, r5, #12
    c070:	ebffffdc 	bl	bfe8 <buf_get_le32>
    c074:	e1a05000 	mov	r5, r0
    c078:	e1a01008 	mov	r1, r8
    c07c:	e1a00004 	mov	r0, r4
    c080:	ebffffe3 	bl	c014 <buf_put_le32>
    c084:	e1a01007 	mov	r1, r7
    c088:	e2840004 	add	r0, r4, #4
    c08c:	ebffffe0 	bl	c014 <buf_put_le32>
    c090:	e1a01006 	mov	r1, r6
    c094:	e2840008 	add	r0, r4, #8
    c098:	ebffffdd 	bl	c014 <buf_put_le32>
    c09c:	e1a01005 	mov	r1, r5
    c0a0:	e284000c 	add	r0, r4, #12
    c0a4:	e8bd41f0 	pop	{r4, r5, r6, r7, r8, lr}
    c0a8:	eaffffd9 	b	c014 <buf_put_le32>
    c0ac:	ebffffcd 	bl	bfe8 <buf_get_le32>
    c0b0:	e1a06000 	mov	r6, r0
    c0b4:	e2850004 	add	r0, r5, #4
    c0b8:	ebffffca 	bl	bfe8 <buf_get_le32>
    c0bc:	e1a05000 	mov	r5, r0
    c0c0:	e1a01006 	mov	r1, r6
    c0c4:	e1a00004 	mov	r0, r4
    c0c8:	ebffffd1 	bl	c014 <buf_put_le32>
    c0cc:	e1a01005 	mov	r1, r5
    c0d0:	e2840004 	add	r0, r4, #4
    c0d4:	e8bd41f0 	pop	{r4, r5, r6, r7, r8, lr}
    c0d8:	eaffffcd 	b	c014 <buf_put_le32>

0000c0dc <cipher_block_xor_n_copy_2>:
    c0dc:	e92d4ff8 	push	{r3, r4, r5, r6, r7, r8, r9, sl, fp, lr}
    c0e0:	e1a08000 	mov	r8, r0
    c0e4:	e59dc028 	ldr	ip, [sp, #40]	; 0x28
    c0e8:	e1a09001 	mov	r9, r1
    c0ec:	e1a07002 	mov	r7, r2
    c0f0:	e1a0a003 	mov	sl, r3
    c0f4:	e35c0008 	cmp	ip, #8
    c0f8:	13a04000 	movne	r4, #0
    c0fc:	0a000012 	beq	c14c <cipher_block_xor_n_copy_2+0x70>
    c100:	e08a0004 	add	r0, sl, r4
    c104:	e087b004 	add	fp, r7, r4
    c108:	ebffffb6 	bl	bfe8 <buf_get_le32>
    c10c:	e1a05000 	mov	r5, r0
    c110:	e1a0000b 	mov	r0, fp
    c114:	ebffffb3 	bl	bfe8 <buf_get_le32>
    c118:	e1a06000 	mov	r6, r0
    c11c:	e0890004 	add	r0, r9, r4
    c120:	ebffffb0 	bl	bfe8 <buf_get_le32>
    c124:	e0261000 	eor	r1, r6, r0
    c128:	e0880004 	add	r0, r8, r4
    c12c:	e2844004 	add	r4, r4, #4
    c130:	ebffffb7 	bl	c014 <buf_put_le32>
    c134:	e1a01005 	mov	r1, r5
    c138:	e1a0000b 	mov	r0, fp
    c13c:	ebffffb4 	bl	c014 <buf_put_le32>
    c140:	e3540010 	cmp	r4, #16
    c144:	1affffed 	bne	c100 <cipher_block_xor_n_copy_2+0x24>
    c148:	e8bd8ff8 	pop	{r3, r4, r5, r6, r7, r8, r9, sl, fp, pc}
    c14c:	e1a00003 	mov	r0, r3
    c150:	e287b004 	add	fp, r7, #4
    c154:	ebffffa3 	bl	bfe8 <buf_get_le32>
    c158:	e1a03000 	mov	r3, r0
    c15c:	e28a0004 	add	r0, sl, #4
    c160:	e1a0a003 	mov	sl, r3
    c164:	ebffff9f 	bl	bfe8 <buf_get_le32>
    c168:	e1a06000 	mov	r6, r0
    c16c:	e1a00007 	mov	r0, r7
    c170:	ebffff9c 	bl	bfe8 <buf_get_le32>
    c174:	e1a05000 	mov	r5, r0
    c178:	e1a0000b 	mov	r0, fp
    c17c:	ebffff99 	bl	bfe8 <buf_get_le32>
    c180:	e1a04000 	mov	r4, r0
    c184:	e1a00009 	mov	r0, r9
    c188:	ebffff96 	bl	bfe8 <buf_get_le32>
    c18c:	e0255000 	eor	r5, r5, r0
    c190:	e2890004 	add	r0, r9, #4
    c194:	ebffff93 	bl	bfe8 <buf_get_le32>
    c198:	e0244000 	eor	r4, r4, r0
    c19c:	e1a01005 	mov	r1, r5
    c1a0:	e1a00008 	mov	r0, r8
    c1a4:	ebffff9a 	bl	c014 <buf_put_le32>
    c1a8:	e1a01004 	mov	r1, r4
    c1ac:	e2880004 	add	r0, r8, #4
    c1b0:	ebffff97 	bl	c014 <buf_put_le32>
    c1b4:	e1a0100a 	mov	r1, sl
    c1b8:	e1a00007 	mov	r0, r7
    c1bc:	ebffff94 	bl	c014 <buf_put_le32>
    c1c0:	e1a01006 	mov	r1, r6
    c1c4:	e1a0000b 	mov	r0, fp
    c1c8:	e8bd4ff8 	pop	{r3, r4, r5, r6, r7, r8, r9, sl, fp, lr}
    c1cc:	eaffff90 	b	c014 <buf_put_le32>

0000c1d0 <buf_xor_n_copy_2>:
    c1d0:	e92d4ff0 	push	{r4, r5, r6, r7, r8, r9, sl, fp, lr}
    c1d4:	e24dd014 	sub	sp, sp, #20
    c1d8:	e1a05000 	mov	r5, r0
    c1dc:	e1a06001 	mov	r6, r1
    c1e0:	e59dc038 	ldr	ip, [sp, #56]	; 0x38
    c1e4:	e1a07003 	mov	r7, r3
    c1e8:	e58d2000 	str	r2, [sp]
    c1ec:	e35c0003 	cmp	ip, #3
    c1f0:	9a000032 	bls	c2c0 <buf_xor_n_copy_2+0xf0>
    c1f4:	e082b00c 	add	fp, r2, ip
    c1f8:	e1a0400c 	mov	r4, ip
    c1fc:	e087a00c 	add	sl, r7, ip
    c200:	e081900c 	add	r9, r1, ip
    c204:	e080800c 	add	r8, r0, ip
    c208:	e98d00e0 	stmib	sp, {r5, r6, r7}
    c20c:	e04a0004 	sub	r0, sl, r4
    c210:	e04b5004 	sub	r5, fp, r4
    c214:	ebffff73 	bl	bfe8 <buf_get_le32>
    c218:	e1a06000 	mov	r6, r0
    c21c:	e1a00005 	mov	r0, r5
    c220:	ebffff70 	bl	bfe8 <buf_get_le32>
    c224:	e1a07000 	mov	r7, r0
    c228:	e0490004 	sub	r0, r9, r4
    c22c:	ebffff6d 	bl	bfe8 <buf_get_le32>
    c230:	e0271000 	eor	r1, r7, r0
    c234:	e0480004 	sub	r0, r8, r4
    c238:	e2444004 	sub	r4, r4, #4
    c23c:	ebffff74 	bl	c014 <buf_put_le32>
    c240:	e1a01006 	mov	r1, r6
    c244:	e1a00005 	mov	r0, r5
    c248:	ebffff71 	bl	c014 <buf_put_le32>
    c24c:	e3540003 	cmp	r4, #3
    c250:	8affffed 	bhi	c20c <buf_xor_n_copy_2+0x3c>
    c254:	e59d3038 	ldr	r3, [sp, #56]	; 0x38
    c258:	e99d00e0 	ldmib	sp, {r5, r6, r7}
    c25c:	e2432004 	sub	r2, r3, #4
    c260:	e3c22003 	bic	r2, r2, #3
    c264:	e2033003 	and	r3, r3, #3
    c268:	e59d1000 	ldr	r1, [sp]
    c26c:	e2822004 	add	r2, r2, #4
    c270:	e0855002 	add	r5, r5, r2
    c274:	e0866002 	add	r6, r6, r2
    c278:	e0877002 	add	r7, r7, r2
    c27c:	e0811002 	add	r1, r1, r2
    c280:	e58d1000 	str	r1, [sp]
    c284:	e3530000 	cmp	r3, #0
    c288:	0a00000a 	beq	c2b8 <buf_xor_n_copy_2+0xe8>
    c28c:	e59d2000 	ldr	r2, [sp]
    c290:	e0853003 	add	r3, r5, r3
    c294:	e2422001 	sub	r2, r2, #1
    c298:	e5f21001 	ldrb	r1, [r2, #1]!
    c29c:	e4d6c001 	ldrb	ip, [r6], #1
    c2a0:	e4d70001 	ldrb	r0, [r7], #1
    c2a4:	e021100c 	eor	r1, r1, ip
    c2a8:	e4c51001 	strb	r1, [r5], #1
    c2ac:	e1550003 	cmp	r5, r3
    c2b0:	e5c20000 	strb	r0, [r2]
    c2b4:	1afffff7 	bne	c298 <buf_xor_n_copy_2+0xc8>
    c2b8:	e28dd014 	add	sp, sp, #20
    c2bc:	e8bd8ff0 	pop	{r4, r5, r6, r7, r8, r9, sl, fp, pc}
    c2c0:	e59d3038 	ldr	r3, [sp, #56]	; 0x38
    c2c4:	eaffffee 	b	c284 <buf_xor_n_copy_2+0xb4>

0000c2c8 <buf_xor_n_copy>:
    c2c8:	e52de004 	push	{lr}		; (str lr, [sp, #-4]!)
    c2cc:	e24dd00c 	sub	sp, sp, #12
    c2d0:	e58d3000 	str	r3, [sp]
    c2d4:	e1a03002 	mov	r3, r2
    c2d8:	e1a02001 	mov	r2, r1
    c2dc:	e1a01003 	mov	r1, r3
    c2e0:	ebffffba 	bl	c1d0 <buf_xor_n_copy_2>
    c2e4:	e28dd00c 	add	sp, sp, #12
    c2e8:	e49df004 	pop	{pc}		; (ldr pc, [sp], #4)

0000c2ec <cipher_block_xor_n_copy>:
    c2ec:	e52de004 	push	{lr}		; (str lr, [sp, #-4]!)
    c2f0:	e24dd00c 	sub	sp, sp, #12
    c2f4:	e58d3000 	str	r3, [sp]
    c2f8:	e1a03002 	mov	r3, r2
    c2fc:	e1a02001 	mov	r2, r1
    c300:	e1a01003 	mov	r1, r3
    c304:	ebffff74 	bl	c0dc <cipher_block_xor_n_copy_2>
    c308:	e28dd00c 	add	sp, sp, #12
    c30c:	e49df004 	pop	{pc}		; (ldr pc, [sp], #4)

0000c310 <buf_xor>:
    c310:	e92d4ff0 	push	{r4, r5, r6, r7, r8, r9, sl, fp, lr}
    c314:	e3530003 	cmp	r3, #3
    c318:	e24dd014 	sub	sp, sp, #20
    c31c:	e1a04000 	mov	r4, r0
    c320:	e1a08001 	mov	r8, r1
    c324:	e1a09002 	mov	r9, r2
    c328:	e59db038 	ldr	fp, [sp, #56]	; 0x38
    c32c:	e58d3000 	str	r3, [sp]
    c330:	9a000047 	bls	c454 <buf_xor+0x144>
    c334:	e59fa120 	ldr	sl, [pc, #288]	; c45c <buf_xor+0x14c>
    c338:	e2433004 	sub	r3, r3, #4
    c33c:	e3c33003 	bic	r3, r3, #3
    c340:	e1a06002 	mov	r6, r2
    c344:	e08fa00a 	add	sl, pc, sl
    c348:	e2833004 	add	r3, r3, #4
    c34c:	e0807003 	add	r7, r0, r3
    c350:	e1a05001 	mov	r5, r1
    c354:	e58d3004 	str	r3, [sp, #4]
    c358:	e1cd80f8 	strd	r8, [sp, #8]
    c35c:	ea00000c 	b	c394 <buf_xor+0x84>
    c360:	e1a00005 	mov	r0, r5
    c364:	e2855004 	add	r5, r5, #4
    c368:	ebffff1e 	bl	bfe8 <buf_get_le32>
    c36c:	e1a08000 	mov	r8, r0
    c370:	e1a00006 	mov	r0, r6
    c374:	e2866004 	add	r6, r6, #4
    c378:	ebffff1a 	bl	bfe8 <buf_get_le32>
    c37c:	e0281000 	eor	r1, r8, r0
    c380:	e1a00004 	mov	r0, r4
    c384:	e2844004 	add	r4, r4, #4
    c388:	ebffff21 	bl	c014 <buf_put_le32>
    c38c:	e1540007 	cmp	r4, r7
    c390:	0a000012 	beq	c3e0 <buf_xor+0xd0>
    c394:	e35b0000 	cmp	fp, #0
    c398:	0afffff0 	beq	c360 <buf_xor+0x50>
    c39c:	e1a00005 	mov	r0, r5
    c3a0:	ebffff10 	bl	bfe8 <buf_get_le32>
    c3a4:	e1a08000 	mov	r8, r0
    c3a8:	e1a00006 	mov	r0, r6
    c3ac:	ebffff0d 	bl	bfe8 <buf_get_le32>
    c3b0:	e0288000 	eor	r8, r8, r0
    c3b4:	e1a00005 	mov	r0, r5
    c3b8:	ebffff0a 	bl	bfe8 <buf_get_le32>
    c3bc:	e1a09000 	mov	r9, r0
    c3c0:	e1a00006 	mov	r0, r6
    c3c4:	ebffff07 	bl	bfe8 <buf_get_le32>
    c3c8:	e1a03000 	mov	r3, r0
    c3cc:	e1a02009 	mov	r2, r9
    c3d0:	e1a01008 	mov	r1, r8
    c3d4:	e1a0000a 	mov	r0, sl
    c3d8:	eb000b16 	bl	f038 <tfp_printf>
    c3dc:	eaffffdf 	b	c360 <buf_xor+0x50>
    c3e0:	e59d3004 	ldr	r3, [sp, #4]
    c3e4:	e1cd80d8 	ldrd	r8, [sp, #8]
    c3e8:	e0888003 	add	r8, r8, r3
    c3ec:	e0899003 	add	r9, r9, r3
    c3f0:	e59d3000 	ldr	r3, [sp]
    c3f4:	e2033003 	and	r3, r3, #3
    c3f8:	e58d3000 	str	r3, [sp]
    c3fc:	e59d3000 	ldr	r3, [sp]
    c400:	e3530000 	cmp	r3, #0
    c404:	0a00000a 	beq	c434 <buf_xor+0x124>
    c408:	e59f4050 	ldr	r4, [pc, #80]	; c460 <buf_xor+0x150>
    c40c:	e087a003 	add	sl, r7, r3
    c410:	e08f4004 	add	r4, pc, r4
    c414:	e35b0000 	cmp	fp, #0
    c418:	1a000007 	bne	c43c <buf_xor+0x12c>
    c41c:	e4d83001 	ldrb	r3, [r8], #1
    c420:	e4d92001 	ldrb	r2, [r9], #1
    c424:	e0233002 	eor	r3, r3, r2
    c428:	e4c73001 	strb	r3, [r7], #1
    c42c:	e157000a 	cmp	r7, sl
    c430:	1afffff7 	bne	c414 <buf_xor+0x104>
    c434:	e28dd014 	add	sp, sp, #20
    c438:	e8bd8ff0 	pop	{r4, r5, r6, r7, r8, r9, sl, fp, pc}
    c43c:	e5d82000 	ldrb	r2, [r8]
    c440:	e1a00004 	mov	r0, r4
    c444:	e5d93000 	ldrb	r3, [r9]
    c448:	e0221003 	eor	r1, r2, r3
    c44c:	eb000af9 	bl	f038 <tfp_printf>
    c450:	eafffff1 	b	c41c <buf_xor+0x10c>
    c454:	e1a07000 	mov	r7, r0
    c458:	eaffffe7 	b	c3fc <buf_xor+0xec>
    c45c:	00005e38 	andeq	r5, r0, r8, lsr lr
    c460:	00005d84 	andeq	r5, r0, r4, lsl #27

0000c464 <_gcry_cipher_setkey>:
    c464:	e2802030 	add	r2, r0, #48	; 0x30
    c468:	e2800040 	add	r0, r0, #64	; 0x40
    c46c:	e92d4010 	push	{r4, lr}
    c470:	e2811004 	add	r1, r1, #4
    c474:	e5513003 	ldrb	r3, [r1, #-3]
    c478:	e5514004 	ldrb	r4, [r1, #-4]
    c47c:	e551e002 	ldrb	lr, [r1, #-2]
    c480:	e1a03803 	lsl	r3, r3, #16
    c484:	e551c001 	ldrb	ip, [r1, #-1]
    c488:	e0833c04 	add	r3, r3, r4, lsl #24
    c48c:	e083340e 	add	r3, r3, lr, lsl #8
    c490:	e083300c 	add	r3, r3, ip
    c494:	e4823004 	str	r3, [r2], #4
    c498:	e1500002 	cmp	r0, r2
    c49c:	1afffff3 	bne	c470 <_gcry_cipher_setkey+0xc>
    c4a0:	e3a00000 	mov	r0, #0
    c4a4:	e8bd8010 	pop	{r4, pc}

0000c4a8 <_gcry_cipher_setiv>:
    c4a8:	e3510000 	cmp	r1, #0
    c4ac:	e3a0c000 	mov	ip, #0
    c4b0:	e92d4010 	push	{r4, lr}
    c4b4:	e580c020 	str	ip, [r0, #32]
    c4b8:	0a000002 	beq	c4c8 <_gcry_cipher_setiv+0x20>
    c4bc:	eb0002f4 	bl	d094 <memcpy>
    c4c0:	e3a00000 	mov	r0, #0
    c4c4:	e8bd8010 	pop	{r4, pc}
    c4c8:	eb0002af 	bl	cf8c <memset>
    c4cc:	e3a00000 	mov	r0, #0
    c4d0:	e8bd8010 	pop	{r4, pc}

0000c4d4 <cipher_sync>:
    c4d4:	e5902020 	ldr	r2, [r0, #32]
    c4d8:	e3520000 	cmp	r2, #0
    c4dc:	012fff1e 	bxeq	lr
    c4e0:	e92d4010 	push	{r4, lr}
    c4e4:	e1a04000 	mov	r4, r0
    c4e8:	e0800002 	add	r0, r0, r2
    c4ec:	e1a01004 	mov	r1, r4
    c4f0:	e2622008 	rsb	r2, r2, #8
    c4f4:	eb00030c 	bl	d12c <memmove>
    c4f8:	e5942020 	ldr	r2, [r4, #32]
    c4fc:	e1a00004 	mov	r0, r4
    c500:	e0441002 	sub	r1, r4, r2
    c504:	e2811018 	add	r1, r1, #24
    c508:	eb0002e1 	bl	d094 <memcpy>
    c50c:	e3a03000 	mov	r3, #0
    c510:	e5843020 	str	r3, [r4, #32]
    c514:	e8bd8010 	pop	{r4, pc}

0000c518 <bytesFromBlock>:
    c518:	e5c21007 	strb	r1, [r2, #7]
    c51c:	e24dd008 	sub	sp, sp, #8
    c520:	e1a0c421 	lsr	ip, r1, #8
    c524:	e28d3008 	add	r3, sp, #8
    c528:	e5c2c006 	strb	ip, [r2, #6]
    c52c:	e9030003 	stmdb	r3, {r0, r1}
    c530:	e1a03000 	mov	r3, r0
    c534:	e1a00821 	lsr	r0, r1, #16
    c538:	e1a0c423 	lsr	ip, r3, #8
    c53c:	e1a01c21 	lsr	r1, r1, #24
    c540:	e5c20005 	strb	r0, [r2, #5]
    c544:	e5c23003 	strb	r3, [r2, #3]
    c548:	e1a00823 	lsr	r0, r3, #16
    c54c:	e1a03c23 	lsr	r3, r3, #24
    c550:	e5c21004 	strb	r1, [r2, #4]
    c554:	e5c2c002 	strb	ip, [r2, #2]
    c558:	e5c20001 	strb	r0, [r2, #1]
    c55c:	e5c23000 	strb	r3, [r2]
    c560:	e28dd008 	add	sp, sp, #8
    c564:	e12fff1e 	bx	lr

0000c568 <encrypt>:
    c568:	e92d4010 	push	{r4, lr}
    c56c:	e24dd010 	sub	sp, sp, #16
    c570:	e1a04000 	mov	r4, r0
    c574:	e59dc018 	ldr	ip, [sp, #24]
    c578:	e58dc004 	str	ip, [sp, #4]
    c57c:	e28dc008 	add	ip, sp, #8
    c580:	e88c000c 	stm	ip, {r2, r3}
    c584:	e3a03000 	mov	r3, #0
    c588:	e58d3000 	str	r3, [sp]
    c58c:	e89c000c 	ldm	ip, {r2, r3}
    c590:	ebfff935 	bl	aa6c <run>
    c594:	e1a00004 	mov	r0, r4
    c598:	e28dd010 	add	sp, sp, #16
    c59c:	e8bd8010 	pop	{r4, pc}

0000c5a0 <blockFromBytes>:
    c5a0:	e3a0c000 	mov	ip, #0
    c5a4:	e3a03001 	mov	r3, #1
    c5a8:	e52de004 	push	{lr}		; (str lr, [sp, #-4]!)
    c5ac:	e1a0e00c 	mov	lr, ip
    c5b0:	ea000001 	b	c5bc <blockFromBytes+0x1c>
    c5b4:	e2833001 	add	r3, r3, #1
    c5b8:	e2811001 	add	r1, r1, #1
    c5bc:	e2432001 	sub	r2, r3, #1
    c5c0:	e3520003 	cmp	r2, #3
    c5c4:	e5d12000 	ldrb	r2, [r1]
    c5c8:	9182e40e 	orrls	lr, r2, lr, lsl #8
    c5cc:	9afffff8 	bls	c5b4 <blockFromBytes+0x14>
    c5d0:	e182c40c 	orr	ip, r2, ip, lsl #8
    c5d4:	e3530008 	cmp	r3, #8
    c5d8:	1afffff5 	bne	c5b4 <blockFromBytes+0x14>
    c5dc:	e580e000 	str	lr, [r0]
    c5e0:	e580c004 	str	ip, [r0, #4]
    c5e4:	e49df004 	pop	{pc}		; (ldr pc, [sp], #4)

0000c5e8 <_gcry_cipher_cfb_decrypt>:
    c5e8:	e92d4ff0 	push	{r4, r5, r6, r7, r8, r9, sl, fp, lr}
    c5ec:	e1a08000 	mov	r8, r0
    c5f0:	e59f05f8 	ldr	r0, [pc, #1528]	; cbf0 <_gcry_cipher_cfb_decrypt+0x608>
    c5f4:	e24dd05c 	sub	sp, sp, #92	; 0x5c
    c5f8:	e59f65f4 	ldr	r6, [pc, #1524]	; cbf4 <_gcry_cipher_cfb_decrypt+0x60c>
    c5fc:	e2485001 	sub	r5, r8, #1
    c600:	e08f0000 	add	r0, pc, r0
    c604:	e2884007 	add	r4, r8, #7
    c608:	e58d1024 	str	r1, [sp, #36]	; 0x24
    c60c:	e1a07005 	mov	r7, r5
    c610:	e59d1080 	ldr	r1, [sp, #128]	; 0x80
    c614:	e58d3028 	str	r3, [sp, #40]	; 0x28
    c618:	e3a03001 	mov	r3, #1
    c61c:	e58d201c 	str	r2, [sp, #28]
    c620:	eb000a84 	bl	f038 <tfp_printf>
    c624:	e59f05cc 	ldr	r0, [pc, #1484]	; cbf8 <_gcry_cipher_cfb_decrypt+0x610>
    c628:	e08f6006 	add	r6, pc, r6
    c62c:	e08f0000 	add	r0, pc, r0
    c630:	eb000a80 	bl	f038 <tfp_printf>
    c634:	e5f71001 	ldrb	r1, [r7, #1]!
    c638:	e1a00006 	mov	r0, r6
    c63c:	eb000a7d 	bl	f038 <tfp_printf>
    c640:	e1570004 	cmp	r7, r4
    c644:	1afffffa 	bne	c634 <_gcry_cipher_cfb_decrypt+0x4c>
    c648:	e59f05ac 	ldr	r0, [pc, #1452]	; cbfc <_gcry_cipher_cfb_decrypt+0x614>
    c64c:	e08f0000 	add	r0, pc, r0
    c650:	eb000a78 	bl	f038 <tfp_printf>
    c654:	e59d3080 	ldr	r3, [sp, #128]	; 0x80
    c658:	e59d201c 	ldr	r2, [sp, #28]
    c65c:	e1530002 	cmp	r3, r2
    c660:	83e04000 	mvnhi	r4, #0
    c664:	8a00007a 	bhi	c854 <_gcry_cipher_cfb_decrypt+0x26c>
    c668:	e5983020 	ldr	r3, [r8, #32]
    c66c:	e59d2080 	ldr	r2, [sp, #128]	; 0x80
    c670:	e1530002 	cmp	r3, r2
    c674:	2a00013d 	bcs	cb70 <_gcry_cipher_cfb_decrypt+0x588>
    c678:	e3530000 	cmp	r3, #0
    c67c:	1a00010f 	bne	cac0 <_gcry_cipher_cfb_decrypt+0x4d8>
    c680:	e59d3080 	ldr	r3, [sp, #128]	; 0x80
    c684:	e353000f 	cmp	r3, #15
    c688:	8a000074 	bhi	c860 <_gcry_cipher_cfb_decrypt+0x278>
    c68c:	e59d401c 	ldr	r4, [sp, #28]
    c690:	e3a03000 	mov	r3, #0
    c694:	e59f0564 	ldr	r0, [pc, #1380]	; cc00 <_gcry_cipher_cfb_decrypt+0x618>
    c698:	e59d1080 	ldr	r1, [sp, #128]	; 0x80
    c69c:	e1a02004 	mov	r2, r4
    c6a0:	e08f0000 	add	r0, pc, r0
    c6a4:	eb000a63 	bl	f038 <tfp_printf>
    c6a8:	e59d3080 	ldr	r3, [sp, #128]	; 0x80
    c6ac:	e3530007 	cmp	r3, #7
    c6b0:	9a000142 	bls	cbc0 <_gcry_cipher_cfb_decrypt+0x5d8>
    c6b4:	e59f0548 	ldr	r0, [pc, #1352]	; cc04 <_gcry_cipher_cfb_decrypt+0x61c>
    c6b8:	e1a02004 	mov	r2, r4
    c6bc:	e5983020 	ldr	r3, [r8, #32]
    c6c0:	e28d5038 	add	r5, sp, #56	; 0x38
    c6c4:	e08f0000 	add	r0, pc, r0
    c6c8:	e28d6030 	add	r6, sp, #48	; 0x30
    c6cc:	e59d1080 	ldr	r1, [sp, #128]	; 0x80
    c6d0:	e59f7530 	ldr	r7, [pc, #1328]	; cc08 <_gcry_cipher_cfb_decrypt+0x620>
    c6d4:	eb000a57 	bl	f038 <tfp_printf>
    c6d8:	e59d3080 	ldr	r3, [sp, #128]	; 0x80
    c6dc:	e3a02008 	mov	r2, #8
    c6e0:	e08f7007 	add	r7, pc, r7
    c6e4:	e1a01008 	mov	r1, r8
    c6e8:	e2880010 	add	r0, r8, #16
    c6ec:	e2434008 	sub	r4, r3, #8
    c6f0:	ebfffe4f 	bl	c034 <cipher_block_cpy>
    c6f4:	e1a01008 	mov	r1, r8
    c6f8:	e1a00005 	mov	r0, r5
    c6fc:	ebffffa7 	bl	c5a0 <blockFromBytes>
    c700:	e59d203c 	ldr	r2, [sp, #60]	; 0x3c
    c704:	e1a00007 	mov	r0, r7
    c708:	e59d1038 	ldr	r1, [sp, #56]	; 0x38
    c70c:	eb000a49 	bl	f038 <tfp_printf>
    c710:	e3a03000 	mov	r3, #0
    c714:	e1a00006 	mov	r0, r6
    c718:	e58d3000 	str	r3, [sp]
    c71c:	e2881030 	add	r1, r8, #48	; 0x30
    c720:	e895000c 	ldm	r5, {r2, r3}
    c724:	ebffff8f 	bl	c568 <encrypt>
    c728:	e8960003 	ldm	r6, {r0, r1}
    c72c:	e1a02008 	mov	r2, r8
    c730:	e1a06000 	mov	r6, r0
    c734:	e1a09001 	mov	r9, r1
    c738:	e8850003 	stm	r5, {r0, r1}
    c73c:	ebffff75 	bl	c518 <bytesFromBlock>
    c740:	e1a02009 	mov	r2, r9
    c744:	e1a01006 	mov	r1, r6
    c748:	e1a00007 	mov	r0, r7
    c74c:	eb000a39 	bl	f038 <tfp_printf>
    c750:	e59d3028 	ldr	r3, [sp, #40]	; 0x28
    c754:	e1a01008 	mov	r1, r8
    c758:	e1a02003 	mov	r2, r3
    c75c:	e2833008 	add	r3, r3, #8
    c760:	e58d3028 	str	r3, [sp, #40]	; 0x28
    c764:	e59d3024 	ldr	r3, [sp, #36]	; 0x24
    c768:	e1a00003 	mov	r0, r3
    c76c:	e2833008 	add	r3, r3, #8
    c770:	e58d3024 	str	r3, [sp, #36]	; 0x24
    c774:	e3a03008 	mov	r3, #8
    c778:	ebfffedb 	bl	c2ec <cipher_block_xor_n_copy>
    c77c:	e3540000 	cmp	r4, #0
    c780:	0a000033 	beq	c854 <_gcry_cipher_cfb_decrypt+0x26c>
    c784:	e59f0480 	ldr	r0, [pc, #1152]	; cc0c <_gcry_cipher_cfb_decrypt+0x624>
    c788:	e1a01004 	mov	r1, r4
    c78c:	e5983020 	ldr	r3, [r8, #32]
    c790:	e28d5040 	add	r5, sp, #64	; 0x40
    c794:	e59d201c 	ldr	r2, [sp, #28]
    c798:	e28d7030 	add	r7, sp, #48	; 0x30
    c79c:	e08f0000 	add	r0, pc, r0
    c7a0:	e3a09000 	mov	r9, #0
    c7a4:	e59f6464 	ldr	r6, [pc, #1124]	; cc10 <_gcry_cipher_cfb_decrypt+0x628>
    c7a8:	eb000a22 	bl	f038 <tfp_printf>
    c7ac:	e3a02008 	mov	r2, #8
    c7b0:	e1a01008 	mov	r1, r8
    c7b4:	e08f6006 	add	r6, pc, r6
    c7b8:	e2880010 	add	r0, r8, #16
    c7bc:	ebfffe1c 	bl	c034 <cipher_block_cpy>
    c7c0:	e1a01008 	mov	r1, r8
    c7c4:	e1a00005 	mov	r0, r5
    c7c8:	ebffff74 	bl	c5a0 <blockFromBytes>
    c7cc:	e59d2044 	ldr	r2, [sp, #68]	; 0x44
    c7d0:	e1a00006 	mov	r0, r6
    c7d4:	e59d1040 	ldr	r1, [sp, #64]	; 0x40
    c7d8:	eb000a16 	bl	f038 <tfp_printf>
    c7dc:	e58d9000 	str	r9, [sp]
    c7e0:	e1a00007 	mov	r0, r7
    c7e4:	e895000c 	ldm	r5, {r2, r3}
    c7e8:	e2881030 	add	r1, r8, #48	; 0x30
    c7ec:	ebffff5d 	bl	c568 <encrypt>
    c7f0:	e8970003 	ldm	r7, {r0, r1}
    c7f4:	e1a02008 	mov	r2, r8
    c7f8:	e1a07000 	mov	r7, r0
    c7fc:	e1a0a001 	mov	sl, r1
    c800:	e8850003 	stm	r5, {r0, r1}
    c804:	ebffff43 	bl	c518 <bytesFromBlock>
    c808:	e1a0200a 	mov	r2, sl
    c80c:	e1a01007 	mov	r1, r7
    c810:	e1a00006 	mov	r0, r6
    c814:	eb000a07 	bl	f038 <tfp_printf>
    c818:	e59d2028 	ldr	r2, [sp, #40]	; 0x28
    c81c:	e2643008 	rsb	r3, r4, #8
    c820:	e59d0024 	ldr	r0, [sp, #36]	; 0x24
    c824:	e1a01008 	mov	r1, r8
    c828:	e5883020 	str	r3, [r8, #32]
    c82c:	e1a03004 	mov	r3, r4
    c830:	e1a04009 	mov	r4, r9
    c834:	ebfffea3 	bl	c2c8 <buf_xor_n_copy>
    c838:	e1a01008 	mov	r1, r8
    c83c:	e1a00005 	mov	r0, r5
    c840:	ebffff56 	bl	c5a0 <blockFromBytes>
    c844:	e59d2044 	ldr	r2, [sp, #68]	; 0x44
    c848:	e1a00006 	mov	r0, r6
    c84c:	e59d1040 	ldr	r1, [sp, #64]	; 0x40
    c850:	eb0009f8 	bl	f038 <tfp_printf>
    c854:	e1a00004 	mov	r0, r4
    c858:	e28dd05c 	add	sp, sp, #92	; 0x5c
    c85c:	e8bd8ff0 	pop	{r4, r5, r6, r7, r8, r9, sl, fp, pc}
    c860:	e59f03ac 	ldr	r0, [pc, #940]	; cc14 <_gcry_cipher_cfb_decrypt+0x62c>
    c864:	e3a03000 	mov	r3, #0
    c868:	e59d201c 	ldr	r2, [sp, #28]
    c86c:	e59d1080 	ldr	r1, [sp, #128]	; 0x80
    c870:	e08f0000 	add	r0, pc, r0
    c874:	e59f639c 	ldr	r6, [pc, #924]	; cc18 <_gcry_cipher_cfb_decrypt+0x630>
    c878:	eb0009ee 	bl	f038 <tfp_printf>
    c87c:	e59d3080 	ldr	r3, [sp, #128]	; 0x80
    c880:	e59f0394 	ldr	r0, [pc, #916]	; cc1c <_gcry_cipher_cfb_decrypt+0x634>
    c884:	e1a031a3 	lsr	r3, r3, #3
    c888:	e08f0000 	add	r0, pc, r0
    c88c:	e1a07003 	mov	r7, r3
    c890:	e58d300c 	str	r3, [sp, #12]
    c894:	eb0009e7 	bl	f038 <tfp_printf>
    c898:	e59f0380 	ldr	r0, [pc, #896]	; cc20 <_gcry_cipher_cfb_decrypt+0x638>
    c89c:	e1a01007 	mov	r1, r7
    c8a0:	e08f6006 	add	r6, pc, r6
    c8a4:	e08f0000 	add	r0, pc, r0
    c8a8:	eb0009e2 	bl	f038 <tfp_printf>
    c8ac:	e59f1370 	ldr	r1, [pc, #880]	; cc24 <_gcry_cipher_cfb_decrypt+0x63c>
    c8b0:	e59f0370 	ldr	r0, [pc, #880]	; cc28 <_gcry_cipher_cfb_decrypt+0x640>
    c8b4:	e08f1001 	add	r1, pc, r1
    c8b8:	e08f0000 	add	r0, pc, r0
    c8bc:	eb0009dd 	bl	f038 <tfp_printf>
    c8c0:	e5f51001 	ldrb	r1, [r5, #1]!
    c8c4:	e1a00006 	mov	r0, r6
    c8c8:	eb0009da 	bl	f038 <tfp_printf>
    c8cc:	e1550004 	cmp	r5, r4
    c8d0:	1afffffa 	bne	c8c0 <_gcry_cipher_cfb_decrypt+0x2d8>
    c8d4:	e59f0350 	ldr	r0, [pc, #848]	; cc2c <_gcry_cipher_cfb_decrypt+0x644>
    c8d8:	e08f0000 	add	r0, pc, r0
    c8dc:	eb0009d5 	bl	f038 <tfp_printf>
    c8e0:	e59d300c 	ldr	r3, [sp, #12]
    c8e4:	e3530002 	cmp	r3, #2
    c8e8:	0a0000b6 	beq	cbc8 <_gcry_cipher_cfb_decrypt+0x5e0>
    c8ec:	e59d3024 	ldr	r3, [sp, #36]	; 0x24
    c8f0:	e288b030 	add	fp, r8, #48	; 0x30
    c8f4:	e59f7334 	ldr	r7, [pc, #820]	; cc30 <_gcry_cipher_cfb_decrypt+0x648>
    c8f8:	e28d4038 	add	r4, sp, #56	; 0x38
    c8fc:	e59da028 	ldr	sl, [sp, #40]	; 0x28
    c900:	e2836017 	add	r6, r3, #23
    c904:	e08f7007 	add	r7, pc, r7
    c908:	e3a03001 	mov	r3, #1
    c90c:	e58d3014 	str	r3, [sp, #20]
    c910:	e28d9030 	add	r9, sp, #48	; 0x30
    c914:	e58d8020 	str	r8, [sp, #32]
    c918:	e28d3040 	add	r3, sp, #64	; 0x40
    c91c:	e58d3010 	str	r3, [sp, #16]
    c920:	e28d3048 	add	r3, sp, #72	; 0x48
    c924:	e58d302c 	str	r3, [sp, #44]	; 0x2c
    c928:	e59d8020 	ldr	r8, [sp, #32]
    c92c:	e3a02008 	mov	r2, #8
    c930:	e59d5010 	ldr	r5, [sp, #16]
    c934:	e1a01008 	mov	r1, r8
    c938:	e1a00005 	mov	r0, r5
    c93c:	ebfffdbc 	bl	c034 <cipher_block_cpy>
    c940:	e59d002c 	ldr	r0, [sp, #44]	; 0x2c
    c944:	e3a02010 	mov	r2, #16
    c948:	e1a0100a 	mov	r1, sl
    c94c:	ebfffdb8 	bl	c034 <cipher_block_cpy>
    c950:	e2463017 	sub	r3, r6, #23
    c954:	e1a00008 	mov	r0, r8
    c958:	e58d3018 	str	r3, [sp, #24]
    c95c:	e3a02008 	mov	r2, #8
    c960:	e28a1010 	add	r1, sl, #16
    c964:	e3a08000 	mov	r8, #0
    c968:	ebfffdb1 	bl	c034 <cipher_block_cpy>
    c96c:	e28d3058 	add	r3, sp, #88	; 0x58
    c970:	e58d3008 	str	r3, [sp, #8]
    c974:	e1a01005 	mov	r1, r5
    c978:	e1a00004 	mov	r0, r4
    c97c:	ebffff07 	bl	c5a0 <blockFromBytes>
    c980:	e58d8000 	str	r8, [sp]
    c984:	e1a0100b 	mov	r1, fp
    c988:	e894000c 	ldm	r4, {r2, r3}
    c98c:	e1a00009 	mov	r0, r9
    c990:	ebfffef4 	bl	c568 <encrypt>
    c994:	e8990003 	ldm	r9, {r0, r1}
    c998:	e1a02005 	mov	r2, r5
    c99c:	e2855008 	add	r5, r5, #8
    c9a0:	e8840003 	stm	r4, {r0, r1}
    c9a4:	ebfffedb 	bl	c518 <bytesFromBlock>
    c9a8:	e59d3008 	ldr	r3, [sp, #8]
    c9ac:	e1530005 	cmp	r3, r5
    c9b0:	1affffef 	bne	c974 <_gcry_cipher_cfb_decrypt+0x38c>
    c9b4:	e59d0018 	ldr	r0, [sp, #24]
    c9b8:	e3a03018 	mov	r3, #24
    c9bc:	e59d2010 	ldr	r2, [sp, #16]
    c9c0:	e1a0100a 	mov	r1, sl
    c9c4:	e58d8000 	str	r8, [sp]
    c9c8:	e2465018 	sub	r5, r6, #24
    c9cc:	ebfffe4f 	bl	c310 <buf_xor>
    c9d0:	e5f51001 	ldrb	r1, [r5, #1]!
    c9d4:	e1a00007 	mov	r0, r7
    c9d8:	eb000996 	bl	f038 <tfp_printf>
    c9dc:	e1560005 	cmp	r6, r5
    c9e0:	1afffffa 	bne	c9d0 <_gcry_cipher_cfb_decrypt+0x3e8>
    c9e4:	e59d300c 	ldr	r3, [sp, #12]
    c9e8:	e28aa018 	add	sl, sl, #24
    c9ec:	e2433003 	sub	r3, r3, #3
    c9f0:	e58d300c 	str	r3, [sp, #12]
    c9f4:	e3530002 	cmp	r3, #2
    c9f8:	e59d3014 	ldr	r3, [sp, #20]
    c9fc:	e2433001 	sub	r3, r3, #1
    ca00:	e58d3014 	str	r3, [sp, #20]
    ca04:	e2863001 	add	r3, r6, #1
    ca08:	e2866018 	add	r6, r6, #24
    ca0c:	8affffc5 	bhi	c928 <_gcry_cipher_cfb_decrypt+0x340>
    ca10:	e59d200c 	ldr	r2, [sp, #12]
    ca14:	e59d8020 	ldr	r8, [sp, #32]
    ca18:	e3520000 	cmp	r2, #0
    ca1c:	0a000042 	beq	cb2c <_gcry_cipher_cfb_decrypt+0x544>
    ca20:	e59f720c 	ldr	r7, [pc, #524]	; cc34 <_gcry_cipher_cfb_decrypt+0x64c>
    ca24:	e2836007 	add	r6, r3, #7
    ca28:	e58db008 	str	fp, [sp, #8]
    ca2c:	e08f7007 	add	r7, pc, r7
    ca30:	e59db014 	ldr	fp, [sp, #20]
    ca34:	e1a01008 	mov	r1, r8
    ca38:	e1a00004 	mov	r0, r4
    ca3c:	e2465008 	sub	r5, r6, #8
    ca40:	ebfffed6 	bl	c5a0 <blockFromBytes>
    ca44:	e59d1008 	ldr	r1, [sp, #8]
    ca48:	e35b0000 	cmp	fp, #0
    ca4c:	c3a03001 	movgt	r3, #1
    ca50:	d3a03000 	movle	r3, #0
    ca54:	e58d3000 	str	r3, [sp]
    ca58:	e1a00009 	mov	r0, r9
    ca5c:	e894000c 	ldm	r4, {r2, r3}
    ca60:	ebfffec0 	bl	c568 <encrypt>
    ca64:	e8990003 	ldm	r9, {r0, r1}
    ca68:	e1a02008 	mov	r2, r8
    ca6c:	e8840003 	stm	r4, {r0, r1}
    ca70:	ebfffea8 	bl	c518 <bytesFromBlock>
    ca74:	e3a03008 	mov	r3, #8
    ca78:	e1a0200a 	mov	r2, sl
    ca7c:	e1a01008 	mov	r1, r8
    ca80:	e2460007 	sub	r0, r6, #7
    ca84:	ebfffe18 	bl	c2ec <cipher_block_xor_n_copy>
    ca88:	e5f51001 	ldrb	r1, [r5, #1]!
    ca8c:	e1a00007 	mov	r0, r7
    ca90:	eb000968 	bl	f038 <tfp_printf>
    ca94:	e1550006 	cmp	r5, r6
    ca98:	1afffffa 	bne	ca88 <_gcry_cipher_cfb_decrypt+0x4a0>
    ca9c:	e59d300c 	ldr	r3, [sp, #12]
    caa0:	e28aa008 	add	sl, sl, #8
    caa4:	e24bb001 	sub	fp, fp, #1
    caa8:	e2866008 	add	r6, r6, #8
    caac:	e3530001 	cmp	r3, #1
    cab0:	0a00001d 	beq	cb2c <_gcry_cipher_cfb_decrypt+0x544>
    cab4:	e3a03001 	mov	r3, #1
    cab8:	e58d300c 	str	r3, [sp, #12]
    cabc:	eaffffdc 	b	ca34 <_gcry_cipher_cfb_decrypt+0x44c>
    cac0:	e59f0170 	ldr	r0, [pc, #368]	; cc38 <_gcry_cipher_cfb_decrypt+0x650>
    cac4:	e59d1080 	ldr	r1, [sp, #128]	; 0x80
    cac8:	e08f0000 	add	r0, pc, r0
    cacc:	e59d201c 	ldr	r2, [sp, #28]
    cad0:	eb000958 	bl	f038 <tfp_printf>
    cad4:	e5983020 	ldr	r3, [r8, #32]
    cad8:	e59d2080 	ldr	r2, [sp, #128]	; 0x80
    cadc:	e59d7028 	ldr	r7, [sp, #40]	; 0x28
    cae0:	e2631008 	rsb	r1, r3, #8
    cae4:	e59d6024 	ldr	r6, [sp, #36]	; 0x24
    cae8:	e0422003 	sub	r2, r2, r3
    caec:	e58d2080 	str	r2, [sp, #128]	; 0x80
    caf0:	e1a00006 	mov	r0, r6
    caf4:	e0881001 	add	r1, r8, r1
    caf8:	e1a02007 	mov	r2, r7
    cafc:	ebfffdf1 	bl	c2c8 <buf_xor_n_copy>
    cb00:	e5983020 	ldr	r3, [r8, #32]
    cb04:	e0862003 	add	r2, r6, r3
    cb08:	e0873003 	add	r3, r7, r3
    cb0c:	e58d3028 	str	r3, [sp, #40]	; 0x28
    cb10:	e3a03000 	mov	r3, #0
    cb14:	e5883020 	str	r3, [r8, #32]
    cb18:	e59d3080 	ldr	r3, [sp, #128]	; 0x80
    cb1c:	e58d2024 	str	r2, [sp, #36]	; 0x24
    cb20:	e353000f 	cmp	r3, #15
    cb24:	9afffed8 	bls	c68c <_gcry_cipher_cfb_decrypt+0xa4>
    cb28:	eaffff4c 	b	c860 <_gcry_cipher_cfb_decrypt+0x278>
    cb2c:	e59f0108 	ldr	r0, [pc, #264]	; cc3c <_gcry_cipher_cfb_decrypt+0x654>
    cb30:	e08f0000 	add	r0, pc, r0
    cb34:	eb00093f 	bl	f038 <tfp_printf>
    cb38:	e59d0010 	ldr	r0, [sp, #16]
    cb3c:	e3a01018 	mov	r1, #24
    cb40:	eb000190 	bl	d188 <wipememory>
    cb44:	e59d3080 	ldr	r3, [sp, #128]	; 0x80
    cb48:	e59d2024 	ldr	r2, [sp, #36]	; 0x24
    cb4c:	e3c33007 	bic	r3, r3, #7
    cb50:	e0822003 	add	r2, r2, r3
    cb54:	e58d2024 	str	r2, [sp, #36]	; 0x24
    cb58:	e59d2028 	ldr	r2, [sp, #40]	; 0x28
    cb5c:	e0823003 	add	r3, r2, r3
    cb60:	e58d3028 	str	r3, [sp, #40]	; 0x28
    cb64:	e59d3080 	ldr	r3, [sp, #128]	; 0x80
    cb68:	e2034007 	and	r4, r3, #7
    cb6c:	eaffff02 	b	c77c <_gcry_cipher_cfb_decrypt+0x194>
    cb70:	e59f00c8 	ldr	r0, [pc, #200]	; cc40 <_gcry_cipher_cfb_decrypt+0x658>
    cb74:	e3a04000 	mov	r4, #0
    cb78:	e59d201c 	ldr	r2, [sp, #28]
    cb7c:	e59d1080 	ldr	r1, [sp, #128]	; 0x80
    cb80:	e08f0000 	add	r0, pc, r0
    cb84:	eb00092b 	bl	f038 <tfp_printf>
    cb88:	e5981020 	ldr	r1, [r8, #32]
    cb8c:	e59d2028 	ldr	r2, [sp, #40]	; 0x28
    cb90:	e59d0024 	ldr	r0, [sp, #36]	; 0x24
    cb94:	e2611008 	rsb	r1, r1, #8
    cb98:	e59d3080 	ldr	r3, [sp, #128]	; 0x80
    cb9c:	e0881001 	add	r1, r8, r1
    cba0:	ebfffdc8 	bl	c2c8 <buf_xor_n_copy>
    cba4:	e5983020 	ldr	r3, [r8, #32]
    cba8:	e1a00004 	mov	r0, r4
    cbac:	e59d2080 	ldr	r2, [sp, #128]	; 0x80
    cbb0:	e0433002 	sub	r3, r3, r2
    cbb4:	e5883020 	str	r3, [r8, #32]
    cbb8:	e28dd05c 	add	sp, sp, #92	; 0x5c
    cbbc:	e8bd8ff0 	pop	{r4, r5, r6, r7, r8, r9, sl, fp, pc}
    cbc0:	e59d4080 	ldr	r4, [sp, #128]	; 0x80
    cbc4:	eafffeec 	b	c77c <_gcry_cipher_cfb_decrypt+0x194>
    cbc8:	e59da028 	ldr	sl, [sp, #40]	; 0x28
    cbcc:	e3a02001 	mov	r2, #1
    cbd0:	e58d2014 	str	r2, [sp, #20]
    cbd4:	e28d2040 	add	r2, sp, #64	; 0x40
    cbd8:	e59d3024 	ldr	r3, [sp, #36]	; 0x24
    cbdc:	e288b030 	add	fp, r8, #48	; 0x30
    cbe0:	e58d2010 	str	r2, [sp, #16]
    cbe4:	e28d4038 	add	r4, sp, #56	; 0x38
    cbe8:	e28d9030 	add	r9, sp, #48	; 0x30
    cbec:	eaffff8b 	b	ca20 <_gcry_cipher_cfb_decrypt+0x438>
    cbf0:	00005bac 	andeq	r5, r0, ip, lsr #23
    cbf4:	00005218 	andeq	r5, r0, r8, lsl r2
    cbf8:	00005bc0 	andeq	r5, r0, r0, asr #23
    cbfc:	000057a4 	andeq	r5, r0, r4, lsr #15
    cc00:	00005c00 	andeq	r5, r0, r0, lsl #24
    cc04:	00005bf4 	strdeq	r5, [r0], -r4
    cc08:	00005bf0 	strdeq	r5, [r0], -r0
    cc0c:	00005b40 	andeq	r5, r0, r0, asr #22
    cc10:	00005b1c 	andeq	r5, r0, ip, lsl fp
    cc14:	000059c4 	andeq	r5, r0, r4, asr #19
    cc18:	00004fa0 	andeq	r4, r0, r0, lsr #31
    cc1c:	000059c4 	andeq	r5, r0, r4, asr #19
    cc20:	000059c0 	andeq	r5, r0, r0, asr #19
    cc24:	000059c0 	andeq	r5, r0, r0, asr #19
    cc28:	000059c0 	andeq	r5, r0, r0, asr #19
    cc2c:	00005518 	andeq	r5, r0, r8, lsl r5
    cc30:	0000597c 	andeq	r5, r0, ip, ror r9
    cc34:	00005854 	andeq	r5, r0, r4, asr r8
    cc38:	00005754 	andeq	r5, r0, r4, asr r7
    cc3c:	00005754 	andeq	r5, r0, r4, asr r7
    cc40:	00005684 	andeq	r5, r0, r4, lsl #13

0000cc44 <_gcry_cipher_decrypt>:
    cc44:	e92d41f0 	push	{r4, r5, r6, r7, r8, lr}
    cc48:	e1a07000 	mov	r7, r0
    cc4c:	e59d6018 	ldr	r6, [sp, #24]
    cc50:	e1a04002 	mov	r4, r2
    cc54:	e59f0084 	ldr	r0, [pc, #132]	; cce0 <_gcry_cipher_decrypt+0x9c>
    cc58:	e1a08001 	mov	r8, r1
    cc5c:	e1a02006 	mov	r2, r6
    cc60:	e1a01003 	mov	r1, r3
    cc64:	e08f0000 	add	r0, pc, r0
    cc68:	e1a05003 	mov	r5, r3
    cc6c:	eb0008f1 	bl	f038 <tfp_printf>
    cc70:	e59f006c 	ldr	r0, [pc, #108]	; cce4 <_gcry_cipher_decrypt+0xa0>
    cc74:	e1a02004 	mov	r2, r4
    cc78:	e5973020 	ldr	r3, [r7, #32]
    cc7c:	e1a01006 	mov	r1, r6
    cc80:	e08f0000 	add	r0, pc, r0
    cc84:	eb0008eb 	bl	f038 <tfp_printf>
    cc88:	e3550000 	cmp	r5, #0
    cc8c:	0a00000d 	beq	ccc8 <_gcry_cipher_decrypt+0x84>
    cc90:	e1560004 	cmp	r6, r4
    cc94:	0a000004 	beq	ccac <_gcry_cipher_decrypt+0x68>
    cc98:	e59f0048 	ldr	r0, [pc, #72]	; cce8 <_gcry_cipher_decrypt+0xa4>
    cc9c:	e1a02004 	mov	r2, r4
    cca0:	e1a01006 	mov	r1, r6
    cca4:	e08f0000 	add	r0, pc, r0
    cca8:	eb0008e2 	bl	f038 <tfp_printf>
    ccac:	e58d6018 	str	r6, [sp, #24]
    ccb0:	e1a03005 	mov	r3, r5
    ccb4:	e1a02004 	mov	r2, r4
    ccb8:	e1a01008 	mov	r1, r8
    ccbc:	e1a00007 	mov	r0, r7
    ccc0:	e8bd41f0 	pop	{r4, r5, r6, r7, r8, lr}
    ccc4:	eafffe47 	b	c5e8 <_gcry_cipher_cfb_decrypt>
    ccc8:	e59f001c 	ldr	r0, [pc, #28]	; ccec <_gcry_cipher_decrypt+0xa8>
    cccc:	e1a06004 	mov	r6, r4
    ccd0:	e1a05008 	mov	r5, r8
    ccd4:	e08f0000 	add	r0, pc, r0
    ccd8:	eb0008d6 	bl	f038 <tfp_printf>
    ccdc:	eafffff2 	b	ccac <_gcry_cipher_decrypt+0x68>
    cce0:	00005690 	muleq	r0, r0, r6
    cce4:	00005698 	muleq	r0, r8, r6
    cce8:	000056d8 	ldrdeq	r5, [r0], -r8
    ccec:	00005680 	andeq	r5, r0, r0, lsl #13

0000ccf0 <print_heap_debug>:
    ccf0:	e59f3048 	ldr	r3, [pc, #72]	; cd40 <print_heap_debug+0x50>
    ccf4:	e08f3003 	add	r3, pc, r3
    ccf8:	e5d33000 	ldrb	r3, [r3]
    ccfc:	e3530000 	cmp	r3, #0
    cd00:	0a00000b 	beq	cd34 <print_heap_debug+0x44>
    cd04:	e59f3038 	ldr	r3, [pc, #56]	; cd44 <print_heap_debug+0x54>
    cd08:	e30023e9 	movw	r2, #1001	; 0x3e9
    cd0c:	e08f3003 	add	r3, pc, r3
    cd10:	e5933000 	ldr	r3, [r3]
    cd14:	e3530000 	cmp	r3, #0
    cd18:	012fff1e 	bxeq	lr
    cd1c:	e5933008 	ldr	r3, [r3, #8]
    cd20:	e2522001 	subs	r2, r2, #1
    cd24:	1afffffa 	bne	cd14 <print_heap_debug+0x24>
    cd28:	e59f0018 	ldr	r0, [pc, #24]	; cd48 <print_heap_debug+0x58>
    cd2c:	e08f0000 	add	r0, pc, r0
    cd30:	ea0008c0 	b	f038 <tfp_printf>
    cd34:	e59f0010 	ldr	r0, [pc, #16]	; cd4c <print_heap_debug+0x5c>
    cd38:	e08f0000 	add	r0, pc, r0
    cd3c:	ea0008bd 	b	f038 <tfp_printf>
    cd40:	0001e31c 	andeq	lr, r1, ip, lsl r3
    cd44:	0001e2f4 	strdeq	lr, [r1], -r4
    cd48:	000076a0 	andeq	r7, r0, r0, lsr #13
    cd4c:	0000767c 	andeq	r7, r0, ip, ror r6

0000cd50 <malloc>:
    cd50:	e59fc11c 	ldr	ip, [pc, #284]	; ce74 <malloc+0x124>
    cd54:	e52de004 	push	{lr}		; (str lr, [sp, #-4]!)
    cd58:	e24dd00c 	sub	sp, sp, #12
    cd5c:	e08fc00c 	add	ip, pc, ip
    cd60:	e59f1110 	ldr	r1, [pc, #272]	; ce78 <malloc+0x128>
    cd64:	e5dc2000 	ldrb	r2, [ip]
    cd68:	e08f1001 	add	r1, pc, r1
    cd6c:	e3520000 	cmp	r2, #0
    cd70:	0a000017 	beq	cdd4 <malloc+0x84>
    cd74:	e3500000 	cmp	r0, #0
    cd78:	0a000010 	beq	cdc0 <malloc+0x70>
    cd7c:	e59f30f8 	ldr	r3, [pc, #248]	; ce7c <malloc+0x12c>
    cd80:	e280101b 	add	r1, r0, #27
    cd84:	e3c1100f 	bic	r1, r1, #15
    cd88:	e08f3003 	add	r3, pc, r3
    cd8c:	e5933000 	ldr	r3, [r3]
    cd90:	e3530000 	cmp	r3, #0
    cd94:	0a000008 	beq	cdbc <malloc+0x6c>
    cd98:	e5d32004 	ldrb	r2, [r3, #4]
    cd9c:	e3520000 	cmp	r2, #0
    cda0:	0a000002 	beq	cdb0 <malloc+0x60>
    cda4:	e5932000 	ldr	r2, [r3]
    cda8:	e1520001 	cmp	r2, r1
    cdac:	2a00001d 	bcs	ce28 <malloc+0xd8>
    cdb0:	e5933008 	ldr	r3, [r3, #8]
    cdb4:	e3530000 	cmp	r3, #0
    cdb8:	1afffff6 	bne	cd98 <malloc+0x48>
    cdbc:	ebffffcb 	bl	ccf0 <print_heap_debug>
    cdc0:	e3a03000 	mov	r3, #0
    cdc4:	e58d3004 	str	r3, [sp, #4]
    cdc8:	e59d0004 	ldr	r0, [sp, #4]
    cdcc:	e28dd00c 	add	sp, sp, #12
    cdd0:	e49df004 	pop	{pc}		; (ldr pc, [sp], #4)
    cdd4:	e59fe0a4 	ldr	lr, [pc, #164]	; ce80 <malloc+0x130>
    cdd8:	e3500000 	cmp	r0, #0
    cddc:	e59f30a0 	ldr	r3, [pc, #160]	; ce84 <malloc+0x134>
    cde0:	e08fe00e 	add	lr, pc, lr
    cde4:	e7913003 	ldr	r3, [r1, r3]
    cde8:	e58e3000 	str	r3, [lr]
    cdec:	e59fe094 	ldr	lr, [pc, #148]	; ce88 <malloc+0x138>
    cdf0:	e791100e 	ldr	r1, [r1, lr]
    cdf4:	e5c32008 	strb	r2, [r3, #8]
    cdf8:	e0411003 	sub	r1, r1, r3
    cdfc:	e5831000 	str	r1, [r3]
    ce00:	1280101b 	addne	r1, r0, #27
    ce04:	e5c32009 	strb	r2, [r3, #9]
    ce08:	e5c3200a 	strb	r2, [r3, #10]
    ce0c:	e5c3200b 	strb	r2, [r3, #11]
    ce10:	e3a02001 	mov	r2, #1
    ce14:	e5c32004 	strb	r2, [r3, #4]
    ce18:	13c1100f 	bicne	r1, r1, #15
    ce1c:	e5cc2000 	strb	r2, [ip]
    ce20:	1affffdd 	bne	cd9c <malloc+0x4c>
    ce24:	eaffffe5 	b	cdc0 <malloc+0x70>
    ce28:	e281001c 	add	r0, r1, #28
    ce2c:	e1520000 	cmp	r2, r0
    ce30:	3a000008 	bcc	ce58 <malloc+0x108>
    ce34:	e0830001 	add	r0, r3, r1
    ce38:	e0422001 	sub	r2, r2, r1
    ce3c:	e7832001 	str	r2, [r3, r1]
    ce40:	e3a02001 	mov	r2, #1
    ce44:	e5c02004 	strb	r2, [r0, #4]
    ce48:	e5932008 	ldr	r2, [r3, #8]
    ce4c:	e5802008 	str	r2, [r0, #8]
    ce50:	e5831000 	str	r1, [r3]
    ce54:	e5830008 	str	r0, [r3, #8]
    ce58:	e283100c 	add	r1, r3, #12
    ce5c:	e3a02000 	mov	r2, #0
    ce60:	e58d1004 	str	r1, [sp, #4]
    ce64:	e59d0004 	ldr	r0, [sp, #4]
    ce68:	e5c32004 	strb	r2, [r3, #4]
    ce6c:	e28dd00c 	add	sp, sp, #12
    ce70:	e49df004 	pop	{pc}		; (ldr pc, [sp], #4)
    ce74:	0001e2b4 			; <UNDEFINED> instruction: 0x0001e2b4
    ce78:	000084c4 	andeq	r8, r0, r4, asr #9
    ce7c:	0001e278 	andeq	lr, r1, r8, ror r2
    ce80:	0001e220 	andeq	lr, r1, r0, lsr #4
    ce84:	00015670 	andeq	r5, r1, r0, ror r6
    ce88:	00015664 	andeq	r5, r1, r4, ror #12

0000ce8c <free>:
    ce8c:	e59f10dc 	ldr	r1, [pc, #220]	; cf70 <free+0xe4>
    ce90:	e3500000 	cmp	r0, #0
    ce94:	e08f1001 	add	r1, pc, r1
    ce98:	012fff1e 	bxeq	lr
    ce9c:	e59f30d0 	ldr	r3, [pc, #208]	; cf74 <free+0xe8>
    cea0:	e240200c 	sub	r2, r0, #12
    cea4:	e59fc0cc 	ldr	ip, [pc, #204]	; cf78 <free+0xec>
    cea8:	e7913003 	ldr	r3, [r1, r3]
    ceac:	e791100c 	ldr	r1, [r1, ip]
    ceb0:	e1520003 	cmp	r2, r3
    ceb4:	33a03000 	movcc	r3, #0
    ceb8:	23a03001 	movcs	r3, #1
    cebc:	e1520001 	cmp	r2, r1
    cec0:	33833001 	orrcc	r3, r3, #1
    cec4:	e3530000 	cmp	r3, #0
    cec8:	112fff1e 	bxne	lr
    cecc:	e5103004 	ldr	r3, [r0, #-4]
    ced0:	e3a01001 	mov	r1, #1
    ced4:	e5401008 	strb	r1, [r0, #-8]
    ced8:	e3530000 	cmp	r3, #0
    cedc:	0a000002 	beq	ceec <free+0x60>
    cee0:	e5d31004 	ldrb	r1, [r3, #4]
    cee4:	e3510000 	cmp	r1, #0
    cee8:	1a000017 	bne	cf4c <free+0xc0>
    ceec:	e59f3088 	ldr	r3, [pc, #136]	; cf7c <free+0xf0>
    cef0:	e08f3003 	add	r3, pc, r3
    cef4:	e5933000 	ldr	r3, [r3]
    cef8:	e3530000 	cmp	r3, #0
    cefc:	11520003 	cmpne	r2, r3
    cf00:	1a000004 	bne	cf18 <free+0x8c>
    cf04:	e12fff1e 	bx	lr
    cf08:	e5933008 	ldr	r3, [r3, #8]
    cf0c:	e3530000 	cmp	r3, #0
    cf10:	11520003 	cmpne	r2, r3
    cf14:	012fff1e 	bxeq	lr
    cf18:	e5d31004 	ldrb	r1, [r3, #4]
    cf1c:	e3510000 	cmp	r1, #0
    cf20:	0afffff8 	beq	cf08 <free+0x7c>
    cf24:	e5931000 	ldr	r1, [r3]
    cf28:	e083c001 	add	ip, r3, r1
    cf2c:	e152000c 	cmp	r2, ip
    cf30:	1afffff4 	bne	cf08 <free+0x7c>
    cf34:	e510200c 	ldr	r2, [r0, #-12]
    cf38:	e5100004 	ldr	r0, [r0, #-4]
    cf3c:	e0821001 	add	r1, r2, r1
    cf40:	e5830008 	str	r0, [r3, #8]
    cf44:	e5831000 	str	r1, [r3]
    cf48:	e12fff1e 	bx	lr
    cf4c:	e510100c 	ldr	r1, [r0, #-12]
    cf50:	e082c001 	add	ip, r2, r1
    cf54:	e153000c 	cmp	r3, ip
    cf58:	0593c000 	ldreq	ip, [r3]
    cf5c:	05933008 	ldreq	r3, [r3, #8]
    cf60:	008c1001 	addeq	r1, ip, r1
    cf64:	05003004 	streq	r3, [r0, #-4]
    cf68:	0500100c 	streq	r1, [r0, #-12]
    cf6c:	eaffffde 	b	ceec <free+0x60>
    cf70:	00008398 	muleq	r0, r8, r3
    cf74:	00015664 	andeq	r5, r1, r4, ror #12
    cf78:	00015670 	andeq	r5, r1, r0, ror r6
    cf7c:	0001e110 	andeq	lr, r1, r0, lsl r1

0000cf80 <xfree>:
    cf80:	e3500000 	cmp	r0, #0
    cf84:	012fff1e 	bxeq	lr
    cf88:	eaffffbf 	b	ce8c <free>

0000cf8c <memset>:
    cf8c:	e3520000 	cmp	r2, #0
    cf90:	012fff1e 	bxeq	lr
    cf94:	e0802002 	add	r2, r0, r2
    cf98:	e6ef1071 	uxtb	r1, r1
    cf9c:	e1a03000 	mov	r3, r0
    cfa0:	e4c31001 	strb	r1, [r3], #1
    cfa4:	e1530002 	cmp	r3, r2
    cfa8:	1afffffc 	bne	cfa0 <memset+0x14>
    cfac:	e12fff1e 	bx	lr

0000cfb0 <xmalloc>:
    cfb0:	e3500001 	cmp	r0, #1
    cfb4:	e92d4070 	push	{r4, r5, r6, lr}
    cfb8:	21a04000 	movcs	r4, r0
    cfbc:	33a04001 	movcc	r4, #1
    cfc0:	e1a00004 	mov	r0, r4
    cfc4:	ebffff61 	bl	cd50 <malloc>
    cfc8:	e2505000 	subs	r5, r0, #0
    cfcc:	0a000004 	beq	cfe4 <xmalloc+0x34>
    cfd0:	e1a02004 	mov	r2, r4
    cfd4:	e3a01000 	mov	r1, #0
    cfd8:	ebffffeb 	bl	cf8c <memset>
    cfdc:	e1a00005 	mov	r0, r5
    cfe0:	e8bd8070 	pop	{r4, r5, r6, pc}
    cfe4:	e59f0010 	ldr	r0, [pc, #16]	; cffc <xmalloc+0x4c>
    cfe8:	e1a01004 	mov	r1, r4
    cfec:	e08f0000 	add	r0, pc, r0
    cff0:	eb000810 	bl	f038 <tfp_printf>
    cff4:	ebffff3d 	bl	ccf0 <print_heap_debug>
    cff8:	eafffff7 	b	cfdc <xmalloc+0x2c>
    cffc:	00007410 	andeq	r7, r0, r0, lsl r4

0000d000 <xmalloc_clear>:
    d000:	e92d4070 	push	{r4, r5, r6, lr}
    d004:	e1a05000 	mov	r5, r0
    d008:	ebffff50 	bl	cd50 <malloc>
    d00c:	e2504000 	subs	r4, r0, #0
    d010:	0a000004 	beq	d028 <xmalloc_clear+0x28>
    d014:	e1a02005 	mov	r2, r5
    d018:	e3a01000 	mov	r1, #0
    d01c:	ebffffda 	bl	cf8c <memset>
    d020:	e1a00004 	mov	r0, r4
    d024:	e8bd8070 	pop	{r4, r5, r6, pc}
    d028:	e3550000 	cmp	r5, #0
    d02c:	0afffffb 	beq	d020 <xmalloc_clear+0x20>
    d030:	e59f0014 	ldr	r0, [pc, #20]	; d04c <xmalloc_clear+0x4c>
    d034:	e1a01005 	mov	r1, r5
    d038:	e08f0000 	add	r0, pc, r0
    d03c:	eb0007fd 	bl	f038 <tfp_printf>
    d040:	ebffff2a 	bl	ccf0 <print_heap_debug>
    d044:	e1a00004 	mov	r0, r4
    d048:	e8bd8070 	pop	{r4, r5, r6, pc}
    d04c:	000073ec 	andeq	r7, r0, ip, ror #7

0000d050 <xcalloc>:
    d050:	e3500000 	cmp	r0, #0
    d054:	e92d4070 	push	{r4, r5, r6, lr}
    d058:	0a000003 	beq	d06c <xcalloc+0x1c>
    d05c:	e0832190 	umull	r2, r3, r0, r1
    d060:	e3530000 	cmp	r3, #0
    d064:	13a05000 	movne	r5, #0
    d068:	1a000007 	bne	d08c <xcalloc+0x3c>
    d06c:	e0040091 	mul	r4, r1, r0
    d070:	e1a00004 	mov	r0, r4
    d074:	ebffff35 	bl	cd50 <malloc>
    d078:	e2505000 	subs	r5, r0, #0
    d07c:	0a000002 	beq	d08c <xcalloc+0x3c>
    d080:	e1a02004 	mov	r2, r4
    d084:	e3a01000 	mov	r1, #0
    d088:	ebffffbf 	bl	cf8c <memset>
    d08c:	e1a00005 	mov	r0, r5
    d090:	e8bd8070 	pop	{r4, r5, r6, pc}

0000d094 <memcpy>:
    d094:	e3520000 	cmp	r2, #0
    d098:	012fff1e 	bxeq	lr
    d09c:	e081c002 	add	ip, r1, r2
    d0a0:	e2403001 	sub	r3, r0, #1
    d0a4:	e4d12001 	ldrb	r2, [r1], #1
    d0a8:	e151000c 	cmp	r1, ip
    d0ac:	e5e32001 	strb	r2, [r3, #1]!
    d0b0:	1afffffb 	bne	d0a4 <memcpy+0x10>
    d0b4:	e12fff1e 	bx	lr

0000d0b8 <xrealloc>:
    d0b8:	e92d4070 	push	{r4, r5, r6, lr}
    d0bc:	e2505000 	subs	r5, r0, #0
    d0c0:	0a000013 	beq	d114 <xrealloc+0x5c>
    d0c4:	e3510000 	cmp	r1, #0
    d0c8:	0a000014 	beq	d120 <xrealloc+0x68>
    d0cc:	e515600c 	ldr	r6, [r5, #-12]
    d0d0:	e246600c 	sub	r6, r6, #12
    d0d4:	e1510006 	cmp	r1, r6
    d0d8:	91a04005 	movls	r4, r5
    d0dc:	8a000001 	bhi	d0e8 <xrealloc+0x30>
    d0e0:	e1a00004 	mov	r0, r4
    d0e4:	e8bd8070 	pop	{r4, r5, r6, pc}
    d0e8:	e1a00001 	mov	r0, r1
    d0ec:	ebffff17 	bl	cd50 <malloc>
    d0f0:	e2504000 	subs	r4, r0, #0
    d0f4:	0afffff9 	beq	d0e0 <xrealloc+0x28>
    d0f8:	e1a02006 	mov	r2, r6
    d0fc:	e1a01005 	mov	r1, r5
    d100:	ebffffe3 	bl	d094 <memcpy>
    d104:	e1a00005 	mov	r0, r5
    d108:	ebffff5f 	bl	ce8c <free>
    d10c:	e1a00004 	mov	r0, r4
    d110:	e8bd8070 	pop	{r4, r5, r6, pc}
    d114:	e8bd4070 	pop	{r4, r5, r6, lr}
    d118:	e1a00001 	mov	r0, r1
    d11c:	eaffff0b 	b	cd50 <malloc>
    d120:	e1a04001 	mov	r4, r1
    d124:	ebffff58 	bl	ce8c <free>
    d128:	eaffffec 	b	d0e0 <xrealloc+0x28>

0000d12c <memmove>:
    d12c:	e1500001 	cmp	r0, r1
    d130:	9a00000b 	bls	d164 <memmove+0x38>
    d134:	e0813002 	add	r3, r1, r2
    d138:	e1530000 	cmp	r3, r0
    d13c:	9a000008 	bls	d164 <memmove+0x38>
    d140:	e080c002 	add	ip, r0, r2
    d144:	e3520000 	cmp	r2, #0
    d148:	012fff1e 	bxeq	lr
    d14c:	e1a0200c 	mov	r2, ip
    d150:	e573c001 	ldrb	ip, [r3, #-1]!
    d154:	e1510003 	cmp	r1, r3
    d158:	e562c001 	strb	ip, [r2, #-1]!
    d15c:	1afffffb 	bne	d150 <memmove+0x24>
    d160:	e12fff1e 	bx	lr
    d164:	e3520000 	cmp	r2, #0
    d168:	012fff1e 	bxeq	lr
    d16c:	e081c002 	add	ip, r1, r2
    d170:	e2403001 	sub	r3, r0, #1
    d174:	e4d12001 	ldrb	r2, [r1], #1
    d178:	e15c0001 	cmp	ip, r1
    d17c:	e5e32001 	strb	r2, [r3, #1]!
    d180:	1afffffb 	bne	d174 <memmove+0x48>
    d184:	e12fff1e 	bx	lr

0000d188 <wipememory>:
    d188:	e3510000 	cmp	r1, #0
    d18c:	012fff1e 	bxeq	lr
    d190:	e0801001 	add	r1, r0, r1
    d194:	e3a02000 	mov	r2, #0
    d198:	e1a03000 	mov	r3, r0
    d19c:	e2800001 	add	r0, r0, #1
    d1a0:	e1500001 	cmp	r0, r1
    d1a4:	e5c32000 	strb	r2, [r3]
    d1a8:	1afffffa 	bne	d198 <wipememory+0x10>
    d1ac:	e12fff1e 	bx	lr

0000d1b0 <strcpy>:
    d1b0:	e2400001 	sub	r0, r0, #1
    d1b4:	e4d13001 	ldrb	r3, [r1], #1
    d1b8:	e5e03001 	strb	r3, [r0, #1]!
    d1bc:	e3530000 	cmp	r3, #0
    d1c0:	1afffffb 	bne	d1b4 <strcpy+0x4>
    d1c4:	e12fff1e 	bx	lr

0000d1c8 <xtrycalloc>:
    d1c8:	e3500000 	cmp	r0, #0
    d1cc:	13510000 	cmpne	r1, #0
    d1d0:	e92d4070 	push	{r4, r5, r6, lr}
    d1d4:	e0050091 	mul	r5, r1, r0
    d1d8:	0a000002 	beq	d1e8 <xtrycalloc+0x20>
    d1dc:	e730f015 	udiv	r0, r5, r0
    d1e0:	e1500001 	cmp	r0, r1
    d1e4:	1a000008 	bne	d20c <xtrycalloc+0x44>
    d1e8:	e1a00005 	mov	r0, r5
    d1ec:	ebfffed7 	bl	cd50 <malloc>
    d1f0:	e2504000 	subs	r4, r0, #0
    d1f4:	0a000002 	beq	d204 <xtrycalloc+0x3c>
    d1f8:	e1a02005 	mov	r2, r5
    d1fc:	e3a01000 	mov	r1, #0
    d200:	ebffff61 	bl	cf8c <memset>
    d204:	e1a00004 	mov	r0, r4
    d208:	e8bd8070 	pop	{r4, r5, r6, pc}
    d20c:	e3a04000 	mov	r4, #0
    d210:	e1a00004 	mov	r0, r4
    d214:	e8bd8070 	pop	{r4, r5, r6, pc}

0000d218 <strchr>:
    d218:	e6ef1071 	uxtb	r1, r1
    d21c:	e1a03000 	mov	r3, r0
    d220:	e5d32000 	ldrb	r2, [r3]
    d224:	e1a00003 	mov	r0, r3
    d228:	e2833001 	add	r3, r3, #1
    d22c:	e1520001 	cmp	r2, r1
    d230:	012fff1e 	bxeq	lr
    d234:	e3520000 	cmp	r2, #0
    d238:	1afffff8 	bne	d220 <strchr+0x8>
    d23c:	e1a00002 	mov	r0, r2
    d240:	e12fff1e 	bx	lr

0000d244 <strcmp>:
    d244:	e5d03000 	ldrb	r3, [r0]
    d248:	e3530000 	cmp	r3, #0
    d24c:	05d12000 	ldrbeq	r2, [r1]
    d250:	1a000003 	bne	d264 <strcmp+0x20>
    d254:	ea000006 	b	d274 <strcmp+0x30>
    d258:	e5f03001 	ldrb	r3, [r0, #1]!
    d25c:	e3530000 	cmp	r3, #0
    d260:	0a000005 	beq	d27c <strcmp+0x38>
    d264:	e1a0c001 	mov	ip, r1
    d268:	e4d12001 	ldrb	r2, [r1], #1
    d26c:	e1520003 	cmp	r2, r3
    d270:	0afffff8 	beq	d258 <strcmp+0x14>
    d274:	e0430002 	sub	r0, r3, r2
    d278:	e12fff1e 	bx	lr
    d27c:	e5dc2001 	ldrb	r2, [ip, #1]
    d280:	e0430002 	sub	r0, r3, r2
    d284:	e12fff1e 	bx	lr

0000d288 <open>:
    d288:	e92d000e 	push	{r1, r2, r3}
    d28c:	e59f1040 	ldr	r1, [pc, #64]	; d2d4 <open+0x4c>
    d290:	e92d4030 	push	{r4, r5, lr}
    d294:	e1a04000 	mov	r4, r0
    d298:	e08f1001 	add	r1, pc, r1
    d29c:	ebffffe8 	bl	d244 <strcmp>
    d2a0:	e3500000 	cmp	r0, #0
    d2a4:	03a00001 	moveq	r0, #1
    d2a8:	0a000006 	beq	d2c8 <open+0x40>
    d2ac:	e59f1024 	ldr	r1, [pc, #36]	; d2d8 <open+0x50>
    d2b0:	e1a00004 	mov	r0, r4
    d2b4:	e08f1001 	add	r1, pc, r1
    d2b8:	ebffffe1 	bl	d244 <strcmp>
    d2bc:	e2500000 	subs	r0, r0, #0
    d2c0:	13a00001 	movne	r0, #1
    d2c4:	e2600000 	rsb	r0, r0, #0
    d2c8:	e8bd4030 	pop	{r4, r5, lr}
    d2cc:	e28dd00c 	add	sp, sp, #12
    d2d0:	e12fff1e 	bx	lr
    d2d4:	000071b8 			; <UNDEFINED> instruction: 0x000071b8
    d2d8:	000071a4 	andeq	r7, r0, r4, lsr #3

0000d2dc <strdup>:
    d2dc:	e92d4070 	push	{r4, r5, r6, lr}
    d2e0:	e1a06000 	mov	r6, r0
    d2e4:	eb000cb8 	bl	105cc <strlen>
    d2e8:	e2805001 	add	r5, r0, #1
    d2ec:	e1a00005 	mov	r0, r5
    d2f0:	ebfffe96 	bl	cd50 <malloc>
    d2f4:	e2504000 	subs	r4, r0, #0
    d2f8:	0a000002 	beq	d308 <strdup+0x2c>
    d2fc:	e1a02005 	mov	r2, r5
    d300:	e1a01006 	mov	r1, r6
    d304:	ebffff62 	bl	d094 <memcpy>
    d308:	e1a00004 	mov	r0, r4
    d30c:	e8bd8070 	pop	{r4, r5, r6, pc}

0000d310 <xstrdup>:
    d310:	e92d4010 	push	{r4, lr}
    d314:	ebfffff0 	bl	d2dc <strdup>
    d318:	e3500000 	cmp	r0, #0
    d31c:	18bd8010 	popne	{r4, pc}
    d320:	eafffffe 	b	d320 <xstrdup+0x10>

0000d324 <parse.constprop.0>:
    d324:	e92d4ff0 	push	{r4, r5, r6, r7, r8, r9, sl, fp, lr}
    d328:	e24dd09c 	sub	sp, sp, #156	; 0x9c
    d32c:	e5904000 	ldr	r4, [r0]
    d330:	e2538000 	subs	r8, r3, #0
    d334:	e58d100c 	str	r1, [sp, #12]
    d338:	e1a07002 	mov	r7, r2
    d33c:	e59d20c0 	ldr	r2, [sp, #192]	; 0xc0
    d340:	e3a03000 	mov	r3, #0
    d344:	e1a06000 	mov	r6, r0
    d348:	e5823000 	str	r3, [r2]
    d34c:	0a000007 	beq	d370 <parse.constprop.0+0x4c>
    d350:	e1a00004 	mov	r0, r4
    d354:	ebfff316 	bl	9fb4 <iobuf_tell>
    d358:	e1a05000 	mov	r5, r0
    d35c:	e59f0fd4 	ldr	r0, [pc, #4052]	; e338 <parse.constprop.0+0x1014>
    d360:	e1a01005 	mov	r1, r5
    d364:	e08f0000 	add	r0, pc, r0
    d368:	eb000732 	bl	f038 <tfp_printf>
    d36c:	e5885000 	str	r5, [r8]
    d370:	e5943010 	ldr	r3, [r4, #16]
    d374:	e3530000 	cmp	r3, #0
    d378:	1a000003 	bne	d38c <parse.constprop.0+0x68>
    d37c:	e5943018 	ldr	r3, [r4, #24]
    d380:	e594201c 	ldr	r2, [r4, #28]
    d384:	e1530002 	cmp	r3, r2
    d388:	3a000036 	bcc	d468 <parse.constprop.0+0x144>
    d38c:	e1a00004 	mov	r0, r4
    d390:	ebffef8c 	bl	91c8 <iobuf_readbyte>
    d394:	e3700001 	cmn	r0, #1
    d398:	16ef3070 	uxtbne	r3, r0
    d39c:	0a00009e 	beq	d61c <parse.constprop.0+0x2f8>
    d3a0:	e5cd302c 	strb	r3, [sp, #44]	; 0x2c
    d3a4:	e3100080 	tst	r0, #128	; 0x80
    d3a8:	0a000039 	beq	d494 <parse.constprop.0+0x170>
    d3ac:	e2103040 	ands	r3, r0, #64	; 0x40
    d3b0:	e58d3010 	str	r3, [sp, #16]
    d3b4:	1a00003f 	bne	d4b8 <parse.constprop.0+0x194>
    d3b8:	e2003003 	and	r3, r0, #3
    d3bc:	e1a00140 	asr	r0, r0, #2
    d3c0:	e3530003 	cmp	r3, #3
    d3c4:	e200800f 	and	r8, r0, #15
    d3c8:	0a0000c1 	beq	d6d4 <parse.constprop.0+0x3b0>
    d3cc:	e59d5010 	ldr	r5, [sp, #16]
    d3d0:	e3a0a001 	mov	sl, #1
    d3d4:	e28db02d 	add	fp, sp, #45	; 0x2d
    d3d8:	e1a0331a 	lsl	r3, sl, r3
    d3dc:	e083900a 	add	r9, r3, sl
    d3e0:	ea00000a 	b	d410 <parse.constprop.0+0xec>
    d3e4:	e5842018 	str	r2, [r4, #24]
    d3e8:	e5942008 	ldr	r2, [r4, #8]
    d3ec:	e5941020 	ldr	r1, [r4, #32]
    d3f0:	e2822001 	add	r2, r2, #1
    d3f4:	e5842008 	str	r2, [r4, #8]
    d3f8:	e7d10003 	ldrb	r0, [r1, r3]
    d3fc:	e1805005 	orr	r5, r0, r5
    d400:	e28aa001 	add	sl, sl, #1
    d404:	e159000a 	cmp	r9, sl
    d408:	e4cb0001 	strb	r0, [fp], #1
    d40c:	0a00003e 	beq	d50c <parse.constprop.0+0x1e8>
    d410:	e5943010 	ldr	r3, [r4, #16]
    d414:	e1a00004 	mov	r0, r4
    d418:	e1a05405 	lsl	r5, r5, #8
    d41c:	e3530000 	cmp	r3, #0
    d420:	1a000004 	bne	d438 <parse.constprop.0+0x114>
    d424:	e5943018 	ldr	r3, [r4, #24]
    d428:	e594201c 	ldr	r2, [r4, #28]
    d42c:	e1530002 	cmp	r3, r2
    d430:	e2832001 	add	r2, r3, #1
    d434:	3affffea 	bcc	d3e4 <parse.constprop.0+0xc0>
    d438:	ebffef62 	bl	91c8 <iobuf_readbyte>
    d43c:	e3700001 	cmn	r0, #1
    d440:	e6ef0070 	uxtb	r0, r0
    d444:	1affffec 	bne	d3fc <parse.constprop.0+0xd8>
    d448:	e59f1eec 	ldr	r1, [pc, #3820]	; e33c <parse.constprop.0+0x1018>
    d44c:	e59f0eec 	ldr	r0, [pc, #3820]	; e340 <parse.constprop.0+0x101c>
    d450:	e08f1001 	add	r1, pc, r1
    d454:	e08f0000 	add	r0, pc, r0
    d458:	eb0006f6 	bl	f038 <tfp_printf>
    d45c:	e3a0000e 	mov	r0, #14
    d460:	e28dd09c 	add	sp, sp, #156	; 0x9c
    d464:	e8bd8ff0 	pop	{r4, r5, r6, r7, r8, r9, sl, fp, pc}
    d468:	e5942008 	ldr	r2, [r4, #8]
    d46c:	e5941020 	ldr	r1, [r4, #32]
    d470:	e2822001 	add	r2, r2, #1
    d474:	e5842008 	str	r2, [r4, #8]
    d478:	e2832001 	add	r2, r3, #1
    d47c:	e5842018 	str	r2, [r4, #24]
    d480:	e7d13003 	ldrb	r3, [r1, r3]
    d484:	e5cd302c 	strb	r3, [sp, #44]	; 0x2c
    d488:	e1a00003 	mov	r0, r3
    d48c:	e3100080 	tst	r0, #128	; 0x80
    d490:	1affffc5 	bne	d3ac <parse.constprop.0+0x88>
    d494:	e59f1ea8 	ldr	r1, [pc, #3752]	; e344 <parse.constprop.0+0x1020>
    d498:	e1a02000 	mov	r2, r0
    d49c:	e59f0ea4 	ldr	r0, [pc, #3748]	; e348 <parse.constprop.0+0x1024>
    d4a0:	e08f1001 	add	r1, pc, r1
    d4a4:	e08f0000 	add	r0, pc, r0
    d4a8:	eb0006e2 	bl	f038 <tfp_printf>
    d4ac:	e3a0000e 	mov	r0, #14
    d4b0:	e28dd09c 	add	sp, sp, #156	; 0x9c
    d4b4:	e8bd8ff0 	pop	{r4, r5, r6, r7, r8, r9, sl, fp, pc}
    d4b8:	e5943010 	ldr	r3, [r4, #16]
    d4bc:	e200803f 	and	r8, r0, #63	; 0x3f
    d4c0:	e3530000 	cmp	r3, #0
    d4c4:	1a000003 	bne	d4d8 <parse.constprop.0+0x1b4>
    d4c8:	e5943018 	ldr	r3, [r4, #24]
    d4cc:	e594201c 	ldr	r2, [r4, #28]
    d4d0:	e1530002 	cmp	r3, r2
    d4d4:	3a00006b 	bcc	d688 <parse.constprop.0+0x364>
    d4d8:	e1a00004 	mov	r0, r4
    d4dc:	ebffef39 	bl	91c8 <iobuf_readbyte>
    d4e0:	e3700001 	cmn	r0, #1
    d4e4:	16ef3070 	uxtbne	r3, r0
    d4e8:	0a0000c0 	beq	d7f0 <parse.constprop.0+0x4cc>
    d4ec:	e5cd302d 	strb	r3, [sp, #45]	; 0x2d
    d4f0:	e35000bf 	cmp	r0, #191	; 0xbf
    d4f4:	d1a05000 	movle	r5, r0
    d4f8:	d3a09002 	movle	r9, #2
    d4fc:	ca000049 	bgt	d628 <parse.constprop.0+0x304>
    d500:	e358003f 	cmp	r8, #63	; 0x3f
    d504:	03750001 	cmneq	r5, #1
    d508:	0a00003e 	beq	d608 <parse.constprop.0+0x2e4>
    d50c:	e59d30c4 	ldr	r3, [sp, #196]	; 0xc4
    d510:	e3530000 	cmp	r3, #0
    d514:	13580000 	cmpne	r8, #0
    d518:	13a0a001 	movne	sl, #1
    d51c:	03a0a000 	moveq	sl, #0
    d520:	1a000061 	bne	d6ac <parse.constprop.0+0x388>
    d524:	e248b00d 	sub	fp, r8, #13
    d528:	e16fbf1b 	clz	fp, fp
    d52c:	e1a0b2ab 	lsr	fp, fp, #5
    d530:	e3570002 	cmp	r7, #2
    d534:	13a03000 	movne	r3, #0
    d538:	020b3001 	andeq	r3, fp, #1
    d53c:	e3530000 	cmp	r3, #0
    d540:	1a000093 	bne	d794 <parse.constprop.0+0x470>
    d544:	e59d30c8 	ldr	r3, [sp, #200]	; 0xc8
    d548:	e2033001 	and	r3, r3, #1
    d54c:	e3580000 	cmp	r8, #0
    d550:	03833001 	orreq	r3, r3, #1
    d554:	e58d3014 	str	r3, [sp, #20]
    d558:	e3530000 	cmp	r3, #0
    d55c:	1a000141 	bne	da68 <parse.constprop.0+0x744>
    d560:	e3570000 	cmp	r7, #0
    d564:	1358000e 	cmpne	r8, #14
    d568:	0a000002 	beq	d578 <parse.constprop.0+0x254>
    d56c:	e2483005 	sub	r3, r8, #5
    d570:	e3530002 	cmp	r3, #2
    d574:	8a00013b 	bhi	da68 <parse.constprop.0+0x744>
    d578:	e5963014 	ldr	r3, [r6, #20]
    d57c:	e59f2dc8 	ldr	r2, [pc, #3528]	; e34c <parse.constprop.0+0x1028>
    d580:	e59f0dc8 	ldr	r0, [pc, #3528]	; e350 <parse.constprop.0+0x102c>
    d584:	e2833001 	add	r3, r3, #1
    d588:	e5863014 	str	r3, [r6, #20]
    d58c:	e08f2002 	add	r2, pc, r2
    d590:	e59d300c 	ldr	r3, [sp, #12]
    d594:	e7921108 	ldr	r1, [r2, r8, lsl #2]
    d598:	e1a02008 	mov	r2, r8
    d59c:	e5c38000 	strb	r8, [r3]
    d5a0:	e08f0000 	add	r0, pc, r0
    d5a4:	eb0006a3 	bl	f038 <tfp_printf>
    d5a8:	e59d3010 	ldr	r3, [sp, #16]
    d5ac:	e2482003 	sub	r2, r8, #3
    d5b0:	e2533000 	subs	r3, r3, #0
    d5b4:	13a03001 	movne	r3, #1
    d5b8:	e3520010 	cmp	r2, #16
    d5bc:	908ff102 	addls	pc, pc, r2, lsl #2
    d5c0:	ea00007e 	b	d7c0 <parse.constprop.0+0x49c>
    d5c4:	ea000137 	b	daa8 <parse.constprop.0+0x784>
    d5c8:	ea00007c 	b	d7c0 <parse.constprop.0+0x49c>
    d5cc:	ea00007b 	b	d7c0 <parse.constprop.0+0x49c>
    d5d0:	ea00007a 	b	d7c0 <parse.constprop.0+0x49c>
    d5d4:	ea000079 	b	d7c0 <parse.constprop.0+0x49c>
    d5d8:	ea000078 	b	d7c0 <parse.constprop.0+0x49c>
    d5dc:	ea000090 	b	d824 <parse.constprop.0+0x500>
    d5e0:	ea000201 	b	ddec <parse.constprop.0+0xac8>
    d5e4:	ea0001aa 	b	dc94 <parse.constprop.0+0x970>
    d5e8:	ea000074 	b	d7c0 <parse.constprop.0+0x49c>
    d5ec:	ea000073 	b	d7c0 <parse.constprop.0+0x49c>
    d5f0:	ea000072 	b	d7c0 <parse.constprop.0+0x49c>
    d5f4:	ea000071 	b	d7c0 <parse.constprop.0+0x49c>
    d5f8:	ea000070 	b	d7c0 <parse.constprop.0+0x49c>
    d5fc:	ea00006f 	b	d7c0 <parse.constprop.0+0x49c>
    d600:	ea000087 	b	d824 <parse.constprop.0+0x500>
    d604:	ea00017f 	b	dc08 <parse.constprop.0+0x8e4>
    d608:	e59f1d44 	ldr	r1, [pc, #3396]	; e354 <parse.constprop.0+0x1030>
    d60c:	e59f0d44 	ldr	r0, [pc, #3396]	; e358 <parse.constprop.0+0x1034>
    d610:	e08f1001 	add	r1, pc, r1
    d614:	e08f0000 	add	r0, pc, r0
    d618:	eb000686 	bl	f038 <tfp_printf>
    d61c:	e3e00000 	mvn	r0, #0
    d620:	e28dd09c 	add	sp, sp, #156	; 0x9c
    d624:	e8bd8ff0 	pop	{r4, r5, r6, r7, r8, r9, sl, fp, pc}
    d628:	e35000df 	cmp	r0, #223	; 0xdf
    d62c:	ca000035 	bgt	d708 <parse.constprop.0+0x3e4>
    d630:	e5943010 	ldr	r3, [r4, #16]
    d634:	e24050c0 	sub	r5, r0, #192	; 0xc0
    d638:	e1a05405 	lsl	r5, r5, #8
    d63c:	e3530000 	cmp	r3, #0
    d640:	1a0000f4 	bne	da18 <parse.constprop.0+0x6f4>
    d644:	e5943018 	ldr	r3, [r4, #24]
    d648:	e594201c 	ldr	r2, [r4, #28]
    d64c:	e1530002 	cmp	r3, r2
    d650:	2a0000f0 	bcs	da18 <parse.constprop.0+0x6f4>
    d654:	e5942008 	ldr	r2, [r4, #8]
    d658:	e5941020 	ldr	r1, [r4, #32]
    d65c:	e2822001 	add	r2, r2, #1
    d660:	e5842008 	str	r2, [r4, #8]
    d664:	e2832001 	add	r2, r3, #1
    d668:	e5842018 	str	r2, [r4, #24]
    d66c:	e7d13003 	ldrb	r3, [r1, r3]
    d670:	e1a00003 	mov	r0, r3
    d674:	e5cd302e 	strb	r3, [sp, #46]	; 0x2e
    d678:	e28550c0 	add	r5, r5, #192	; 0xc0
    d67c:	e0805005 	add	r5, r0, r5
    d680:	e3a09003 	mov	r9, #3
    d684:	eaffff9d 	b	d500 <parse.constprop.0+0x1dc>
    d688:	e5942008 	ldr	r2, [r4, #8]
    d68c:	e5941020 	ldr	r1, [r4, #32]
    d690:	e2822001 	add	r2, r2, #1
    d694:	e5842008 	str	r2, [r4, #8]
    d698:	e2832001 	add	r2, r3, #1
    d69c:	e5842018 	str	r2, [r4, #24]
    d6a0:	e7d13003 	ldrb	r3, [r1, r3]
    d6a4:	e1a00003 	mov	r0, r3
    d6a8:	eaffff8f 	b	d4ec <parse.constprop.0+0x1c8>
    d6ac:	e59d00c4 	ldr	r0, [sp, #196]	; 0xc4
    d6b0:	e1a02009 	mov	r2, r9
    d6b4:	e28d102c 	add	r1, sp, #44	; 0x2c
    d6b8:	ebffeffa 	bl	96a8 <iobuf_write>
    d6bc:	e3500000 	cmp	r0, #0
    d6c0:	0a000222 	beq	df50 <parse.constprop.0+0xc2c>
    d6c4:	e3700001 	cmn	r0, #1
    d6c8:	0affffd3 	beq	d61c <parse.constprop.0+0x2f8>
    d6cc:	e6ff0070 	uxth	r0, r0
    d6d0:	eaffffd2 	b	d620 <parse.constprop.0+0x2fc>
    d6d4:	e200000d 	and	r0, r0, #13
    d6d8:	e3500009 	cmp	r0, #9
    d6dc:	0a00001c 	beq	d754 <parse.constprop.0+0x430>
    d6e0:	e3580008 	cmp	r8, #8
    d6e4:	1a0000e7 	bne	da88 <parse.constprop.0+0x764>
    d6e8:	e59d30c4 	ldr	r3, [sp, #196]	; 0xc4
    d6ec:	e3530000 	cmp	r3, #0
    d6f0:	1a000021 	bne	d77c <parse.constprop.0+0x458>
    d6f4:	e59db010 	ldr	fp, [sp, #16]
    d6f8:	e3a0a001 	mov	sl, #1
    d6fc:	e1a0900a 	mov	r9, sl
    d700:	e1a0500b 	mov	r5, fp
    d704:	eaffff8e 	b	d544 <parse.constprop.0+0x220>
    d708:	e35000ff 	cmp	r0, #255	; 0xff
    d70c:	0a0000a7 	beq	d9b0 <parse.constprop.0+0x68c>
    d710:	e2483008 	sub	r3, r8, #8
    d714:	e353000c 	cmp	r3, #12
    d718:	908ff103 	addls	pc, pc, r3, lsl #2
    d71c:	ea0000c9 	b	da48 <parse.constprop.0+0x724>
    d720:	ea000039 	b	d80c <parse.constprop.0+0x4e8>
    d724:	ea000038 	b	d80c <parse.constprop.0+0x4e8>
    d728:	ea0000c6 	b	da48 <parse.constprop.0+0x724>
    d72c:	ea000036 	b	d80c <parse.constprop.0+0x4e8>
    d730:	ea0000c4 	b	da48 <parse.constprop.0+0x724>
    d734:	ea0000c3 	b	da48 <parse.constprop.0+0x724>
    d738:	ea0000c2 	b	da48 <parse.constprop.0+0x724>
    d73c:	ea0000c1 	b	da48 <parse.constprop.0+0x724>
    d740:	ea0000c0 	b	da48 <parse.constprop.0+0x724>
    d744:	ea0000bf 	b	da48 <parse.constprop.0+0x724>
    d748:	ea00002f 	b	d80c <parse.constprop.0+0x4e8>
    d74c:	ea0000bd 	b	da48 <parse.constprop.0+0x724>
    d750:	ea00002d 	b	d80c <parse.constprop.0+0x4e8>
    d754:	e2585000 	subs	r5, r8, #0
    d758:	e3a09001 	mov	r9, #1
    d75c:	13a05001 	movne	r5, #1
    d760:	e59d30c4 	ldr	r3, [sp, #196]	; 0xc4
    d764:	e3530000 	cmp	r3, #0
    d768:	03a05000 	moveq	r5, #0
    d76c:	12055001 	andne	r5, r5, #1
    d770:	e3550000 	cmp	r5, #0
    d774:	03a0a001 	moveq	sl, #1
    d778:	0affff69 	beq	d524 <parse.constprop.0+0x200>
    d77c:	e59f0bd8 	ldr	r0, [pc, #3032]	; e35c <parse.constprop.0+0x1038>
    d780:	e08f0000 	add	r0, pc, r0
    d784:	eb00062b 	bl	f038 <tfp_printf>
    d788:	e3a0000e 	mov	r0, #14
    d78c:	e28dd09c 	add	sp, sp, #156	; 0x9c
    d790:	e8bd8ff0 	pop	{r4, r5, r6, r7, r8, r9, sl, fp, pc}
    d794:	e5963014 	ldr	r3, [r6, #20]
    d798:	e3a0200d 	mov	r2, #13
    d79c:	e59f1bbc 	ldr	r1, [pc, #3004]	; e360 <parse.constprop.0+0x103c>
    d7a0:	e59f0bbc 	ldr	r0, [pc, #3004]	; e364 <parse.constprop.0+0x1040>
    d7a4:	e2833001 	add	r3, r3, #1
    d7a8:	e5863014 	str	r3, [r6, #20]
    d7ac:	e59d300c 	ldr	r3, [sp, #12]
    d7b0:	e08f1001 	add	r1, pc, r1
    d7b4:	e08f0000 	add	r0, pc, r0
    d7b8:	e5c32000 	strb	r2, [r3]
    d7bc:	eb00061d 	bl	f038 <tfp_printf>
    d7c0:	e3a00000 	mov	r0, #0
    d7c4:	e1a01006 	mov	r1, r6
    d7c8:	ebfff488 	bl	a9f0 <free_packet>
    d7cc:	e59f0b94 	ldr	r0, [pc, #2964]	; e368 <parse.constprop.0+0x1044>
    d7d0:	e1a01009 	mov	r1, r9
    d7d4:	e08f0000 	add	r0, pc, r0
    d7d8:	eb000616 	bl	f038 <tfp_printf>
    d7dc:	e1a01009 	mov	r1, r9
    d7e0:	e28d002c 	add	r0, sp, #44	; 0x2c
    d7e4:	ebfff269 	bl	a190 <log_hexdump>
    d7e8:	e3a00002 	mov	r0, #2
    d7ec:	eaffff8b 	b	d620 <parse.constprop.0+0x2fc>
    d7f0:	e59f1b74 	ldr	r1, [pc, #2932]	; e36c <parse.constprop.0+0x1048>
    d7f4:	e59f0b74 	ldr	r0, [pc, #2932]	; e370 <parse.constprop.0+0x104c>
    d7f8:	e08f1001 	add	r1, pc, r1
    d7fc:	e08f0000 	add	r0, pc, r0
    d800:	eb00060c 	bl	f038 <tfp_printf>
    d804:	e3a0000e 	mov	r0, #14
    d808:	eaffff84 	b	d620 <parse.constprop.0+0x2fc>
    d80c:	e6ef1070 	uxtb	r1, r0
    d810:	e1a00004 	mov	r0, r4
    d814:	e3a09002 	mov	r9, #2
    d818:	e3a05001 	mov	r5, #1
    d81c:	ebfff1e8 	bl	9fc4 <iobuf_set_partial_body_length_mode>
    d820:	eaffffce 	b	d760 <parse.constprop.0+0x43c>
    d824:	e59f0b48 	ldr	r0, [pc, #2888]	; e374 <parse.constprop.0+0x1050>
    d828:	e58d3010 	str	r3, [sp, #16]
    d82c:	e08f0000 	add	r0, pc, r0
    d830:	eb000600 	bl	f038 <tfp_printf>
    d834:	e59f0b3c 	ldr	r0, [pc, #2876]	; e378 <parse.constprop.0+0x1054>
    d838:	e1a01005 	mov	r1, r5
    d83c:	e08f0000 	add	r0, pc, r0
    d840:	eb0005fc 	bl	f038 <tfp_printf>
    d844:	e59f0b30 	ldr	r0, [pc, #2864]	; e37c <parse.constprop.0+0x1058>
    d848:	e08f0000 	add	r0, pc, r0
    d84c:	eb0005f9 	bl	f038 <tfp_printf>
    d850:	e59f0b28 	ldr	r0, [pc, #2856]	; e380 <parse.constprop.0+0x105c>
    d854:	e1a01004 	mov	r1, r4
    d858:	e08f0000 	add	r0, pc, r0
    d85c:	eb0005f5 	bl	f038 <tfp_printf>
    d860:	e59f0b1c 	ldr	r0, [pc, #2844]	; e384 <parse.constprop.0+0x1060>
    d864:	e2482012 	sub	r2, r8, #18
    d868:	e16f2f12 	clz	r2, r2
    d86c:	e1a01008 	mov	r1, r8
    d870:	e08f0000 	add	r0, pc, r0
    d874:	e1a022a2 	lsr	r2, r2, #5
    d878:	eb0005ee 	bl	f038 <tfp_printf>
    d87c:	e59f0b04 	ldr	r0, [pc, #2820]	; e388 <parse.constprop.0+0x1064>
    d880:	e1a0100a 	mov	r1, sl
    d884:	e08f0000 	add	r0, pc, r0
    d888:	eb0005ea 	bl	f038 <tfp_printf>
    d88c:	e59f0af8 	ldr	r0, [pc, #2808]	; e38c <parse.constprop.0+0x1068>
    d890:	e5d41000 	ldrb	r1, [r4]
    d894:	e08f0000 	add	r0, pc, r0
    d898:	eb0005e6 	bl	f038 <tfp_printf>
    d89c:	e3a00014 	mov	r0, #20
    d8a0:	ebfffdc2 	bl	cfb0 <xmalloc>
    d8a4:	e59d300c 	ldr	r3, [sp, #12]
    d8a8:	e3580012 	cmp	r8, #18
    d8ac:	e1a07000 	mov	r7, r0
    d8b0:	e5830004 	str	r0, [r3, #4]
    d8b4:	e59d3010 	ldr	r3, [sp, #16]
    d8b8:	e5c0a009 	strb	sl, [r0, #9]
    d8bc:	e5c03008 	strb	r3, [r0, #8]
    d8c0:	e3a03000 	mov	r3, #0
    d8c4:	e5803004 	str	r3, [r0, #4]
    d8c8:	e5803010 	str	r3, [r0, #16]
    d8cc:	e5c0300b 	strb	r3, [r0, #11]
    d8d0:	e1c030bc 	strh	r3, [r0, #12]
    d8d4:	15c0300a 	strbne	r3, [r0, #10]
    d8d8:	11a03005 	movne	r3, r5
    d8dc:	0a0002d0 	beq	e424 <parse.constprop.0+0x1100>
    d8e0:	e2555000 	subs	r5, r5, #0
    d8e4:	13a05001 	movne	r5, #1
    d8e8:	e3530009 	cmp	r3, #9
    d8ec:	83a05000 	movhi	r5, #0
    d8f0:	e3550000 	cmp	r5, #0
    d8f4:	1a000311 	bne	e540 <parse.constprop.0+0x121c>
    d8f8:	e59f5a90 	ldr	r5, [pc, #2704]	; e390 <parse.constprop.0+0x106c>
    d8fc:	e1a01003 	mov	r1, r3
    d900:	e5873000 	str	r3, [r7]
    d904:	e08f5005 	add	r5, pc, r5
    d908:	e1a00005 	mov	r0, r5
    d90c:	eb0005c9 	bl	f038 <tfp_printf>
    d910:	e5971000 	ldr	r1, [r7]
    d914:	e3510000 	cmp	r1, #0
    d918:	1a0002ff 	bne	e51c <parse.constprop.0+0x11f8>
    d91c:	e59f0a70 	ldr	r0, [pc, #2672]	; e394 <parse.constprop.0+0x1070>
    d920:	e1a01007 	mov	r1, r7
    d924:	e08f0000 	add	r0, pc, r0
    d928:	eb0005c2 	bl	f038 <tfp_printf>
    d92c:	e59f0a64 	ldr	r0, [pc, #2660]	; e398 <parse.constprop.0+0x1074>
    d930:	e1a01004 	mov	r1, r4
    d934:	e08f0000 	add	r0, pc, r0
    d938:	eb0005be 	bl	f038 <tfp_printf>
    d93c:	e59f0a58 	ldr	r0, [pc, #2648]	; e39c <parse.constprop.0+0x1078>
    d940:	e3a01000 	mov	r1, #0
    d944:	e5874010 	str	r4, [r7, #16]
    d948:	e08f0000 	add	r0, pc, r0
    d94c:	eb0005b9 	bl	f038 <tfp_printf>
    d950:	e1a01006 	mov	r1, r6
    d954:	e3a00000 	mov	r0, #0
    d958:	ebfff424 	bl	a9f0 <free_packet>
    d95c:	e2483005 	sub	r3, r8, #5
    d960:	e3530001 	cmp	r3, #1
    d964:	938bb001 	orrls	fp, fp, #1
    d968:	e35b0000 	cmp	fp, #0
    d96c:	0a000154 	beq	dec4 <parse.constprop.0+0xba0>
    d970:	e59d300c 	ldr	r3, [sp, #12]
    d974:	e8930003 	ldm	r3, {r0, r1}
    d978:	e9860003 	stmib	r6, {r0, r1}
    d97c:	e59f0a1c 	ldr	r0, [pc, #2588]	; e3a0 <parse.constprop.0+0x107c>
    d980:	e1a01009 	mov	r1, r9
    d984:	e08f0000 	add	r0, pc, r0
    d988:	eb0005aa 	bl	f038 <tfp_printf>
    d98c:	e1a01009 	mov	r1, r9
    d990:	e28d002c 	add	r0, sp, #44	; 0x2c
    d994:	ebfff1fd 	bl	a190 <log_hexdump>
    d998:	e5943028 	ldr	r3, [r4, #40]	; 0x28
    d99c:	e3530000 	cmp	r3, #0
    d9a0:	03a00000 	moveq	r0, #0
    d9a4:	13a00022 	movne	r0, #34	; 0x22
    d9a8:	e28dd09c 	add	sp, sp, #156	; 0x9c
    d9ac:	e8bd8ff0 	pop	{r4, r5, r6, r7, r8, r9, sl, fp, pc}
    d9b0:	e28da02e 	add	sl, sp, #46	; 0x2e
    d9b4:	e28d5034 	add	r5, sp, #52	; 0x34
    d9b8:	e3a09002 	mov	r9, #2
    d9bc:	e5943010 	ldr	r3, [r4, #16]
    d9c0:	e1a00004 	mov	r0, r4
    d9c4:	e3530000 	cmp	r3, #0
    d9c8:	1a000155 	bne	df24 <parse.constprop.0+0xc00>
    d9cc:	e5943018 	ldr	r3, [r4, #24]
    d9d0:	e594201c 	ldr	r2, [r4, #28]
    d9d4:	e1530002 	cmp	r3, r2
    d9d8:	e2832001 	add	r2, r3, #1
    d9dc:	2a000150 	bcs	df24 <parse.constprop.0+0xc00>
    d9e0:	e5842018 	str	r2, [r4, #24]
    d9e4:	e5942008 	ldr	r2, [r4, #8]
    d9e8:	e5941020 	ldr	r1, [r4, #32]
    d9ec:	e2822001 	add	r2, r2, #1
    d9f0:	e5842008 	str	r2, [r4, #8]
    d9f4:	e7d13003 	ldrb	r3, [r1, r3]
    d9f8:	e4ca3001 	strb	r3, [sl], #1
    d9fc:	e2899001 	add	r9, r9, #1
    da00:	e4c53001 	strb	r3, [r5], #1
    da04:	e3590006 	cmp	r9, #6
    da08:	1affffeb 	bne	d9bc <parse.constprop.0+0x698>
    da0c:	e59d5034 	ldr	r5, [sp, #52]	; 0x34
    da10:	e6bf5f35 	rev	r5, r5
    da14:	eafffeb9 	b	d500 <parse.constprop.0+0x1dc>
    da18:	e1a00004 	mov	r0, r4
    da1c:	ebffede9 	bl	91c8 <iobuf_readbyte>
    da20:	e3700001 	cmn	r0, #1
    da24:	16ef3070 	uxtbne	r3, r0
    da28:	1affff11 	bne	d674 <parse.constprop.0+0x350>
    da2c:	e59f1970 	ldr	r1, [pc, #2416]	; e3a4 <parse.constprop.0+0x1080>
    da30:	e59f0970 	ldr	r0, [pc, #2416]	; e3a8 <parse.constprop.0+0x1084>
    da34:	e08f1001 	add	r1, pc, r1
    da38:	e08f0000 	add	r0, pc, r0
    da3c:	eb00057d 	bl	f038 <tfp_printf>
    da40:	e3a0000e 	mov	r0, #14
    da44:	eafffef5 	b	d620 <parse.constprop.0+0x2fc>
    da48:	e59f195c 	ldr	r1, [pc, #2396]	; e3ac <parse.constprop.0+0x1088>
    da4c:	e1a02008 	mov	r2, r8
    da50:	e59f0958 	ldr	r0, [pc, #2392]	; e3b0 <parse.constprop.0+0x108c>
    da54:	e08f1001 	add	r1, pc, r1
    da58:	e08f0000 	add	r0, pc, r0
    da5c:	eb000575 	bl	f038 <tfp_printf>
    da60:	e3a0000e 	mov	r0, #14
    da64:	eafffeed 	b	d620 <parse.constprop.0+0x2fc>
    da68:	e1a0200a 	mov	r2, sl
    da6c:	e1a01005 	mov	r1, r5
    da70:	e1a00004 	mov	r0, r4
    da74:	ebfff18b 	bl	a0a8 <iobuf_skip_rest>
    da78:	e59d20c0 	ldr	r2, [sp, #192]	; 0xc0
    da7c:	e3a03001 	mov	r3, #1
    da80:	e5823000 	str	r3, [r2]
    da84:	eaffffc3 	b	d998 <parse.constprop.0+0x674>
    da88:	e59f1924 	ldr	r1, [pc, #2340]	; e3b4 <parse.constprop.0+0x1090>
    da8c:	e1a02008 	mov	r2, r8
    da90:	e59f0920 	ldr	r0, [pc, #2336]	; e3b8 <parse.constprop.0+0x1094>
    da94:	e08f1001 	add	r1, pc, r1
    da98:	e08f0000 	add	r0, pc, r0
    da9c:	eb000565 	bl	f038 <tfp_printf>
    daa0:	e3a0000e 	mov	r0, #14
    daa4:	eafffedd 	b	d620 <parse.constprop.0+0x2fc>
    daa8:	e3550003 	cmp	r5, #3
    daac:	9a000283 	bls	e4c0 <parse.constprop.0+0x119c>
    dab0:	e5943010 	ldr	r3, [r4, #16]
    dab4:	e3530000 	cmp	r3, #0
    dab8:	1a0001b0 	bne	e180 <parse.constprop.0+0xe5c>
    dabc:	e5943018 	ldr	r3, [r4, #24]
    dac0:	e594201c 	ldr	r2, [r4, #28]
    dac4:	e1530002 	cmp	r3, r2
    dac8:	2a0001ac 	bcs	e180 <parse.constprop.0+0xe5c>
    dacc:	e5942008 	ldr	r2, [r4, #8]
    dad0:	e5941020 	ldr	r1, [r4, #32]
    dad4:	e2822001 	add	r2, r2, #1
    dad8:	e5842008 	str	r2, [r4, #8]
    dadc:	e2832001 	add	r2, r3, #1
    dae0:	e5842018 	str	r2, [r4, #24]
    dae4:	e7d1b003 	ldrb	fp, [r1, r3]
    dae8:	e24b3004 	sub	r3, fp, #4
    daec:	e2457001 	sub	r7, r5, #1
    daf0:	e3530001 	cmp	r3, #1
    daf4:	8a000393 	bhi	e948 <parse.constprop.0+0x1624>
    daf8:	e35700c8 	cmp	r7, #200	; 0xc8
    dafc:	8a00039d 	bhi	e978 <parse.constprop.0+0x1654>
    db00:	e594a010 	ldr	sl, [r4, #16]
    db04:	e35a0000 	cmp	sl, #0
    db08:	1a0001e6 	bne	e2a8 <parse.constprop.0+0xf84>
    db0c:	e594201c 	ldr	r2, [r4, #28]
    db10:	e5941018 	ldr	r1, [r4, #24]
    db14:	e1a03002 	mov	r3, r2
    db18:	e1510002 	cmp	r1, r2
    db1c:	2a0001e1 	bcs	e2a8 <parse.constprop.0+0xf84>
    db20:	e5940008 	ldr	r0, [r4, #8]
    db24:	e35b0005 	cmp	fp, #5
    db28:	e594c020 	ldr	ip, [r4, #32]
    db2c:	12458002 	subne	r8, r5, #2
    db30:	e2800001 	add	r0, r0, #1
    db34:	e5840008 	str	r0, [r4, #8]
    db38:	e2810001 	add	r0, r1, #1
    db3c:	e5840018 	str	r0, [r4, #24]
    db40:	e7dc1001 	ldrb	r1, [ip, r1]
    db44:	e58d1010 	str	r1, [sp, #16]
    db48:	0a000359 	beq	e8b4 <parse.constprop.0+0x1590>
    db4c:	e5941018 	ldr	r1, [r4, #24]
    db50:	e1a03002 	mov	r3, r2
    db54:	e1510003 	cmp	r1, r3
    db58:	2a0001de 	bcs	e2d8 <parse.constprop.0+0xfb4>
    db5c:	e5942008 	ldr	r2, [r4, #8]
    db60:	e5940020 	ldr	r0, [r4, #32]
    db64:	e2822001 	add	r2, r2, #1
    db68:	e5842008 	str	r2, [r4, #8]
    db6c:	e2812001 	add	r2, r1, #1
    db70:	e5842018 	str	r2, [r4, #24]
    db74:	e7d07001 	ldrb	r7, [r0, r1]
    db78:	e1530002 	cmp	r3, r2
    db7c:	9a0001dc 	bls	e2f4 <parse.constprop.0+0xfd0>
    db80:	e5943008 	ldr	r3, [r4, #8]
    db84:	e5941020 	ldr	r1, [r4, #32]
    db88:	e2833001 	add	r3, r3, #1
    db8c:	e5843008 	str	r3, [r4, #8]
    db90:	e2823001 	add	r3, r2, #1
    db94:	e5843018 	str	r3, [r4, #24]
    db98:	e7d13002 	ldrb	r3, [r1, r2]
    db9c:	e58d3018 	str	r3, [sp, #24]
    dba0:	e3570001 	cmp	r7, #1
    dba4:	e2485002 	sub	r5, r8, #2
    dba8:	0a00034e 	beq	e8e8 <parse.constprop.0+0x15c4>
    dbac:	e3570003 	cmp	r7, #3
    dbb0:	0a000273 	beq	e584 <parse.constprop.0+0x1260>
    dbb4:	e3570000 	cmp	r7, #0
    dbb8:	0a0002b0 	beq	e680 <parse.constprop.0+0x135c>
    dbbc:	e59f07f8 	ldr	r0, [pc, #2040]	; e3bc <parse.constprop.0+0x1098>
    dbc0:	e1a01007 	mov	r1, r7
    dbc4:	e08f0000 	add	r0, pc, r0
    dbc8:	eb00051a 	bl	f038 <tfp_printf>
    dbcc:	e1a01005 	mov	r1, r5
    dbd0:	e1a00004 	mov	r0, r4
    dbd4:	e3a02000 	mov	r2, #0
    dbd8:	ebfff132 	bl	a0a8 <iobuf_skip_rest>
    dbdc:	e1a01006 	mov	r1, r6
    dbe0:	e3a00000 	mov	r0, #0
    dbe4:	ebfff381 	bl	a9f0 <free_packet>
    dbe8:	e59f07d0 	ldr	r0, [pc, #2000]	; e3c0 <parse.constprop.0+0x109c>
    dbec:	e1a01009 	mov	r1, r9
    dbf0:	e08f0000 	add	r0, pc, r0
    dbf4:	eb00050f 	bl	f038 <tfp_printf>
    dbf8:	e1a01009 	mov	r1, r9
    dbfc:	e28d002c 	add	r0, sp, #44	; 0x2c
    dc00:	ebfff162 	bl	a190 <log_hexdump>
    dc04:	eaffff63 	b	d998 <parse.constprop.0+0x674>
    dc08:	e3a00014 	mov	r0, #20
    dc0c:	ebfffce7 	bl	cfb0 <xmalloc>
    dc10:	e2555014 	subs	r5, r5, #20
    dc14:	e59d3010 	ldr	r3, [sp, #16]
    dc18:	13a05001 	movne	r5, #1
    dc1c:	e3530000 	cmp	r3, #0
    dc20:	03855001 	orreq	r5, r5, #1
    dc24:	e59d300c 	ldr	r3, [sp, #12]
    dc28:	e3550000 	cmp	r5, #0
    dc2c:	02807014 	addeq	r7, r0, #20
    dc30:	e1a05000 	mov	r5, r0
    dc34:	e5830004 	str	r0, [r3, #4]
    dc38:	0a000009 	beq	dc64 <parse.constprop.0+0x940>
    dc3c:	ea00032b 	b	e8f0 <parse.constprop.0+0x15cc>
    dc40:	e5842018 	str	r2, [r4, #24]
    dc44:	e5942008 	ldr	r2, [r4, #8]
    dc48:	e5941020 	ldr	r1, [r4, #32]
    dc4c:	e2822001 	add	r2, r2, #1
    dc50:	e5842008 	str	r2, [r4, #8]
    dc54:	e7d10003 	ldrb	r0, [r1, r3]
    dc58:	e4c50001 	strb	r0, [r5], #1
    dc5c:	e1570005 	cmp	r7, r5
    dc60:	0a000094 	beq	deb8 <parse.constprop.0+0xb94>
    dc64:	e5943010 	ldr	r3, [r4, #16]
    dc68:	e1a00004 	mov	r0, r4
    dc6c:	e3530000 	cmp	r3, #0
    dc70:	1a000004 	bne	dc88 <parse.constprop.0+0x964>
    dc74:	e5943018 	ldr	r3, [r4, #24]
    dc78:	e594201c 	ldr	r2, [r4, #28]
    dc7c:	e1530002 	cmp	r3, r2
    dc80:	e2832001 	add	r2, r3, #1
    dc84:	3affffed 	bcc	dc40 <parse.constprop.0+0x91c>
    dc88:	ebffed4e 	bl	91c8 <iobuf_readbyte>
    dc8c:	e6ef0070 	uxtb	r0, r0
    dc90:	eafffff0 	b	dc58 <parse.constprop.0+0x934>
    dc94:	e22a2001 	eor	r2, sl, #1
    dc98:	e3550005 	cmp	r5, #5
    dc9c:	83a02000 	movhi	r2, #0
    dca0:	92022001 	andls	r2, r2, #1
    dca4:	e3520000 	cmp	r2, #0
    dca8:	1a00031a 	bne	e918 <parse.constprop.0+0x15f4>
    dcac:	e5942010 	ldr	r2, [r4, #16]
    dcb0:	e3520000 	cmp	r2, #0
    dcb4:	1a000102 	bne	e0c4 <parse.constprop.0+0xda0>
    dcb8:	e5940018 	ldr	r0, [r4, #24]
    dcbc:	e594201c 	ldr	r2, [r4, #28]
    dcc0:	e1500002 	cmp	r0, r2
    dcc4:	2a0000fe 	bcs	e0c4 <parse.constprop.0+0xda0>
    dcc8:	e5941008 	ldr	r1, [r4, #8]
    dccc:	e3550000 	cmp	r5, #0
    dcd0:	e594c020 	ldr	ip, [r4, #32]
    dcd4:	12455001 	subne	r5, r5, #1
    dcd8:	e2811001 	add	r1, r1, #1
    dcdc:	e5841008 	str	r1, [r4, #8]
    dce0:	e2801001 	add	r1, r0, #1
    dce4:	e5841018 	str	r1, [r4, #24]
    dce8:	e7dc8000 	ldrb	r8, [ip, r0]
    dcec:	0a000000 	beq	dcf4 <parse.constprop.0+0x9d0>
    dcf0:	e5941018 	ldr	r1, [r4, #24]
    dcf4:	e1510002 	cmp	r1, r2
    dcf8:	2a0000fb 	bcs	e0ec <parse.constprop.0+0xdc8>
    dcfc:	e5942008 	ldr	r2, [r4, #8]
    dd00:	e5940020 	ldr	r0, [r4, #32]
    dd04:	e2822001 	add	r2, r2, #1
    dd08:	e5842008 	str	r2, [r4, #8]
    dd0c:	e2812001 	add	r2, r1, #1
    dd10:	e5842018 	str	r2, [r4, #24]
    dd14:	e7d07001 	ldrb	r7, [r0, r1]
    dd18:	e58d3010 	str	r3, [sp, #16]
    dd1c:	e3550000 	cmp	r5, #0
    dd20:	0a00011a 	beq	e190 <parse.constprop.0+0xe6c>
    dd24:	e287001b 	add	r0, r7, #27
    dd28:	e2455001 	sub	r5, r5, #1
    dd2c:	ebfffc9f 	bl	cfb0 <xmalloc>
    dd30:	e59d300c 	ldr	r3, [sp, #12]
    dd34:	e3550000 	cmp	r5, #0
    dd38:	e1a0b000 	mov	fp, r0
    dd3c:	e5830004 	str	r0, [r3, #4]
    dd40:	e59d3010 	ldr	r3, [sp, #16]
    dd44:	e580800c 	str	r8, [r0, #12]
    dd48:	e5c03008 	strb	r3, [r0, #8]
    dd4c:	e5c0a009 	strb	sl, [r0, #9]
    dd50:	e5807014 	str	r7, [r0, #20]
    dd54:	0a000117 	beq	e1b8 <parse.constprop.0+0xe94>
    dd58:	e3570000 	cmp	r7, #0
    dd5c:	13550004 	cmpne	r5, #4
    dd60:	e5942010 	ldr	r2, [r4, #16]
    dd64:	83a03001 	movhi	r3, #1
    dd68:	93a03000 	movls	r3, #0
    dd6c:	9a000312 	bls	e9bc <parse.constprop.0+0x1698>
    dd70:	e2808017 	add	r8, r0, #23
    dd74:	e3a0a000 	mov	sl, #0
    dd78:	ea00000f 	b	ddbc <parse.constprop.0+0xa98>
    dd7c:	e5841018 	str	r1, [r4, #24]
    dd80:	e5941008 	ldr	r1, [r4, #8]
    dd84:	e5940020 	ldr	r0, [r4, #32]
    dd88:	e2811001 	add	r1, r1, #1
    dd8c:	e5841008 	str	r1, [r4, #8]
    dd90:	e7d00003 	ldrb	r0, [r0, r3]
    dd94:	e5e80001 	strb	r0, [r8, #1]!
    dd98:	e2455001 	sub	r5, r5, #1
    dd9c:	e3550004 	cmp	r5, #4
    dda0:	e28aa001 	add	sl, sl, #1
    dda4:	93a03000 	movls	r3, #0
    dda8:	83a03001 	movhi	r3, #1
    ddac:	e157000a 	cmp	r7, sl
    ddb0:	d3a03000 	movle	r3, #0
    ddb4:	e3530000 	cmp	r3, #0
    ddb8:	0a000082 	beq	dfc8 <parse.constprop.0+0xca4>
    ddbc:	e3520000 	cmp	r2, #0
    ddc0:	e1a00004 	mov	r0, r4
    ddc4:	1a000004 	bne	dddc <parse.constprop.0+0xab8>
    ddc8:	e5943018 	ldr	r3, [r4, #24]
    ddcc:	e594101c 	ldr	r1, [r4, #28]
    ddd0:	e1530001 	cmp	r3, r1
    ddd4:	e2831001 	add	r1, r3, #1
    ddd8:	3affffe7 	bcc	dd7c <parse.constprop.0+0xa58>
    dddc:	ebffecf9 	bl	91c8 <iobuf_readbyte>
    dde0:	e5942010 	ldr	r2, [r4, #16]
    dde4:	e6ef0070 	uxtb	r0, r0
    dde8:	eaffffe9 	b	dd94 <parse.constprop.0+0xa70>
    ddec:	e3550003 	cmp	r5, #3
    ddf0:	1a000038 	bne	ded8 <parse.constprop.0+0xbb4>
    ddf4:	e5943010 	ldr	r3, [r4, #16]
    ddf8:	e3530000 	cmp	r3, #0
    ddfc:	1a000112 	bne	e24c <parse.constprop.0+0xf28>
    de00:	e5943018 	ldr	r3, [r4, #24]
    de04:	e594201c 	ldr	r2, [r4, #28]
    de08:	e1530002 	cmp	r3, r2
    de0c:	2a00010e 	bcs	e24c <parse.constprop.0+0xf28>
    de10:	e5942008 	ldr	r2, [r4, #8]
    de14:	e5941020 	ldr	r1, [r4, #32]
    de18:	e2822001 	add	r2, r2, #1
    de1c:	e5842008 	str	r2, [r4, #8]
    de20:	e2832001 	add	r2, r3, #1
    de24:	e5842018 	str	r2, [r4, #24]
    de28:	e7d13003 	ldrb	r3, [r1, r3]
    de2c:	e2533050 	subs	r3, r3, #80	; 0x50
    de30:	13a03001 	movne	r3, #1
    de34:	e3530000 	cmp	r3, #0
    de38:	1a000025 	bne	ded4 <parse.constprop.0+0xbb0>
    de3c:	e5943010 	ldr	r3, [r4, #16]
    de40:	e3530000 	cmp	r3, #0
    de44:	1a00012f 	bne	e308 <parse.constprop.0+0xfe4>
    de48:	e5943018 	ldr	r3, [r4, #24]
    de4c:	e594201c 	ldr	r2, [r4, #28]
    de50:	e1530002 	cmp	r3, r2
    de54:	2a00012b 	bcs	e308 <parse.constprop.0+0xfe4>
    de58:	e5942008 	ldr	r2, [r4, #8]
    de5c:	e5941020 	ldr	r1, [r4, #32]
    de60:	e2822001 	add	r2, r2, #1
    de64:	e5842008 	str	r2, [r4, #8]
    de68:	e2832001 	add	r2, r3, #1
    de6c:	e5842018 	str	r2, [r4, #24]
    de70:	e7d13003 	ldrb	r3, [r1, r3]
    de74:	e3530047 	cmp	r3, #71	; 0x47
    de78:	1a000015 	bne	ded4 <parse.constprop.0+0xbb0>
    de7c:	e5943018 	ldr	r3, [r4, #24]
    de80:	e594201c 	ldr	r2, [r4, #28]
    de84:	e1530002 	cmp	r3, r2
    de88:	2a000125 	bcs	e324 <parse.constprop.0+0x1000>
    de8c:	e5942008 	ldr	r2, [r4, #8]
    de90:	e5941020 	ldr	r1, [r4, #32]
    de94:	e2822001 	add	r2, r2, #1
    de98:	e5842008 	str	r2, [r4, #8]
    de9c:	e2832001 	add	r2, r3, #1
    dea0:	e5842018 	str	r2, [r4, #24]
    dea4:	e7d13003 	ldrb	r3, [r1, r3]
    dea8:	e2533050 	subs	r3, r3, #80	; 0x50
    deac:	13a03001 	movne	r3, #1
    deb0:	e3530000 	cmp	r3, #0
    deb4:	1a000006 	bne	ded4 <parse.constprop.0+0xbb0>
    deb8:	e1a01006 	mov	r1, r6
    debc:	e3a00000 	mov	r0, #0
    dec0:	ebfff2ca 	bl	a9f0 <free_packet>
    dec4:	e3580002 	cmp	r8, #2
    dec8:	13580011 	cmpne	r8, #17
    decc:	0afffea7 	beq	d970 <parse.constprop.0+0x64c>
    ded0:	eaffff44 	b	dbe8 <parse.constprop.0+0x8c4>
    ded4:	e3a05002 	mov	r5, #2
    ded8:	e59f04e4 	ldr	r0, [pc, #1252]	; e3c4 <parse.constprop.0+0x10a0>
    dedc:	e08f0000 	add	r0, pc, r0
    dee0:	eb000454 	bl	f038 <tfp_printf>
    dee4:	e3a02000 	mov	r2, #0
    dee8:	e1a00004 	mov	r0, r4
    deec:	e1a01005 	mov	r1, r5
    def0:	ebfff06c 	bl	a0a8 <iobuf_skip_rest>
    def4:	e1a01006 	mov	r1, r6
    def8:	e3a00000 	mov	r0, #0
    defc:	ebfff2bb 	bl	a9f0 <free_packet>
    df00:	e59f04c0 	ldr	r0, [pc, #1216]	; e3c8 <parse.constprop.0+0x10a4>
    df04:	e1a01009 	mov	r1, r9
    df08:	e08f0000 	add	r0, pc, r0
    df0c:	eb000449 	bl	f038 <tfp_printf>
    df10:	e1a01009 	mov	r1, r9
    df14:	e28d002c 	add	r0, sp, #44	; 0x2c
    df18:	ebfff09c 	bl	a190 <log_hexdump>
    df1c:	e3a0000e 	mov	r0, #14
    df20:	eafffdbe 	b	d620 <parse.constprop.0+0x2fc>
    df24:	ebffeca7 	bl	91c8 <iobuf_readbyte>
    df28:	e3700001 	cmn	r0, #1
    df2c:	e6ef3070 	uxtb	r3, r0
    df30:	1afffeb0 	bne	d9f8 <parse.constprop.0+0x6d4>
    df34:	e59f1490 	ldr	r1, [pc, #1168]	; e3cc <parse.constprop.0+0x10a8>
    df38:	e59f0490 	ldr	r0, [pc, #1168]	; e3d0 <parse.constprop.0+0x10ac>
    df3c:	e08f1001 	add	r1, pc, r1
    df40:	e08f0000 	add	r0, pc, r0
    df44:	eb00043b 	bl	f038 <tfp_printf>
    df48:	e3a0000e 	mov	r0, #14
    df4c:	eafffdb3 	b	d620 <parse.constprop.0+0x2fc>
    df50:	e3550000 	cmp	r5, #0
    df54:	03580008 	cmpeq	r8, #8
    df58:	0a0000c0 	beq	e260 <parse.constprop.0+0xf3c>
    df5c:	e3550000 	cmp	r5, #0
    df60:	0afffe8c 	beq	d998 <parse.constprop.0+0x674>
    df64:	e28d7034 	add	r7, sp, #52	; 0x34
    df68:	ea000005 	b	df84 <parse.constprop.0+0xc60>
    df6c:	e59d00c4 	ldr	r0, [sp, #196]	; 0xc4
    df70:	ebffedcc 	bl	96a8 <iobuf_write>
    df74:	e3500000 	cmp	r0, #0
    df78:	1afffdd1 	bne	d6c4 <parse.constprop.0+0x3a0>
    df7c:	e0555006 	subs	r5, r5, r6
    df80:	0afffe84 	beq	d998 <parse.constprop.0+0x674>
    df84:	e3550064 	cmp	r5, #100	; 0x64
    df88:	e1a01007 	mov	r1, r7
    df8c:	31a02005 	movcc	r2, r5
    df90:	23a02064 	movcs	r2, #100	; 0x64
    df94:	e1a00004 	mov	r0, r4
    df98:	ebffed43 	bl	94ac <iobuf_read>
    df9c:	e3700001 	cmn	r0, #1
    dfa0:	e1a01007 	mov	r1, r7
    dfa4:	e1a06000 	mov	r6, r0
    dfa8:	e1a02000 	mov	r2, r0
    dfac:	1affffee 	bne	df6c <parse.constprop.0+0xc48>
    dfb0:	e3030fff 	movw	r0, #16383	; 0x3fff
    dfb4:	e3400200 	movt	r0, #512	; 0x200
    dfb8:	eafffdc3 	b	d6cc <parse.constprop.0+0x3a8>
    dfbc:	e59d700c 	ldr	r7, [sp, #12]
    dfc0:	e3a05000 	mov	r5, #0
    dfc4:	e5942010 	ldr	r2, [r4, #16]
    dfc8:	e157000a 	cmp	r7, sl
    dfcc:	da000007 	ble	dff0 <parse.constprop.0+0xccc>
    dfd0:	e28a3018 	add	r3, sl, #24
    dfd4:	e2871018 	add	r1, r7, #24
    dfd8:	e08b3003 	add	r3, fp, r3
    dfdc:	e3a00000 	mov	r0, #0
    dfe0:	e08b1001 	add	r1, fp, r1
    dfe4:	e4c30001 	strb	r0, [r3], #1
    dfe8:	e1510003 	cmp	r1, r3
    dfec:	1afffffc 	bne	dfe4 <parse.constprop.0+0xcc0>
    dff0:	e3520000 	cmp	r2, #0
    dff4:	1a00004f 	bne	e138 <parse.constprop.0+0xe14>
    dff8:	e5941018 	ldr	r1, [r4, #24]
    dffc:	e594301c 	ldr	r3, [r4, #28]
    e000:	e1510003 	cmp	r1, r3
    e004:	2a00004b 	bcs	e138 <parse.constprop.0+0xe14>
    e008:	e5942008 	ldr	r2, [r4, #8]
    e00c:	e5940020 	ldr	r0, [r4, #32]
    e010:	e2822001 	add	r2, r2, #1
    e014:	e5842008 	str	r2, [r4, #8]
    e018:	e2812001 	add	r2, r1, #1
    e01c:	e5842018 	str	r2, [r4, #24]
    e020:	e7d01001 	ldrb	r1, [r0, r1]
    e024:	e1a08c01 	lsl	r8, r1, #24
    e028:	e1530002 	cmp	r3, r2
    e02c:	9a000048 	bls	e154 <parse.constprop.0+0xe30>
    e030:	e5941008 	ldr	r1, [r4, #8]
    e034:	e5940020 	ldr	r0, [r4, #32]
    e038:	e2811001 	add	r1, r1, #1
    e03c:	e5841008 	str	r1, [r4, #8]
    e040:	e2821001 	add	r1, r2, #1
    e044:	e5841018 	str	r1, [r4, #24]
    e048:	e7d07002 	ldrb	r7, [r0, r2]
    e04c:	e1887807 	orr	r7, r8, r7, lsl #16
    e050:	e1530001 	cmp	r3, r1
    e054:	9a00002a 	bls	e104 <parse.constprop.0+0xde0>
    e058:	e5942008 	ldr	r2, [r4, #8]
    e05c:	e5940020 	ldr	r0, [r4, #32]
    e060:	e2822001 	add	r2, r2, #1
    e064:	e5842008 	str	r2, [r4, #8]
    e068:	e2812001 	add	r2, r1, #1
    e06c:	e5842018 	str	r2, [r4, #24]
