
build/kernel1.elf:     file format elf32-littlearm


Disassembly of section .text:

00008000 <__text_start>:
    8000:	e3a0d302 	mov	sp, #134217728	; 0x8000000
    8004:	eb003ed8 	bl	17b6c <main>
    8008:	eafffffe 	b	8008 <__text_start+0x8>

0000800c <init_heap>:
    800c:	e52db004 	push	{fp}		; (str fp, [sp, #-4]!)
    8010:	e28db000 	add	fp, sp, #0
    8014:	e59f30a0 	ldr	r3, [pc, #160]	; 80bc <init_heap+0xb0>
    8018:	e08f3003 	add	r3, pc, r3
    801c:	e59f209c 	ldr	r2, [pc, #156]	; 80c0 <init_heap+0xb4>
    8020:	e08f2002 	add	r2, pc, r2
    8024:	e5d22000 	ldrb	r2, [r2]
    8028:	e3520000 	cmp	r2, #0
    802c:	1a00001e 	bne	80ac <init_heap+0xa0>
    8030:	e59f208c 	ldr	r2, [pc, #140]	; 80c4 <init_heap+0xb8>
    8034:	e08f2002 	add	r2, pc, r2
    8038:	e5921000 	ldr	r1, [r2]
    803c:	e59f2084 	ldr	r2, [pc, #132]	; 80c8 <init_heap+0xbc>
    8040:	e08f2002 	add	r2, pc, r2
    8044:	e5821000 	str	r1, [r2]
    8048:	e59f207c 	ldr	r2, [pc, #124]	; 80cc <init_heap+0xc0>
    804c:	e7932002 	ldr	r2, [r3, r2]
    8050:	e1a01002 	mov	r1, r2
    8054:	e59f2074 	ldr	r2, [pc, #116]	; 80d0 <init_heap+0xc4>
    8058:	e7933002 	ldr	r3, [r3, r2]
    805c:	e0412003 	sub	r2, r1, r3
    8060:	e59f306c 	ldr	r3, [pc, #108]	; 80d4 <init_heap+0xc8>
    8064:	e08f3003 	add	r3, pc, r3
    8068:	e5933000 	ldr	r3, [r3]
    806c:	e5832000 	str	r2, [r3]
    8070:	e59f3060 	ldr	r3, [pc, #96]	; 80d8 <init_heap+0xcc>
    8074:	e08f3003 	add	r3, pc, r3
    8078:	e5933000 	ldr	r3, [r3]
    807c:	e3a02001 	mov	r2, #1
    8080:	e5c32004 	strb	r2, [r3, #4]
    8084:	e59f3050 	ldr	r3, [pc, #80]	; 80dc <init_heap+0xd0>
    8088:	e08f3003 	add	r3, pc, r3
    808c:	e5933000 	ldr	r3, [r3]
    8090:	e3a02000 	mov	r2, #0
    8094:	e5832008 	str	r2, [r3, #8]
    8098:	e59f3040 	ldr	r3, [pc, #64]	; 80e0 <init_heap+0xd4>
    809c:	e08f3003 	add	r3, pc, r3
    80a0:	e3a02001 	mov	r2, #1
    80a4:	e5c32000 	strb	r2, [r3]
    80a8:	ea000000 	b	80b0 <init_heap+0xa4>
    80ac:	e320f000 	nop	{0}
    80b0:	e28bd000 	add	sp, fp, #0
    80b4:	e49db004 	pop	{fp}		; (ldr fp, [sp], #4)
    80b8:	e12fff1e 	bx	lr
    80bc:	00015880 	.word	0x00015880
    80c0:	00040ffc 	.word	0x00040ffc
    80c4:	00015864 	.word	0x00015864
    80c8:	00040fc4 	.word	0x00040fc4
    80cc:	0002ab1c 	.word	0x0002ab1c
    80d0:	0002ab28 	.word	0x0002ab28
    80d4:	00040fa0 	.word	0x00040fa0
    80d8:	00040f90 	.word	0x00040f90
    80dc:	00040f7c 	.word	0x00040f7c
    80e0:	00040f80 	.word	0x00040f80

000080e4 <init_printf>:
    80e4:	e52db004 	push	{fp}		; (str fp, [sp, #-4]!)
    80e8:	e28db000 	add	fp, sp, #0
    80ec:	e24dd00c 	sub	sp, sp, #12
    80f0:	e50b0008 	str	r0, [fp, #-8]
    80f4:	e50b100c 	str	r1, [fp, #-12]
    80f8:	e59f3028 	ldr	r3, [pc, #40]	; 8128 <init_printf+0x44>
    80fc:	e08f3003 	add	r3, pc, r3
    8100:	e51b200c 	ldr	r2, [fp, #-12]
    8104:	e5832000 	str	r2, [r3]
    8108:	e59f301c 	ldr	r3, [pc, #28]	; 812c <init_printf+0x48>
    810c:	e08f3003 	add	r3, pc, r3
    8110:	e51b2008 	ldr	r2, [fp, #-8]
    8114:	e5832000 	str	r2, [r3]
    8118:	e320f000 	nop	{0}
    811c:	e28bd000 	add	sp, fp, #0
    8120:	e49db004 	pop	{fp}		; (ldr fp, [sp], #4)
    8124:	e12fff1e 	bx	lr
    8128:	00040f14 	.word	0x00040f14
    812c:	00040f08 	.word	0x00040f08

00008130 <gpg_error_from_syserror>:
    8130:	e52db004 	push	{fp}		; (str fp, [sp, #-4]!)
    8134:	e28db000 	add	fp, sp, #0
    8138:	e3e03000 	mvn	r3, #0
    813c:	e1a00003 	mov	r0, r3
    8140:	e28bd000 	add	sp, fp, #0
    8144:	e49db004 	pop	{fp}		; (ldr fp, [sp], #4)
    8148:	e12fff1e 	bx	lr

0000814c <fd_cache_strcmp>:
    814c:	e52db004 	push	{fp}		; (str fp, [sp, #-4]!)
    8150:	e28db000 	add	fp, sp, #0
    8154:	e24dd00c 	sub	sp, sp, #12
    8158:	e50b0008 	str	r0, [fp, #-8]
    815c:	e50b100c 	str	r1, [fp, #-12]
    8160:	ea00001b 	b	81d4 <fd_cache_strcmp+0x88>
    8164:	e51b3008 	ldr	r3, [fp, #-8]
    8168:	e5d32000 	ldrb	r2, [r3]
    816c:	e51b300c 	ldr	r3, [fp, #-12]
    8170:	e5d33000 	ldrb	r3, [r3]
    8174:	e1520003 	cmp	r2, r3
    8178:	0a00000f 	beq	81bc <fd_cache_strcmp+0x70>
    817c:	e51b3008 	ldr	r3, [fp, #-8]
    8180:	e5d33000 	ldrb	r3, [r3]
    8184:	e353002f 	cmp	r3, #47	; 0x2f
    8188:	1a000003 	bne	819c <fd_cache_strcmp+0x50>
    818c:	e51b300c 	ldr	r3, [fp, #-12]
    8190:	e5d33000 	ldrb	r3, [r3]
    8194:	e353005c 	cmp	r3, #92	; 0x5c
    8198:	0a000007 	beq	81bc <fd_cache_strcmp+0x70>
    819c:	e51b3008 	ldr	r3, [fp, #-8]
    81a0:	e5d33000 	ldrb	r3, [r3]
    81a4:	e353005c 	cmp	r3, #92	; 0x5c
    81a8:	1a000011 	bne	81f4 <fd_cache_strcmp+0xa8>
    81ac:	e51b300c 	ldr	r3, [fp, #-12]
    81b0:	e5d33000 	ldrb	r3, [r3]
    81b4:	e353002f 	cmp	r3, #47	; 0x2f
    81b8:	1a00000d 	bne	81f4 <fd_cache_strcmp+0xa8>
    81bc:	e51b3008 	ldr	r3, [fp, #-8]
    81c0:	e2833001 	add	r3, r3, #1
    81c4:	e50b3008 	str	r3, [fp, #-8]
    81c8:	e51b300c 	ldr	r3, [fp, #-12]
    81cc:	e2833001 	add	r3, r3, #1
    81d0:	e50b300c 	str	r3, [fp, #-12]
    81d4:	e51b3008 	ldr	r3, [fp, #-8]
    81d8:	e5d33000 	ldrb	r3, [r3]
    81dc:	e3530000 	cmp	r3, #0
    81e0:	0a000003 	beq	81f4 <fd_cache_strcmp+0xa8>
    81e4:	e51b300c 	ldr	r3, [fp, #-12]
    81e8:	e5d33000 	ldrb	r3, [r3]
    81ec:	e3530000 	cmp	r3, #0
    81f0:	1affffdb 	bne	8164 <fd_cache_strcmp+0x18>
    81f4:	e51b3008 	ldr	r3, [fp, #-8]
    81f8:	e5d33000 	ldrb	r3, [r3]
    81fc:	e1a02003 	mov	r2, r3
    8200:	e51b300c 	ldr	r3, [fp, #-12]
    8204:	e5d33000 	ldrb	r3, [r3]
    8208:	e0423003 	sub	r3, r2, r3
    820c:	e1a00003 	mov	r0, r3
    8210:	e28bd000 	add	sp, fp, #0
    8214:	e49db004 	pop	{fp}		; (ldr fp, [sp], #4)
    8218:	e12fff1e 	bx	lr

0000821c <fd_cache_invalidate>:
    821c:	e92d4810 	push	{r4, fp, lr}
    8220:	e28db008 	add	fp, sp, #8
    8224:	e24dd014 	sub	sp, sp, #20
    8228:	e50b0018 	str	r0, [fp, #-24]	; 0xffffffe8
    822c:	e59f40e0 	ldr	r4, [pc, #224]	; 8314 <fd_cache_invalidate+0xf8>
    8230:	e08f4004 	add	r4, pc, r4
    8234:	e3a03000 	mov	r3, #0
    8238:	e50b3014 	str	r3, [fp, #-20]	; 0xffffffec
    823c:	e51b0018 	ldr	r0, [fp, #-24]	; 0xffffffe8
    8240:	eb00324b 	bl	14b74 <tfp_printf>
    8244:	e59f30cc 	ldr	r3, [pc, #204]	; 8318 <fd_cache_invalidate+0xfc>
    8248:	e7943003 	ldr	r3, [r4, r3]
    824c:	e5933000 	ldr	r3, [r3]
    8250:	e3530000 	cmp	r3, #0
    8254:	0a000004 	beq	826c <fd_cache_invalidate+0x50>
    8258:	e51b1018 	ldr	r1, [fp, #-24]	; 0xffffffe8
    825c:	e59f30b8 	ldr	r3, [pc, #184]	; 831c <fd_cache_invalidate+0x100>
    8260:	e08f3003 	add	r3, pc, r3
    8264:	e1a00003 	mov	r0, r3
    8268:	eb003241 	bl	14b74 <tfp_printf>
    826c:	e59f30ac 	ldr	r3, [pc, #172]	; 8320 <fd_cache_invalidate+0x104>
    8270:	e08f3003 	add	r3, pc, r3
    8274:	e5933000 	ldr	r3, [r3]
    8278:	e50b3010 	str	r3, [fp, #-16]
    827c:	ea00001d 	b	82f8 <fd_cache_invalidate+0xdc>
    8280:	e51b3010 	ldr	r3, [fp, #-16]
    8284:	e5933004 	ldr	r3, [r3, #4]
    8288:	e3730001 	cmn	r3, #1
    828c:	0a000016 	beq	82ec <fd_cache_invalidate+0xd0>
    8290:	e51b3010 	ldr	r3, [fp, #-16]
    8294:	e2833008 	add	r3, r3, #8
    8298:	e51b1018 	ldr	r1, [fp, #-24]	; 0xffffffe8
    829c:	e1a00003 	mov	r0, r3
    82a0:	ebffffa9 	bl	814c <fd_cache_strcmp>
    82a4:	e1a03000 	mov	r3, r0
    82a8:	e3530000 	cmp	r3, #0
    82ac:	1a00000e 	bne	82ec <fd_cache_invalidate+0xd0>
    82b0:	e59f3060 	ldr	r3, [pc, #96]	; 8318 <fd_cache_invalidate+0xfc>
    82b4:	e7943003 	ldr	r3, [r4, r3]
    82b8:	e5933000 	ldr	r3, [r3]
    82bc:	e3530000 	cmp	r3, #0
    82c0:	0a000006 	beq	82e0 <fd_cache_invalidate+0xc4>
    82c4:	e51b3010 	ldr	r3, [fp, #-16]
    82c8:	e2833008 	add	r3, r3, #8
    82cc:	e1a01003 	mov	r1, r3
    82d0:	e59f304c 	ldr	r3, [pc, #76]	; 8324 <fd_cache_invalidate+0x108>
    82d4:	e08f3003 	add	r3, pc, r3
    82d8:	e1a00003 	mov	r0, r3
    82dc:	eb003224 	bl	14b74 <tfp_printf>
    82e0:	e51b3010 	ldr	r3, [fp, #-16]
    82e4:	e3e02000 	mvn	r2, #0
    82e8:	e5832004 	str	r2, [r3, #4]
    82ec:	e51b3010 	ldr	r3, [fp, #-16]
    82f0:	e5933000 	ldr	r3, [r3]
    82f4:	e50b3010 	str	r3, [fp, #-16]
    82f8:	e51b3010 	ldr	r3, [fp, #-16]
    82fc:	e3530000 	cmp	r3, #0
    8300:	1affffde 	bne	8280 <fd_cache_invalidate+0x64>
    8304:	e51b3014 	ldr	r3, [fp, #-20]	; 0xffffffec
    8308:	e1a00003 	mov	r0, r3
    830c:	e24bd008 	sub	sp, fp, #8
    8310:	e8bd8810 	pop	{r4, fp, pc}
    8314:	00015668 	.word	0x00015668
    8318:	0002ab08 	.word	0x0002ab08
    831c:	00010da4 	.word	0x00010da4
    8320:	00040d88 	.word	0x00040d88
    8324:	00010d4c 	.word	0x00010d4c

00008328 <fd_cache_synchronize>:
    8328:	e92d4810 	push	{r4, fp, lr}
    832c:	e28db008 	add	fp, sp, #8
    8330:	e24dd014 	sub	sp, sp, #20
    8334:	e50b0018 	str	r0, [fp, #-24]	; 0xffffffe8
    8338:	e59f40dc 	ldr	r4, [pc, #220]	; 841c <fd_cache_synchronize+0xf4>
    833c:	e08f4004 	add	r4, pc, r4
    8340:	e3a03000 	mov	r3, #0
    8344:	e50b3014 	str	r3, [fp, #-20]	; 0xffffffec
    8348:	e59f30d0 	ldr	r3, [pc, #208]	; 8420 <fd_cache_synchronize+0xf8>
    834c:	e7943003 	ldr	r3, [r4, r3]
    8350:	e5933000 	ldr	r3, [r3]
    8354:	e3530000 	cmp	r3, #0
    8358:	0a000004 	beq	8370 <fd_cache_synchronize+0x48>
    835c:	e51b1018 	ldr	r1, [fp, #-24]	; 0xffffffe8
    8360:	e59f30bc 	ldr	r3, [pc, #188]	; 8424 <fd_cache_synchronize+0xfc>
    8364:	e08f3003 	add	r3, pc, r3
    8368:	e1a00003 	mov	r0, r3
    836c:	eb003200 	bl	14b74 <tfp_printf>
    8370:	e59f30b0 	ldr	r3, [pc, #176]	; 8428 <fd_cache_synchronize+0x100>
    8374:	e08f3003 	add	r3, pc, r3
    8378:	e5933000 	ldr	r3, [r3]
    837c:	e50b3010 	str	r3, [fp, #-16]
    8380:	ea00001e 	b	8400 <fd_cache_synchronize+0xd8>
    8384:	e51b3010 	ldr	r3, [fp, #-16]
    8388:	e5933004 	ldr	r3, [r3, #4]
    838c:	e3730001 	cmn	r3, #1
    8390:	0a000017 	beq	83f4 <fd_cache_synchronize+0xcc>
    8394:	e51b3010 	ldr	r3, [fp, #-16]
    8398:	e2833008 	add	r3, r3, #8
    839c:	e51b1018 	ldr	r1, [fp, #-24]	; 0xffffffe8
    83a0:	e1a00003 	mov	r0, r3
    83a4:	ebffff68 	bl	814c <fd_cache_strcmp>
    83a8:	e1a03000 	mov	r3, r0
    83ac:	e3530000 	cmp	r3, #0
    83b0:	1a00000f 	bne	83f4 <fd_cache_synchronize+0xcc>
    83b4:	e59f3064 	ldr	r3, [pc, #100]	; 8420 <fd_cache_synchronize+0xf8>
    83b8:	e7943003 	ldr	r3, [r4, r3]
    83bc:	e5933000 	ldr	r3, [r3]
    83c0:	e3530000 	cmp	r3, #0
    83c4:	0a000006 	beq	83e4 <fd_cache_synchronize+0xbc>
    83c8:	e51b3010 	ldr	r3, [fp, #-16]
    83cc:	e2833008 	add	r3, r3, #8
    83d0:	e1a01003 	mov	r1, r3
    83d4:	e59f3050 	ldr	r3, [pc, #80]	; 842c <fd_cache_synchronize+0x104>
    83d8:	e08f3003 	add	r3, pc, r3
    83dc:	e1a00003 	mov	r0, r3
    83e0:	eb0031e3 	bl	14b74 <tfp_printf>
    83e4:	e59f3044 	ldr	r3, [pc, #68]	; 8430 <fd_cache_synchronize+0x108>
    83e8:	e08f3003 	add	r3, pc, r3
    83ec:	e1a00003 	mov	r0, r3
    83f0:	eb0031df 	bl	14b74 <tfp_printf>
    83f4:	e51b3010 	ldr	r3, [fp, #-16]
    83f8:	e5933000 	ldr	r3, [r3]
    83fc:	e50b3010 	str	r3, [fp, #-16]
    8400:	e51b3010 	ldr	r3, [fp, #-16]
    8404:	e3530000 	cmp	r3, #0
    8408:	1affffdd 	bne	8384 <fd_cache_synchronize+0x5c>
    840c:	e51b3014 	ldr	r3, [fp, #-20]	; 0xffffffec
    8410:	e1a00003 	mov	r0, r3
    8414:	e24bd008 	sub	sp, fp, #8
    8418:	e8bd8810 	pop	{r4, fp, pc}
    841c:	0001555c 	.word	0x0001555c
    8420:	0002ab08 	.word	0x0002ab08
    8424:	00010cd8 	.word	0x00010cd8
    8428:	00040c84 	.word	0x00040c84
    842c:	00010c80 	.word	0x00010c80
    8430:	00010c8c 	.word	0x00010c8c

00008434 <direct_open>:
    8434:	e92d4800 	push	{fp, lr}
    8438:	e28db004 	add	fp, sp, #4
    843c:	e24dd018 	sub	sp, sp, #24
    8440:	e50b0010 	str	r0, [fp, #-16]
    8444:	e50b1014 	str	r1, [fp, #-20]	; 0xffffffec
    8448:	e50b2018 	str	r2, [fp, #-24]	; 0xffffffe8
    844c:	e3a03d06 	mov	r3, #384	; 0x180
    8450:	e50b300c 	str	r3, [fp, #-12]
    8454:	e51b3018 	ldr	r3, [fp, #-24]	; 0xffffffe8
    8458:	e3530000 	cmp	r3, #0
    845c:	1a000002 	bne	846c <direct_open+0x38>
    8460:	e51b300c 	ldr	r3, [fp, #-12]
    8464:	e3833036 	orr	r3, r3, #54	; 0x36
    8468:	e50b300c 	str	r3, [fp, #-12]
    846c:	e3a0102b 	mov	r1, #43	; 0x2b
    8470:	e51b0014 	ldr	r0, [fp, #-20]	; 0xffffffec
    8474:	eb0023e0 	bl	113fc <strchr>
    8478:	e1a03000 	mov	r3, r0
    847c:	e3530000 	cmp	r3, #0
    8480:	0a000009 	beq	84ac <direct_open+0x78>
    8484:	e51b0010 	ldr	r0, [fp, #-16]
    8488:	ebffff63 	bl	821c <fd_cache_invalidate>
    848c:	e1a03000 	mov	r3, r0
    8490:	e3530000 	cmp	r3, #0
    8494:	0a000001 	beq	84a0 <direct_open+0x6c>
    8498:	e3e03000 	mvn	r3, #0
    849c:	ea000022 	b	852c <direct_open+0xf8>
    84a0:	e3a03002 	mov	r3, #2
    84a4:	e50b3008 	str	r3, [fp, #-8]
    84a8:	ea000011 	b	84f4 <direct_open+0xc0>
    84ac:	e3a01077 	mov	r1, #119	; 0x77
    84b0:	e51b0014 	ldr	r0, [fp, #-20]	; 0xffffffec
    84b4:	eb0023d0 	bl	113fc <strchr>
    84b8:	e1a03000 	mov	r3, r0
    84bc:	e3530000 	cmp	r3, #0
    84c0:	0a000009 	beq	84ec <direct_open+0xb8>
    84c4:	e51b0010 	ldr	r0, [fp, #-16]
    84c8:	ebffff53 	bl	821c <fd_cache_invalidate>
    84cc:	e1a03000 	mov	r3, r0
    84d0:	e3530000 	cmp	r3, #0
    84d4:	0a000001 	beq	84e0 <direct_open+0xac>
    84d8:	e3e03000 	mvn	r3, #0
    84dc:	ea000012 	b	852c <direct_open+0xf8>
    84e0:	e3003601 	movw	r3, #1537	; 0x601
    84e4:	e50b3008 	str	r3, [fp, #-8]
    84e8:	ea000001 	b	84f4 <direct_open+0xc0>
    84ec:	e3a03000 	mov	r3, #0
    84f0:	e50b3008 	str	r3, [fp, #-8]
    84f4:	e3a01062 	mov	r1, #98	; 0x62
    84f8:	e51b0014 	ldr	r0, [fp, #-20]	; 0xffffffec
    84fc:	eb0023be 	bl	113fc <strchr>
    8500:	e1a03000 	mov	r3, r0
    8504:	e3530000 	cmp	r3, #0
    8508:	0a000002 	beq	8518 <direct_open+0xe4>
    850c:	e51b3008 	ldr	r3, [fp, #-8]
    8510:	e3833801 	orr	r3, r3, #65536	; 0x10000
    8514:	e50b3008 	str	r3, [fp, #-8]
    8518:	e51b200c 	ldr	r2, [fp, #-12]
    851c:	e51b1008 	ldr	r1, [fp, #-8]
    8520:	e51b0010 	ldr	r0, [fp, #-16]
    8524:	eb002393 	bl	11378 <open>
    8528:	e1a03000 	mov	r3, r0
    852c:	e1a00003 	mov	r0, r3
    8530:	e24bd004 	sub	sp, fp, #4
    8534:	e8bd8800 	pop	{fp, pc}

00008538 <fd_cache_open>:
    8538:	e92d4810 	push	{r4, fp, lr}
    853c:	e28db008 	add	fp, sp, #8
    8540:	e24dd014 	sub	sp, sp, #20
    8544:	e50b0018 	str	r0, [fp, #-24]	; 0xffffffe8
    8548:	e50b101c 	str	r1, [fp, #-28]	; 0xffffffe4
    854c:	e59f40e8 	ldr	r4, [pc, #232]	; 863c <fd_cache_open+0x104>
    8550:	e08f4004 	add	r4, pc, r4
    8554:	e59f30e4 	ldr	r3, [pc, #228]	; 8640 <fd_cache_open+0x108>
    8558:	e08f3003 	add	r3, pc, r3
    855c:	e5933000 	ldr	r3, [r3]
    8560:	e50b3010 	str	r3, [fp, #-16]
    8564:	ea000024 	b	85fc <fd_cache_open+0xc4>
    8568:	e51b3010 	ldr	r3, [fp, #-16]
    856c:	e5933004 	ldr	r3, [r3, #4]
    8570:	e3730001 	cmn	r3, #1
    8574:	0a00001d 	beq	85f0 <fd_cache_open+0xb8>
    8578:	e51b3010 	ldr	r3, [fp, #-16]
    857c:	e2833008 	add	r3, r3, #8
    8580:	e51b1018 	ldr	r1, [fp, #-24]	; 0xffffffe8
    8584:	e1a00003 	mov	r0, r3
    8588:	ebfffeef 	bl	814c <fd_cache_strcmp>
    858c:	e1a03000 	mov	r3, r0
    8590:	e3530000 	cmp	r3, #0
    8594:	1a000015 	bne	85f0 <fd_cache_open+0xb8>
    8598:	e51b3010 	ldr	r3, [fp, #-16]
    859c:	e5933004 	ldr	r3, [r3, #4]
    85a0:	e50b3014 	str	r3, [fp, #-20]	; 0xffffffec
    85a4:	e51b3010 	ldr	r3, [fp, #-16]
    85a8:	e3e02000 	mvn	r2, #0
    85ac:	e5832004 	str	r2, [r3, #4]
    85b0:	e59f308c 	ldr	r3, [pc, #140]	; 8644 <fd_cache_open+0x10c>
    85b4:	e7943003 	ldr	r3, [r4, r3]
    85b8:	e5933000 	ldr	r3, [r3]
    85bc:	e3530000 	cmp	r3, #0
    85c0:	0a000004 	beq	85d8 <fd_cache_open+0xa0>
    85c4:	e51b1018 	ldr	r1, [fp, #-24]	; 0xffffffe8
    85c8:	e59f3078 	ldr	r3, [pc, #120]	; 8648 <fd_cache_open+0x110>
    85cc:	e08f3003 	add	r3, pc, r3
    85d0:	e1a00003 	mov	r0, r3
    85d4:	eb003166 	bl	14b74 <tfp_printf>
    85d8:	e59f306c 	ldr	r3, [pc, #108]	; 864c <fd_cache_open+0x114>
    85dc:	e08f3003 	add	r3, pc, r3
    85e0:	e1a00003 	mov	r0, r3
    85e4:	eb003162 	bl	14b74 <tfp_printf>
    85e8:	e51b3014 	ldr	r3, [fp, #-20]	; 0xffffffec
    85ec:	ea00000f 	b	8630 <fd_cache_open+0xf8>
    85f0:	e51b3010 	ldr	r3, [fp, #-16]
    85f4:	e5933000 	ldr	r3, [r3]
    85f8:	e50b3010 	str	r3, [fp, #-16]
    85fc:	e51b3010 	ldr	r3, [fp, #-16]
    8600:	e3530000 	cmp	r3, #0
    8604:	1affffd7 	bne	8568 <fd_cache_open+0x30>
    8608:	e51b1018 	ldr	r1, [fp, #-24]	; 0xffffffe8
    860c:	e59f303c 	ldr	r3, [pc, #60]	; 8650 <fd_cache_open+0x118>
    8610:	e08f3003 	add	r3, pc, r3
    8614:	e1a00003 	mov	r0, r3
    8618:	eb003155 	bl	14b74 <tfp_printf>
    861c:	e3a02000 	mov	r2, #0
    8620:	e51b101c 	ldr	r1, [fp, #-28]	; 0xffffffe4
    8624:	e51b0018 	ldr	r0, [fp, #-24]	; 0xffffffe8
    8628:	ebffff81 	bl	8434 <direct_open>
    862c:	e1a03000 	mov	r3, r0
    8630:	e1a00003 	mov	r0, r3
    8634:	e24bd008 	sub	sp, fp, #8
    8638:	e8bd8810 	pop	{r4, fp, pc}
    863c:	00015348 	.word	0x00015348
    8640:	00040aa0 	.word	0x00040aa0
    8644:	0002ab08 	.word	0x0002ab08
    8648:	00010ab8 	.word	0x00010ab8
    864c:	00010a98 	.word	0x00010a98
    8650:	00010a98 	.word	0x00010a98

00008654 <block_filter>:
    8654:	e92d4800 	push	{fp, lr}
    8658:	e28db004 	add	fp, sp, #4
    865c:	e24dd040 	sub	sp, sp, #64	; 0x40
    8660:	e50b0038 	str	r0, [fp, #-56]	; 0xffffffc8
    8664:	e50b103c 	str	r1, [fp, #-60]	; 0xffffffc4
    8668:	e50b2040 	str	r2, [fp, #-64]	; 0xffffffc0
    866c:	e50b3044 	str	r3, [fp, #-68]	; 0xffffffbc
    8670:	e51b3038 	ldr	r3, [fp, #-56]	; 0xffffffc8
    8674:	e50b3028 	str	r3, [fp, #-40]	; 0xffffffd8
    8678:	e51b3044 	ldr	r3, [fp, #-68]	; 0xffffffbc
    867c:	e50b302c 	str	r3, [fp, #-44]	; 0xffffffd4
    8680:	e59b3004 	ldr	r3, [fp, #4]
    8684:	e5933000 	ldr	r3, [r3]
    8688:	e50b3008 	str	r3, [fp, #-8]
    868c:	e3a03000 	mov	r3, #0
    8690:	e50b3010 	str	r3, [fp, #-16]
    8694:	e51b303c 	ldr	r3, [fp, #-60]	; 0xffffffc4
    8698:	e3530003 	cmp	r3, #3
    869c:	1a0001aa 	bne	8d4c <block_filter+0x6f8>
    86a0:	e3a03000 	mov	r3, #0
    86a4:	e50b3018 	str	r3, [fp, #-24]	; 0xffffffe8
    86a8:	e51b302c 	ldr	r3, [fp, #-44]	; 0xffffffd4
    86ac:	e50b3014 	str	r3, [fp, #-20]	; 0xffffffec
    86b0:	e51b3008 	ldr	r3, [fp, #-8]
    86b4:	e1a00003 	mov	r0, r3
    86b8:	eb00312d 	bl	14b74 <tfp_printf>
    86bc:	e51b3028 	ldr	r3, [fp, #-40]	; 0xffffffd8
    86c0:	e593301c 	ldr	r3, [r3, #28]
    86c4:	e3530000 	cmp	r3, #0
    86c8:	0a00018d 	beq	8d04 <block_filter+0x6b0>
    86cc:	e3e03000 	mvn	r3, #0
    86d0:	e50b3010 	str	r3, [fp, #-16]
    86d4:	ea00018a 	b	8d04 <block_filter+0x6b0>
    86d8:	e51b3028 	ldr	r3, [fp, #-40]	; 0xffffffd8
    86dc:	e5933004 	ldr	r3, [r3, #4]
    86e0:	e3530000 	cmp	r3, #0
    86e4:	1a00017c 	bne	8cdc <block_filter+0x688>
    86e8:	e51b3028 	ldr	r3, [fp, #-40]	; 0xffffffd8
    86ec:	e593300c 	ldr	r3, [r3, #12]
    86f0:	e3530002 	cmp	r3, #2
    86f4:	1a000008 	bne	871c <block_filter+0xc8>
    86f8:	e51b3028 	ldr	r3, [fp, #-40]	; 0xffffffd8
    86fc:	e3a02001 	mov	r2, #1
    8700:	e583201c 	str	r2, [r3, #28]
    8704:	e51b3018 	ldr	r3, [fp, #-24]	; 0xffffffe8
    8708:	e3530000 	cmp	r3, #0
    870c:	1a000183 	bne	8d20 <block_filter+0x6cc>
    8710:	e3e03000 	mvn	r3, #0
    8714:	e50b3010 	str	r3, [fp, #-16]
    8718:	ea000180 	b	8d20 <block_filter+0x6cc>
    871c:	e51b3028 	ldr	r3, [fp, #-40]	; 0xffffffd8
    8720:	e593300c 	ldr	r3, [r3, #12]
    8724:	e3530000 	cmp	r3, #0
    8728:	0a00016b 	beq	8cdc <block_filter+0x688>
    872c:	e51b3028 	ldr	r3, [fp, #-40]	; 0xffffffd8
    8730:	e5933018 	ldr	r3, [r3, #24]
    8734:	e3530000 	cmp	r3, #0
    8738:	0a000006 	beq	8758 <block_filter+0x104>
    873c:	e51b3028 	ldr	r3, [fp, #-40]	; 0xffffffd8
    8740:	e5933018 	ldr	r3, [r3, #24]
    8744:	e50b300c 	str	r3, [fp, #-12]
    8748:	e51b3028 	ldr	r3, [fp, #-40]	; 0xffffffd8
    874c:	e3a02000 	mov	r2, #0
    8750:	e5832018 	str	r2, [r3, #24]
    8754:	ea000022 	b	87e4 <block_filter+0x190>
    8758:	e51b3040 	ldr	r3, [fp, #-64]	; 0xffffffc0
    875c:	e5933010 	ldr	r3, [r3, #16]
    8760:	e3530000 	cmp	r3, #0
    8764:	1a000005 	bne	8780 <block_filter+0x12c>
    8768:	e51b3040 	ldr	r3, [fp, #-64]	; 0xffffffc0
    876c:	e5932018 	ldr	r2, [r3, #24]
    8770:	e51b3040 	ldr	r3, [fp, #-64]	; 0xffffffc0
    8774:	e593301c 	ldr	r3, [r3, #28]
    8778:	e1520003 	cmp	r2, r3
    877c:	3a000003 	bcc	8790 <block_filter+0x13c>
    8780:	e51b0040 	ldr	r0, [fp, #-64]	; 0xffffffc0
    8784:	eb000867 	bl	a928 <iobuf_readbyte>
    8788:	e1a03000 	mov	r3, r0
    878c:	ea00000d 	b	87c8 <block_filter+0x174>
    8790:	e51b3040 	ldr	r3, [fp, #-64]	; 0xffffffc0
    8794:	e5933008 	ldr	r3, [r3, #8]
    8798:	e2832001 	add	r2, r3, #1
    879c:	e51b3040 	ldr	r3, [fp, #-64]	; 0xffffffc0
    87a0:	e5832008 	str	r2, [r3, #8]
    87a4:	e51b3040 	ldr	r3, [fp, #-64]	; 0xffffffc0
    87a8:	e5932020 	ldr	r2, [r3, #32]
    87ac:	e51b3040 	ldr	r3, [fp, #-64]	; 0xffffffc0
    87b0:	e5933018 	ldr	r3, [r3, #24]
    87b4:	e2830001 	add	r0, r3, #1
    87b8:	e51b1040 	ldr	r1, [fp, #-64]	; 0xffffffc0
    87bc:	e5810018 	str	r0, [r1, #24]
    87c0:	e0823003 	add	r3, r2, r3
    87c4:	e5d33000 	ldrb	r3, [r3]
    87c8:	e50b300c 	str	r3, [fp, #-12]
    87cc:	e51b300c 	ldr	r3, [fp, #-12]
    87d0:	e3730001 	cmn	r3, #1
    87d4:	1a000002 	bne	87e4 <block_filter+0x190>
    87d8:	e3a03059 	mov	r3, #89	; 0x59
    87dc:	e50b3010 	str	r3, [fp, #-16]
    87e0:	ea000155 	b	8d3c <block_filter+0x6e8>
    87e4:	e51b300c 	ldr	r3, [fp, #-12]
    87e8:	e35300bf 	cmp	r3, #191	; 0xbf
    87ec:	ca000012 	bgt	883c <block_filter+0x1e8>
    87f0:	e51b200c 	ldr	r2, [fp, #-12]
    87f4:	e51b3028 	ldr	r3, [fp, #-40]	; 0xffffffd8
    87f8:	e5832004 	str	r2, [r3, #4]
    87fc:	e51b3028 	ldr	r3, [fp, #-40]	; 0xffffffd8
    8800:	e3a02002 	mov	r2, #2
    8804:	e583200c 	str	r2, [r3, #12]
    8808:	e51b3028 	ldr	r3, [fp, #-40]	; 0xffffffd8
    880c:	e5933004 	ldr	r3, [r3, #4]
    8810:	e3530000 	cmp	r3, #0
    8814:	1a000130 	bne	8cdc <block_filter+0x688>
    8818:	e51b3028 	ldr	r3, [fp, #-40]	; 0xffffffd8
    881c:	e3a02001 	mov	r2, #1
    8820:	e583201c 	str	r2, [r3, #28]
    8824:	e51b3018 	ldr	r3, [fp, #-24]	; 0xffffffe8
    8828:	e3530000 	cmp	r3, #0
    882c:	1a00013d 	bne	8d28 <block_filter+0x6d4>
    8830:	e3e03000 	mvn	r3, #0
    8834:	e50b3010 	str	r3, [fp, #-16]
    8838:	ea00013a 	b	8d28 <block_filter+0x6d4>
    883c:	e51b300c 	ldr	r3, [fp, #-12]
    8840:	e35300df 	cmp	r3, #223	; 0xdf
    8844:	ca00003f 	bgt	8948 <block_filter+0x2f4>
    8848:	e51b300c 	ldr	r3, [fp, #-12]
    884c:	e24330c0 	sub	r3, r3, #192	; 0xc0
    8850:	e1a03403 	lsl	r3, r3, #8
    8854:	e1a02003 	mov	r2, r3
    8858:	e51b3028 	ldr	r3, [fp, #-40]	; 0xffffffd8
    885c:	e5832004 	str	r2, [r3, #4]
    8860:	e51b3040 	ldr	r3, [fp, #-64]	; 0xffffffc0
    8864:	e5933010 	ldr	r3, [r3, #16]
    8868:	e3530000 	cmp	r3, #0
    886c:	1a000005 	bne	8888 <block_filter+0x234>
    8870:	e51b3040 	ldr	r3, [fp, #-64]	; 0xffffffc0
    8874:	e5932018 	ldr	r2, [r3, #24]
    8878:	e51b3040 	ldr	r3, [fp, #-64]	; 0xffffffc0
    887c:	e593301c 	ldr	r3, [r3, #28]
    8880:	e1520003 	cmp	r2, r3
    8884:	3a000003 	bcc	8898 <block_filter+0x244>
    8888:	e51b0040 	ldr	r0, [fp, #-64]	; 0xffffffc0
    888c:	eb000825 	bl	a928 <iobuf_readbyte>
    8890:	e1a03000 	mov	r3, r0
    8894:	ea00000d 	b	88d0 <block_filter+0x27c>
    8898:	e51b3040 	ldr	r3, [fp, #-64]	; 0xffffffc0
    889c:	e5933008 	ldr	r3, [r3, #8]
    88a0:	e2832001 	add	r2, r3, #1
    88a4:	e51b3040 	ldr	r3, [fp, #-64]	; 0xffffffc0
    88a8:	e5832008 	str	r2, [r3, #8]
    88ac:	e51b3040 	ldr	r3, [fp, #-64]	; 0xffffffc0
    88b0:	e5932020 	ldr	r2, [r3, #32]
    88b4:	e51b3040 	ldr	r3, [fp, #-64]	; 0xffffffc0
    88b8:	e5933018 	ldr	r3, [r3, #24]
    88bc:	e2830001 	add	r0, r3, #1
    88c0:	e51b1040 	ldr	r1, [fp, #-64]	; 0xffffffc0
    88c4:	e5810018 	str	r0, [r1, #24]
    88c8:	e0823003 	add	r3, r2, r3
    88cc:	e5d33000 	ldrb	r3, [r3]
    88d0:	e50b300c 	str	r3, [fp, #-12]
    88d4:	e51b300c 	ldr	r3, [fp, #-12]
    88d8:	e3730001 	cmn	r3, #1
    88dc:	1a000002 	bne	88ec <block_filter+0x298>
    88e0:	e3a03059 	mov	r3, #89	; 0x59
    88e4:	e50b3010 	str	r3, [fp, #-16]
    88e8:	ea000113 	b	8d3c <block_filter+0x6e8>
    88ec:	e51b3028 	ldr	r3, [fp, #-40]	; 0xffffffd8
    88f0:	e5932004 	ldr	r2, [r3, #4]
    88f4:	e51b300c 	ldr	r3, [fp, #-12]
    88f8:	e0823003 	add	r3, r2, r3
    88fc:	e28320c0 	add	r2, r3, #192	; 0xc0
    8900:	e51b3028 	ldr	r3, [fp, #-40]	; 0xffffffd8
    8904:	e5832004 	str	r2, [r3, #4]
    8908:	e51b3028 	ldr	r3, [fp, #-40]	; 0xffffffd8
    890c:	e3a02002 	mov	r2, #2
    8910:	e583200c 	str	r2, [r3, #12]
    8914:	e51b3028 	ldr	r3, [fp, #-40]	; 0xffffffd8
    8918:	e5933004 	ldr	r3, [r3, #4]
    891c:	e3530000 	cmp	r3, #0
    8920:	1a0000ed 	bne	8cdc <block_filter+0x688>
    8924:	e51b3028 	ldr	r3, [fp, #-40]	; 0xffffffd8
    8928:	e3a02001 	mov	r2, #1
    892c:	e583201c 	str	r2, [r3, #28]
    8930:	e51b3018 	ldr	r3, [fp, #-24]	; 0xffffffe8
    8934:	e3530000 	cmp	r3, #0
    8938:	1a0000fc 	bne	8d30 <block_filter+0x6dc>
    893c:	e3e03000 	mvn	r3, #0
    8940:	e50b3010 	str	r3, [fp, #-16]
    8944:	ea0000f9 	b	8d30 <block_filter+0x6dc>
    8948:	e51b300c 	ldr	r3, [fp, #-12]
    894c:	e35300ff 	cmp	r3, #255	; 0xff
    8950:	1a0000a2 	bne	8be0 <block_filter+0x58c>
    8954:	e51b3040 	ldr	r3, [fp, #-64]	; 0xffffffc0
    8958:	e5933010 	ldr	r3, [r3, #16]
    895c:	e3530000 	cmp	r3, #0
    8960:	1a000005 	bne	897c <block_filter+0x328>
    8964:	e51b3040 	ldr	r3, [fp, #-64]	; 0xffffffc0
    8968:	e5932018 	ldr	r2, [r3, #24]
    896c:	e51b3040 	ldr	r3, [fp, #-64]	; 0xffffffc0
    8970:	e593301c 	ldr	r3, [r3, #28]
    8974:	e1520003 	cmp	r2, r3
    8978:	3a000005 	bcc	8994 <block_filter+0x340>
    897c:	e51b0040 	ldr	r0, [fp, #-64]	; 0xffffffc0
    8980:	eb0007e8 	bl	a928 <iobuf_readbyte>
    8984:	e1a03000 	mov	r3, r0
    8988:	e1a03c03 	lsl	r3, r3, #24
    898c:	e1a02003 	mov	r2, r3
    8990:	ea00000f 	b	89d4 <block_filter+0x380>
    8994:	e51b3040 	ldr	r3, [fp, #-64]	; 0xffffffc0
    8998:	e5933008 	ldr	r3, [r3, #8]
    899c:	e2832001 	add	r2, r3, #1
    89a0:	e51b3040 	ldr	r3, [fp, #-64]	; 0xffffffc0
    89a4:	e5832008 	str	r2, [r3, #8]
    89a8:	e51b3040 	ldr	r3, [fp, #-64]	; 0xffffffc0
    89ac:	e5932020 	ldr	r2, [r3, #32]
    89b0:	e51b3040 	ldr	r3, [fp, #-64]	; 0xffffffc0
    89b4:	e5933018 	ldr	r3, [r3, #24]
    89b8:	e2830001 	add	r0, r3, #1
    89bc:	e51b1040 	ldr	r1, [fp, #-64]	; 0xffffffc0
    89c0:	e5810018 	str	r0, [r1, #24]
    89c4:	e0823003 	add	r3, r2, r3
    89c8:	e5d33000 	ldrb	r3, [r3]
    89cc:	e1a03c03 	lsl	r3, r3, #24
    89d0:	e1a02003 	mov	r2, r3
    89d4:	e51b3028 	ldr	r3, [fp, #-40]	; 0xffffffd8
    89d8:	e5832004 	str	r2, [r3, #4]
    89dc:	e51b3040 	ldr	r3, [fp, #-64]	; 0xffffffc0
    89e0:	e5933010 	ldr	r3, [r3, #16]
    89e4:	e3530000 	cmp	r3, #0
    89e8:	1a000005 	bne	8a04 <block_filter+0x3b0>
    89ec:	e51b3040 	ldr	r3, [fp, #-64]	; 0xffffffc0
    89f0:	e5932018 	ldr	r2, [r3, #24]
    89f4:	e51b3040 	ldr	r3, [fp, #-64]	; 0xffffffc0
    89f8:	e593301c 	ldr	r3, [r3, #28]
    89fc:	e1520003 	cmp	r2, r3
    8a00:	3a000005 	bcc	8a1c <block_filter+0x3c8>
    8a04:	e51b0040 	ldr	r0, [fp, #-64]	; 0xffffffc0
    8a08:	eb0007c6 	bl	a928 <iobuf_readbyte>
    8a0c:	e1a03000 	mov	r3, r0
    8a10:	e1a03803 	lsl	r3, r3, #16
    8a14:	e20338ff 	and	r3, r3, #16711680	; 0xff0000
    8a18:	ea00000e 	b	8a58 <block_filter+0x404>
    8a1c:	e51b3040 	ldr	r3, [fp, #-64]	; 0xffffffc0
    8a20:	e5933008 	ldr	r3, [r3, #8]
    8a24:	e2832001 	add	r2, r3, #1
    8a28:	e51b3040 	ldr	r3, [fp, #-64]	; 0xffffffc0
    8a2c:	e5832008 	str	r2, [r3, #8]
    8a30:	e51b3040 	ldr	r3, [fp, #-64]	; 0xffffffc0
    8a34:	e5932020 	ldr	r2, [r3, #32]
    8a38:	e51b3040 	ldr	r3, [fp, #-64]	; 0xffffffc0
    8a3c:	e5933018 	ldr	r3, [r3, #24]
    8a40:	e2830001 	add	r0, r3, #1
    8a44:	e51b1040 	ldr	r1, [fp, #-64]	; 0xffffffc0
    8a48:	e5810018 	str	r0, [r1, #24]
    8a4c:	e0823003 	add	r3, r2, r3
    8a50:	e5d33000 	ldrb	r3, [r3]
    8a54:	e1a03803 	lsl	r3, r3, #16
    8a58:	e51b2028 	ldr	r2, [fp, #-40]	; 0xffffffd8
    8a5c:	e5922004 	ldr	r2, [r2, #4]
    8a60:	e1822003 	orr	r2, r2, r3
    8a64:	e51b3028 	ldr	r3, [fp, #-40]	; 0xffffffd8
    8a68:	e5832004 	str	r2, [r3, #4]
    8a6c:	e51b3040 	ldr	r3, [fp, #-64]	; 0xffffffc0
    8a70:	e5933010 	ldr	r3, [r3, #16]
    8a74:	e3530000 	cmp	r3, #0
    8a78:	1a000005 	bne	8a94 <block_filter+0x440>
    8a7c:	e51b3040 	ldr	r3, [fp, #-64]	; 0xffffffc0
    8a80:	e5932018 	ldr	r2, [r3, #24]
    8a84:	e51b3040 	ldr	r3, [fp, #-64]	; 0xffffffc0
    8a88:	e593301c 	ldr	r3, [r3, #28]
    8a8c:	e1520003 	cmp	r2, r3
    8a90:	3a000005 	bcc	8aac <block_filter+0x458>
    8a94:	e51b0040 	ldr	r0, [fp, #-64]	; 0xffffffc0
    8a98:	eb0007a2 	bl	a928 <iobuf_readbyte>
    8a9c:	e1a03000 	mov	r3, r0
    8aa0:	e1a03403 	lsl	r3, r3, #8
    8aa4:	e2033cff 	and	r3, r3, #65280	; 0xff00
    8aa8:	ea00000e 	b	8ae8 <block_filter+0x494>
    8aac:	e51b3040 	ldr	r3, [fp, #-64]	; 0xffffffc0
    8ab0:	e5933008 	ldr	r3, [r3, #8]
    8ab4:	e2832001 	add	r2, r3, #1
    8ab8:	e51b3040 	ldr	r3, [fp, #-64]	; 0xffffffc0
    8abc:	e5832008 	str	r2, [r3, #8]
    8ac0:	e51b3040 	ldr	r3, [fp, #-64]	; 0xffffffc0
    8ac4:	e5932020 	ldr	r2, [r3, #32]
    8ac8:	e51b3040 	ldr	r3, [fp, #-64]	; 0xffffffc0
    8acc:	e5933018 	ldr	r3, [r3, #24]
    8ad0:	e2830001 	add	r0, r3, #1
    8ad4:	e51b1040 	ldr	r1, [fp, #-64]	; 0xffffffc0
    8ad8:	e5810018 	str	r0, [r1, #24]
    8adc:	e0823003 	add	r3, r2, r3
    8ae0:	e5d33000 	ldrb	r3, [r3]
    8ae4:	e1a03403 	lsl	r3, r3, #8
    8ae8:	e51b2028 	ldr	r2, [fp, #-40]	; 0xffffffd8
    8aec:	e5922004 	ldr	r2, [r2, #4]
    8af0:	e1822003 	orr	r2, r2, r3
    8af4:	e51b3028 	ldr	r3, [fp, #-40]	; 0xffffffd8
    8af8:	e5832004 	str	r2, [r3, #4]
    8afc:	e51b3040 	ldr	r3, [fp, #-64]	; 0xffffffc0
    8b00:	e5933010 	ldr	r3, [r3, #16]
    8b04:	e3530000 	cmp	r3, #0
    8b08:	1a000005 	bne	8b24 <block_filter+0x4d0>
    8b0c:	e51b3040 	ldr	r3, [fp, #-64]	; 0xffffffc0
    8b10:	e5932018 	ldr	r2, [r3, #24]
    8b14:	e51b3040 	ldr	r3, [fp, #-64]	; 0xffffffc0
    8b18:	e593301c 	ldr	r3, [r3, #28]
    8b1c:	e1520003 	cmp	r2, r3
    8b20:	3a000003 	bcc	8b34 <block_filter+0x4e0>
    8b24:	e51b0040 	ldr	r0, [fp, #-64]	; 0xffffffc0
    8b28:	eb00077e 	bl	a928 <iobuf_readbyte>
    8b2c:	e1a03000 	mov	r3, r0
    8b30:	ea00000d 	b	8b6c <block_filter+0x518>
    8b34:	e51b3040 	ldr	r3, [fp, #-64]	; 0xffffffc0
    8b38:	e5933008 	ldr	r3, [r3, #8]
    8b3c:	e2832001 	add	r2, r3, #1
    8b40:	e51b3040 	ldr	r3, [fp, #-64]	; 0xffffffc0
    8b44:	e5832008 	str	r2, [r3, #8]
    8b48:	e51b3040 	ldr	r3, [fp, #-64]	; 0xffffffc0
    8b4c:	e5932020 	ldr	r2, [r3, #32]
    8b50:	e51b3040 	ldr	r3, [fp, #-64]	; 0xffffffc0
    8b54:	e5933018 	ldr	r3, [r3, #24]
    8b58:	e2830001 	add	r0, r3, #1
    8b5c:	e51b1040 	ldr	r1, [fp, #-64]	; 0xffffffc0
    8b60:	e5810018 	str	r0, [r1, #24]
    8b64:	e0823003 	add	r3, r2, r3
    8b68:	e5d33000 	ldrb	r3, [r3]
    8b6c:	e50b300c 	str	r3, [fp, #-12]
    8b70:	e51b300c 	ldr	r3, [fp, #-12]
    8b74:	e3730001 	cmn	r3, #1
    8b78:	1a000002 	bne	8b88 <block_filter+0x534>
    8b7c:	e3a03059 	mov	r3, #89	; 0x59
    8b80:	e50b3010 	str	r3, [fp, #-16]
    8b84:	ea00006c 	b	8d3c <block_filter+0x6e8>
    8b88:	e51b3028 	ldr	r3, [fp, #-40]	; 0xffffffd8
    8b8c:	e5932004 	ldr	r2, [r3, #4]
    8b90:	e51b300c 	ldr	r3, [fp, #-12]
    8b94:	e1822003 	orr	r2, r2, r3
    8b98:	e51b3028 	ldr	r3, [fp, #-40]	; 0xffffffd8
    8b9c:	e5832004 	str	r2, [r3, #4]
    8ba0:	e51b3028 	ldr	r3, [fp, #-40]	; 0xffffffd8
    8ba4:	e3a02002 	mov	r2, #2
    8ba8:	e583200c 	str	r2, [r3, #12]
    8bac:	e51b3028 	ldr	r3, [fp, #-40]	; 0xffffffd8
    8bb0:	e5933004 	ldr	r3, [r3, #4]
    8bb4:	e3530000 	cmp	r3, #0
    8bb8:	1a000047 	bne	8cdc <block_filter+0x688>
    8bbc:	e51b3028 	ldr	r3, [fp, #-40]	; 0xffffffd8
    8bc0:	e3a02001 	mov	r2, #1
    8bc4:	e583201c 	str	r2, [r3, #28]
    8bc8:	e51b3018 	ldr	r3, [fp, #-24]	; 0xffffffe8
    8bcc:	e3530000 	cmp	r3, #0
    8bd0:	1a000058 	bne	8d38 <block_filter+0x6e4>
    8bd4:	e3e03000 	mvn	r3, #0
    8bd8:	e50b3010 	str	r3, [fp, #-16]
    8bdc:	ea000055 	b	8d38 <block_filter+0x6e4>
    8be0:	e51b300c 	ldr	r3, [fp, #-12]
    8be4:	e203301f 	and	r3, r3, #31
    8be8:	e3a02001 	mov	r2, #1
    8bec:	e1a03312 	lsl	r3, r2, r3
    8bf0:	e1a02003 	mov	r2, r3
    8bf4:	e51b3028 	ldr	r3, [fp, #-40]	; 0xffffffd8
    8bf8:	e5832004 	str	r2, [r3, #4]
    8bfc:	ea000036 	b	8cdc <block_filter+0x688>
    8c00:	e51b3028 	ldr	r3, [fp, #-40]	; 0xffffffd8
    8c04:	e5932004 	ldr	r2, [r3, #4]
    8c08:	e51b3008 	ldr	r3, [fp, #-8]
    8c0c:	e1520003 	cmp	r2, r3
    8c10:	31a03002 	movcc	r3, r2
    8c14:	21a03003 	movcs	r3, r3
    8c18:	e50b3034 	str	r3, [fp, #-52]	; 0xffffffcc
    8c1c:	e51b3034 	ldr	r3, [fp, #-52]	; 0xffffffcc
    8c20:	e1a02003 	mov	r2, r3
    8c24:	e51b1014 	ldr	r1, [fp, #-20]	; 0xffffffec
    8c28:	e51b0040 	ldr	r0, [fp, #-64]	; 0xffffffc0
    8c2c:	eb00077f 	bl	aa30 <iobuf_read>
    8c30:	e50b000c 	str	r0, [fp, #-12]
    8c34:	e51b200c 	ldr	r2, [fp, #-12]
    8c38:	e51b3034 	ldr	r3, [fp, #-52]	; 0xffffffcc
    8c3c:	e1520003 	cmp	r2, r3
    8c40:	aa000013 	bge	8c94 <block_filter+0x640>
    8c44:	e51b300c 	ldr	r3, [fp, #-12]
    8c48:	e3730001 	cmn	r3, #1
    8c4c:	1a000001 	bne	8c58 <block_filter+0x604>
    8c50:	e3a03000 	mov	r3, #0
    8c54:	e50b300c 	str	r3, [fp, #-12]
    8c58:	e51b200c 	ldr	r2, [fp, #-12]
    8c5c:	e51b3008 	ldr	r3, [fp, #-8]
    8c60:	e0821003 	add	r1, r2, r3
    8c64:	e51b3028 	ldr	r3, [fp, #-40]	; 0xffffffd8
    8c68:	e5932004 	ldr	r2, [r3, #4]
    8c6c:	e51b300c 	ldr	r3, [fp, #-12]
    8c70:	e0823003 	add	r3, r2, r3
    8c74:	e1a02001 	mov	r2, r1
    8c78:	e51b1028 	ldr	r1, [fp, #-40]	; 0xffffffd8
    8c7c:	e59f067c 	ldr	r0, [pc, #1660]	; 9300 <block_filter+0xcac>
    8c80:	e08f0000 	add	r0, pc, r0
    8c84:	eb002fba 	bl	14b74 <tfp_printf>
    8c88:	e3a03059 	mov	r3, #89	; 0x59
    8c8c:	e50b3010 	str	r3, [fp, #-16]
    8c90:	ea000011 	b	8cdc <block_filter+0x688>
    8c94:	e51b300c 	ldr	r3, [fp, #-12]
    8c98:	e51b2008 	ldr	r2, [fp, #-8]
    8c9c:	e0423003 	sub	r3, r2, r3
    8ca0:	e50b3008 	str	r3, [fp, #-8]
    8ca4:	e51b3028 	ldr	r3, [fp, #-40]	; 0xffffffd8
    8ca8:	e5932004 	ldr	r2, [r3, #4]
    8cac:	e51b300c 	ldr	r3, [fp, #-12]
    8cb0:	e0422003 	sub	r2, r2, r3
    8cb4:	e51b3028 	ldr	r3, [fp, #-40]	; 0xffffffd8
    8cb8:	e5832004 	str	r2, [r3, #4]
    8cbc:	e51b300c 	ldr	r3, [fp, #-12]
    8cc0:	e51b2014 	ldr	r2, [fp, #-20]	; 0xffffffec
    8cc4:	e0823003 	add	r3, r2, r3
    8cc8:	e50b3014 	str	r3, [fp, #-20]	; 0xffffffec
    8ccc:	e51b300c 	ldr	r3, [fp, #-12]
    8cd0:	e51b2018 	ldr	r2, [fp, #-24]	; 0xffffffe8
    8cd4:	e0823003 	add	r3, r2, r3
    8cd8:	e50b3018 	str	r3, [fp, #-24]	; 0xffffffe8
    8cdc:	e51b3010 	ldr	r3, [fp, #-16]
    8ce0:	e3530000 	cmp	r3, #0
    8ce4:	1a000006 	bne	8d04 <block_filter+0x6b0>
    8ce8:	e51b3008 	ldr	r3, [fp, #-8]
    8cec:	e3530000 	cmp	r3, #0
    8cf0:	0a000003 	beq	8d04 <block_filter+0x6b0>
    8cf4:	e51b3028 	ldr	r3, [fp, #-40]	; 0xffffffd8
    8cf8:	e5933004 	ldr	r3, [r3, #4]
    8cfc:	e3530000 	cmp	r3, #0
    8d00:	1affffbe 	bne	8c00 <block_filter+0x5ac>
    8d04:	e51b3010 	ldr	r3, [fp, #-16]
    8d08:	e3530000 	cmp	r3, #0
    8d0c:	1a00000a 	bne	8d3c <block_filter+0x6e8>
    8d10:	e51b3008 	ldr	r3, [fp, #-8]
    8d14:	e3530000 	cmp	r3, #0
    8d18:	1afffe6e 	bne	86d8 <block_filter+0x84>
    8d1c:	ea000006 	b	8d3c <block_filter+0x6e8>
    8d20:	e320f000 	nop	{0}
    8d24:	ea000004 	b	8d3c <block_filter+0x6e8>
    8d28:	e320f000 	nop	{0}
    8d2c:	ea000002 	b	8d3c <block_filter+0x6e8>
    8d30:	e320f000 	nop	{0}
    8d34:	ea000000 	b	8d3c <block_filter+0x6e8>
    8d38:	e320f000 	nop	{0}
    8d3c:	e59b3004 	ldr	r3, [fp, #4]
    8d40:	e51b2018 	ldr	r2, [fp, #-24]	; 0xffffffe8
    8d44:	e5832000 	str	r2, [r3]
    8d48:	ea000168 	b	92f0 <block_filter+0xc9c>
    8d4c:	e51b303c 	ldr	r3, [fp, #-60]	; 0xffffffc4
    8d50:	e3530004 	cmp	r3, #4
    8d54:	1a0000ab 	bne	9008 <block_filter+0x9b4>
    8d58:	e51b3028 	ldr	r3, [fp, #-40]	; 0xffffffd8
    8d5c:	e593300c 	ldr	r3, [r3, #12]
    8d60:	e3530000 	cmp	r3, #0
    8d64:	0a000161 	beq	92f0 <block_filter+0xc9c>
    8d68:	e51b3028 	ldr	r3, [fp, #-40]	; 0xffffffd8
    8d6c:	e5933014 	ldr	r3, [r3, #20]
    8d70:	e51b2008 	ldr	r2, [fp, #-8]
    8d74:	e0823003 	add	r3, r2, r3
    8d78:	e50b3024 	str	r3, [fp, #-36]	; 0xffffffdc
    8d7c:	e51b3024 	ldr	r3, [fp, #-36]	; 0xffffffdc
    8d80:	e3530c02 	cmp	r3, #512	; 0x200
    8d84:	2a000018 	bcs	8dec <block_filter+0x798>
    8d88:	e51b3028 	ldr	r3, [fp, #-40]	; 0xffffffd8
    8d8c:	e5933010 	ldr	r3, [r3, #16]
    8d90:	e3530000 	cmp	r3, #0
    8d94:	1a000004 	bne	8dac <block_filter+0x758>
    8d98:	e3a00c02 	mov	r0, #512	; 0x200
    8d9c:	eb00200f 	bl	10de0 <xmalloc>
    8da0:	e1a02000 	mov	r2, r0
    8da4:	e51b3028 	ldr	r3, [fp, #-40]	; 0xffffffd8
    8da8:	e5832010 	str	r2, [r3, #16]
    8dac:	e51b3028 	ldr	r3, [fp, #-40]	; 0xffffffd8
    8db0:	e5932010 	ldr	r2, [r3, #16]
    8db4:	e51b3028 	ldr	r3, [fp, #-40]	; 0xffffffd8
    8db8:	e5933014 	ldr	r3, [r3, #20]
    8dbc:	e0823003 	add	r3, r2, r3
    8dc0:	e51b2008 	ldr	r2, [fp, #-8]
    8dc4:	e51b102c 	ldr	r1, [fp, #-44]	; 0xffffffd4
    8dc8:	e1a00003 	mov	r0, r3
    8dcc:	eb0020b9 	bl	110b8 <memcpy>
    8dd0:	e51b3028 	ldr	r3, [fp, #-40]	; 0xffffffd8
    8dd4:	e5932014 	ldr	r2, [r3, #20]
    8dd8:	e51b3008 	ldr	r3, [fp, #-8]
    8ddc:	e0822003 	add	r2, r2, r3
    8de0:	e51b3028 	ldr	r3, [fp, #-40]	; 0xffffffd8
    8de4:	e5832014 	str	r2, [r3, #20]
    8de8:	ea000140 	b	92f0 <block_filter+0xc9c>
    8dec:	e51b302c 	ldr	r3, [fp, #-44]	; 0xffffffd4
    8df0:	e50b3014 	str	r3, [fp, #-20]	; 0xffffffec
    8df4:	e3a03b01 	mov	r3, #1024	; 0x400
    8df8:	e50b301c 	str	r3, [fp, #-28]	; 0xffffffe4
    8dfc:	e3a0300a 	mov	r3, #10
    8e00:	e50b300c 	str	r3, [fp, #-12]
    8e04:	ea000005 	b	8e20 <block_filter+0x7cc>
    8e08:	e51b301c 	ldr	r3, [fp, #-28]	; 0xffffffe4
    8e0c:	e1a03083 	lsl	r3, r3, #1
    8e10:	e50b301c 	str	r3, [fp, #-28]	; 0xffffffe4
    8e14:	e51b300c 	ldr	r3, [fp, #-12]
    8e18:	e2833001 	add	r3, r3, #1
    8e1c:	e50b300c 	str	r3, [fp, #-12]
    8e20:	e51b201c 	ldr	r2, [fp, #-28]	; 0xffffffe4
    8e24:	e51b3024 	ldr	r3, [fp, #-36]	; 0xffffffdc
    8e28:	e1520003 	cmp	r2, r3
    8e2c:	9afffff5 	bls	8e08 <block_filter+0x7b4>
    8e30:	e51b301c 	ldr	r3, [fp, #-28]	; 0xffffffe4
    8e34:	e1a030a3 	lsr	r3, r3, #1
    8e38:	e50b301c 	str	r3, [fp, #-28]	; 0xffffffe4
    8e3c:	e51b300c 	ldr	r3, [fp, #-12]
    8e40:	e2433001 	sub	r3, r3, #1
    8e44:	e50b300c 	str	r3, [fp, #-12]
    8e48:	e51b300c 	ldr	r3, [fp, #-12]
    8e4c:	e353001f 	cmp	r3, #31
    8e50:	ca000001 	bgt	8e5c <block_filter+0x808>
    8e54:	e3a03001 	mov	r3, #1
    8e58:	ea000000 	b	8e60 <block_filter+0x80c>
    8e5c:	e3a03000 	mov	r3, #0
    8e60:	e1a00003 	mov	r0, r3
    8e64:	eb002f42 	bl	14b74 <tfp_printf>
    8e68:	e51b300c 	ldr	r3, [fp, #-12]
    8e6c:	e38330e0 	orr	r3, r3, #224	; 0xe0
    8e70:	e50b300c 	str	r3, [fp, #-12]
    8e74:	e51b300c 	ldr	r3, [fp, #-12]
    8e78:	e1a01003 	mov	r1, r3
    8e7c:	e51b0040 	ldr	r0, [fp, #-64]	; 0xffffffc0
    8e80:	eb000788 	bl	aca8 <iobuf_writebyte>
    8e84:	e51b3028 	ldr	r3, [fp, #-40]	; 0xffffffd8
    8e88:	e5933014 	ldr	r3, [r3, #20]
    8e8c:	e50b3020 	str	r3, [fp, #-32]	; 0xffffffe0
    8e90:	e51b3020 	ldr	r3, [fp, #-32]	; 0xffffffe0
    8e94:	e3530000 	cmp	r3, #0
    8e98:	0a00001a 	beq	8f08 <block_filter+0x8b4>
    8e9c:	e51b3020 	ldr	r3, [fp, #-32]	; 0xffffffe0
    8ea0:	e3530c02 	cmp	r3, #512	; 0x200
    8ea4:	1a000001 	bne	8eb0 <block_filter+0x85c>
    8ea8:	e3a03001 	mov	r3, #1
    8eac:	ea000000 	b	8eb4 <block_filter+0x860>
    8eb0:	e3a03000 	mov	r3, #0
    8eb4:	e1a00003 	mov	r0, r3
    8eb8:	eb002f2d 	bl	14b74 <tfp_printf>
    8ebc:	e51b3028 	ldr	r3, [fp, #-40]	; 0xffffffd8
    8ec0:	e5933010 	ldr	r3, [r3, #16]
    8ec4:	e51b2020 	ldr	r2, [fp, #-32]	; 0xffffffe0
    8ec8:	e1a01003 	mov	r1, r3
    8ecc:	e51b0040 	ldr	r0, [fp, #-64]	; 0xffffffc0
    8ed0:	eb0007bb 	bl	adc4 <iobuf_write>
    8ed4:	e1a03000 	mov	r3, r0
    8ed8:	e3530000 	cmp	r3, #0
    8edc:	0a000002 	beq	8eec <block_filter+0x898>
    8ee0:	ebfffc92 	bl	8130 <gpg_error_from_syserror>
    8ee4:	e1a03000 	mov	r3, r0
    8ee8:	e50b3010 	str	r3, [fp, #-16]
    8eec:	e51b3028 	ldr	r3, [fp, #-40]	; 0xffffffd8
    8ef0:	e3a02000 	mov	r2, #0
    8ef4:	e5832014 	str	r2, [r3, #20]
    8ef8:	e51b2024 	ldr	r2, [fp, #-36]	; 0xffffffdc
    8efc:	e51b3020 	ldr	r3, [fp, #-32]	; 0xffffffe0
    8f00:	e0423003 	sub	r3, r2, r3
    8f04:	e50b3024 	str	r3, [fp, #-36]	; 0xffffffdc
    8f08:	e51b3024 	ldr	r3, [fp, #-36]	; 0xffffffdc
    8f0c:	e50b3020 	str	r3, [fp, #-32]	; 0xffffffe0
    8f10:	e51b2020 	ldr	r2, [fp, #-32]	; 0xffffffe0
    8f14:	e51b301c 	ldr	r3, [fp, #-28]	; 0xffffffe4
    8f18:	e1520003 	cmp	r2, r3
    8f1c:	9a000001 	bls	8f28 <block_filter+0x8d4>
    8f20:	e51b301c 	ldr	r3, [fp, #-28]	; 0xffffffe4
    8f24:	e50b3020 	str	r3, [fp, #-32]	; 0xffffffe0
    8f28:	e51b3020 	ldr	r3, [fp, #-32]	; 0xffffffe0
    8f2c:	e3530000 	cmp	r3, #0
    8f30:	0a000009 	beq	8f5c <block_filter+0x908>
    8f34:	e51b2020 	ldr	r2, [fp, #-32]	; 0xffffffe0
    8f38:	e51b1014 	ldr	r1, [fp, #-20]	; 0xffffffec
    8f3c:	e51b0040 	ldr	r0, [fp, #-64]	; 0xffffffc0
    8f40:	eb00079f 	bl	adc4 <iobuf_write>
    8f44:	e1a03000 	mov	r3, r0
    8f48:	e3530000 	cmp	r3, #0
    8f4c:	0a000002 	beq	8f5c <block_filter+0x908>
    8f50:	ebfffc76 	bl	8130 <gpg_error_from_syserror>
    8f54:	e1a03000 	mov	r3, r0
    8f58:	e50b3010 	str	r3, [fp, #-16]
    8f5c:	e51b2014 	ldr	r2, [fp, #-20]	; 0xffffffec
    8f60:	e51b3020 	ldr	r3, [fp, #-32]	; 0xffffffe0
    8f64:	e0823003 	add	r3, r2, r3
    8f68:	e50b3014 	str	r3, [fp, #-20]	; 0xffffffec
    8f6c:	e51b2024 	ldr	r2, [fp, #-36]	; 0xffffffdc
    8f70:	e51b3020 	ldr	r3, [fp, #-32]	; 0xffffffe0
    8f74:	e0423003 	sub	r3, r2, r3
    8f78:	e50b3024 	str	r3, [fp, #-36]	; 0xffffffdc
    8f7c:	e51b3010 	ldr	r3, [fp, #-16]
    8f80:	e3530000 	cmp	r3, #0
    8f84:	1a000002 	bne	8f94 <block_filter+0x940>
    8f88:	e51b3024 	ldr	r3, [fp, #-36]	; 0xffffffdc
    8f8c:	e3530c02 	cmp	r3, #512	; 0x200
    8f90:	2affff97 	bcs	8df4 <block_filter+0x7a0>
    8f94:	e51b3010 	ldr	r3, [fp, #-16]
    8f98:	e3530000 	cmp	r3, #0
    8f9c:	1a0000d3 	bne	92f0 <block_filter+0xc9c>
    8fa0:	e51b3024 	ldr	r3, [fp, #-36]	; 0xffffffdc
    8fa4:	e3530000 	cmp	r3, #0
    8fa8:	0a0000d0 	beq	92f0 <block_filter+0xc9c>
    8fac:	e59f3350 	ldr	r3, [pc, #848]	; 9304 <block_filter+0xcb0>
    8fb0:	e08f3003 	add	r3, pc, r3
    8fb4:	e1a00003 	mov	r0, r3
    8fb8:	eb002eed 	bl	14b74 <tfp_printf>
    8fbc:	e51b3028 	ldr	r3, [fp, #-40]	; 0xffffffd8
    8fc0:	e5933010 	ldr	r3, [r3, #16]
    8fc4:	e3530000 	cmp	r3, #0
    8fc8:	1a000004 	bne	8fe0 <block_filter+0x98c>
    8fcc:	e3a00c02 	mov	r0, #512	; 0x200
    8fd0:	eb001f82 	bl	10de0 <xmalloc>
    8fd4:	e1a02000 	mov	r2, r0
    8fd8:	e51b3028 	ldr	r3, [fp, #-40]	; 0xffffffd8
    8fdc:	e5832010 	str	r2, [r3, #16]
    8fe0:	e51b3028 	ldr	r3, [fp, #-40]	; 0xffffffd8
    8fe4:	e5933010 	ldr	r3, [r3, #16]
    8fe8:	e51b2024 	ldr	r2, [fp, #-36]	; 0xffffffdc
    8fec:	e51b1014 	ldr	r1, [fp, #-20]	; 0xffffffec
    8ff0:	e1a00003 	mov	r0, r3
    8ff4:	eb00202f 	bl	110b8 <memcpy>
    8ff8:	e51b3028 	ldr	r3, [fp, #-40]	; 0xffffffd8
    8ffc:	e51b2024 	ldr	r2, [fp, #-36]	; 0xffffffdc
    9000:	e5832014 	str	r2, [r3, #20]
    9004:	ea0000b9 	b	92f0 <block_filter+0xc9c>
    9008:	e51b303c 	ldr	r3, [fp, #-60]	; 0xffffffc4
    900c:	e3530001 	cmp	r3, #1
    9010:	1a000021 	bne	909c <block_filter+0xa48>
    9014:	e51b3028 	ldr	r3, [fp, #-40]	; 0xffffffd8
    9018:	e593300c 	ldr	r3, [r3, #12]
    901c:	e3530000 	cmp	r3, #0
    9020:	0a000003 	beq	9034 <block_filter+0x9e0>
    9024:	e51b3028 	ldr	r3, [fp, #-40]	; 0xffffffd8
    9028:	e3a02000 	mov	r2, #0
    902c:	e5832008 	str	r2, [r3, #8]
    9030:	ea00000f 	b	9074 <block_filter+0xa20>
    9034:	e51b3028 	ldr	r3, [fp, #-40]	; 0xffffffd8
    9038:	e5933000 	ldr	r3, [r3]
    903c:	e3530000 	cmp	r3, #0
    9040:	1a000007 	bne	9064 <block_filter+0xa10>
    9044:	e51b3028 	ldr	r3, [fp, #-40]	; 0xffffffd8
    9048:	e3a02000 	mov	r2, #0
    904c:	e5832004 	str	r2, [r3, #4]
    9050:	e51b3028 	ldr	r3, [fp, #-40]	; 0xffffffd8
    9054:	e5932004 	ldr	r2, [r3, #4]
    9058:	e51b3028 	ldr	r3, [fp, #-40]	; 0xffffffd8
    905c:	e5832008 	str	r2, [r3, #8]
    9060:	ea000003 	b	9074 <block_filter+0xa20>
    9064:	e51b3028 	ldr	r3, [fp, #-40]	; 0xffffffd8
    9068:	e5932004 	ldr	r2, [r3, #4]
    906c:	e51b3028 	ldr	r3, [fp, #-40]	; 0xffffffd8
    9070:	e5832008 	str	r2, [r3, #8]
    9074:	e51b3028 	ldr	r3, [fp, #-40]	; 0xffffffd8
    9078:	e3a02000 	mov	r2, #0
    907c:	e583201c 	str	r2, [r3, #28]
    9080:	e51b3028 	ldr	r3, [fp, #-40]	; 0xffffffd8
    9084:	e3a02000 	mov	r2, #0
    9088:	e5832010 	str	r2, [r3, #16]
    908c:	e51b3028 	ldr	r3, [fp, #-40]	; 0xffffffd8
    9090:	e3a02000 	mov	r2, #0
    9094:	e5832014 	str	r2, [r3, #20]
    9098:	ea000094 	b	92f0 <block_filter+0xc9c>
    909c:	e51b303c 	ldr	r3, [fp, #-60]	; 0xffffffc4
    90a0:	e3530005 	cmp	r3, #5
    90a4:	0a000091 	beq	92f0 <block_filter+0xc9c>
    90a8:	e51b303c 	ldr	r3, [fp, #-60]	; 0xffffffc4
    90ac:	e3530002 	cmp	r3, #2
    90b0:	1a00008e 	bne	92f0 <block_filter+0xc9c>
    90b4:	e51b3028 	ldr	r3, [fp, #-40]	; 0xffffffd8
    90b8:	e5933000 	ldr	r3, [r3]
    90bc:	e3530002 	cmp	r3, #2
    90c0:	1a000080 	bne	92c8 <block_filter+0xc74>
    90c4:	e51b3028 	ldr	r3, [fp, #-40]	; 0xffffffd8
    90c8:	e593300c 	ldr	r3, [r3, #12]
    90cc:	e3530000 	cmp	r3, #0
    90d0:	0a000084 	beq	92e8 <block_filter+0xc94>
    90d4:	e51b3028 	ldr	r3, [fp, #-40]	; 0xffffffd8
    90d8:	e5933014 	ldr	r3, [r3, #20]
    90dc:	e50b3030 	str	r3, [fp, #-48]	; 0xffffffd0
    90e0:	e51b3030 	ldr	r3, [fp, #-48]	; 0xffffffd0
    90e4:	e35300bf 	cmp	r3, #191	; 0xbf
    90e8:	8a000009 	bhi	9114 <block_filter+0xac0>
    90ec:	e51b1030 	ldr	r1, [fp, #-48]	; 0xffffffd0
    90f0:	e51b0040 	ldr	r0, [fp, #-64]	; 0xffffffc0
    90f4:	eb0006eb 	bl	aca8 <iobuf_writebyte>
    90f8:	e50b0010 	str	r0, [fp, #-16]
    90fc:	e51b1030 	ldr	r1, [fp, #-48]	; 0xffffffd0
    9100:	e59f3200 	ldr	r3, [pc, #512]	; 9308 <block_filter+0xcb4>
    9104:	e08f3003 	add	r3, pc, r3
    9108:	e1a00003 	mov	r0, r3
    910c:	eb002e98 	bl	14b74 <tfp_printf>
    9110:	ea000049 	b	923c <block_filter+0xbe8>
    9114:	e51b3030 	ldr	r3, [fp, #-48]	; 0xffffffd0
    9118:	e3530d83 	cmp	r3, #8384	; 0x20c0
    911c:	2a000017 	bcs	9180 <block_filter+0xb2c>
    9120:	e51b1030 	ldr	r1, [fp, #-48]	; 0xffffffd0
    9124:	e59f31e0 	ldr	r3, [pc, #480]	; 930c <block_filter+0xcb8>
    9128:	e08f3003 	add	r3, pc, r3
    912c:	e1a00003 	mov	r0, r3
    9130:	eb002e8f 	bl	14b74 <tfp_printf>
    9134:	e51b3030 	ldr	r3, [fp, #-48]	; 0xffffffd0
    9138:	e24330c0 	sub	r3, r3, #192	; 0xc0
    913c:	e1a03423 	lsr	r3, r3, #8
    9140:	e28330c0 	add	r3, r3, #192	; 0xc0
    9144:	e1a01003 	mov	r1, r3
    9148:	e51b0040 	ldr	r0, [fp, #-64]	; 0xffffffc0
    914c:	eb0006d5 	bl	aca8 <iobuf_writebyte>
    9150:	e50b0010 	str	r0, [fp, #-16]
    9154:	e51b3010 	ldr	r3, [fp, #-16]
    9158:	e3530000 	cmp	r3, #0
    915c:	1a000036 	bne	923c <block_filter+0xbe8>
    9160:	e51b3030 	ldr	r3, [fp, #-48]	; 0xffffffd0
    9164:	e24330c0 	sub	r3, r3, #192	; 0xc0
    9168:	e6ef3073 	uxtb	r3, r3
    916c:	e1a01003 	mov	r1, r3
    9170:	e51b0040 	ldr	r0, [fp, #-64]	; 0xffffffc0
    9174:	eb0006cb 	bl	aca8 <iobuf_writebyte>
    9178:	e50b0010 	str	r0, [fp, #-16]
    917c:	ea00002e 	b	923c <block_filter+0xbe8>
    9180:	e51b1030 	ldr	r1, [fp, #-48]	; 0xffffffd0
    9184:	e59f3184 	ldr	r3, [pc, #388]	; 9310 <block_filter+0xcbc>
    9188:	e08f3003 	add	r3, pc, r3
    918c:	e1a00003 	mov	r0, r3
    9190:	eb002e77 	bl	14b74 <tfp_printf>
    9194:	e3a010ff 	mov	r1, #255	; 0xff
    9198:	e51b0040 	ldr	r0, [fp, #-64]	; 0xffffffc0
    919c:	eb0006c1 	bl	aca8 <iobuf_writebyte>
    91a0:	e50b0010 	str	r0, [fp, #-16]
    91a4:	e51b3010 	ldr	r3, [fp, #-16]
    91a8:	e3530000 	cmp	r3, #0
    91ac:	1a000022 	bne	923c <block_filter+0xbe8>
    91b0:	e51b3030 	ldr	r3, [fp, #-48]	; 0xffffffd0
    91b4:	e1a03c23 	lsr	r3, r3, #24
    91b8:	e1a01003 	mov	r1, r3
    91bc:	e51b0040 	ldr	r0, [fp, #-64]	; 0xffffffc0
    91c0:	eb0006b8 	bl	aca8 <iobuf_writebyte>
    91c4:	e50b0010 	str	r0, [fp, #-16]
    91c8:	e51b3010 	ldr	r3, [fp, #-16]
    91cc:	e3530000 	cmp	r3, #0
    91d0:	1a000019 	bne	923c <block_filter+0xbe8>
    91d4:	e51b3030 	ldr	r3, [fp, #-48]	; 0xffffffd0
    91d8:	e1a03823 	lsr	r3, r3, #16
    91dc:	e6ef3073 	uxtb	r3, r3
    91e0:	e1a01003 	mov	r1, r3
    91e4:	e51b0040 	ldr	r0, [fp, #-64]	; 0xffffffc0
    91e8:	eb0006ae 	bl	aca8 <iobuf_writebyte>
    91ec:	e50b0010 	str	r0, [fp, #-16]
    91f0:	e51b3010 	ldr	r3, [fp, #-16]
    91f4:	e3530000 	cmp	r3, #0
    91f8:	1a00000f 	bne	923c <block_filter+0xbe8>
    91fc:	e51b3030 	ldr	r3, [fp, #-48]	; 0xffffffd0
    9200:	e1a03423 	lsr	r3, r3, #8
    9204:	e6ef3073 	uxtb	r3, r3
    9208:	e1a01003 	mov	r1, r3
    920c:	e51b0040 	ldr	r0, [fp, #-64]	; 0xffffffc0
    9210:	eb0006a4 	bl	aca8 <iobuf_writebyte>
    9214:	e50b0010 	str	r0, [fp, #-16]
    9218:	e51b3010 	ldr	r3, [fp, #-16]
    921c:	e3530000 	cmp	r3, #0
    9220:	1a000005 	bne	923c <block_filter+0xbe8>
    9224:	e51b3030 	ldr	r3, [fp, #-48]	; 0xffffffd0
    9228:	e6ef3073 	uxtb	r3, r3
    922c:	e1a01003 	mov	r1, r3
    9230:	e51b0040 	ldr	r0, [fp, #-64]	; 0xffffffc0
    9234:	eb00069b 	bl	aca8 <iobuf_writebyte>
    9238:	e50b0010 	str	r0, [fp, #-16]
    923c:	e51b3010 	ldr	r3, [fp, #-16]
    9240:	e3530000 	cmp	r3, #0
    9244:	1a00000e 	bne	9284 <block_filter+0xc30>
    9248:	e51b3030 	ldr	r3, [fp, #-48]	; 0xffffffd0
    924c:	e3530000 	cmp	r3, #0
    9250:	0a00000b 	beq	9284 <block_filter+0xc30>
    9254:	e51b1030 	ldr	r1, [fp, #-48]	; 0xffffffd0
    9258:	e59f30b4 	ldr	r3, [pc, #180]	; 9314 <block_filter+0xcc0>
    925c:	e08f3003 	add	r3, pc, r3
    9260:	e1a00003 	mov	r0, r3
    9264:	eb002e42 	bl	14b74 <tfp_printf>
    9268:	e51b3028 	ldr	r3, [fp, #-40]	; 0xffffffd8
    926c:	e5933010 	ldr	r3, [r3, #16]
    9270:	e51b2030 	ldr	r2, [fp, #-48]	; 0xffffffd0
    9274:	e1a01003 	mov	r1, r3
    9278:	e51b0040 	ldr	r0, [fp, #-64]	; 0xffffffc0
    927c:	eb0006d0 	bl	adc4 <iobuf_write>
    9280:	e50b0010 	str	r0, [fp, #-16]
    9284:	e51b3010 	ldr	r3, [fp, #-16]
    9288:	e3530000 	cmp	r3, #0
    928c:	0a000002 	beq	929c <block_filter+0xc48>
    9290:	ebfffba6 	bl	8130 <gpg_error_from_syserror>
    9294:	e1a03000 	mov	r3, r0
    9298:	e50b3010 	str	r3, [fp, #-16]
    929c:	e51b3028 	ldr	r3, [fp, #-40]	; 0xffffffd8
    92a0:	e5933010 	ldr	r3, [r3, #16]
    92a4:	e1a00003 	mov	r0, r3
    92a8:	eb001f2b 	bl	10f5c <xfree>
    92ac:	e51b3028 	ldr	r3, [fp, #-40]	; 0xffffffd8
    92b0:	e3a02000 	mov	r2, #0
    92b4:	e5832010 	str	r2, [r3, #16]
    92b8:	e51b3028 	ldr	r3, [fp, #-40]	; 0xffffffd8
    92bc:	e3a02000 	mov	r2, #0
    92c0:	e5832014 	str	r2, [r3, #20]
    92c4:	ea000007 	b	92e8 <block_filter+0xc94>
    92c8:	e51b3028 	ldr	r3, [fp, #-40]	; 0xffffffd8
    92cc:	e5933004 	ldr	r3, [r3, #4]
    92d0:	e3530000 	cmp	r3, #0
    92d4:	0a000003 	beq	92e8 <block_filter+0xc94>
    92d8:	e59f3038 	ldr	r3, [pc, #56]	; 9318 <block_filter+0xcc4>
    92dc:	e08f3003 	add	r3, pc, r3
    92e0:	e1a00003 	mov	r0, r3
    92e4:	eb002e22 	bl	14b74 <tfp_printf>
    92e8:	e51b0028 	ldr	r0, [fp, #-40]	; 0xffffffd8
    92ec:	eb001f1a 	bl	10f5c <xfree>
    92f0:	e51b3010 	ldr	r3, [fp, #-16]
    92f4:	e1a00003 	mov	r0, r3
    92f8:	e24bd004 	sub	sp, fp, #4
    92fc:	e8bd8800 	pop	{fp, pc}
    9300:	000104d8 	.word	0x000104d8
    9304:	000101dc 	.word	0x000101dc
    9308:	000100a8 	.word	0x000100a8
    930c:	000100b0 	.word	0x000100b0
    9310:	0001007c 	.word	0x0001007c
    9314:	0000ffd4 	.word	0x0000ffd4
    9318:	0000ff80 	.word	0x0000ff80

0000931c <iobuf_desc>:
    931c:	e92d4810 	push	{r4, fp, lr}
    9320:	e28db008 	add	fp, sp, #8
    9324:	e24dd01c 	sub	sp, sp, #28
    9328:	e50b0018 	str	r0, [fp, #-24]	; 0xffffffe8
    932c:	e50b101c 	str	r1, [fp, #-28]	; 0xffffffe4
    9330:	e3a03020 	mov	r3, #32
    9334:	e50b3010 	str	r3, [fp, #-16]
    9338:	e51b3018 	ldr	r3, [fp, #-24]	; 0xffffffe8
    933c:	e3530000 	cmp	r3, #0
    9340:	0a000003 	beq	9354 <iobuf_desc+0x38>
    9344:	e51b3018 	ldr	r3, [fp, #-24]	; 0xffffffe8
    9348:	e593302c 	ldr	r3, [r3, #44]	; 0x2c
    934c:	e3530000 	cmp	r3, #0
    9350:	1a000006 	bne	9370 <iobuf_desc+0x54>
    9354:	e3a02002 	mov	r2, #2
    9358:	e59f3048 	ldr	r3, [pc, #72]	; 93a8 <iobuf_desc+0x8c>
    935c:	e08f3003 	add	r3, pc, r3
    9360:	e1a01003 	mov	r1, r3
    9364:	e51b001c 	ldr	r0, [fp, #-28]	; 0xffffffe4
    9368:	eb001f52 	bl	110b8 <memcpy>
    936c:	ea000009 	b	9398 <iobuf_desc+0x7c>
    9370:	e51b3018 	ldr	r3, [fp, #-24]	; 0xffffffe8
    9374:	e593402c 	ldr	r4, [r3, #44]	; 0x2c
    9378:	e51b3018 	ldr	r3, [fp, #-24]	; 0xffffffe8
    937c:	e5930030 	ldr	r0, [r3, #48]	; 0x30
    9380:	e24b3010 	sub	r3, fp, #16
    9384:	e58d3000 	str	r3, [sp]
    9388:	e51b301c 	ldr	r3, [fp, #-28]	; 0xffffffe4
    938c:	e3a02000 	mov	r2, #0
    9390:	e3a01005 	mov	r1, #5
    9394:	e12fff34 	blx	r4
    9398:	e51b301c 	ldr	r3, [fp, #-28]	; 0xffffffe4
    939c:	e1a00003 	mov	r0, r3
    93a0:	e24bd008 	sub	sp, fp, #8
    93a4:	e8bd8810 	pop	{r4, fp, pc}
    93a8:	0000ff20 	.word	0x0000ff20

000093ac <print_chain>:
    93ac:	e92d4830 	push	{r4, r5, fp, lr}
    93b0:	e28db00c 	add	fp, sp, #12
    93b4:	e24dd038 	sub	sp, sp, #56	; 0x38
    93b8:	e50b0030 	str	r0, [fp, #-48]	; 0xffffffd0
    93bc:	e59f20a4 	ldr	r2, [pc, #164]	; 9468 <print_chain+0xbc>
    93c0:	e08f2002 	add	r2, pc, r2
    93c4:	e59f30a0 	ldr	r3, [pc, #160]	; 946c <print_chain+0xc0>
    93c8:	e7923003 	ldr	r3, [r2, r3]
    93cc:	e5933000 	ldr	r3, [r3]
    93d0:	e3530000 	cmp	r3, #0
    93d4:	0a000020 	beq	945c <print_chain+0xb0>
    93d8:	ea00001b 	b	944c <print_chain+0xa0>
    93dc:	e51b3030 	ldr	r3, [fp, #-48]	; 0xffffffd0
    93e0:	e5934040 	ldr	r4, [r3, #64]	; 0x40
    93e4:	e51b3030 	ldr	r3, [fp, #-48]	; 0xffffffd0
    93e8:	e5935044 	ldr	r5, [r3, #68]	; 0x44
    93ec:	e24b302c 	sub	r3, fp, #44	; 0x2c
    93f0:	e1a01003 	mov	r1, r3
    93f4:	e51b0030 	ldr	r0, [fp, #-48]	; 0xffffffd0
    93f8:	ebffffc7 	bl	931c <iobuf_desc>
    93fc:	e1a01000 	mov	r1, r0
    9400:	e51b3030 	ldr	r3, [fp, #-48]	; 0xffffffd0
    9404:	e5933024 	ldr	r3, [r3, #36]	; 0x24
    9408:	e51b2030 	ldr	r2, [fp, #-48]	; 0xffffffd0
    940c:	e5922018 	ldr	r2, [r2, #24]
    9410:	e1a00002 	mov	r0, r2
    9414:	e51b2030 	ldr	r2, [fp, #-48]	; 0xffffffd0
    9418:	e592201c 	ldr	r2, [r2, #28]
    941c:	e58d2008 	str	r2, [sp, #8]
    9420:	e58d0004 	str	r0, [sp, #4]
    9424:	e58d3000 	str	r3, [sp]
    9428:	e1a03001 	mov	r3, r1
    942c:	e1a02005 	mov	r2, r5
    9430:	e1a01004 	mov	r1, r4
    9434:	e59f0034 	ldr	r0, [pc, #52]	; 9470 <print_chain+0xc4>
    9438:	e08f0000 	add	r0, pc, r0
    943c:	eb002dcc 	bl	14b74 <tfp_printf>
    9440:	e51b3030 	ldr	r3, [fp, #-48]	; 0xffffffd0
    9444:	e593303c 	ldr	r3, [r3, #60]	; 0x3c
    9448:	e50b3030 	str	r3, [fp, #-48]	; 0xffffffd0
    944c:	e51b3030 	ldr	r3, [fp, #-48]	; 0xffffffd0
    9450:	e3530000 	cmp	r3, #0
    9454:	1affffe0 	bne	93dc <print_chain+0x30>
    9458:	ea000000 	b	9460 <print_chain+0xb4>
    945c:	e320f000 	nop	{0}
    9460:	e24bd00c 	sub	sp, fp, #12
    9464:	e8bd8830 	pop	{r4, r5, fp, pc}
    9468:	000144d8 	.word	0x000144d8
    946c:	0002ab08 	.word	0x0002ab08
    9470:	0000fe48 	.word	0x0000fe48

00009474 <iobuf_alloc>:
    9474:	e92d4800 	push	{fp, lr}
    9478:	e28db004 	add	fp, sp, #4
    947c:	e24dd010 	sub	sp, sp, #16
    9480:	e50b0010 	str	r0, [fp, #-16]
    9484:	e50b1014 	str	r1, [fp, #-20]	; 0xffffffec
    9488:	e51b3010 	ldr	r3, [fp, #-16]
    948c:	e3530000 	cmp	r3, #0
    9490:	0a000008 	beq	94b8 <iobuf_alloc+0x44>
    9494:	e51b3010 	ldr	r3, [fp, #-16]
    9498:	e3530001 	cmp	r3, #1
    949c:	0a000005 	beq	94b8 <iobuf_alloc+0x44>
    94a0:	e51b3010 	ldr	r3, [fp, #-16]
    94a4:	e3530002 	cmp	r3, #2
    94a8:	0a000002 	beq	94b8 <iobuf_alloc+0x44>
    94ac:	e51b3010 	ldr	r3, [fp, #-16]
    94b0:	e3530003 	cmp	r3, #3
    94b4:	1a000001 	bne	94c0 <iobuf_alloc+0x4c>
    94b8:	e3a03001 	mov	r3, #1
    94bc:	ea000000 	b	94c4 <iobuf_alloc+0x50>
    94c0:	e3a03000 	mov	r3, #0
    94c4:	e1a02003 	mov	r2, r3
    94c8:	e51b1010 	ldr	r1, [fp, #-16]
    94cc:	e59f30c4 	ldr	r3, [pc, #196]	; 9598 <iobuf_alloc+0x124>
    94d0:	e08f3003 	add	r3, pc, r3
    94d4:	e1a00003 	mov	r0, r3
    94d8:	eb002da5 	bl	14b74 <tfp_printf>
    94dc:	e51b3014 	ldr	r3, [fp, #-20]	; 0xffffffec
    94e0:	e3530000 	cmp	r3, #0
    94e4:	1a000005 	bne	9500 <iobuf_alloc+0x8c>
    94e8:	e59f30ac 	ldr	r3, [pc, #172]	; 959c <iobuf_alloc+0x128>
    94ec:	e08f3003 	add	r3, pc, r3
    94f0:	e1a00003 	mov	r0, r3
    94f4:	eb002d9e 	bl	14b74 <tfp_printf>
    94f8:	e3a03a02 	mov	r3, #8192	; 0x2000
    94fc:	e50b3014 	str	r3, [fp, #-20]	; 0xffffffec
    9500:	e3a01048 	mov	r1, #72	; 0x48
    9504:	e3a00001 	mov	r0, #1
    9508:	eb001e71 	bl	10ed4 <xcalloc>
    950c:	e50b0008 	str	r0, [fp, #-8]
    9510:	e51b3010 	ldr	r3, [fp, #-16]
    9514:	e6ef2073 	uxtb	r2, r3
    9518:	e51b3008 	ldr	r3, [fp, #-8]
    951c:	e5c32000 	strb	r2, [r3]
    9520:	e51b0014 	ldr	r0, [fp, #-20]	; 0xffffffec
    9524:	eb001e2d 	bl	10de0 <xmalloc>
    9528:	e1a02000 	mov	r2, r0
    952c:	e51b3008 	ldr	r3, [fp, #-8]
    9530:	e5832020 	str	r2, [r3, #32]
    9534:	e51b3008 	ldr	r3, [fp, #-8]
    9538:	e51b2014 	ldr	r2, [fp, #-20]	; 0xffffffec
    953c:	e5832014 	str	r2, [r3, #20]
    9540:	e59f3058 	ldr	r3, [pc, #88]	; 95a0 <iobuf_alloc+0x12c>
    9544:	e08f3003 	add	r3, pc, r3
    9548:	e5933000 	ldr	r3, [r3]
    954c:	e2832001 	add	r2, r3, #1
    9550:	e59f304c 	ldr	r3, [pc, #76]	; 95a4 <iobuf_alloc+0x130>
    9554:	e08f3003 	add	r3, pc, r3
    9558:	e5832000 	str	r2, [r3]
    955c:	e59f3044 	ldr	r3, [pc, #68]	; 95a8 <iobuf_alloc+0x134>
    9560:	e08f3003 	add	r3, pc, r3
    9564:	e5932000 	ldr	r2, [r3]
    9568:	e51b3008 	ldr	r3, [fp, #-8]
    956c:	e5832040 	str	r2, [r3, #64]	; 0x40
    9570:	e51b3008 	ldr	r3, [fp, #-8]
    9574:	e3a02000 	mov	r2, #0
    9578:	e5832044 	str	r2, [r3, #68]	; 0x44
    957c:	e51b3008 	ldr	r3, [fp, #-8]
    9580:	e3a02000 	mov	r2, #0
    9584:	e5832038 	str	r2, [r3, #56]	; 0x38
    9588:	e51b3008 	ldr	r3, [fp, #-8]
    958c:	e1a00003 	mov	r0, r3
    9590:	e24bd004 	sub	sp, fp, #4
    9594:	e8bd8800 	pop	{fp, pc}
    9598:	0000fde8 	.word	0x0000fde8
    959c:	0000fde4 	.word	0x0000fde4
    95a0:	0003fabc 	.word	0x0003fabc
    95a4:	0003faac 	.word	0x0003faac
    95a8:	0003faa0 	.word	0x0003faa0

000095ac <iobuf_temp_with_content>:
    95ac:	e92d4800 	push	{fp, lr}
    95b0:	e28db004 	add	fp, sp, #4
    95b4:	e24dd010 	sub	sp, sp, #16
    95b8:	e50b0010 	str	r0, [fp, #-16]
    95bc:	e50b1014 	str	r1, [fp, #-20]	; 0xffffffec
    95c0:	e51b1014 	ldr	r1, [fp, #-20]	; 0xffffffec
    95c4:	e3a00001 	mov	r0, #1
    95c8:	ebffffa9 	bl	9474 <iobuf_alloc>
    95cc:	e50b000c 	str	r0, [fp, #-12]
    95d0:	e51b300c 	ldr	r3, [fp, #-12]
    95d4:	e5933014 	ldr	r3, [r3, #20]
    95d8:	e1a01003 	mov	r1, r3
    95dc:	e59f3070 	ldr	r3, [pc, #112]	; 9654 <iobuf_temp_with_content+0xa8>
    95e0:	e08f3003 	add	r3, pc, r3
    95e4:	e1a00003 	mov	r0, r3
    95e8:	eb002d61 	bl	14b74 <tfp_printf>
    95ec:	e3a03000 	mov	r3, #0
    95f0:	e50b3008 	str	r3, [fp, #-8]
    95f4:	ea00000b 	b	9628 <iobuf_temp_with_content+0x7c>
    95f8:	e51b3008 	ldr	r3, [fp, #-8]
    95fc:	e51b2010 	ldr	r2, [fp, #-16]
    9600:	e0822003 	add	r2, r2, r3
    9604:	e51b300c 	ldr	r3, [fp, #-12]
    9608:	e5931020 	ldr	r1, [r3, #32]
    960c:	e51b3008 	ldr	r3, [fp, #-8]
    9610:	e0813003 	add	r3, r1, r3
    9614:	e5d22000 	ldrb	r2, [r2]
    9618:	e5c32000 	strb	r2, [r3]
    961c:	e51b3008 	ldr	r3, [fp, #-8]
    9620:	e2833001 	add	r3, r3, #1
    9624:	e50b3008 	str	r3, [fp, #-8]
    9628:	e51b3008 	ldr	r3, [fp, #-8]
    962c:	e51b2014 	ldr	r2, [fp, #-20]	; 0xffffffec
    9630:	e1520003 	cmp	r2, r3
    9634:	8affffef 	bhi	95f8 <iobuf_temp_with_content+0x4c>
    9638:	e51b300c 	ldr	r3, [fp, #-12]
    963c:	e51b2014 	ldr	r2, [fp, #-20]	; 0xffffffec
    9640:	e583201c 	str	r2, [r3, #28]
    9644:	e51b300c 	ldr	r3, [fp, #-12]
    9648:	e1a00003 	mov	r0, r3
    964c:	e24bd004 	sub	sp, fp, #4
    9650:	e8bd8800 	pop	{fp, pc}
    9654:	0000fd34 	.word	0x0000fd34

00009658 <do_iobuf_fdopen>:
    9658:	e92d4810 	push	{r4, fp, lr}
    965c:	e28db008 	add	fp, sp, #8
    9660:	e24dd02c 	sub	sp, sp, #44	; 0x2c
    9664:	e50b0020 	str	r0, [fp, #-32]	; 0xffffffe0
    9668:	e50b1024 	str	r1, [fp, #-36]	; 0xffffffdc
    966c:	e50b2028 	str	r2, [fp, #-40]	; 0xffffffd8
    9670:	e59f414c 	ldr	r4, [pc, #332]	; 97c4 <do_iobuf_fdopen+0x16c>
    9674:	e08f4004 	add	r4, pc, r4
    9678:	e51b3020 	ldr	r3, [fp, #-32]	; 0xffffffe0
    967c:	e50b3010 	str	r3, [fp, #-16]
    9680:	e3a01077 	mov	r1, #119	; 0x77
    9684:	e51b0024 	ldr	r0, [fp, #-36]	; 0xffffffdc
    9688:	eb001f5b 	bl	113fc <strchr>
    968c:	e1a03000 	mov	r3, r0
    9690:	e3530000 	cmp	r3, #0
    9694:	0a000001 	beq	96a0 <do_iobuf_fdopen+0x48>
    9698:	e3a03002 	mov	r3, #2
    969c:	ea000000 	b	96a4 <do_iobuf_fdopen+0x4c>
    96a0:	e3a03000 	mov	r3, #0
    96a4:	e3a01a02 	mov	r1, #8192	; 0x2000
    96a8:	e1a00003 	mov	r0, r3
    96ac:	ebffff70 	bl	9474 <iobuf_alloc>
    96b0:	e50b0014 	str	r0, [fp, #-20]	; 0xffffffec
    96b4:	e3a0004c 	mov	r0, #76	; 0x4c
    96b8:	eb001dc8 	bl	10de0 <xmalloc>
    96bc:	e50b0018 	str	r0, [fp, #-24]	; 0xffffffe8
    96c0:	e51b3018 	ldr	r3, [fp, #-24]	; 0xffffffe8
    96c4:	e51b2010 	ldr	r2, [fp, #-16]
    96c8:	e5832000 	str	r2, [r3]
    96cc:	e51b3018 	ldr	r3, [fp, #-24]	; 0xffffffe8
    96d0:	e3a02001 	mov	r2, #1
    96d4:	e5832010 	str	r2, [r3, #16]
    96d8:	e51b3018 	ldr	r3, [fp, #-24]	; 0xffffffe8
    96dc:	e51b2028 	ldr	r2, [fp, #-40]	; 0xffffffd8
    96e0:	e5832004 	str	r2, [r3, #4]
    96e4:	e51b3018 	ldr	r3, [fp, #-24]	; 0xffffffe8
    96e8:	e2833036 	add	r3, r3, #54	; 0x36
    96ec:	e51b2020 	ldr	r2, [fp, #-32]	; 0xffffffe0
    96f0:	e59f10d0 	ldr	r1, [pc, #208]	; 97c8 <do_iobuf_fdopen+0x170>
    96f4:	e08f1001 	add	r1, pc, r1
    96f8:	e1a00003 	mov	r0, r3
    96fc:	eb002d43 	bl	14c10 <tfp_sprintf>
    9700:	e51b3014 	ldr	r3, [fp, #-20]	; 0xffffffec
    9704:	e59f20c0 	ldr	r2, [pc, #192]	; 97cc <do_iobuf_fdopen+0x174>
    9708:	e7942002 	ldr	r2, [r4, r2]
    970c:	e583202c 	str	r2, [r3, #44]	; 0x2c
    9710:	e51b3014 	ldr	r3, [fp, #-20]	; 0xffffffec
    9714:	e51b2018 	ldr	r2, [fp, #-24]	; 0xffffffe8
    9718:	e5832030 	str	r2, [r3, #48]	; 0x30
    971c:	e24b301c 	sub	r3, fp, #28
    9720:	e58d3000 	str	r3, [sp]
    9724:	e3a03000 	mov	r3, #0
    9728:	e3a02000 	mov	r2, #0
    972c:	e3a01001 	mov	r1, #1
    9730:	e51b0018 	ldr	r0, [fp, #-24]	; 0xffffffe8
    9734:	eb0006c8 	bl	b25c <file_filter>
    9738:	e59f3090 	ldr	r3, [pc, #144]	; 97d0 <do_iobuf_fdopen+0x178>
    973c:	e7943003 	ldr	r3, [r4, r3]
    9740:	e5933000 	ldr	r3, [r3]
    9744:	e3530000 	cmp	r3, #0
    9748:	0a000014 	beq	97a0 <do_iobuf_fdopen+0x148>
    974c:	e51b3014 	ldr	r3, [fp, #-20]	; 0xffffffec
    9750:	e5931040 	ldr	r1, [r3, #64]	; 0x40
    9754:	e51b3014 	ldr	r3, [fp, #-20]	; 0xffffffec
    9758:	e5932044 	ldr	r2, [r3, #68]	; 0x44
    975c:	e51b3028 	ldr	r3, [fp, #-40]	; 0xffffffd8
    9760:	e3530000 	cmp	r3, #0
    9764:	0a000003 	beq	9778 <do_iobuf_fdopen+0x120>
    9768:	e59f3064 	ldr	r3, [pc, #100]	; 97d4 <do_iobuf_fdopen+0x17c>
    976c:	e08f3003 	add	r3, pc, r3
    9770:	e1a00003 	mov	r0, r3
    9774:	ea000002 	b	9784 <do_iobuf_fdopen+0x12c>
    9778:	e59f3058 	ldr	r3, [pc, #88]	; 97d8 <do_iobuf_fdopen+0x180>
    977c:	e08f3003 	add	r3, pc, r3
    9780:	e1a00003 	mov	r0, r3
    9784:	e51b3018 	ldr	r3, [fp, #-24]	; 0xffffffe8
    9788:	e2833036 	add	r3, r3, #54	; 0x36
    978c:	e58d3000 	str	r3, [sp]
    9790:	e1a03000 	mov	r3, r0
    9794:	e59f0040 	ldr	r0, [pc, #64]	; 97dc <do_iobuf_fdopen+0x184>
    9798:	e08f0000 	add	r0, pc, r0
    979c:	eb002cf4 	bl	14b74 <tfp_printf>
    97a0:	e3a03000 	mov	r3, #0
    97a4:	e3a02001 	mov	r2, #1
    97a8:	e3a01003 	mov	r1, #3
    97ac:	e51b0014 	ldr	r0, [fp, #-20]	; 0xffffffec
    97b0:	eb000017 	bl	9814 <iobuf_ioctl>
    97b4:	e51b3014 	ldr	r3, [fp, #-20]	; 0xffffffec
    97b8:	e1a00003 	mov	r0, r3
    97bc:	e24bd008 	sub	sp, fp, #8
    97c0:	e8bd8810 	pop	{r4, fp, pc}
    97c4:	00014224 	.word	0x00014224
    97c8:	0000fca0 	.word	0x0000fca0
    97cc:	0002ab20 	.word	0x0002ab20
    97d0:	0002ab08 	.word	0x0002ab08
    97d4:	0000fc30 	.word	0x0000fc30
    97d8:	0000fc24 	.word	0x0000fc24
    97dc:	0000fc0c 	.word	0x0000fc0c

000097e0 <iobuf_fdopen>:
    97e0:	e92d4800 	push	{fp, lr}
    97e4:	e28db004 	add	fp, sp, #4
    97e8:	e24dd008 	sub	sp, sp, #8
    97ec:	e50b0008 	str	r0, [fp, #-8]
    97f0:	e50b100c 	str	r1, [fp, #-12]
    97f4:	e3a02000 	mov	r2, #0
    97f8:	e51b100c 	ldr	r1, [fp, #-12]
    97fc:	e51b0008 	ldr	r0, [fp, #-8]
    9800:	ebffff94 	bl	9658 <do_iobuf_fdopen>
    9804:	e1a03000 	mov	r3, r0
    9808:	e1a00003 	mov	r0, r3
    980c:	e24bd004 	sub	sp, fp, #4
    9810:	e8bd8800 	pop	{fp, pc}

00009814 <iobuf_ioctl>:
    9814:	e92d4870 	push	{r4, r5, r6, fp, lr}
    9818:	e28db010 	add	fp, sp, #16
    981c:	e24dd04c 	sub	sp, sp, #76	; 0x4c
    9820:	e50b0048 	str	r0, [fp, #-72]	; 0xffffffb8
    9824:	e50b2050 	str	r2, [fp, #-80]	; 0xffffffb0
    9828:	e50b3054 	str	r3, [fp, #-84]	; 0xffffffac
    982c:	e1a03001 	mov	r3, r1
    9830:	e54b3049 	strb	r3, [fp, #-73]	; 0xffffffb7
    9834:	e59f4430 	ldr	r4, [pc, #1072]	; 9c6c <iobuf_ioctl+0x458>
    9838:	e08f4004 	add	r4, pc, r4
    983c:	e55b1049 	ldrb	r1, [fp, #-73]	; 0xffffffb7
    9840:	e51b3054 	ldr	r3, [fp, #-84]	; 0xffffffac
    9844:	e51b2050 	ldr	r2, [fp, #-80]	; 0xffffffb0
    9848:	e59f0420 	ldr	r0, [pc, #1056]	; 9c70 <iobuf_ioctl+0x45c>
    984c:	e08f0000 	add	r0, pc, r0
    9850:	eb002cc7 	bl	14b74 <tfp_printf>
    9854:	e55b3049 	ldrb	r3, [fp, #-73]	; 0xffffffb7
    9858:	e3530001 	cmp	r3, #1
    985c:	1a000039 	bne	9948 <iobuf_ioctl+0x134>
    9860:	e59f340c 	ldr	r3, [pc, #1036]	; 9c74 <iobuf_ioctl+0x460>
    9864:	e7943003 	ldr	r3, [r4, r3]
    9868:	e5933000 	ldr	r3, [r3]
    986c:	e3530000 	cmp	r3, #0
    9870:	0a000030 	beq	9938 <iobuf_ioctl+0x124>
    9874:	e51b3048 	ldr	r3, [fp, #-72]	; 0xffffffb8
    9878:	e3530000 	cmp	r3, #0
    987c:	0a000002 	beq	988c <iobuf_ioctl+0x78>
    9880:	e51b3048 	ldr	r3, [fp, #-72]	; 0xffffffb8
    9884:	e5935040 	ldr	r5, [r3, #64]	; 0x40
    9888:	ea000000 	b	9890 <iobuf_ioctl+0x7c>
    988c:	e3e05000 	mvn	r5, #0
    9890:	e51b3048 	ldr	r3, [fp, #-72]	; 0xffffffb8
    9894:	e3530000 	cmp	r3, #0
    9898:	0a000002 	beq	98a8 <iobuf_ioctl+0x94>
    989c:	e51b3048 	ldr	r3, [fp, #-72]	; 0xffffffb8
    98a0:	e5936044 	ldr	r6, [r3, #68]	; 0x44
    98a4:	ea000000 	b	98ac <iobuf_ioctl+0x98>
    98a8:	e3e06000 	mvn	r6, #0
    98ac:	e24b3040 	sub	r3, fp, #64	; 0x40
    98b0:	e1a01003 	mov	r1, r3
    98b4:	e51b0048 	ldr	r0, [fp, #-72]	; 0xffffffb8
    98b8:	ebfffe97 	bl	931c <iobuf_desc>
    98bc:	e1a02000 	mov	r2, r0
    98c0:	e51b3050 	ldr	r3, [fp, #-80]	; 0xffffffb0
    98c4:	e58d3000 	str	r3, [sp]
    98c8:	e1a03002 	mov	r3, r2
    98cc:	e1a02006 	mov	r2, r6
    98d0:	e1a01005 	mov	r1, r5
    98d4:	e59f039c 	ldr	r0, [pc, #924]	; 9c78 <iobuf_ioctl+0x464>
    98d8:	e08f0000 	add	r0, pc, r0
    98dc:	eb002ca4 	bl	14b74 <tfp_printf>
    98e0:	ea000014 	b	9938 <iobuf_ioctl+0x124>
    98e4:	e51b3048 	ldr	r3, [fp, #-72]	; 0xffffffb8
    98e8:	e593303c 	ldr	r3, [r3, #60]	; 0x3c
    98ec:	e3530000 	cmp	r3, #0
    98f0:	1a00000d 	bne	992c <iobuf_ioctl+0x118>
    98f4:	e51b3048 	ldr	r3, [fp, #-72]	; 0xffffffb8
    98f8:	e593302c 	ldr	r3, [r3, #44]	; 0x2c
    98fc:	e59f2378 	ldr	r2, [pc, #888]	; 9c7c <iobuf_ioctl+0x468>
    9900:	e7942002 	ldr	r2, [r4, r2]
    9904:	e1530002 	cmp	r3, r2
    9908:	1a000007 	bne	992c <iobuf_ioctl+0x118>
    990c:	e51b3048 	ldr	r3, [fp, #-72]	; 0xffffffb8
    9910:	e5933030 	ldr	r3, [r3, #48]	; 0x30
    9914:	e50b3020 	str	r3, [fp, #-32]	; 0xffffffe0
    9918:	e51b3020 	ldr	r3, [fp, #-32]	; 0xffffffe0
    991c:	e51b2050 	ldr	r2, [fp, #-80]	; 0xffffffb0
    9920:	e5832004 	str	r2, [r3, #4]
    9924:	e3a03000 	mov	r3, #0
    9928:	ea0000cc 	b	9c60 <iobuf_ioctl+0x44c>
    992c:	e51b3048 	ldr	r3, [fp, #-72]	; 0xffffffb8
    9930:	e593303c 	ldr	r3, [r3, #60]	; 0x3c
    9934:	e50b3048 	str	r3, [fp, #-72]	; 0xffffffb8
    9938:	e51b3048 	ldr	r3, [fp, #-72]	; 0xffffffb8
    993c:	e3530000 	cmp	r3, #0
    9940:	1affffe7 	bne	98e4 <iobuf_ioctl+0xd0>
    9944:	ea0000c4 	b	9c5c <iobuf_ioctl+0x448>
    9948:	e55b3049 	ldrb	r3, [fp, #-73]	; 0xffffffb7
    994c:	e3530002 	cmp	r3, #2
    9950:	1a000022 	bne	99e0 <iobuf_ioctl+0x1cc>
    9954:	e59f3318 	ldr	r3, [pc, #792]	; 9c74 <iobuf_ioctl+0x460>
    9958:	e7943003 	ldr	r3, [r4, r3]
    995c:	e5933000 	ldr	r3, [r3]
    9960:	e3530000 	cmp	r3, #0
    9964:	0a00000b 	beq	9998 <iobuf_ioctl+0x184>
    9968:	e51b3054 	ldr	r3, [fp, #-84]	; 0xffffffac
    996c:	e3530000 	cmp	r3, #0
    9970:	0a000001 	beq	997c <iobuf_ioctl+0x168>
    9974:	e51b3054 	ldr	r3, [fp, #-84]	; 0xffffffac
    9978:	ea000001 	b	9984 <iobuf_ioctl+0x170>
    997c:	e59f32fc 	ldr	r3, [pc, #764]	; 9c80 <iobuf_ioctl+0x46c>
    9980:	e08f3003 	add	r3, pc, r3
    9984:	e1a01003 	mov	r1, r3
    9988:	e59f32f4 	ldr	r3, [pc, #756]	; 9c84 <iobuf_ioctl+0x470>
    998c:	e08f3003 	add	r3, pc, r3
    9990:	e1a00003 	mov	r0, r3
    9994:	eb002c76 	bl	14b74 <tfp_printf>
    9998:	e51b3048 	ldr	r3, [fp, #-72]	; 0xffffffb8
    999c:	e3530000 	cmp	r3, #0
    99a0:	1a0000ad 	bne	9c5c <iobuf_ioctl+0x448>
    99a4:	e51b3050 	ldr	r3, [fp, #-80]	; 0xffffffb0
    99a8:	e3530000 	cmp	r3, #0
    99ac:	1a0000aa 	bne	9c5c <iobuf_ioctl+0x448>
    99b0:	e51b3054 	ldr	r3, [fp, #-84]	; 0xffffffac
    99b4:	e3530000 	cmp	r3, #0
    99b8:	0a0000a7 	beq	9c5c <iobuf_ioctl+0x448>
    99bc:	e51b0054 	ldr	r0, [fp, #-84]	; 0xffffffac
    99c0:	ebfffa15 	bl	821c <fd_cache_invalidate>
    99c4:	e1a03000 	mov	r3, r0
    99c8:	e3530000 	cmp	r3, #0
    99cc:	0a000001 	beq	99d8 <iobuf_ioctl+0x1c4>
    99d0:	e3e03000 	mvn	r3, #0
    99d4:	ea0000a1 	b	9c60 <iobuf_ioctl+0x44c>
    99d8:	e3a03000 	mov	r3, #0
    99dc:	ea00009f 	b	9c60 <iobuf_ioctl+0x44c>
    99e0:	e55b3049 	ldrb	r3, [fp, #-73]	; 0xffffffb7
    99e4:	e3530003 	cmp	r3, #3
    99e8:	1a000039 	bne	9ad4 <iobuf_ioctl+0x2c0>
    99ec:	e59f3280 	ldr	r3, [pc, #640]	; 9c74 <iobuf_ioctl+0x460>
    99f0:	e7943003 	ldr	r3, [r4, r3]
    99f4:	e5933000 	ldr	r3, [r3]
    99f8:	e3530000 	cmp	r3, #0
    99fc:	0a000030 	beq	9ac4 <iobuf_ioctl+0x2b0>
    9a00:	e51b3048 	ldr	r3, [fp, #-72]	; 0xffffffb8
    9a04:	e3530000 	cmp	r3, #0
    9a08:	0a000002 	beq	9a18 <iobuf_ioctl+0x204>
    9a0c:	e51b3048 	ldr	r3, [fp, #-72]	; 0xffffffb8
    9a10:	e5935040 	ldr	r5, [r3, #64]	; 0x40
    9a14:	ea000000 	b	9a1c <iobuf_ioctl+0x208>
    9a18:	e3e05000 	mvn	r5, #0
    9a1c:	e51b3048 	ldr	r3, [fp, #-72]	; 0xffffffb8
    9a20:	e3530000 	cmp	r3, #0
    9a24:	0a000002 	beq	9a34 <iobuf_ioctl+0x220>
    9a28:	e51b3048 	ldr	r3, [fp, #-72]	; 0xffffffb8
    9a2c:	e5936044 	ldr	r6, [r3, #68]	; 0x44
    9a30:	ea000000 	b	9a38 <iobuf_ioctl+0x224>
    9a34:	e3e06000 	mvn	r6, #0
    9a38:	e24b3040 	sub	r3, fp, #64	; 0x40
    9a3c:	e1a01003 	mov	r1, r3
    9a40:	e51b0048 	ldr	r0, [fp, #-72]	; 0xffffffb8
    9a44:	ebfffe34 	bl	931c <iobuf_desc>
    9a48:	e1a02000 	mov	r2, r0
    9a4c:	e51b3050 	ldr	r3, [fp, #-80]	; 0xffffffb0
    9a50:	e58d3000 	str	r3, [sp]
    9a54:	e1a03002 	mov	r3, r2
    9a58:	e1a02006 	mov	r2, r6
    9a5c:	e1a01005 	mov	r1, r5
    9a60:	e59f0220 	ldr	r0, [pc, #544]	; 9c88 <iobuf_ioctl+0x474>
    9a64:	e08f0000 	add	r0, pc, r0
    9a68:	eb002c41 	bl	14b74 <tfp_printf>
    9a6c:	ea000014 	b	9ac4 <iobuf_ioctl+0x2b0>
    9a70:	e51b3048 	ldr	r3, [fp, #-72]	; 0xffffffb8
    9a74:	e593303c 	ldr	r3, [r3, #60]	; 0x3c
    9a78:	e3530000 	cmp	r3, #0
    9a7c:	1a00000d 	bne	9ab8 <iobuf_ioctl+0x2a4>
    9a80:	e51b3048 	ldr	r3, [fp, #-72]	; 0xffffffb8
    9a84:	e593302c 	ldr	r3, [r3, #44]	; 0x2c
    9a88:	e59f21ec 	ldr	r2, [pc, #492]	; 9c7c <iobuf_ioctl+0x468>
    9a8c:	e7942002 	ldr	r2, [r4, r2]
    9a90:	e1530002 	cmp	r3, r2
    9a94:	1a000007 	bne	9ab8 <iobuf_ioctl+0x2a4>
    9a98:	e51b3048 	ldr	r3, [fp, #-72]	; 0xffffffb8
    9a9c:	e5933030 	ldr	r3, [r3, #48]	; 0x30
    9aa0:	e50b301c 	str	r3, [fp, #-28]	; 0xffffffe4
    9aa4:	e51b301c 	ldr	r3, [fp, #-28]	; 0xffffffe4
    9aa8:	e51b2050 	ldr	r2, [fp, #-80]	; 0xffffffb0
    9aac:	e5832008 	str	r2, [r3, #8]
    9ab0:	e3a03000 	mov	r3, #0
    9ab4:	ea000069 	b	9c60 <iobuf_ioctl+0x44c>
    9ab8:	e51b3048 	ldr	r3, [fp, #-72]	; 0xffffffb8
    9abc:	e593303c 	ldr	r3, [r3, #60]	; 0x3c
    9ac0:	e50b3048 	str	r3, [fp, #-72]	; 0xffffffb8
    9ac4:	e51b3048 	ldr	r3, [fp, #-72]	; 0xffffffb8
    9ac8:	e3530000 	cmp	r3, #0
    9acc:	1affffe7 	bne	9a70 <iobuf_ioctl+0x25c>
    9ad0:	ea000061 	b	9c5c <iobuf_ioctl+0x448>
    9ad4:	e55b3049 	ldrb	r3, [fp, #-73]	; 0xffffffb7
    9ad8:	e3530004 	cmp	r3, #4
    9adc:	1a00001d 	bne	9b58 <iobuf_ioctl+0x344>
    9ae0:	e59f318c 	ldr	r3, [pc, #396]	; 9c74 <iobuf_ioctl+0x460>
    9ae4:	e7943003 	ldr	r3, [r4, r3]
    9ae8:	e5933000 	ldr	r3, [r3]
    9aec:	e3530000 	cmp	r3, #0
    9af0:	0a00000b 	beq	9b24 <iobuf_ioctl+0x310>
    9af4:	e51b3054 	ldr	r3, [fp, #-84]	; 0xffffffac
    9af8:	e3530000 	cmp	r3, #0
    9afc:	0a000001 	beq	9b08 <iobuf_ioctl+0x2f4>
    9b00:	e51b3054 	ldr	r3, [fp, #-84]	; 0xffffffac
    9b04:	ea000001 	b	9b10 <iobuf_ioctl+0x2fc>
    9b08:	e59f317c 	ldr	r3, [pc, #380]	; 9c8c <iobuf_ioctl+0x478>
    9b0c:	e08f3003 	add	r3, pc, r3
    9b10:	e1a01003 	mov	r1, r3
    9b14:	e59f3174 	ldr	r3, [pc, #372]	; 9c90 <iobuf_ioctl+0x47c>
    9b18:	e08f3003 	add	r3, pc, r3
    9b1c:	e1a00003 	mov	r0, r3
    9b20:	eb002c13 	bl	14b74 <tfp_printf>
    9b24:	e51b3048 	ldr	r3, [fp, #-72]	; 0xffffffb8
    9b28:	e3530000 	cmp	r3, #0
    9b2c:	1a00004a 	bne	9c5c <iobuf_ioctl+0x448>
    9b30:	e51b3050 	ldr	r3, [fp, #-80]	; 0xffffffb0
    9b34:	e3530000 	cmp	r3, #0
    9b38:	1a000047 	bne	9c5c <iobuf_ioctl+0x448>
    9b3c:	e51b3054 	ldr	r3, [fp, #-84]	; 0xffffffac
    9b40:	e3530000 	cmp	r3, #0
    9b44:	0a000044 	beq	9c5c <iobuf_ioctl+0x448>
    9b48:	e51b0054 	ldr	r0, [fp, #-84]	; 0xffffffac
    9b4c:	ebfff9f5 	bl	8328 <fd_cache_synchronize>
    9b50:	e1a03000 	mov	r3, r0
    9b54:	ea000041 	b	9c60 <iobuf_ioctl+0x44c>
    9b58:	e55b3049 	ldrb	r3, [fp, #-73]	; 0xffffffb7
    9b5c:	e3530005 	cmp	r3, #5
    9b60:	1a00003d 	bne	9c5c <iobuf_ioctl+0x448>
    9b64:	e59f3108 	ldr	r3, [pc, #264]	; 9c74 <iobuf_ioctl+0x460>
    9b68:	e7943003 	ldr	r3, [r4, r3]
    9b6c:	e5933000 	ldr	r3, [r3]
    9b70:	e3530000 	cmp	r3, #0
    9b74:	0a000017 	beq	9bd8 <iobuf_ioctl+0x3c4>
    9b78:	e51b3048 	ldr	r3, [fp, #-72]	; 0xffffffb8
    9b7c:	e3530000 	cmp	r3, #0
    9b80:	0a000002 	beq	9b90 <iobuf_ioctl+0x37c>
    9b84:	e51b3048 	ldr	r3, [fp, #-72]	; 0xffffffb8
    9b88:	e5935040 	ldr	r5, [r3, #64]	; 0x40
    9b8c:	ea000000 	b	9b94 <iobuf_ioctl+0x380>
    9b90:	e3e05000 	mvn	r5, #0
    9b94:	e51b3048 	ldr	r3, [fp, #-72]	; 0xffffffb8
    9b98:	e3530000 	cmp	r3, #0
    9b9c:	0a000002 	beq	9bac <iobuf_ioctl+0x398>
    9ba0:	e51b3048 	ldr	r3, [fp, #-72]	; 0xffffffb8
    9ba4:	e5936044 	ldr	r6, [r3, #68]	; 0x44
    9ba8:	ea000000 	b	9bb0 <iobuf_ioctl+0x39c>
    9bac:	e3e06000 	mvn	r6, #0
    9bb0:	e24b3040 	sub	r3, fp, #64	; 0x40
    9bb4:	e1a01003 	mov	r1, r3
    9bb8:	e51b0048 	ldr	r0, [fp, #-72]	; 0xffffffb8
    9bbc:	ebfffdd6 	bl	931c <iobuf_desc>
    9bc0:	e1a03000 	mov	r3, r0
    9bc4:	e1a02006 	mov	r2, r6
    9bc8:	e1a01005 	mov	r1, r5
    9bcc:	e59f00c0 	ldr	r0, [pc, #192]	; 9c94 <iobuf_ioctl+0x480>
    9bd0:	e08f0000 	add	r0, pc, r0
    9bd4:	eb002be6 	bl	14b74 <tfp_printf>
    9bd8:	e51b3048 	ldr	r3, [fp, #-72]	; 0xffffffb8
    9bdc:	e593302c 	ldr	r3, [r3, #44]	; 0x2c
    9be0:	e59f2094 	ldr	r2, [pc, #148]	; 9c7c <iobuf_ioctl+0x468>
    9be4:	e7942002 	ldr	r2, [r4, r2]
    9be8:	e1530002 	cmp	r3, r2
    9bec:	1a00001a 	bne	9c5c <iobuf_ioctl+0x448>
    9bf0:	e51b3054 	ldr	r3, [fp, #-84]	; 0xffffffac
    9bf4:	e3530000 	cmp	r3, #0
    9bf8:	0a000017 	beq	9c5c <iobuf_ioctl+0x448>
    9bfc:	e51b3050 	ldr	r3, [fp, #-80]	; 0xffffffb0
    9c00:	e3530000 	cmp	r3, #0
    9c04:	0a000014 	beq	9c5c <iobuf_ioctl+0x448>
    9c08:	e59f3088 	ldr	r3, [pc, #136]	; 9c98 <iobuf_ioctl+0x484>
    9c0c:	e08f3003 	add	r3, pc, r3
    9c10:	e1a00003 	mov	r0, r3
    9c14:	eb002bd6 	bl	14b74 <tfp_printf>
    9c18:	e51b3048 	ldr	r3, [fp, #-72]	; 0xffffffb8
    9c1c:	e5933030 	ldr	r3, [r3, #48]	; 0x30
    9c20:	e50b3018 	str	r3, [fp, #-24]	; 0xffffffe8
    9c24:	e51b3050 	ldr	r3, [fp, #-80]	; 0xffffffb0
    9c28:	e50b3044 	str	r3, [fp, #-68]	; 0xffffffbc
    9c2c:	e24b3044 	sub	r3, fp, #68	; 0x44
    9c30:	e58d3000 	str	r3, [sp]
    9c34:	e51b3054 	ldr	r3, [fp, #-84]	; 0xffffffac
    9c38:	e3a02000 	mov	r2, #0
    9c3c:	e3a01007 	mov	r1, #7
    9c40:	e51b0018 	ldr	r0, [fp, #-24]	; 0xffffffe8
    9c44:	eb000584 	bl	b25c <file_filter>
    9c48:	e1a03000 	mov	r3, r0
    9c4c:	e3530000 	cmp	r3, #0
    9c50:	1a000001 	bne	9c5c <iobuf_ioctl+0x448>
    9c54:	e51b3044 	ldr	r3, [fp, #-68]	; 0xffffffbc
    9c58:	ea000000 	b	9c60 <iobuf_ioctl+0x44c>
    9c5c:	e3e03000 	mvn	r3, #0
    9c60:	e1a00003 	mov	r0, r3
    9c64:	e24bd010 	sub	sp, fp, #16
    9c68:	e8bd8870 	pop	{r4, r5, r6, fp, pc}
    9c6c:	00014060 	.word	0x00014060
    9c70:	0000fb74 	.word	0x0000fb74
    9c74:	0002ab08 	.word	0x0002ab08
    9c78:	0000fb00 	.word	0x0000fb00
    9c7c:	0002ab20 	.word	0x0002ab20
    9c80:	0000f8fc 	.word	0x0000f8fc
    9c84:	0000fa74 	.word	0x0000fa74
    9c88:	0000f9c0 	.word	0x0000f9c0
    9c8c:	0000f940 	.word	0x0000f940
    9c90:	0000f93c 	.word	0x0000f93c
    9c94:	0000f8a4 	.word	0x0000f8a4
    9c98:	0000f888 	.word	0x0000f888

00009c9c <iobuf_push_filter>:
    9c9c:	e92d4800 	push	{fp, lr}
    9ca0:	e28db004 	add	fp, sp, #4
    9ca4:	e24dd010 	sub	sp, sp, #16
    9ca8:	e50b0008 	str	r0, [fp, #-8]
    9cac:	e50b100c 	str	r1, [fp, #-12]
    9cb0:	e50b2010 	str	r2, [fp, #-16]
    9cb4:	e3a03000 	mov	r3, #0
    9cb8:	e51b2010 	ldr	r2, [fp, #-16]
    9cbc:	e51b100c 	ldr	r1, [fp, #-12]
    9cc0:	e51b0008 	ldr	r0, [fp, #-8]
    9cc4:	eb000003 	bl	9cd8 <iobuf_push_filter2>
    9cc8:	e1a03000 	mov	r3, r0
    9ccc:	e1a00003 	mov	r0, r3
    9cd0:	e24bd004 	sub	sp, fp, #4
    9cd4:	e8bd8800 	pop	{fp, pc}

00009cd8 <iobuf_push_filter2>:
    9cd8:	e92d4830 	push	{r4, r5, fp, lr}
    9cdc:	e28db00c 	add	fp, sp, #12
    9ce0:	e24dd048 	sub	sp, sp, #72	; 0x48
    9ce4:	e50b0040 	str	r0, [fp, #-64]	; 0xffffffc0
    9ce8:	e50b1044 	str	r1, [fp, #-68]	; 0xffffffbc
    9cec:	e50b2048 	str	r2, [fp, #-72]	; 0xffffffb8
    9cf0:	e50b304c 	str	r3, [fp, #-76]	; 0xffffffb4
    9cf4:	e59f4278 	ldr	r4, [pc, #632]	; 9f74 <iobuf_push_filter2+0x29c>
    9cf8:	e08f4004 	add	r4, pc, r4
    9cfc:	e3a03000 	mov	r3, #0
    9d00:	e50b3018 	str	r3, [fp, #-24]	; 0xffffffe8
    9d04:	e3a03000 	mov	r3, #0
    9d08:	e50b3010 	str	r3, [fp, #-16]
    9d0c:	e51b3040 	ldr	r3, [fp, #-64]	; 0xffffffc0
    9d10:	e5d33000 	ldrb	r3, [r3]
    9d14:	e3530002 	cmp	r3, #2
    9d18:	1a000007 	bne	9d3c <iobuf_push_filter2+0x64>
    9d1c:	e51b0040 	ldr	r0, [fp, #-64]	; 0xffffffc0
    9d20:	eb000294 	bl	a778 <filter_flush>
    9d24:	e50b0010 	str	r0, [fp, #-16]
    9d28:	e51b3010 	ldr	r3, [fp, #-16]
    9d2c:	e3530000 	cmp	r3, #0
    9d30:	0a000001 	beq	9d3c <iobuf_push_filter2+0x64>
    9d34:	e51b3010 	ldr	r3, [fp, #-16]
    9d38:	ea00008a 	b	9f68 <iobuf_push_filter2+0x290>
    9d3c:	e51b3040 	ldr	r3, [fp, #-64]	; 0xffffffc0
    9d40:	e5933044 	ldr	r3, [r3, #68]	; 0x44
    9d44:	e353003f 	cmp	r3, #63	; 0x3f
    9d48:	da000005 	ble	9d64 <iobuf_push_filter2+0x8c>
    9d4c:	e59f3224 	ldr	r3, [pc, #548]	; 9f78 <iobuf_push_filter2+0x2a0>
    9d50:	e08f3003 	add	r3, pc, r3
    9d54:	e1a00003 	mov	r0, r3
    9d58:	eb002b85 	bl	14b74 <tfp_printf>
    9d5c:	e3a03059 	mov	r3, #89	; 0x59
    9d60:	ea000080 	b	9f68 <iobuf_push_filter2+0x290>
    9d64:	e3a00048 	mov	r0, #72	; 0x48
    9d68:	eb001c1c 	bl	10de0 <xmalloc>
    9d6c:	e50b0014 	str	r0, [fp, #-20]	; 0xffffffec
    9d70:	e3a02048 	mov	r2, #72	; 0x48
    9d74:	e51b1040 	ldr	r1, [fp, #-64]	; 0xffffffc0
    9d78:	e51b0014 	ldr	r0, [fp, #-20]	; 0xffffffec
    9d7c:	eb001ccd 	bl	110b8 <memcpy>
    9d80:	e51b3040 	ldr	r3, [fp, #-64]	; 0xffffffc0
    9d84:	e3a02000 	mov	r2, #0
    9d88:	e583202c 	str	r2, [r3, #44]	; 0x2c
    9d8c:	e51b3040 	ldr	r3, [fp, #-64]	; 0xffffffc0
    9d90:	e3a02000 	mov	r2, #0
    9d94:	e5832030 	str	r2, [r3, #48]	; 0x30
    9d98:	e51b3040 	ldr	r3, [fp, #-64]	; 0xffffffc0
    9d9c:	e3a02000 	mov	r2, #0
    9da0:	e5832034 	str	r2, [r3, #52]	; 0x34
    9da4:	e51b3040 	ldr	r3, [fp, #-64]	; 0xffffffc0
    9da8:	e3a02000 	mov	r2, #0
    9dac:	e5832024 	str	r2, [r3, #36]	; 0x24
    9db0:	e51b3040 	ldr	r3, [fp, #-64]	; 0xffffffc0
    9db4:	e5d33000 	ldrb	r3, [r3]
    9db8:	e3530003 	cmp	r3, #3
    9dbc:	1a000006 	bne	9ddc <iobuf_push_filter2+0x104>
    9dc0:	e51b3040 	ldr	r3, [fp, #-64]	; 0xffffffc0
    9dc4:	e3a02002 	mov	r2, #2
    9dc8:	e5c32000 	strb	r2, [r3]
    9dcc:	e51b3040 	ldr	r3, [fp, #-64]	; 0xffffffc0
    9dd0:	e3a02a02 	mov	r2, #8192	; 0x2000
    9dd4:	e5832014 	str	r2, [r3, #20]
    9dd8:	ea000009 	b	9e04 <iobuf_push_filter2+0x12c>
    9ddc:	e51b3040 	ldr	r3, [fp, #-64]	; 0xffffffc0
    9de0:	e5d33000 	ldrb	r3, [r3]
    9de4:	e3530001 	cmp	r3, #1
    9de8:	1a000005 	bne	9e04 <iobuf_push_filter2+0x12c>
    9dec:	e51b3040 	ldr	r3, [fp, #-64]	; 0xffffffc0
    9df0:	e3a02000 	mov	r2, #0
    9df4:	e5c32000 	strb	r2, [r3]
    9df8:	e51b3040 	ldr	r3, [fp, #-64]	; 0xffffffc0
    9dfc:	e3a02a02 	mov	r2, #8192	; 0x2000
    9e00:	e5832014 	str	r2, [r3, #20]
    9e04:	e51b3040 	ldr	r3, [fp, #-64]	; 0xffffffc0
    9e08:	e5933014 	ldr	r3, [r3, #20]
    9e0c:	e1a00003 	mov	r0, r3
    9e10:	eb001bf2 	bl	10de0 <xmalloc>
    9e14:	e1a02000 	mov	r2, r0
    9e18:	e51b3040 	ldr	r3, [fp, #-64]	; 0xffffffc0
    9e1c:	e5832020 	str	r2, [r3, #32]
    9e20:	e51b3040 	ldr	r3, [fp, #-64]	; 0xffffffc0
    9e24:	e3a02000 	mov	r2, #0
    9e28:	e583201c 	str	r2, [r3, #28]
    9e2c:	e51b3040 	ldr	r3, [fp, #-64]	; 0xffffffc0
    9e30:	e3a02000 	mov	r2, #0
    9e34:	e5832018 	str	r2, [r3, #24]
    9e38:	e51b3014 	ldr	r3, [fp, #-20]	; 0xffffffec
    9e3c:	e593200c 	ldr	r2, [r3, #12]
    9e40:	e51b3014 	ldr	r3, [fp, #-20]	; 0xffffffec
    9e44:	e5933008 	ldr	r3, [r3, #8]
    9e48:	e0822003 	add	r2, r2, r3
    9e4c:	e51b3040 	ldr	r3, [fp, #-64]	; 0xffffffc0
    9e50:	e583200c 	str	r2, [r3, #12]
    9e54:	e51b3040 	ldr	r3, [fp, #-64]	; 0xffffffc0
    9e58:	e3a02000 	mov	r2, #0
    9e5c:	e5832008 	str	r2, [r3, #8]
    9e60:	e51b3040 	ldr	r3, [fp, #-64]	; 0xffffffc0
    9e64:	e5932008 	ldr	r2, [r3, #8]
    9e68:	e51b3040 	ldr	r3, [fp, #-64]	; 0xffffffc0
    9e6c:	e5832004 	str	r2, [r3, #4]
    9e70:	e51b3040 	ldr	r3, [fp, #-64]	; 0xffffffc0
    9e74:	e3a02000 	mov	r2, #0
    9e78:	e5832010 	str	r2, [r3, #16]
    9e7c:	e51b3040 	ldr	r3, [fp, #-64]	; 0xffffffc0
    9e80:	e51b2014 	ldr	r2, [fp, #-20]	; 0xffffffec
    9e84:	e583203c 	str	r2, [r3, #60]	; 0x3c
    9e88:	e51b3040 	ldr	r3, [fp, #-64]	; 0xffffffc0
    9e8c:	e51b2044 	ldr	r2, [fp, #-68]	; 0xffffffbc
    9e90:	e583202c 	str	r2, [r3, #44]	; 0x2c
    9e94:	e51b3040 	ldr	r3, [fp, #-64]	; 0xffffffc0
    9e98:	e51b2048 	ldr	r2, [fp, #-72]	; 0xffffffb8
    9e9c:	e5832030 	str	r2, [r3, #48]	; 0x30
    9ea0:	e51b3040 	ldr	r3, [fp, #-64]	; 0xffffffc0
    9ea4:	e51b204c 	ldr	r2, [fp, #-76]	; 0xffffffb4
    9ea8:	e5832034 	str	r2, [r3, #52]	; 0x34
    9eac:	e51b3014 	ldr	r3, [fp, #-20]	; 0xffffffec
    9eb0:	e5933044 	ldr	r3, [r3, #68]	; 0x44
    9eb4:	e2832001 	add	r2, r3, #1
    9eb8:	e51b3040 	ldr	r3, [fp, #-64]	; 0xffffffc0
    9ebc:	e5832044 	str	r2, [r3, #68]	; 0x44
    9ec0:	e59f30b4 	ldr	r3, [pc, #180]	; 9f7c <iobuf_push_filter2+0x2a4>
    9ec4:	e7943003 	ldr	r3, [r4, r3]
    9ec8:	e5933000 	ldr	r3, [r3]
    9ecc:	e3530000 	cmp	r3, #0
    9ed0:	0a00000f 	beq	9f14 <iobuf_push_filter2+0x23c>
    9ed4:	e51b3040 	ldr	r3, [fp, #-64]	; 0xffffffc0
    9ed8:	e5934040 	ldr	r4, [r3, #64]	; 0x40
    9edc:	e51b3040 	ldr	r3, [fp, #-64]	; 0xffffffc0
    9ee0:	e5935044 	ldr	r5, [r3, #68]	; 0x44
    9ee4:	e24b3038 	sub	r3, fp, #56	; 0x38
    9ee8:	e1a01003 	mov	r1, r3
    9eec:	e51b0040 	ldr	r0, [fp, #-64]	; 0xffffffc0
    9ef0:	ebfffd09 	bl	931c <iobuf_desc>
    9ef4:	e1a03000 	mov	r3, r0
    9ef8:	e1a02005 	mov	r2, r5
    9efc:	e1a01004 	mov	r1, r4
    9f00:	e59f0078 	ldr	r0, [pc, #120]	; 9f80 <iobuf_push_filter2+0x2a8>
    9f04:	e08f0000 	add	r0, pc, r0
    9f08:	eb002b19 	bl	14b74 <tfp_printf>
    9f0c:	e51b0040 	ldr	r0, [fp, #-64]	; 0xffffffc0
    9f10:	ebfffd25 	bl	93ac <print_chain>
    9f14:	e51b3040 	ldr	r3, [fp, #-64]	; 0xffffffc0
    9f18:	e593302c 	ldr	r3, [r3, #44]	; 0x2c
    9f1c:	e3530000 	cmp	r3, #0
    9f20:	0a000010 	beq	9f68 <iobuf_push_filter2+0x290>
    9f24:	e51b3040 	ldr	r3, [fp, #-64]	; 0xffffffc0
    9f28:	e593402c 	ldr	r4, [r3, #44]	; 0x2c
    9f2c:	e51b3040 	ldr	r3, [fp, #-64]	; 0xffffffc0
    9f30:	e5930030 	ldr	r0, [r3, #48]	; 0x30
    9f34:	e51b3040 	ldr	r3, [fp, #-64]	; 0xffffffc0
    9f38:	e593203c 	ldr	r2, [r3, #60]	; 0x3c
    9f3c:	e24b3018 	sub	r3, fp, #24
    9f40:	e58d3000 	str	r3, [sp]
    9f44:	e3a03000 	mov	r3, #0
    9f48:	e3a01001 	mov	r1, #1
    9f4c:	e12fff34 	blx	r4
    9f50:	e50b0010 	str	r0, [fp, #-16]
    9f54:	e51b3010 	ldr	r3, [fp, #-16]
    9f58:	e3530000 	cmp	r3, #0
    9f5c:	0a000001 	beq	9f68 <iobuf_push_filter2+0x290>
    9f60:	e51b3010 	ldr	r3, [fp, #-16]
    9f64:	eaffffff 	b	9f68 <iobuf_push_filter2+0x290>
    9f68:	e1a00003 	mov	r0, r3
    9f6c:	e24bd00c 	sub	sp, fp, #12
    9f70:	e8bd8830 	pop	{r4, r5, fp, pc}
    9f74:	00013ba0 	.word	0x00013ba0
    9f78:	0000f760 	.word	0x0000f760
    9f7c:	0002ab08 	.word	0x0002ab08
    9f80:	0000f5dc 	.word	0x0000f5dc

00009f84 <iobuf_pop_filter>:
    9f84:	e92d4870 	push	{r4, r5, r6, fp, lr}
    9f88:	e28db010 	add	fp, sp, #16
    9f8c:	e24dd04c 	sub	sp, sp, #76	; 0x4c
    9f90:	e50b0048 	str	r0, [fp, #-72]	; 0xffffffb8
    9f94:	e50b104c 	str	r1, [fp, #-76]	; 0xffffffb4
    9f98:	e50b2050 	str	r2, [fp, #-80]	; 0xffffffb0
    9f9c:	e59f438c 	ldr	r4, [pc, #908]	; a330 <iobuf_pop_filter+0x3ac>
    9fa0:	e08f4004 	add	r4, pc, r4
    9fa4:	e51b3048 	ldr	r3, [fp, #-72]	; 0xffffffb8
    9fa8:	e5933008 	ldr	r3, [r3, #8]
    9fac:	e1a01003 	mov	r1, r3
    9fb0:	e59f337c 	ldr	r3, [pc, #892]	; a334 <iobuf_pop_filter+0x3b0>
    9fb4:	e08f3003 	add	r3, pc, r3
    9fb8:	e1a00003 	mov	r0, r3
    9fbc:	eb002aec 	bl	14b74 <tfp_printf>
    9fc0:	e3a03000 	mov	r3, #0
    9fc4:	e50b3020 	str	r3, [fp, #-32]	; 0xffffffe0
    9fc8:	e3a03000 	mov	r3, #0
    9fcc:	e50b301c 	str	r3, [fp, #-28]	; 0xffffffe4
    9fd0:	e59f3360 	ldr	r3, [pc, #864]	; a338 <iobuf_pop_filter+0x3b4>
    9fd4:	e7943003 	ldr	r3, [r4, r3]
    9fd8:	e5933000 	ldr	r3, [r3]
    9fdc:	e3530000 	cmp	r3, #0
    9fe0:	0a00000d 	beq	a01c <iobuf_pop_filter+0x98>
    9fe4:	e51b3048 	ldr	r3, [fp, #-72]	; 0xffffffb8
    9fe8:	e5935040 	ldr	r5, [r3, #64]	; 0x40
    9fec:	e51b3048 	ldr	r3, [fp, #-72]	; 0xffffffb8
    9ff0:	e5936044 	ldr	r6, [r3, #68]	; 0x44
    9ff4:	e24b3040 	sub	r3, fp, #64	; 0x40
    9ff8:	e1a01003 	mov	r1, r3
    9ffc:	e51b0048 	ldr	r0, [fp, #-72]	; 0xffffffb8
    a000:	ebfffcc5 	bl	931c <iobuf_desc>
    a004:	e1a03000 	mov	r3, r0
    a008:	e1a02006 	mov	r2, r6
    a00c:	e1a01005 	mov	r1, r5
    a010:	e59f0324 	ldr	r0, [pc, #804]	; a33c <iobuf_pop_filter+0x3b8>
    a014:	e08f0000 	add	r0, pc, r0
    a018:	eb002ad5 	bl	14b74 <tfp_printf>
    a01c:	e51b3048 	ldr	r3, [fp, #-72]	; 0xffffffb8
    a020:	e5d33000 	ldrb	r3, [r3]
    a024:	e3530001 	cmp	r3, #1
    a028:	0a000003 	beq	a03c <iobuf_pop_filter+0xb8>
    a02c:	e51b3048 	ldr	r3, [fp, #-72]	; 0xffffffb8
    a030:	e5d33000 	ldrb	r3, [r3]
    a034:	e3530003 	cmp	r3, #3
    a038:	1a00000a 	bne	a068 <iobuf_pop_filter+0xe4>
    a03c:	e51b3048 	ldr	r3, [fp, #-72]	; 0xffffffb8
    a040:	e593303c 	ldr	r3, [r3, #60]	; 0x3c
    a044:	e3530000 	cmp	r3, #0
    a048:	1a000001 	bne	a054 <iobuf_pop_filter+0xd0>
    a04c:	e3a03001 	mov	r3, #1
    a050:	ea000000 	b	a058 <iobuf_pop_filter+0xd4>
    a054:	e3a03000 	mov	r3, #0
    a058:	e1a00003 	mov	r0, r3
    a05c:	eb002ac4 	bl	14b74 <tfp_printf>
    a060:	e3a03000 	mov	r3, #0
    a064:	ea0000ae 	b	a324 <iobuf_pop_filter+0x3a0>
    a068:	e51b3048 	ldr	r3, [fp, #-72]	; 0xffffffb8
    a06c:	e593302c 	ldr	r3, [r3, #44]	; 0x2c
    a070:	e3530000 	cmp	r3, #0
    a074:	1a000019 	bne	a0e0 <iobuf_pop_filter+0x15c>
    a078:	e51b3048 	ldr	r3, [fp, #-72]	; 0xffffffb8
    a07c:	e593303c 	ldr	r3, [r3, #60]	; 0x3c
    a080:	e50b3018 	str	r3, [fp, #-24]	; 0xffffffe8
    a084:	e51b0018 	ldr	r0, [fp, #-24]	; 0xffffffe8
    a088:	eb002ab9 	bl	14b74 <tfp_printf>
    a08c:	e51b3048 	ldr	r3, [fp, #-72]	; 0xffffffb8
    a090:	e5933020 	ldr	r3, [r3, #32]
    a094:	e1a00003 	mov	r0, r3
    a098:	eb001baf 	bl	10f5c <xfree>
    a09c:	e51b3048 	ldr	r3, [fp, #-72]	; 0xffffffb8
    a0a0:	e5933038 	ldr	r3, [r3, #56]	; 0x38
    a0a4:	e1a00003 	mov	r0, r3
    a0a8:	eb001bab 	bl	10f5c <xfree>
    a0ac:	e3a01048 	mov	r1, #72	; 0x48
    a0b0:	e59f3288 	ldr	r3, [pc, #648]	; a340 <iobuf_pop_filter+0x3bc>
    a0b4:	e08f3003 	add	r3, pc, r3
    a0b8:	e1a00003 	mov	r0, r3
    a0bc:	eb002aac 	bl	14b74 <tfp_printf>
    a0c0:	e3a02048 	mov	r2, #72	; 0x48
    a0c4:	e51b1018 	ldr	r1, [fp, #-24]	; 0xffffffe8
    a0c8:	e51b0048 	ldr	r0, [fp, #-72]	; 0xffffffb8
    a0cc:	eb001bf9 	bl	110b8 <memcpy>
    a0d0:	e51b0018 	ldr	r0, [fp, #-24]	; 0xffffffe8
    a0d4:	eb001ba0 	bl	10f5c <xfree>
    a0d8:	e3a03000 	mov	r3, #0
    a0dc:	ea000090 	b	a324 <iobuf_pop_filter+0x3a0>
    a0e0:	e51b3048 	ldr	r3, [fp, #-72]	; 0xffffffb8
    a0e4:	e50b3018 	str	r3, [fp, #-24]	; 0xffffffe8
    a0e8:	ea00000f 	b	a12c <iobuf_pop_filter+0x1a8>
    a0ec:	e51b3018 	ldr	r3, [fp, #-24]	; 0xffffffe8
    a0f0:	e593302c 	ldr	r3, [r3, #44]	; 0x2c
    a0f4:	e51b204c 	ldr	r2, [fp, #-76]	; 0xffffffb4
    a0f8:	e1520003 	cmp	r2, r3
    a0fc:	1a000007 	bne	a120 <iobuf_pop_filter+0x19c>
    a100:	e51b3050 	ldr	r3, [fp, #-80]	; 0xffffffb0
    a104:	e3530000 	cmp	r3, #0
    a108:	0a00000a 	beq	a138 <iobuf_pop_filter+0x1b4>
    a10c:	e51b3018 	ldr	r3, [fp, #-24]	; 0xffffffe8
    a110:	e5933030 	ldr	r3, [r3, #48]	; 0x30
    a114:	e51b2050 	ldr	r2, [fp, #-80]	; 0xffffffb0
    a118:	e1520003 	cmp	r2, r3
    a11c:	0a000005 	beq	a138 <iobuf_pop_filter+0x1b4>
    a120:	e51b3018 	ldr	r3, [fp, #-24]	; 0xffffffe8
    a124:	e593303c 	ldr	r3, [r3, #60]	; 0x3c
    a128:	e50b3018 	str	r3, [fp, #-24]	; 0xffffffe8
    a12c:	e51b3018 	ldr	r3, [fp, #-24]	; 0xffffffe8
    a130:	e3530000 	cmp	r3, #0
    a134:	1affffec 	bne	a0ec <iobuf_pop_filter+0x168>
    a138:	e51b3018 	ldr	r3, [fp, #-24]	; 0xffffffe8
    a13c:	e3530000 	cmp	r3, #0
    a140:	1a000003 	bne	a154 <iobuf_pop_filter+0x1d0>
    a144:	e59f31f8 	ldr	r3, [pc, #504]	; a344 <iobuf_pop_filter+0x3c0>
    a148:	e08f3003 	add	r3, pc, r3
    a14c:	e1a00003 	mov	r0, r3
    a150:	eb002a87 	bl	14b74 <tfp_printf>
    a154:	e51b3048 	ldr	r3, [fp, #-72]	; 0xffffffb8
    a158:	e5d33000 	ldrb	r3, [r3]
    a15c:	e3530002 	cmp	r3, #2
    a160:	1a000007 	bne	a184 <iobuf_pop_filter+0x200>
    a164:	e51b0018 	ldr	r0, [fp, #-24]	; 0xffffffe8
    a168:	eb000182 	bl	a778 <filter_flush>
    a16c:	e50b001c 	str	r0, [fp, #-28]	; 0xffffffe4
    a170:	e51b301c 	ldr	r3, [fp, #-28]	; 0xffffffe4
    a174:	e3530000 	cmp	r3, #0
    a178:	0a000001 	beq	a184 <iobuf_pop_filter+0x200>
    a17c:	e51b301c 	ldr	r3, [fp, #-28]	; 0xffffffe4
    a180:	ea000067 	b	a324 <iobuf_pop_filter+0x3a0>
    a184:	e51b3018 	ldr	r3, [fp, #-24]	; 0xffffffe8
    a188:	e593302c 	ldr	r3, [r3, #44]	; 0x2c
    a18c:	e3530000 	cmp	r3, #0
    a190:	0a000010 	beq	a1d8 <iobuf_pop_filter+0x254>
    a194:	e51b3018 	ldr	r3, [fp, #-24]	; 0xffffffe8
    a198:	e593502c 	ldr	r5, [r3, #44]	; 0x2c
    a19c:	e51b3018 	ldr	r3, [fp, #-24]	; 0xffffffe8
    a1a0:	e5930030 	ldr	r0, [r3, #48]	; 0x30
    a1a4:	e51b3018 	ldr	r3, [fp, #-24]	; 0xffffffe8
    a1a8:	e593203c 	ldr	r2, [r3, #60]	; 0x3c
    a1ac:	e24b3020 	sub	r3, fp, #32
    a1b0:	e58d3000 	str	r3, [sp]
    a1b4:	e3a03000 	mov	r3, #0
    a1b8:	e3a01002 	mov	r1, #2
    a1bc:	e12fff35 	blx	r5
    a1c0:	e50b001c 	str	r0, [fp, #-28]	; 0xffffffe4
    a1c4:	e51b301c 	ldr	r3, [fp, #-28]	; 0xffffffe4
    a1c8:	e3530000 	cmp	r3, #0
    a1cc:	0a000001 	beq	a1d8 <iobuf_pop_filter+0x254>
    a1d0:	e51b301c 	ldr	r3, [fp, #-28]	; 0xffffffe4
    a1d4:	ea000052 	b	a324 <iobuf_pop_filter+0x3a0>
    a1d8:	e51b3018 	ldr	r3, [fp, #-24]	; 0xffffffe8
    a1dc:	e5933030 	ldr	r3, [r3, #48]	; 0x30
    a1e0:	e3530000 	cmp	r3, #0
    a1e4:	0a00000a 	beq	a214 <iobuf_pop_filter+0x290>
    a1e8:	e51b3018 	ldr	r3, [fp, #-24]	; 0xffffffe8
    a1ec:	e5933034 	ldr	r3, [r3, #52]	; 0x34
    a1f0:	e3530000 	cmp	r3, #0
    a1f4:	0a000006 	beq	a214 <iobuf_pop_filter+0x290>
    a1f8:	e51b3018 	ldr	r3, [fp, #-24]	; 0xffffffe8
    a1fc:	e5933030 	ldr	r3, [r3, #48]	; 0x30
    a200:	e1a00003 	mov	r0, r3
    a204:	eb001b54 	bl	10f5c <xfree>
    a208:	e51b3018 	ldr	r3, [fp, #-24]	; 0xffffffe8
    a20c:	e3a02000 	mov	r2, #0
    a210:	e5832030 	str	r2, [r3, #48]	; 0x30
    a214:	e51b2048 	ldr	r2, [fp, #-72]	; 0xffffffb8
    a218:	e51b3018 	ldr	r3, [fp, #-24]	; 0xffffffe8
    a21c:	e1520003 	cmp	r2, r3
    a220:	1a000008 	bne	a248 <iobuf_pop_filter+0x2c4>
    a224:	e51b3018 	ldr	r3, [fp, #-24]	; 0xffffffe8
    a228:	e593303c 	ldr	r3, [r3, #60]	; 0x3c
    a22c:	e3530000 	cmp	r3, #0
    a230:	1a000004 	bne	a248 <iobuf_pop_filter+0x2c4>
    a234:	e59f310c 	ldr	r3, [pc, #268]	; a348 <iobuf_pop_filter+0x3c4>
    a238:	e08f3003 	add	r3, pc, r3
    a23c:	e1a00003 	mov	r0, r3
    a240:	eb002a4b 	bl	14b74 <tfp_printf>
    a244:	ea000035 	b	a320 <iobuf_pop_filter+0x39c>
    a248:	e51b2048 	ldr	r2, [fp, #-72]	; 0xffffffb8
    a24c:	e51b3018 	ldr	r3, [fp, #-24]	; 0xffffffe8
    a250:	e1520003 	cmp	r2, r3
    a254:	1a000024 	bne	a2ec <iobuf_pop_filter+0x368>
    a258:	e51b3048 	ldr	r3, [fp, #-72]	; 0xffffffb8
    a25c:	e593303c 	ldr	r3, [r3, #60]	; 0x3c
    a260:	e50b3018 	str	r3, [fp, #-24]	; 0xffffffe8
    a264:	e51b3048 	ldr	r3, [fp, #-72]	; 0xffffffb8
    a268:	e5933020 	ldr	r3, [r3, #32]
    a26c:	e1a00003 	mov	r0, r3
    a270:	eb001b39 	bl	10f5c <xfree>
    a274:	e51b3048 	ldr	r3, [fp, #-72]	; 0xffffffb8
    a278:	e5933038 	ldr	r3, [r3, #56]	; 0x38
    a27c:	e1a00003 	mov	r0, r3
    a280:	eb001b35 	bl	10f5c <xfree>
    a284:	e3a02048 	mov	r2, #72	; 0x48
    a288:	e51b1018 	ldr	r1, [fp, #-24]	; 0xffffffe8
    a28c:	e51b0048 	ldr	r0, [fp, #-72]	; 0xffffffb8
    a290:	eb001b88 	bl	110b8 <memcpy>
    a294:	e51b0018 	ldr	r0, [fp, #-24]	; 0xffffffe8
    a298:	eb001b2f 	bl	10f5c <xfree>
    a29c:	e3a01048 	mov	r1, #72	; 0x48
    a2a0:	e59f30a4 	ldr	r3, [pc, #164]	; a34c <iobuf_pop_filter+0x3c8>
    a2a4:	e08f3003 	add	r3, pc, r3
    a2a8:	e1a00003 	mov	r0, r3
    a2ac:	eb002a30 	bl	14b74 <tfp_printf>
    a2b0:	e59f3080 	ldr	r3, [pc, #128]	; a338 <iobuf_pop_filter+0x3b4>
    a2b4:	e7943003 	ldr	r3, [r4, r3]
    a2b8:	e5933000 	ldr	r3, [r3]
    a2bc:	e3530000 	cmp	r3, #0
    a2c0:	0a000016 	beq	a320 <iobuf_pop_filter+0x39c>
    a2c4:	e51b3048 	ldr	r3, [fp, #-72]	; 0xffffffb8
    a2c8:	e5931040 	ldr	r1, [r3, #64]	; 0x40
    a2cc:	e51b3048 	ldr	r3, [fp, #-72]	; 0xffffffb8
    a2d0:	e5933044 	ldr	r3, [r3, #68]	; 0x44
    a2d4:	e1a02003 	mov	r2, r3
    a2d8:	e59f3070 	ldr	r3, [pc, #112]	; a350 <iobuf_pop_filter+0x3cc>
    a2dc:	e08f3003 	add	r3, pc, r3
    a2e0:	e1a00003 	mov	r0, r3
    a2e4:	eb002a22 	bl	14b74 <tfp_printf>
    a2e8:	ea00000c 	b	a320 <iobuf_pop_filter+0x39c>
    a2ec:	e51b3018 	ldr	r3, [fp, #-24]	; 0xffffffe8
    a2f0:	e593303c 	ldr	r3, [r3, #60]	; 0x3c
    a2f4:	e3530000 	cmp	r3, #0
    a2f8:	1a000004 	bne	a310 <iobuf_pop_filter+0x38c>
    a2fc:	e59f3050 	ldr	r3, [pc, #80]	; a354 <iobuf_pop_filter+0x3d0>
    a300:	e08f3003 	add	r3, pc, r3
    a304:	e1a00003 	mov	r0, r3
    a308:	eb002a19 	bl	14b74 <tfp_printf>
    a30c:	ea000003 	b	a320 <iobuf_pop_filter+0x39c>
    a310:	e59f3040 	ldr	r3, [pc, #64]	; a358 <iobuf_pop_filter+0x3d4>
    a314:	e08f3003 	add	r3, pc, r3
    a318:	e1a00003 	mov	r0, r3
    a31c:	eb002a14 	bl	14b74 <tfp_printf>
    a320:	e51b301c 	ldr	r3, [fp, #-28]	; 0xffffffe4
    a324:	e1a00003 	mov	r0, r3
    a328:	e24bd010 	sub	sp, fp, #16
    a32c:	e8bd8870 	pop	{r4, r5, r6, fp, pc}
    a330:	000138f8 	.word	0x000138f8
    a334:	0000f544 	.word	0x0000f544
    a338:	0002ab08 	.word	0x0002ab08
    a33c:	0000f4fc 	.word	0x0000f4fc
    a340:	0000f474 	.word	0x0000f474
    a344:	0000f400 	.word	0x0000f400
    a348:	0000f340 	.word	0x0000f340
    a34c:	0000f304 	.word	0x0000f304
    a350:	0000f2f8 	.word	0x0000f2f8
    a354:	0000f2f0 	.word	0x0000f2f0
    a358:	0000f308 	.word	0x0000f308

0000a35c <underflow>:
    a35c:	e92d4800 	push	{fp, lr}
    a360:	e28db004 	add	fp, sp, #4
    a364:	e24dd008 	sub	sp, sp, #8
    a368:	e50b0008 	str	r0, [fp, #-8]
    a36c:	e50b100c 	str	r1, [fp, #-12]
    a370:	e3a02001 	mov	r2, #1
    a374:	e51b100c 	ldr	r1, [fp, #-12]
    a378:	e51b0008 	ldr	r0, [fp, #-8]
    a37c:	eb000003 	bl	a390 <underflow_target>
    a380:	e1a03000 	mov	r3, r0
    a384:	e1a00003 	mov	r0, r3
    a388:	e24bd004 	sub	sp, fp, #4
    a38c:	e8bd8800 	pop	{fp, pc}

0000a390 <underflow_target>:
    a390:	e92d4810 	push	{r4, fp, lr}
    a394:	e28db008 	add	fp, sp, #8
    a398:	e24dd034 	sub	sp, sp, #52	; 0x34
    a39c:	e50b0028 	str	r0, [fp, #-40]	; 0xffffffd8
    a3a0:	e50b102c 	str	r1, [fp, #-44]	; 0xffffffd4
    a3a4:	e50b2030 	str	r2, [fp, #-48]	; 0xffffffd0
    a3a8:	e51b3028 	ldr	r3, [fp, #-40]	; 0xffffffd8
    a3ac:	e5d33000 	ldrb	r3, [r3]
    a3b0:	e3530001 	cmp	r3, #1
    a3b4:	1a000001 	bne	a3c0 <underflow_target+0x30>
    a3b8:	e3e03000 	mvn	r3, #0
    a3bc:	ea0000e9 	b	a768 <underflow_target+0x3d8>
    a3c0:	e51b3028 	ldr	r3, [fp, #-40]	; 0xffffffd8
    a3c4:	e593201c 	ldr	r2, [r3, #28]
    a3c8:	e51b3028 	ldr	r3, [fp, #-40]	; 0xffffffd8
    a3cc:	e5933018 	ldr	r3, [r3, #24]
    a3d0:	e0422003 	sub	r2, r2, r3
    a3d4:	e51b3028 	ldr	r3, [fp, #-40]	; 0xffffffd8
    a3d8:	e583201c 	str	r2, [r3, #28]
    a3dc:	e51b3028 	ldr	r3, [fp, #-40]	; 0xffffffd8
    a3e0:	e5930020 	ldr	r0, [r3, #32]
    a3e4:	e51b3028 	ldr	r3, [fp, #-40]	; 0xffffffd8
    a3e8:	e5932020 	ldr	r2, [r3, #32]
    a3ec:	e51b3028 	ldr	r3, [fp, #-40]	; 0xffffffd8
    a3f0:	e5933018 	ldr	r3, [r3, #24]
    a3f4:	e0821003 	add	r1, r2, r3
    a3f8:	e51b3028 	ldr	r3, [fp, #-40]	; 0xffffffd8
    a3fc:	e593301c 	ldr	r3, [r3, #28]
    a400:	e1a02003 	mov	r2, r3
    a404:	eb001b48 	bl	1112c <memmove>
    a408:	e51b3028 	ldr	r3, [fp, #-40]	; 0xffffffd8
    a40c:	e3a02000 	mov	r2, #0
    a410:	e5832018 	str	r2, [r3, #24]
    a414:	e51b3028 	ldr	r3, [fp, #-40]	; 0xffffffd8
    a418:	e593301c 	ldr	r3, [r3, #28]
    a41c:	e51b2030 	ldr	r2, [fp, #-48]	; 0xffffffd0
    a420:	e1520003 	cmp	r2, r3
    a424:	9a000025 	bls	a4c0 <underflow_target+0x130>
    a428:	e51b3028 	ldr	r3, [fp, #-40]	; 0xffffffd8
    a42c:	e5933024 	ldr	r3, [r3, #36]	; 0x24
    a430:	e3530000 	cmp	r3, #0
    a434:	0a000021 	beq	a4c0 <underflow_target+0x130>
    a438:	e51b302c 	ldr	r3, [fp, #-44]	; 0xffffffd4
    a43c:	e3530000 	cmp	r3, #0
    a440:	1a000001 	bne	a44c <underflow_target+0xbc>
    a444:	e3e03000 	mvn	r3, #0
    a448:	ea0000c6 	b	a768 <underflow_target+0x3d8>
    a44c:	e51b3028 	ldr	r3, [fp, #-40]	; 0xffffffd8
    a450:	e593303c 	ldr	r3, [r3, #60]	; 0x3c
    a454:	e3530000 	cmp	r3, #0
    a458:	0a000013 	beq	a4ac <underflow_target+0x11c>
    a45c:	e51b3028 	ldr	r3, [fp, #-40]	; 0xffffffd8
    a460:	e593303c 	ldr	r3, [r3, #60]	; 0x3c
    a464:	e50b3014 	str	r3, [fp, #-20]	; 0xffffffec
    a468:	e51b3028 	ldr	r3, [fp, #-40]	; 0xffffffd8
    a46c:	e5933020 	ldr	r3, [r3, #32]
    a470:	e1a00003 	mov	r0, r3
    a474:	eb001ab8 	bl	10f5c <xfree>
    a478:	e51b3028 	ldr	r3, [fp, #-40]	; 0xffffffd8
    a47c:	e5933038 	ldr	r3, [r3, #56]	; 0x38
    a480:	e1a00003 	mov	r0, r3
    a484:	eb001ab4 	bl	10f5c <xfree>
    a488:	e3a02048 	mov	r2, #72	; 0x48
    a48c:	e51b1014 	ldr	r1, [fp, #-20]	; 0xffffffec
    a490:	e51b0028 	ldr	r0, [fp, #-40]	; 0xffffffd8
    a494:	eb001b07 	bl	110b8 <memcpy>
    a498:	e51b0014 	ldr	r0, [fp, #-20]	; 0xffffffec
    a49c:	eb001aae 	bl	10f5c <xfree>
    a4a0:	e51b0028 	ldr	r0, [fp, #-40]	; 0xffffffd8
    a4a4:	ebfffbc0 	bl	93ac <print_chain>
    a4a8:	ea000002 	b	a4b8 <underflow_target+0x128>
    a4ac:	e51b3028 	ldr	r3, [fp, #-40]	; 0xffffffd8
    a4b0:	e3a02000 	mov	r2, #0
    a4b4:	e5832024 	str	r2, [r3, #36]	; 0x24
    a4b8:	e3e03000 	mvn	r3, #0
    a4bc:	ea0000a9 	b	a768 <underflow_target+0x3d8>
    a4c0:	e51b3028 	ldr	r3, [fp, #-40]	; 0xffffffd8
    a4c4:	e593301c 	ldr	r3, [r3, #28]
    a4c8:	e3530000 	cmp	r3, #0
    a4cc:	1a000005 	bne	a4e8 <underflow_target+0x158>
    a4d0:	e51b3028 	ldr	r3, [fp, #-40]	; 0xffffffd8
    a4d4:	e5933028 	ldr	r3, [r3, #40]	; 0x28
    a4d8:	e3530000 	cmp	r3, #0
    a4dc:	0a000001 	beq	a4e8 <underflow_target+0x158>
    a4e0:	e3e03000 	mvn	r3, #0
    a4e4:	ea00009f 	b	a768 <underflow_target+0x3d8>
    a4e8:	e51b3028 	ldr	r3, [fp, #-40]	; 0xffffffd8
    a4ec:	e593302c 	ldr	r3, [r3, #44]	; 0x2c
    a4f0:	e3530000 	cmp	r3, #0
    a4f4:	0a00008a 	beq	a724 <underflow_target+0x394>
    a4f8:	e51b3028 	ldr	r3, [fp, #-40]	; 0xffffffd8
    a4fc:	e5933024 	ldr	r3, [r3, #36]	; 0x24
    a500:	e3530000 	cmp	r3, #0
    a504:	1a000086 	bne	a724 <underflow_target+0x394>
    a508:	e51b3028 	ldr	r3, [fp, #-40]	; 0xffffffd8
    a50c:	e5933028 	ldr	r3, [r3, #40]	; 0x28
    a510:	e3530000 	cmp	r3, #0
    a514:	1a000082 	bne	a724 <underflow_target+0x394>
    a518:	e51b3028 	ldr	r3, [fp, #-40]	; 0xffffffd8
    a51c:	e5932014 	ldr	r2, [r3, #20]
    a520:	e51b3028 	ldr	r3, [fp, #-40]	; 0xffffffd8
    a524:	e593301c 	ldr	r3, [r3, #28]
    a528:	e0423003 	sub	r3, r2, r3
    a52c:	e50b301c 	str	r3, [fp, #-28]	; 0xffffffe4
    a530:	e51b301c 	ldr	r3, [fp, #-28]	; 0xffffffe4
    a534:	e3530000 	cmp	r3, #0
    a538:	1a000002 	bne	a548 <underflow_target+0x1b8>
    a53c:	e3a03000 	mov	r3, #0
    a540:	e50b3010 	str	r3, [fp, #-16]
    a544:	ea000011 	b	a590 <underflow_target+0x200>
    a548:	e51b3028 	ldr	r3, [fp, #-40]	; 0xffffffd8
    a54c:	e593402c 	ldr	r4, [r3, #44]	; 0x2c
    a550:	e51b3028 	ldr	r3, [fp, #-40]	; 0xffffffd8
    a554:	e5930030 	ldr	r0, [r3, #48]	; 0x30
    a558:	e51b3028 	ldr	r3, [fp, #-40]	; 0xffffffd8
    a55c:	e593103c 	ldr	r1, [r3, #60]	; 0x3c
    a560:	e51b3028 	ldr	r3, [fp, #-40]	; 0xffffffd8
    a564:	e5932020 	ldr	r2, [r3, #32]
    a568:	e51b3028 	ldr	r3, [fp, #-40]	; 0xffffffd8
    a56c:	e593301c 	ldr	r3, [r3, #28]
    a570:	e0822003 	add	r2, r2, r3
    a574:	e24b301c 	sub	r3, fp, #28
    a578:	e58d3000 	str	r3, [sp]
    a57c:	e1a03002 	mov	r3, r2
    a580:	e1a02001 	mov	r2, r1
    a584:	e3a01003 	mov	r1, #3
    a588:	e12fff34 	blx	r4
    a58c:	e50b0010 	str	r0, [fp, #-16]
    a590:	e51b3028 	ldr	r3, [fp, #-40]	; 0xffffffd8
    a594:	e593201c 	ldr	r2, [r3, #28]
    a598:	e51b301c 	ldr	r3, [fp, #-28]	; 0xffffffe4
    a59c:	e0822003 	add	r2, r2, r3
    a5a0:	e51b3028 	ldr	r3, [fp, #-40]	; 0xffffffd8
    a5a4:	e583201c 	str	r2, [r3, #28]
    a5a8:	e51b3010 	ldr	r3, [fp, #-16]
    a5ac:	e3730001 	cmn	r3, #1
    a5b0:	1a00004f 	bne	a6f4 <underflow_target+0x364>
    a5b4:	e3a03000 	mov	r3, #0
    a5b8:	e50b3020 	str	r3, [fp, #-32]	; 0xffffffe0
    a5bc:	e51b3028 	ldr	r3, [fp, #-40]	; 0xffffffd8
    a5c0:	e593402c 	ldr	r4, [r3, #44]	; 0x2c
    a5c4:	e51b3028 	ldr	r3, [fp, #-40]	; 0xffffffd8
    a5c8:	e5930030 	ldr	r0, [r3, #48]	; 0x30
    a5cc:	e51b3028 	ldr	r3, [fp, #-40]	; 0xffffffd8
    a5d0:	e593203c 	ldr	r2, [r3, #60]	; 0x3c
    a5d4:	e24b3020 	sub	r3, fp, #32
    a5d8:	e58d3000 	str	r3, [sp]
    a5dc:	e3a03000 	mov	r3, #0
    a5e0:	e3a01002 	mov	r1, #2
    a5e4:	e12fff34 	blx	r4
    a5e8:	e50b0010 	str	r0, [fp, #-16]
    a5ec:	e51b3010 	ldr	r3, [fp, #-16]
    a5f0:	e3530000 	cmp	r3, #0
    a5f4:	0a000003 	beq	a608 <underflow_target+0x278>
    a5f8:	e59f3174 	ldr	r3, [pc, #372]	; a774 <underflow_target+0x3e4>
    a5fc:	e08f3003 	add	r3, pc, r3
    a600:	e1a00003 	mov	r0, r3
    a604:	eb00295a 	bl	14b74 <tfp_printf>
    a608:	e51b3028 	ldr	r3, [fp, #-40]	; 0xffffffd8
    a60c:	e5933030 	ldr	r3, [r3, #48]	; 0x30
    a610:	e3530000 	cmp	r3, #0
    a614:	0a000007 	beq	a638 <underflow_target+0x2a8>
    a618:	e51b3028 	ldr	r3, [fp, #-40]	; 0xffffffd8
    a61c:	e5933034 	ldr	r3, [r3, #52]	; 0x34
    a620:	e3530000 	cmp	r3, #0
    a624:	0a000003 	beq	a638 <underflow_target+0x2a8>
    a628:	e51b3028 	ldr	r3, [fp, #-40]	; 0xffffffd8
    a62c:	e5933030 	ldr	r3, [r3, #48]	; 0x30
    a630:	e1a00003 	mov	r0, r3
    a634:	eb001a48 	bl	10f5c <xfree>
    a638:	e51b3028 	ldr	r3, [fp, #-40]	; 0xffffffd8
    a63c:	e3a02000 	mov	r2, #0
    a640:	e5832030 	str	r2, [r3, #48]	; 0x30
    a644:	e51b3028 	ldr	r3, [fp, #-40]	; 0xffffffd8
    a648:	e3a02000 	mov	r2, #0
    a64c:	e583202c 	str	r2, [r3, #44]	; 0x2c
    a650:	e51b3028 	ldr	r3, [fp, #-40]	; 0xffffffd8
    a654:	e3a02001 	mov	r2, #1
    a658:	e5832024 	str	r2, [r3, #36]	; 0x24
    a65c:	e51b302c 	ldr	r3, [fp, #-44]	; 0xffffffd4
    a660:	e3530000 	cmp	r3, #0
    a664:	0a00001c 	beq	a6dc <underflow_target+0x34c>
    a668:	e51b3028 	ldr	r3, [fp, #-40]	; 0xffffffd8
    a66c:	e593301c 	ldr	r3, [r3, #28]
    a670:	e3530000 	cmp	r3, #0
    a674:	1a000018 	bne	a6dc <underflow_target+0x34c>
    a678:	e51b3028 	ldr	r3, [fp, #-40]	; 0xffffffd8
    a67c:	e593303c 	ldr	r3, [r3, #60]	; 0x3c
    a680:	e3530000 	cmp	r3, #0
    a684:	0a000014 	beq	a6dc <underflow_target+0x34c>
    a688:	e51b3028 	ldr	r3, [fp, #-40]	; 0xffffffd8
    a68c:	e593303c 	ldr	r3, [r3, #60]	; 0x3c
    a690:	e50b3018 	str	r3, [fp, #-24]	; 0xffffffe8
    a694:	e51b3028 	ldr	r3, [fp, #-40]	; 0xffffffd8
    a698:	e5933020 	ldr	r3, [r3, #32]
    a69c:	e1a00003 	mov	r0, r3
    a6a0:	eb001a2d 	bl	10f5c <xfree>
    a6a4:	e51b3028 	ldr	r3, [fp, #-40]	; 0xffffffd8
    a6a8:	e5933038 	ldr	r3, [r3, #56]	; 0x38
    a6ac:	e1a00003 	mov	r0, r3
    a6b0:	eb001a29 	bl	10f5c <xfree>
    a6b4:	e3a02048 	mov	r2, #72	; 0x48
    a6b8:	e51b1018 	ldr	r1, [fp, #-24]	; 0xffffffe8
    a6bc:	e51b0028 	ldr	r0, [fp, #-40]	; 0xffffffd8
    a6c0:	eb001a7c 	bl	110b8 <memcpy>
    a6c4:	e51b0018 	ldr	r0, [fp, #-24]	; 0xffffffe8
    a6c8:	eb001a23 	bl	10f5c <xfree>
    a6cc:	e51b0028 	ldr	r0, [fp, #-40]	; 0xffffffd8
    a6d0:	ebfffb35 	bl	93ac <print_chain>
    a6d4:	e3e03000 	mvn	r3, #0
    a6d8:	ea000022 	b	a768 <underflow_target+0x3d8>
    a6dc:	e51b3028 	ldr	r3, [fp, #-40]	; 0xffffffd8
    a6e0:	e593301c 	ldr	r3, [r3, #28]
    a6e4:	e3530000 	cmp	r3, #0
    a6e8:	1a00000d 	bne	a724 <underflow_target+0x394>
    a6ec:	e3e03000 	mvn	r3, #0
    a6f0:	ea00001c 	b	a768 <underflow_target+0x3d8>
    a6f4:	e51b3010 	ldr	r3, [fp, #-16]
    a6f8:	e3530000 	cmp	r3, #0
    a6fc:	0a000008 	beq	a724 <underflow_target+0x394>
    a700:	e51b3028 	ldr	r3, [fp, #-40]	; 0xffffffd8
    a704:	e51b2010 	ldr	r2, [fp, #-16]
    a708:	e5832028 	str	r2, [r3, #40]	; 0x28
    a70c:	e51b3028 	ldr	r3, [fp, #-40]	; 0xffffffd8
    a710:	e593301c 	ldr	r3, [r3, #28]
    a714:	e3530000 	cmp	r3, #0
    a718:	1a000001 	bne	a724 <underflow_target+0x394>
    a71c:	e3e03000 	mvn	r3, #0
    a720:	ea000010 	b	a768 <underflow_target+0x3d8>
    a724:	e51b3028 	ldr	r3, [fp, #-40]	; 0xffffffd8
    a728:	e5932018 	ldr	r2, [r3, #24]
    a72c:	e51b3028 	ldr	r3, [fp, #-40]	; 0xffffffd8
    a730:	e593301c 	ldr	r3, [r3, #28]
    a734:	e1520003 	cmp	r2, r3
    a738:	2a000009 	bcs	a764 <underflow_target+0x3d4>
    a73c:	e51b3028 	ldr	r3, [fp, #-40]	; 0xffffffd8
    a740:	e5932020 	ldr	r2, [r3, #32]
    a744:	e51b3028 	ldr	r3, [fp, #-40]	; 0xffffffd8
    a748:	e5933018 	ldr	r3, [r3, #24]
    a74c:	e2830001 	add	r0, r3, #1
    a750:	e51b1028 	ldr	r1, [fp, #-40]	; 0xffffffd8
    a754:	e5810018 	str	r0, [r1, #24]
    a758:	e0823003 	add	r3, r2, r3
    a75c:	e5d33000 	ldrb	r3, [r3]
    a760:	ea000000 	b	a768 <underflow_target+0x3d8>
    a764:	e3e03000 	mvn	r3, #0
    a768:	e1a00003 	mov	r0, r3
    a76c:	e24bd008 	sub	sp, fp, #8
    a770:	e8bd8810 	pop	{r4, fp, pc}
    a774:	0000f054 	.word	0x0000f054

0000a778 <filter_flush>:
    a778:	e92d4810 	push	{r4, fp, lr}
    a77c:	e28db008 	add	fp, sp, #8
    a780:	e24dd024 	sub	sp, sp, #36	; 0x24
    a784:	e50b0020 	str	r0, [fp, #-32]	; 0xffffffe0
    a788:	e59f2180 	ldr	r2, [pc, #384]	; a910 <filter_flush+0x198>
    a78c:	e08f2002 	add	r2, pc, r2
    a790:	e51b3020 	ldr	r3, [fp, #-32]	; 0xffffffe0
    a794:	e5d33000 	ldrb	r3, [r3]
    a798:	e3530003 	cmp	r3, #3
    a79c:	1a00001d 	bne	a818 <filter_flush+0xa0>
    a7a0:	e51b3020 	ldr	r3, [fp, #-32]	; 0xffffffe0
    a7a4:	e5933014 	ldr	r3, [r3, #20]
    a7a8:	e2833a02 	add	r3, r3, #8192	; 0x2000
    a7ac:	e50b3014 	str	r3, [fp, #-20]	; 0xffffffec
    a7b0:	e59f315c 	ldr	r3, [pc, #348]	; a914 <filter_flush+0x19c>
    a7b4:	e7923003 	ldr	r3, [r2, r3]
    a7b8:	e5933000 	ldr	r3, [r3]
    a7bc:	e3530000 	cmp	r3, #0
    a7c0:	0a000007 	beq	a7e4 <filter_flush+0x6c>
    a7c4:	e51b3020 	ldr	r3, [fp, #-32]	; 0xffffffe0
    a7c8:	e5933014 	ldr	r3, [r3, #20]
    a7cc:	e51b2014 	ldr	r2, [fp, #-20]	; 0xffffffec
    a7d0:	e1a01003 	mov	r1, r3
    a7d4:	e59f313c 	ldr	r3, [pc, #316]	; a918 <filter_flush+0x1a0>
    a7d8:	e08f3003 	add	r3, pc, r3
    a7dc:	e1a00003 	mov	r0, r3
    a7e0:	eb0028e3 	bl	14b74 <tfp_printf>
    a7e4:	e51b3020 	ldr	r3, [fp, #-32]	; 0xffffffe0
    a7e8:	e5933020 	ldr	r3, [r3, #32]
    a7ec:	e51b1014 	ldr	r1, [fp, #-20]	; 0xffffffec
    a7f0:	e1a00003 	mov	r0, r3
    a7f4:	eb0019e4 	bl	10f8c <xrealloc>
    a7f8:	e1a02000 	mov	r2, r0
    a7fc:	e51b3020 	ldr	r3, [fp, #-32]	; 0xffffffe0
    a800:	e5832020 	str	r2, [r3, #32]
    a804:	e51b3020 	ldr	r3, [fp, #-32]	; 0xffffffe0
    a808:	e51b2014 	ldr	r2, [fp, #-20]	; 0xffffffec
    a80c:	e5832014 	str	r2, [r3, #20]
    a810:	e3a03000 	mov	r3, #0
    a814:	ea00003a 	b	a904 <filter_flush+0x18c>
    a818:	e51b3020 	ldr	r3, [fp, #-32]	; 0xffffffe0
    a81c:	e5d33000 	ldrb	r3, [r3]
    a820:	e3530002 	cmp	r3, #2
    a824:	0a000004 	beq	a83c <filter_flush+0xc4>
    a828:	e59f30ec 	ldr	r3, [pc, #236]	; a91c <filter_flush+0x1a4>
    a82c:	e08f3003 	add	r3, pc, r3
    a830:	e1a00003 	mov	r0, r3
    a834:	eb0028ce 	bl	14b74 <tfp_printf>
    a838:	ea000007 	b	a85c <filter_flush+0xe4>
    a83c:	e51b3020 	ldr	r3, [fp, #-32]	; 0xffffffe0
    a840:	e593302c 	ldr	r3, [r3, #44]	; 0x2c
    a844:	e3530000 	cmp	r3, #0
    a848:	1a000003 	bne	a85c <filter_flush+0xe4>
    a84c:	e59f30cc 	ldr	r3, [pc, #204]	; a920 <filter_flush+0x1a8>
    a850:	e08f3003 	add	r3, pc, r3
    a854:	e1a00003 	mov	r0, r3
    a858:	eb0028c5 	bl	14b74 <tfp_printf>
    a85c:	e51b3020 	ldr	r3, [fp, #-32]	; 0xffffffe0
    a860:	e593301c 	ldr	r3, [r3, #28]
    a864:	e50b3018 	str	r3, [fp, #-24]	; 0xffffffe8
    a868:	e51b3020 	ldr	r3, [fp, #-32]	; 0xffffffe0
    a86c:	e593402c 	ldr	r4, [r3, #44]	; 0x2c
    a870:	e51b3020 	ldr	r3, [fp, #-32]	; 0xffffffe0
    a874:	e5930030 	ldr	r0, [r3, #48]	; 0x30
    a878:	e51b3020 	ldr	r3, [fp, #-32]	; 0xffffffe0
    a87c:	e593203c 	ldr	r2, [r3, #60]	; 0x3c
    a880:	e51b3020 	ldr	r3, [fp, #-32]	; 0xffffffe0
    a884:	e5931020 	ldr	r1, [r3, #32]
    a888:	e24b3018 	sub	r3, fp, #24
    a88c:	e58d3000 	str	r3, [sp]
    a890:	e1a03001 	mov	r3, r1
    a894:	e3a01004 	mov	r1, #4
    a898:	e12fff34 	blx	r4
    a89c:	e50b0010 	str	r0, [fp, #-16]
    a8a0:	e51b3010 	ldr	r3, [fp, #-16]
    a8a4:	e3530000 	cmp	r3, #0
    a8a8:	1a00000b 	bne	a8dc <filter_flush+0x164>
    a8ac:	e51b3020 	ldr	r3, [fp, #-32]	; 0xffffffe0
    a8b0:	e593201c 	ldr	r2, [r3, #28]
    a8b4:	e51b3018 	ldr	r3, [fp, #-24]	; 0xffffffe8
    a8b8:	e1520003 	cmp	r2, r3
    a8bc:	0a000006 	beq	a8dc <filter_flush+0x164>
    a8c0:	e59f305c 	ldr	r3, [pc, #92]	; a924 <filter_flush+0x1ac>
    a8c4:	e08f3003 	add	r3, pc, r3
    a8c8:	e1a00003 	mov	r0, r3
    a8cc:	eb0028a8 	bl	14b74 <tfp_printf>
    a8d0:	e3a0303f 	mov	r3, #63	; 0x3f
    a8d4:	e50b3010 	str	r3, [fp, #-16]
    a8d8:	ea000005 	b	a8f4 <filter_flush+0x17c>
    a8dc:	e51b3010 	ldr	r3, [fp, #-16]
    a8e0:	e3530000 	cmp	r3, #0
    a8e4:	0a000002 	beq	a8f4 <filter_flush+0x17c>
    a8e8:	e51b3020 	ldr	r3, [fp, #-32]	; 0xffffffe0
    a8ec:	e51b2010 	ldr	r2, [fp, #-16]
    a8f0:	e5832028 	str	r2, [r3, #40]	; 0x28
    a8f4:	e51b3020 	ldr	r3, [fp, #-32]	; 0xffffffe0
    a8f8:	e3a02000 	mov	r2, #0
    a8fc:	e583201c 	str	r2, [r3, #28]
    a900:	e51b3010 	ldr	r3, [fp, #-16]
    a904:	e1a00003 	mov	r0, r3
    a908:	e24bd008 	sub	sp, fp, #8
    a90c:	e8bd8810 	pop	{r4, fp, pc}
    a910:	0001310c 	.word	0x0001310c
    a914:	0002ab08 	.word	0x0002ab08
    a918:	0000ee94 	.word	0x0000ee94
    a91c:	0000ee68 	.word	0x0000ee68
    a920:	0000ee60 	.word	0x0000ee60
    a924:	0000ee08 	.word	0x0000ee08

0000a928 <iobuf_readbyte>:
    a928:	e92d4800 	push	{fp, lr}
    a92c:	e28db004 	add	fp, sp, #4
    a930:	e24dd010 	sub	sp, sp, #16
    a934:	e50b0010 	str	r0, [fp, #-16]
    a938:	e51b3010 	ldr	r3, [fp, #-16]
    a93c:	e5d33000 	ldrb	r3, [r3]
    a940:	e3530002 	cmp	r3, #2
    a944:	0a000003 	beq	a958 <iobuf_readbyte+0x30>
    a948:	e51b3010 	ldr	r3, [fp, #-16]
    a94c:	e5d33000 	ldrb	r3, [r3]
    a950:	e3530003 	cmp	r3, #3
    a954:	1a000005 	bne	a970 <iobuf_readbyte+0x48>
    a958:	e59f30cc 	ldr	r3, [pc, #204]	; aa2c <iobuf_readbyte+0x104>
    a95c:	e08f3003 	add	r3, pc, r3
    a960:	e1a00003 	mov	r0, r3
    a964:	eb002882 	bl	14b74 <tfp_printf>
    a968:	e3e03000 	mvn	r3, #0
    a96c:	ea00002b 	b	aa20 <iobuf_readbyte+0xf8>
    a970:	e51b3010 	ldr	r3, [fp, #-16]
    a974:	e5933004 	ldr	r3, [r3, #4]
    a978:	e3530000 	cmp	r3, #0
    a97c:	0a000007 	beq	a9a0 <iobuf_readbyte+0x78>
    a980:	e51b3010 	ldr	r3, [fp, #-16]
    a984:	e5932008 	ldr	r2, [r3, #8]
    a988:	e51b3010 	ldr	r3, [fp, #-16]
    a98c:	e5933004 	ldr	r3, [r3, #4]
    a990:	e1520003 	cmp	r2, r3
    a994:	ba000001 	blt	a9a0 <iobuf_readbyte+0x78>
    a998:	e3e03000 	mvn	r3, #0
    a99c:	ea00001f 	b	aa20 <iobuf_readbyte+0xf8>
    a9a0:	e51b3010 	ldr	r3, [fp, #-16]
    a9a4:	e5932018 	ldr	r2, [r3, #24]
    a9a8:	e51b3010 	ldr	r3, [fp, #-16]
    a9ac:	e593301c 	ldr	r3, [r3, #28]
    a9b0:	e1520003 	cmp	r2, r3
    a9b4:	2a00000a 	bcs	a9e4 <iobuf_readbyte+0xbc>
    a9b8:	e51b3010 	ldr	r3, [fp, #-16]
    a9bc:	e5932020 	ldr	r2, [r3, #32]
    a9c0:	e51b3010 	ldr	r3, [fp, #-16]
    a9c4:	e5933018 	ldr	r3, [r3, #24]
    a9c8:	e2830001 	add	r0, r3, #1
    a9cc:	e51b1010 	ldr	r1, [fp, #-16]
    a9d0:	e5810018 	str	r0, [r1, #24]
    a9d4:	e0823003 	add	r3, r2, r3
    a9d8:	e5d33000 	ldrb	r3, [r3]
    a9dc:	e50b3008 	str	r3, [fp, #-8]
    a9e0:	ea000008 	b	aa08 <iobuf_readbyte+0xe0>
    a9e4:	e3a01001 	mov	r1, #1
    a9e8:	e51b0010 	ldr	r0, [fp, #-16]
    a9ec:	ebfffe5a 	bl	a35c <underflow>
    a9f0:	e50b0008 	str	r0, [fp, #-8]
    a9f4:	e51b3008 	ldr	r3, [fp, #-8]
    a9f8:	e3730001 	cmn	r3, #1
    a9fc:	1a000001 	bne	aa08 <iobuf_readbyte+0xe0>
    aa00:	e3e03000 	mvn	r3, #0
    aa04:	ea000005 	b	aa20 <iobuf_readbyte+0xf8>
    aa08:	e51b3010 	ldr	r3, [fp, #-16]
    aa0c:	e5933008 	ldr	r3, [r3, #8]
    aa10:	e2832001 	add	r2, r3, #1
    aa14:	e51b3010 	ldr	r3, [fp, #-16]
    aa18:	e5832008 	str	r2, [r3, #8]
    aa1c:	e51b3008 	ldr	r3, [fp, #-8]
    aa20:	e1a00003 	mov	r0, r3
    aa24:	e24bd004 	sub	sp, fp, #4
    aa28:	e8bd8800 	pop	{fp, pc}
    aa2c:	0000ed94 	.word	0x0000ed94

0000aa30 <iobuf_read>:
    aa30:	e92d4800 	push	{fp, lr}
    aa34:	e28db004 	add	fp, sp, #4
    aa38:	e24dd020 	sub	sp, sp, #32
    aa3c:	e50b0018 	str	r0, [fp, #-24]	; 0xffffffe8
    aa40:	e50b101c 	str	r1, [fp, #-28]	; 0xffffffe4
    aa44:	e50b2020 	str	r2, [fp, #-32]	; 0xffffffe0
    aa48:	e51b3018 	ldr	r3, [fp, #-24]	; 0xffffffe8
    aa4c:	e5933004 	ldr	r3, [r3, #4]
    aa50:	e1a02003 	mov	r2, r3
    aa54:	e51b1020 	ldr	r1, [fp, #-32]	; 0xffffffe0
    aa58:	e59f3240 	ldr	r3, [pc, #576]	; aca0 <iobuf_read+0x270>
    aa5c:	e08f3003 	add	r3, pc, r3
    aa60:	e1a00003 	mov	r0, r3
    aa64:	eb002842 	bl	14b74 <tfp_printf>
    aa68:	e51b301c 	ldr	r3, [fp, #-28]	; 0xffffffe4
    aa6c:	e50b3008 	str	r3, [fp, #-8]
    aa70:	e51b3018 	ldr	r3, [fp, #-24]	; 0xffffffe8
    aa74:	e5d33000 	ldrb	r3, [r3]
    aa78:	e3530002 	cmp	r3, #2
    aa7c:	0a000003 	beq	aa90 <iobuf_read+0x60>
    aa80:	e51b3018 	ldr	r3, [fp, #-24]	; 0xffffffe8
    aa84:	e5d33000 	ldrb	r3, [r3]
    aa88:	e3530003 	cmp	r3, #3
    aa8c:	1a000005 	bne	aaa8 <iobuf_read+0x78>
    aa90:	e59f320c 	ldr	r3, [pc, #524]	; aca4 <iobuf_read+0x274>
    aa94:	e08f3003 	add	r3, pc, r3
    aa98:	e1a00003 	mov	r0, r3
    aa9c:	eb002834 	bl	14b74 <tfp_printf>
    aaa0:	e3e03000 	mvn	r3, #0
    aaa4:	ea00007a 	b	ac94 <iobuf_read+0x264>
    aaa8:	e51b3018 	ldr	r3, [fp, #-24]	; 0xffffffe8
    aaac:	e5933004 	ldr	r3, [r3, #4]
    aab0:	e3530000 	cmp	r3, #0
    aab4:	0a000022 	beq	ab44 <iobuf_read+0x114>
    aab8:	e3a03000 	mov	r3, #0
    aabc:	e50b300c 	str	r3, [fp, #-12]
    aac0:	ea000017 	b	ab24 <iobuf_read+0xf4>
    aac4:	e51b0018 	ldr	r0, [fp, #-24]	; 0xffffffe8
    aac8:	ebffff96 	bl	a928 <iobuf_readbyte>
    aacc:	e50b0014 	str	r0, [fp, #-20]	; 0xffffffec
    aad0:	e51b3014 	ldr	r3, [fp, #-20]	; 0xffffffec
    aad4:	e3730001 	cmn	r3, #1
    aad8:	1a000004 	bne	aaf0 <iobuf_read+0xc0>
    aadc:	e51b300c 	ldr	r3, [fp, #-12]
    aae0:	e3530000 	cmp	r3, #0
    aae4:	1a000013 	bne	ab38 <iobuf_read+0x108>
    aae8:	e3e03000 	mvn	r3, #0
    aaec:	ea000068 	b	ac94 <iobuf_read+0x264>
    aaf0:	e51b3008 	ldr	r3, [fp, #-8]
    aaf4:	e3530000 	cmp	r3, #0
    aaf8:	0a000006 	beq	ab18 <iobuf_read+0xe8>
    aafc:	e51b3014 	ldr	r3, [fp, #-20]	; 0xffffffec
    ab00:	e6ef2073 	uxtb	r2, r3
    ab04:	e51b3008 	ldr	r3, [fp, #-8]
    ab08:	e5c32000 	strb	r2, [r3]
    ab0c:	e51b3008 	ldr	r3, [fp, #-8]
    ab10:	e2833001 	add	r3, r3, #1
    ab14:	e50b3008 	str	r3, [fp, #-8]
    ab18:	e51b300c 	ldr	r3, [fp, #-12]
    ab1c:	e2833001 	add	r3, r3, #1
    ab20:	e50b300c 	str	r3, [fp, #-12]
    ab24:	e51b300c 	ldr	r3, [fp, #-12]
    ab28:	e51b2020 	ldr	r2, [fp, #-32]	; 0xffffffe0
    ab2c:	e1520003 	cmp	r2, r3
    ab30:	8affffe3 	bhi	aac4 <iobuf_read+0x94>
    ab34:	ea000000 	b	ab3c <iobuf_read+0x10c>
    ab38:	e320f000 	nop	{0}
    ab3c:	e51b300c 	ldr	r3, [fp, #-12]
    ab40:	ea000053 	b	ac94 <iobuf_read+0x264>
    ab44:	e3a03000 	mov	r3, #0
    ab48:	e50b300c 	str	r3, [fp, #-12]
    ab4c:	e51b300c 	ldr	r3, [fp, #-12]
    ab50:	e51b2020 	ldr	r2, [fp, #-32]	; 0xffffffe0
    ab54:	e1520003 	cmp	r2, r3
    ab58:	9a000032 	bls	ac28 <iobuf_read+0x1f8>
    ab5c:	e51b3018 	ldr	r3, [fp, #-24]	; 0xffffffe8
    ab60:	e5932018 	ldr	r2, [r3, #24]
    ab64:	e51b3018 	ldr	r3, [fp, #-24]	; 0xffffffe8
    ab68:	e593301c 	ldr	r3, [r3, #28]
    ab6c:	e1520003 	cmp	r2, r3
    ab70:	2a00002c 	bcs	ac28 <iobuf_read+0x1f8>
    ab74:	e51b3018 	ldr	r3, [fp, #-24]	; 0xffffffe8
    ab78:	e593201c 	ldr	r2, [r3, #28]
    ab7c:	e51b3018 	ldr	r3, [fp, #-24]	; 0xffffffe8
    ab80:	e5933018 	ldr	r3, [r3, #24]
    ab84:	e0423003 	sub	r3, r2, r3
    ab88:	e50b3010 	str	r3, [fp, #-16]
    ab8c:	e51b300c 	ldr	r3, [fp, #-12]
    ab90:	e51b2020 	ldr	r2, [fp, #-32]	; 0xffffffe0
    ab94:	e0423003 	sub	r3, r2, r3
    ab98:	e51b2010 	ldr	r2, [fp, #-16]
    ab9c:	e1520003 	cmp	r2, r3
    aba0:	9a000003 	bls	abb4 <iobuf_read+0x184>
    aba4:	e51b300c 	ldr	r3, [fp, #-12]
    aba8:	e51b2020 	ldr	r2, [fp, #-32]	; 0xffffffe0
    abac:	e0423003 	sub	r3, r2, r3
    abb0:	e50b3010 	str	r3, [fp, #-16]
    abb4:	e51b3008 	ldr	r3, [fp, #-8]
    abb8:	e3530000 	cmp	r3, #0
    abbc:	0a000008 	beq	abe4 <iobuf_read+0x1b4>
    abc0:	e51b3018 	ldr	r3, [fp, #-24]	; 0xffffffe8
    abc4:	e5932020 	ldr	r2, [r3, #32]
    abc8:	e51b3018 	ldr	r3, [fp, #-24]	; 0xffffffe8
    abcc:	e5933018 	ldr	r3, [r3, #24]
    abd0:	e0823003 	add	r3, r2, r3
    abd4:	e51b2010 	ldr	r2, [fp, #-16]
    abd8:	e1a01003 	mov	r1, r3
    abdc:	e51b0008 	ldr	r0, [fp, #-8]
    abe0:	eb001934 	bl	110b8 <memcpy>
    abe4:	e51b200c 	ldr	r2, [fp, #-12]
    abe8:	e51b3010 	ldr	r3, [fp, #-16]
    abec:	e0823003 	add	r3, r2, r3
    abf0:	e50b300c 	str	r3, [fp, #-12]
    abf4:	e51b3018 	ldr	r3, [fp, #-24]	; 0xffffffe8
    abf8:	e5932018 	ldr	r2, [r3, #24]
    abfc:	e51b3010 	ldr	r3, [fp, #-16]
    ac00:	e0822003 	add	r2, r2, r3
    ac04:	e51b3018 	ldr	r3, [fp, #-24]	; 0xffffffe8
    ac08:	e5832018 	str	r2, [r3, #24]
    ac0c:	e51b3008 	ldr	r3, [fp, #-8]
    ac10:	e3530000 	cmp	r3, #0
    ac14:	0a000003 	beq	ac28 <iobuf_read+0x1f8>
    ac18:	e51b2008 	ldr	r2, [fp, #-8]
    ac1c:	e51b3010 	ldr	r3, [fp, #-16]
    ac20:	e0823003 	add	r3, r2, r3
    ac24:	e50b3008 	str	r3, [fp, #-8]
    ac28:	e51b300c 	ldr	r3, [fp, #-12]
    ac2c:	e51b2020 	ldr	r2, [fp, #-32]	; 0xffffffe0
    ac30:	e1520003 	cmp	r2, r3
    ac34:	9a00000b 	bls	ac68 <iobuf_read+0x238>
    ac38:	e51b3008 	ldr	r3, [fp, #-8]
    ac3c:	e3530000 	cmp	r3, #0
    ac40:	0a000005 	beq	ac5c <iobuf_read+0x22c>
    ac44:	e51b3008 	ldr	r3, [fp, #-8]
    ac48:	e2832001 	add	r2, r3, #1
    ac4c:	e50b2008 	str	r2, [fp, #-8]
    ac50:	e51b2014 	ldr	r2, [fp, #-20]	; 0xffffffec
    ac54:	e6ef2072 	uxtb	r2, r2
    ac58:	e5c32000 	strb	r2, [r3]
    ac5c:	e51b300c 	ldr	r3, [fp, #-12]
    ac60:	e2833001 	add	r3, r3, #1
    ac64:	e50b300c 	str	r3, [fp, #-12]
    ac68:	e51b300c 	ldr	r3, [fp, #-12]
    ac6c:	e51b2020 	ldr	r2, [fp, #-32]	; 0xffffffe0
    ac70:	e1520003 	cmp	r2, r3
    ac74:	8affffb4 	bhi	ab4c <iobuf_read+0x11c>
    ac78:	e51b3018 	ldr	r3, [fp, #-24]	; 0xffffffe8
    ac7c:	e5932008 	ldr	r2, [r3, #8]
    ac80:	e51b300c 	ldr	r3, [fp, #-12]
    ac84:	e0822003 	add	r2, r2, r3
    ac88:	e51b3018 	ldr	r3, [fp, #-24]	; 0xffffffe8
    ac8c:	e5832008 	str	r2, [r3, #8]
    ac90:	e51b300c 	ldr	r3, [fp, #-12]
    ac94:	e1a00003 	mov	r0, r3
    ac98:	e24bd004 	sub	sp, fp, #4
    ac9c:	e8bd8800 	pop	{fp, pc}
    aca0:	0000ecc4 	.word	0x0000ecc4
    aca4:	0000eca8 	.word	0x0000eca8

0000aca8 <iobuf_writebyte>:
    aca8:	e92d4800 	push	{fp, lr}
    acac:	e28db004 	add	fp, sp, #4
    acb0:	e24dd010 	sub	sp, sp, #16
    acb4:	e50b0010 	str	r0, [fp, #-16]
    acb8:	e50b1014 	str	r1, [fp, #-20]	; 0xffffffec
    acbc:	e51b1014 	ldr	r1, [fp, #-20]	; 0xffffffec
    acc0:	e59f30f0 	ldr	r3, [pc, #240]	; adb8 <iobuf_writebyte+0x110>
    acc4:	e08f3003 	add	r3, pc, r3
    acc8:	e1a00003 	mov	r0, r3
    accc:	eb0027a8 	bl	14b74 <tfp_printf>
    acd0:	e51b3010 	ldr	r3, [fp, #-16]
    acd4:	e5d33000 	ldrb	r3, [r3]
    acd8:	e3530000 	cmp	r3, #0
    acdc:	0a000003 	beq	acf0 <iobuf_writebyte+0x48>
    ace0:	e51b3010 	ldr	r3, [fp, #-16]
    ace4:	e5d33000 	ldrb	r3, [r3]
    ace8:	e3530001 	cmp	r3, #1
    acec:	1a000005 	bne	ad08 <iobuf_writebyte+0x60>
    acf0:	e59f30c4 	ldr	r3, [pc, #196]	; adbc <iobuf_writebyte+0x114>
    acf4:	e08f3003 	add	r3, pc, r3
    acf8:	e1a00003 	mov	r0, r3
    acfc:	eb00279c 	bl	14b74 <tfp_printf>
    ad00:	e3e03000 	mvn	r3, #0
    ad04:	ea000028 	b	adac <iobuf_writebyte+0x104>
    ad08:	e51b3010 	ldr	r3, [fp, #-16]
    ad0c:	e593201c 	ldr	r2, [r3, #28]
    ad10:	e51b3010 	ldr	r3, [fp, #-16]
    ad14:	e5933014 	ldr	r3, [r3, #20]
    ad18:	e1520003 	cmp	r2, r3
    ad1c:	1a00000b 	bne	ad50 <iobuf_writebyte+0xa8>
    ad20:	e51b0010 	ldr	r0, [fp, #-16]
    ad24:	ebfffe93 	bl	a778 <filter_flush>
    ad28:	e50b0008 	str	r0, [fp, #-8]
    ad2c:	e51b3008 	ldr	r3, [fp, #-8]
    ad30:	e3530000 	cmp	r3, #0
    ad34:	0a000005 	beq	ad50 <iobuf_writebyte+0xa8>
    ad38:	e59f3080 	ldr	r3, [pc, #128]	; adc0 <iobuf_writebyte+0x118>
    ad3c:	e08f3003 	add	r3, pc, r3
    ad40:	e1a00003 	mov	r0, r3
    ad44:	eb00278a 	bl	14b74 <tfp_printf>
    ad48:	e51b3008 	ldr	r3, [fp, #-8]
    ad4c:	ea000016 	b	adac <iobuf_writebyte+0x104>
    ad50:	e51b3010 	ldr	r3, [fp, #-16]
    ad54:	e593201c 	ldr	r2, [r3, #28]
    ad58:	e51b3010 	ldr	r3, [fp, #-16]
    ad5c:	e5933014 	ldr	r3, [r3, #20]
    ad60:	e1520003 	cmp	r2, r3
    ad64:	2a000001 	bcs	ad70 <iobuf_writebyte+0xc8>
    ad68:	e3a03001 	mov	r3, #1
    ad6c:	ea000000 	b	ad74 <iobuf_writebyte+0xcc>
    ad70:	e3a03000 	mov	r3, #0
    ad74:	e1a00003 	mov	r0, r3
    ad78:	eb00277d 	bl	14b74 <tfp_printf>
    ad7c:	e51b3010 	ldr	r3, [fp, #-16]
    ad80:	e5932020 	ldr	r2, [r3, #32]
    ad84:	e51b3010 	ldr	r3, [fp, #-16]
    ad88:	e593301c 	ldr	r3, [r3, #28]
    ad8c:	e2830001 	add	r0, r3, #1
    ad90:	e51b1010 	ldr	r1, [fp, #-16]
    ad94:	e581001c 	str	r0, [r1, #28]
    ad98:	e0823003 	add	r3, r2, r3
    ad9c:	e51b2014 	ldr	r2, [fp, #-20]	; 0xffffffec
    ada0:	e6ef2072 	uxtb	r2, r2
    ada4:	e5c32000 	strb	r2, [r3]
    ada8:	e3a03000 	mov	r3, #0
    adac:	e1a00003 	mov	r0, r3
    adb0:	e24bd004 	sub	sp, fp, #4
    adb4:	e8bd8800 	pop	{fp, pc}
    adb8:	0000eaa4 	.word	0x0000eaa4
    adbc:	0000ea8c 	.word	0x0000ea8c
    adc0:	0000ea74 	.word	0x0000ea74

0000adc4 <iobuf_write>:
    adc4:	e92d4800 	push	{fp, lr}
    adc8:	e28db004 	add	fp, sp, #4
    adcc:	e24dd020 	sub	sp, sp, #32
    add0:	e50b0018 	str	r0, [fp, #-24]	; 0xffffffe8
    add4:	e50b101c 	str	r1, [fp, #-28]	; 0xffffffe4
    add8:	e50b2020 	str	r2, [fp, #-32]	; 0xffffffe0
    addc:	e51b1020 	ldr	r1, [fp, #-32]	; 0xffffffe0
    ade0:	e59f3154 	ldr	r3, [pc, #340]	; af3c <iobuf_write+0x178>
    ade4:	e08f3003 	add	r3, pc, r3
    ade8:	e1a00003 	mov	r0, r3
    adec:	eb002760 	bl	14b74 <tfp_printf>
    adf0:	e51b301c 	ldr	r3, [fp, #-28]	; 0xffffffe4
    adf4:	e50b3008 	str	r3, [fp, #-8]
    adf8:	e51b3018 	ldr	r3, [fp, #-24]	; 0xffffffe8
    adfc:	e5d33000 	ldrb	r3, [r3]
    ae00:	e3530000 	cmp	r3, #0
    ae04:	0a000003 	beq	ae18 <iobuf_write+0x54>
    ae08:	e51b3018 	ldr	r3, [fp, #-24]	; 0xffffffe8
    ae0c:	e5d33000 	ldrb	r3, [r3]
    ae10:	e3530001 	cmp	r3, #1
    ae14:	1a000005 	bne	ae30 <iobuf_write+0x6c>
    ae18:	e59f3120 	ldr	r3, [pc, #288]	; af40 <iobuf_write+0x17c>
    ae1c:	e08f3003 	add	r3, pc, r3
    ae20:	e1a00003 	mov	r0, r3
    ae24:	eb002752 	bl	14b74 <tfp_printf>
    ae28:	e3e03000 	mvn	r3, #0
    ae2c:	ea00003f 	b	af30 <iobuf_write+0x16c>
    ae30:	e51b3020 	ldr	r3, [fp, #-32]	; 0xffffffe0
    ae34:	e3530000 	cmp	r3, #0
    ae38:	0a00002d 	beq	aef4 <iobuf_write+0x130>
    ae3c:	e51b3018 	ldr	r3, [fp, #-24]	; 0xffffffe8
    ae40:	e593201c 	ldr	r2, [r3, #28]
    ae44:	e51b3018 	ldr	r3, [fp, #-24]	; 0xffffffe8
    ae48:	e5933014 	ldr	r3, [r3, #20]
    ae4c:	e1520003 	cmp	r2, r3
    ae50:	2a000027 	bcs	aef4 <iobuf_write+0x130>
    ae54:	e51b3018 	ldr	r3, [fp, #-24]	; 0xffffffe8
    ae58:	e5932014 	ldr	r2, [r3, #20]
    ae5c:	e51b3018 	ldr	r3, [fp, #-24]	; 0xffffffe8
    ae60:	e593301c 	ldr	r3, [r3, #28]
    ae64:	e0423003 	sub	r3, r2, r3
    ae68:	e50b300c 	str	r3, [fp, #-12]
    ae6c:	e51b200c 	ldr	r2, [fp, #-12]
    ae70:	e51b3020 	ldr	r3, [fp, #-32]	; 0xffffffe0
    ae74:	e1520003 	cmp	r2, r3
    ae78:	9a000001 	bls	ae84 <iobuf_write+0xc0>
    ae7c:	e51b3020 	ldr	r3, [fp, #-32]	; 0xffffffe0
    ae80:	e50b300c 	str	r3, [fp, #-12]
    ae84:	e51b3018 	ldr	r3, [fp, #-24]	; 0xffffffe8
    ae88:	e5932020 	ldr	r2, [r3, #32]
    ae8c:	e51b3018 	ldr	r3, [fp, #-24]	; 0xffffffe8
    ae90:	e593301c 	ldr	r3, [r3, #28]
    ae94:	e0823003 	add	r3, r2, r3
    ae98:	e51b200c 	ldr	r2, [fp, #-12]
    ae9c:	e51b1008 	ldr	r1, [fp, #-8]
    aea0:	e1a00003 	mov	r0, r3
    aea4:	eb001883 	bl	110b8 <memcpy>
    aea8:	e51b100c 	ldr	r1, [fp, #-12]
    aeac:	e59f3090 	ldr	r3, [pc, #144]	; af44 <iobuf_write+0x180>
    aeb0:	e08f3003 	add	r3, pc, r3
    aeb4:	e1a00003 	mov	r0, r3
    aeb8:	eb00272d 	bl	14b74 <tfp_printf>
    aebc:	e51b2020 	ldr	r2, [fp, #-32]	; 0xffffffe0
    aec0:	e51b300c 	ldr	r3, [fp, #-12]
    aec4:	e0423003 	sub	r3, r2, r3
    aec8:	e50b3020 	str	r3, [fp, #-32]	; 0xffffffe0
    aecc:	e51b2008 	ldr	r2, [fp, #-8]
    aed0:	e51b300c 	ldr	r3, [fp, #-12]
    aed4:	e0823003 	add	r3, r2, r3
    aed8:	e50b3008 	str	r3, [fp, #-8]
    aedc:	e51b3018 	ldr	r3, [fp, #-24]	; 0xffffffe8
    aee0:	e593201c 	ldr	r2, [r3, #28]
    aee4:	e51b300c 	ldr	r3, [fp, #-12]
    aee8:	e0822003 	add	r2, r2, r3
    aeec:	e51b3018 	ldr	r3, [fp, #-24]	; 0xffffffe8
    aef0:	e583201c 	str	r2, [r3, #28]
    aef4:	e51b3020 	ldr	r3, [fp, #-32]	; 0xffffffe0
    aef8:	e3530000 	cmp	r3, #0
    aefc:	0a000007 	beq	af20 <iobuf_write+0x15c>
    af00:	e51b0018 	ldr	r0, [fp, #-24]	; 0xffffffe8
    af04:	ebfffe1b 	bl	a778 <filter_flush>
    af08:	e50b0010 	str	r0, [fp, #-16]
    af0c:	e51b3010 	ldr	r3, [fp, #-16]
    af10:	e3530000 	cmp	r3, #0
    af14:	0a000001 	beq	af20 <iobuf_write+0x15c>
    af18:	e51b3010 	ldr	r3, [fp, #-16]
    af1c:	ea000003 	b	af30 <iobuf_write+0x16c>
    af20:	e51b3020 	ldr	r3, [fp, #-32]	; 0xffffffe0
    af24:	e3530000 	cmp	r3, #0
    af28:	1affffc0 	bne	ae30 <iobuf_write+0x6c>
    af2c:	e3a03000 	mov	r3, #0
    af30:	e1a00003 	mov	r0, r3
    af34:	e24bd004 	sub	sp, fp, #4
    af38:	e8bd8800 	pop	{fp, pc}
    af3c:	0000e9dc 	.word	0x0000e9dc
    af40:	0000e9b4 	.word	0x0000e9b4
    af44:	0000e94c 	.word	0x0000e94c

0000af48 <iobuf_tell>:
    af48:	e52db004 	push	{fp}		; (str fp, [sp, #-4]!)
    af4c:	e28db000 	add	fp, sp, #0
    af50:	e24dd00c 	sub	sp, sp, #12
    af54:	e50b0008 	str	r0, [fp, #-8]
    af58:	e51b3008 	ldr	r3, [fp, #-8]
    af5c:	e593200c 	ldr	r2, [r3, #12]
    af60:	e51b3008 	ldr	r3, [fp, #-8]
    af64:	e5933008 	ldr	r3, [r3, #8]
    af68:	e0823003 	add	r3, r2, r3
    af6c:	e1a00003 	mov	r0, r3
    af70:	e28bd000 	add	sp, fp, #0
    af74:	e49db004 	pop	{fp}		; (ldr fp, [sp], #4)
    af78:	e12fff1e 	bx	lr

0000af7c <iobuf_set_partial_body_length_mode>:
    af7c:	e92d4800 	push	{fp, lr}
    af80:	e28db004 	add	fp, sp, #4
    af84:	e24dd010 	sub	sp, sp, #16
    af88:	e50b0010 	str	r0, [fp, #-16]
    af8c:	e50b1014 	str	r1, [fp, #-20]	; 0xffffffec
    af90:	e51b3014 	ldr	r3, [fp, #-20]	; 0xffffffec
    af94:	e3530000 	cmp	r3, #0
    af98:	1a00001d 	bne	b014 <iobuf_set_partial_body_length_mode+0x98>
    af9c:	e51b3010 	ldr	r3, [fp, #-16]
    afa0:	e5d33000 	ldrb	r3, [r3]
    afa4:	e3530000 	cmp	r3, #0
    afa8:	1a000003 	bne	afbc <iobuf_set_partial_body_length_mode+0x40>
    afac:	e59f30cc 	ldr	r3, [pc, #204]	; b080 <iobuf_set_partial_body_length_mode+0x104>
    afb0:	e08f3003 	add	r3, pc, r3
    afb4:	e1a00003 	mov	r0, r3
    afb8:	eb0026ed 	bl	14b74 <tfp_printf>
    afbc:	e59f30c0 	ldr	r3, [pc, #192]	; b084 <iobuf_set_partial_body_length_mode+0x108>
    afc0:	e08f3003 	add	r3, pc, r3
    afc4:	e1a00003 	mov	r0, r3
    afc8:	eb0026e9 	bl	14b74 <tfp_printf>
    afcc:	e51b3010 	ldr	r3, [fp, #-16]
    afd0:	e593302c 	ldr	r3, [r3, #44]	; 0x2c
    afd4:	e59f20ac 	ldr	r2, [pc, #172]	; b088 <iobuf_set_partial_body_length_mode+0x10c>
    afd8:	e08f2002 	add	r2, pc, r2
    afdc:	e1530002 	cmp	r3, r2
    afe0:	1a000001 	bne	afec <iobuf_set_partial_body_length_mode+0x70>
    afe4:	e3a03001 	mov	r3, #1
    afe8:	ea000000 	b	aff0 <iobuf_set_partial_body_length_mode+0x74>
    afec:	e3a03000 	mov	r3, #0
    aff0:	e1a00003 	mov	r0, r3
    aff4:	eb0026de 	bl	14b74 <tfp_printf>
    aff8:	e3a02000 	mov	r2, #0
    affc:	e59f3088 	ldr	r3, [pc, #136]	; b08c <iobuf_set_partial_body_length_mode+0x110>
    b000:	e08f3003 	add	r3, pc, r3
    b004:	e1a01003 	mov	r1, r3
    b008:	e51b0010 	ldr	r0, [fp, #-16]
    b00c:	ebfffbdc 	bl	9f84 <iobuf_pop_filter>
    b010:	ea000017 	b	b074 <iobuf_set_partial_body_length_mode+0xf8>
    b014:	e3a01020 	mov	r1, #32
    b018:	e3a00001 	mov	r0, #1
    b01c:	eb0017ac 	bl	10ed4 <xcalloc>
    b020:	e50b0008 	str	r0, [fp, #-8]
    b024:	e51b3010 	ldr	r3, [fp, #-16]
    b028:	e5d33000 	ldrb	r3, [r3]
    b02c:	e1a02003 	mov	r2, r3
    b030:	e51b3008 	ldr	r3, [fp, #-8]
    b034:	e5832000 	str	r2, [r3]
    b038:	e51b3008 	ldr	r3, [fp, #-8]
    b03c:	e3a02001 	mov	r2, #1
    b040:	e583200c 	str	r2, [r3, #12]
    b044:	e51b3008 	ldr	r3, [fp, #-8]
    b048:	e3a02000 	mov	r2, #0
    b04c:	e5832004 	str	r2, [r3, #4]
    b050:	e51b2014 	ldr	r2, [fp, #-20]	; 0xffffffec
    b054:	e51b3008 	ldr	r3, [fp, #-8]
    b058:	e5832018 	str	r2, [r3, #24]
    b05c:	e51b2008 	ldr	r2, [fp, #-8]
    b060:	e59f3028 	ldr	r3, [pc, #40]	; b090 <iobuf_set_partial_body_length_mode+0x114>
    b064:	e08f3003 	add	r3, pc, r3
    b068:	e1a01003 	mov	r1, r3
    b06c:	e51b0010 	ldr	r0, [fp, #-16]
    b070:	ebfffb09 	bl	9c9c <iobuf_push_filter>
    b074:	e320f000 	nop	{0}
    b078:	e24bd004 	sub	sp, fp, #4
    b07c:	e8bd8800 	pop	{fp, pc}
    b080:	0000e978 	.word	0x0000e978
    b084:	0000e9ac 	.word	0x0000e9ac
    b088:	ffffd674 	.word	0xffffd674
    b08c:	ffffd64c 	.word	0xffffd64c
    b090:	ffffd5e8 	.word	0xffffd5e8

0000b094 <translate_file_handle>:
    b094:	e52db004 	push	{fp}		; (str fp, [sp, #-4]!)
    b098:	e28db000 	add	fp, sp, #0
    b09c:	e24dd00c 	sub	sp, sp, #12
    b0a0:	e50b0008 	str	r0, [fp, #-8]
    b0a4:	e50b100c 	str	r1, [fp, #-12]
    b0a8:	e51b3008 	ldr	r3, [fp, #-8]
    b0ac:	e1a00003 	mov	r0, r3
    b0b0:	e28bd000 	add	sp, fp, #0
    b0b4:	e49db004 	pop	{fp}		; (ldr fp, [sp], #4)
    b0b8:	e12fff1e 	bx	lr

0000b0bc <iobuf_skip_rest>:
    b0bc:	e92d4800 	push	{fp, lr}
    b0c0:	e28db004 	add	fp, sp, #4
    b0c4:	e24dd020 	sub	sp, sp, #32
    b0c8:	e50b0018 	str	r0, [fp, #-24]	; 0xffffffe8
    b0cc:	e50b101c 	str	r1, [fp, #-28]	; 0xffffffe4
    b0d0:	e50b2020 	str	r2, [fp, #-32]	; 0xffffffe0
    b0d4:	e51b3020 	ldr	r3, [fp, #-32]	; 0xffffffe0
    b0d8:	e3530000 	cmp	r3, #0
    b0dc:	0a000022 	beq	b16c <iobuf_skip_rest+0xb0>
    b0e0:	e51b3018 	ldr	r3, [fp, #-24]	; 0xffffffe8
    b0e4:	e5933010 	ldr	r3, [r3, #16]
    b0e8:	e3530000 	cmp	r3, #0
    b0ec:	1a000005 	bne	b108 <iobuf_skip_rest+0x4c>
    b0f0:	e51b3018 	ldr	r3, [fp, #-24]	; 0xffffffe8
    b0f4:	e5932018 	ldr	r2, [r3, #24]
    b0f8:	e51b3018 	ldr	r3, [fp, #-24]	; 0xffffffe8
    b0fc:	e593301c 	ldr	r3, [r3, #28]
    b100:	e1520003 	cmp	r2, r3
    b104:	3a000005 	bcc	b120 <iobuf_skip_rest+0x64>
    b108:	e51b0018 	ldr	r0, [fp, #-24]	; 0xffffffe8
    b10c:	ebfffe05 	bl	a928 <iobuf_readbyte>
    b110:	e1a03000 	mov	r3, r0
    b114:	e3730001 	cmn	r3, #1
    b118:	1a000012 	bne	b168 <iobuf_skip_rest+0xac>
    b11c:	ea00004b 	b	b250 <iobuf_skip_rest+0x194>
    b120:	e51b3018 	ldr	r3, [fp, #-24]	; 0xffffffe8
    b124:	e593201c 	ldr	r2, [r3, #28]
    b128:	e51b3018 	ldr	r3, [fp, #-24]	; 0xffffffe8
    b12c:	e5933018 	ldr	r3, [r3, #24]
    b130:	e0423003 	sub	r3, r2, r3
    b134:	e50b3010 	str	r3, [fp, #-16]
    b138:	e51b3018 	ldr	r3, [fp, #-24]	; 0xffffffe8
    b13c:	e5933008 	ldr	r3, [r3, #8]
    b140:	e1a02003 	mov	r2, r3
    b144:	e51b3010 	ldr	r3, [fp, #-16]
    b148:	e0823003 	add	r3, r2, r3
    b14c:	e1a02003 	mov	r2, r3
    b150:	e51b3018 	ldr	r3, [fp, #-24]	; 0xffffffe8
    b154:	e5832008 	str	r2, [r3, #8]
    b158:	e51b3018 	ldr	r3, [fp, #-24]	; 0xffffffe8
    b15c:	e593201c 	ldr	r2, [r3, #28]
    b160:	e51b3018 	ldr	r3, [fp, #-24]	; 0xffffffe8
    b164:	e5832018 	str	r2, [r3, #24]
    b168:	eaffffdc 	b	b0e0 <iobuf_skip_rest+0x24>
    b16c:	e51b301c 	ldr	r3, [fp, #-28]	; 0xffffffe4
    b170:	e50b3008 	str	r3, [fp, #-8]
    b174:	ea000030 	b	b23c <iobuf_skip_rest+0x180>
    b178:	e51b3018 	ldr	r3, [fp, #-24]	; 0xffffffe8
    b17c:	e5933010 	ldr	r3, [r3, #16]
    b180:	e3530000 	cmp	r3, #0
    b184:	1a000005 	bne	b1a0 <iobuf_skip_rest+0xe4>
    b188:	e51b3018 	ldr	r3, [fp, #-24]	; 0xffffffe8
    b18c:	e5932018 	ldr	r2, [r3, #24]
    b190:	e51b3018 	ldr	r3, [fp, #-24]	; 0xffffffe8
    b194:	e593301c 	ldr	r3, [r3, #28]
    b198:	e1520003 	cmp	r2, r3
    b19c:	3a000008 	bcc	b1c4 <iobuf_skip_rest+0x108>
    b1a0:	e51b0018 	ldr	r0, [fp, #-24]	; 0xffffffe8
    b1a4:	ebfffddf 	bl	a928 <iobuf_readbyte>
    b1a8:	e1a03000 	mov	r3, r0
    b1ac:	e3730001 	cmn	r3, #1
    b1b0:	0a000025 	beq	b24c <iobuf_skip_rest+0x190>
    b1b4:	e51b3008 	ldr	r3, [fp, #-8]
    b1b8:	e2433001 	sub	r3, r3, #1
    b1bc:	e50b3008 	str	r3, [fp, #-8]
    b1c0:	ea00001d 	b	b23c <iobuf_skip_rest+0x180>
    b1c4:	e51b3018 	ldr	r3, [fp, #-24]	; 0xffffffe8
    b1c8:	e593201c 	ldr	r2, [r3, #28]
    b1cc:	e51b3018 	ldr	r3, [fp, #-24]	; 0xffffffe8
    b1d0:	e5933018 	ldr	r3, [r3, #24]
    b1d4:	e0423003 	sub	r3, r2, r3
    b1d8:	e50b300c 	str	r3, [fp, #-12]
    b1dc:	e51b200c 	ldr	r2, [fp, #-12]
    b1e0:	e51b3008 	ldr	r3, [fp, #-8]
    b1e4:	e1520003 	cmp	r2, r3
    b1e8:	9a000001 	bls	b1f4 <iobuf_skip_rest+0x138>
    b1ec:	e51b3008 	ldr	r3, [fp, #-8]
    b1f0:	e50b300c 	str	r3, [fp, #-12]
    b1f4:	e51b3018 	ldr	r3, [fp, #-24]	; 0xffffffe8
    b1f8:	e5933008 	ldr	r3, [r3, #8]
    b1fc:	e1a02003 	mov	r2, r3
    b200:	e51b300c 	ldr	r3, [fp, #-12]
    b204:	e0823003 	add	r3, r2, r3
    b208:	e1a02003 	mov	r2, r3
    b20c:	e51b3018 	ldr	r3, [fp, #-24]	; 0xffffffe8
    b210:	e5832008 	str	r2, [r3, #8]
    b214:	e51b3018 	ldr	r3, [fp, #-24]	; 0xffffffe8
    b218:	e5932018 	ldr	r2, [r3, #24]
    b21c:	e51b300c 	ldr	r3, [fp, #-12]
    b220:	e0822003 	add	r2, r2, r3
    b224:	e51b3018 	ldr	r3, [fp, #-24]	; 0xffffffe8
    b228:	e5832018 	str	r2, [r3, #24]
    b22c:	e51b2008 	ldr	r2, [fp, #-8]
    b230:	e51b300c 	ldr	r3, [fp, #-12]
    b234:	e0423003 	sub	r3, r2, r3
    b238:	e50b3008 	str	r3, [fp, #-8]
    b23c:	e51b3008 	ldr	r3, [fp, #-8]
    b240:	e3530000 	cmp	r3, #0
    b244:	1affffcb 	bne	b178 <iobuf_skip_rest+0xbc>
    b248:	ea000000 	b	b250 <iobuf_skip_rest+0x194>
    b24c:	e320f000 	nop	{0}
    b250:	e320f000 	nop	{0}
    b254:	e24bd004 	sub	sp, fp, #4
    b258:	e8bd8800 	pop	{fp, pc}

0000b25c <file_filter>:
    b25c:	e92d4800 	push	{fp, lr}
    b260:	e28db004 	add	fp, sp, #4
    b264:	e24dd038 	sub	sp, sp, #56	; 0x38
    b268:	e50b0030 	str	r0, [fp, #-48]	; 0xffffffd0
    b26c:	e50b1034 	str	r1, [fp, #-52]	; 0xffffffcc
    b270:	e50b2038 	str	r2, [fp, #-56]	; 0xffffffc8
    b274:	e50b303c 	str	r3, [fp, #-60]	; 0xffffffc4
    b278:	e59f2350 	ldr	r2, [pc, #848]	; b5d0 <file_filter+0x374>
    b27c:	e08f2002 	add	r2, pc, r2
    b280:	e51b3030 	ldr	r3, [fp, #-48]	; 0xffffffd0
    b284:	e50b3010 	str	r3, [fp, #-16]
    b288:	e51b3010 	ldr	r3, [fp, #-16]
    b28c:	e5933000 	ldr	r3, [r3]
    b290:	e50b3014 	str	r3, [fp, #-20]	; 0xffffffec
    b294:	e59b3004 	ldr	r3, [fp, #4]
    b298:	e5933000 	ldr	r3, [r3]
    b29c:	e50b3018 	str	r3, [fp, #-24]	; 0xffffffe8
    b2a0:	e3a03000 	mov	r3, #0
    b2a4:	e50b3008 	str	r3, [fp, #-8]
    b2a8:	e3a03000 	mov	r3, #0
    b2ac:	e50b300c 	str	r3, [fp, #-12]
    b2b0:	e51b3034 	ldr	r3, [fp, #-52]	; 0xffffffcc
    b2b4:	e3530003 	cmp	r3, #3
    b2b8:	1a000048 	bne	b3e0 <file_filter+0x184>
    b2bc:	e51b3018 	ldr	r3, [fp, #-24]	; 0xffffffe8
    b2c0:	e1a00003 	mov	r0, r3
    b2c4:	eb00262a 	bl	14b74 <tfp_printf>
    b2c8:	e51b3010 	ldr	r3, [fp, #-16]
    b2cc:	e5d32034 	ldrb	r2, [r3, #52]	; 0x34
    b2d0:	e51b3010 	ldr	r3, [fp, #-16]
    b2d4:	e5d33035 	ldrb	r3, [r3, #53]	; 0x35
    b2d8:	e1520003 	cmp	r2, r3
    b2dc:	9a000021 	bls	b368 <file_filter+0x10c>
    b2e0:	e51b3010 	ldr	r3, [fp, #-16]
    b2e4:	e5d33034 	ldrb	r3, [r3, #52]	; 0x34
    b2e8:	e1a02003 	mov	r2, r3
    b2ec:	e51b3010 	ldr	r3, [fp, #-16]
    b2f0:	e5d33035 	ldrb	r3, [r3, #53]	; 0x35
    b2f4:	e0423003 	sub	r3, r2, r3
    b2f8:	e50b3008 	str	r3, [fp, #-8]
    b2fc:	e51b2008 	ldr	r2, [fp, #-8]
    b300:	e51b3018 	ldr	r3, [fp, #-24]	; 0xffffffe8
    b304:	e1520003 	cmp	r2, r3
    b308:	9a000001 	bls	b314 <file_filter+0xb8>
    b30c:	e51b3018 	ldr	r3, [fp, #-24]	; 0xffffffe8
    b310:	e50b3008 	str	r3, [fp, #-8]
    b314:	e51b3010 	ldr	r3, [fp, #-16]
    b318:	e2833014 	add	r3, r3, #20
    b31c:	e51b2010 	ldr	r2, [fp, #-16]
    b320:	e5d22035 	ldrb	r2, [r2, #53]	; 0x35
    b324:	e0833002 	add	r3, r3, r2
    b328:	e51b2008 	ldr	r2, [fp, #-8]
    b32c:	e1a01003 	mov	r1, r3
    b330:	e51b003c 	ldr	r0, [fp, #-60]	; 0xffffffc4
    b334:	eb00175f 	bl	110b8 <memcpy>
    b338:	e51b3010 	ldr	r3, [fp, #-16]
    b33c:	e5d32035 	ldrb	r2, [r3, #53]	; 0x35
    b340:	e51b3008 	ldr	r3, [fp, #-8]
    b344:	e6ef3073 	uxtb	r3, r3
    b348:	e0823003 	add	r3, r2, r3
    b34c:	e6ef2073 	uxtb	r2, r3
    b350:	e51b3010 	ldr	r3, [fp, #-16]
    b354:	e5c32035 	strb	r2, [r3, #53]	; 0x35
    b358:	e59b3004 	ldr	r3, [fp, #4]
    b35c:	e51b2008 	ldr	r2, [fp, #-8]
    b360:	e5832000 	str	r2, [r3]
    b364:	ea000095 	b	b5c0 <file_filter+0x364>
    b368:	e51b3010 	ldr	r3, [fp, #-16]
    b36c:	e593300c 	ldr	r3, [r3, #12]
    b370:	e3530000 	cmp	r3, #0
    b374:	0a000005 	beq	b390 <file_filter+0x134>
    b378:	e3e03000 	mvn	r3, #0
    b37c:	e50b300c 	str	r3, [fp, #-12]
    b380:	e59b3004 	ldr	r3, [fp, #4]
    b384:	e3a02000 	mov	r2, #0
    b388:	e5832000 	str	r2, [r3]
    b38c:	ea00008b 	b	b5c0 <file_filter+0x364>
    b390:	e3a03000 	mov	r3, #0
    b394:	e50b3008 	str	r3, [fp, #-8]
    b398:	e51b3028 	ldr	r3, [fp, #-40]	; 0xffffffd8
    b39c:	e3730001 	cmn	r3, #1
    b3a0:	0a00000a 	beq	b3d0 <file_filter+0x174>
    b3a4:	e51b3028 	ldr	r3, [fp, #-40]	; 0xffffffd8
    b3a8:	e3530000 	cmp	r3, #0
    b3ac:	1a000005 	bne	b3c8 <file_filter+0x16c>
    b3b0:	e51b3010 	ldr	r3, [fp, #-16]
    b3b4:	e3a02001 	mov	r2, #1
    b3b8:	e583200c 	str	r2, [r3, #12]
    b3bc:	e3e03000 	mvn	r3, #0
    b3c0:	e50b300c 	str	r3, [fp, #-12]
    b3c4:	ea000001 	b	b3d0 <file_filter+0x174>
    b3c8:	e51b3028 	ldr	r3, [fp, #-40]	; 0xffffffd8
    b3cc:	e50b3008 	str	r3, [fp, #-8]
    b3d0:	e59b3004 	ldr	r3, [fp, #4]
    b3d4:	e51b2008 	ldr	r2, [fp, #-8]
    b3d8:	e5832000 	str	r2, [r3]
    b3dc:	ea000077 	b	b5c0 <file_filter+0x364>
    b3e0:	e51b3034 	ldr	r3, [fp, #-52]	; 0xffffffcc
    b3e4:	e3530004 	cmp	r3, #4
    b3e8:	1a000014 	bne	b440 <file_filter+0x1e4>
    b3ec:	e51b3018 	ldr	r3, [fp, #-24]	; 0xffffffe8
    b3f0:	e3530000 	cmp	r3, #0
    b3f4:	0a00000d 	beq	b430 <file_filter+0x1d4>
    b3f8:	e51b303c 	ldr	r3, [fp, #-60]	; 0xffffffc4
    b3fc:	e50b3020 	str	r3, [fp, #-32]	; 0xffffffe0
    b400:	e51b3018 	ldr	r3, [fp, #-24]	; 0xffffffe8
    b404:	e50b3008 	str	r3, [fp, #-8]
    b408:	e51b3024 	ldr	r3, [fp, #-36]	; 0xffffffdc
    b40c:	e3730001 	cmn	r3, #1
    b410:	1a000002 	bne	b420 <file_filter+0x1c4>
    b414:	ebfff345 	bl	8130 <gpg_error_from_syserror>
    b418:	e1a03000 	mov	r3, r0
    b41c:	e50b300c 	str	r3, [fp, #-12]
    b420:	e51b2020 	ldr	r2, [fp, #-32]	; 0xffffffe0
    b424:	e51b303c 	ldr	r3, [fp, #-60]	; 0xffffffc4
    b428:	e0423003 	sub	r3, r2, r3
    b42c:	e50b3008 	str	r3, [fp, #-8]
    b430:	e59b3004 	ldr	r3, [fp, #4]
    b434:	e51b2008 	ldr	r2, [fp, #-8]
    b438:	e5832000 	str	r2, [r3]
    b43c:	ea00005f 	b	b5c0 <file_filter+0x364>
    b440:	e51b3034 	ldr	r3, [fp, #-52]	; 0xffffffcc
    b444:	e3530001 	cmp	r3, #1
    b448:	1a00000f 	bne	b48c <file_filter+0x230>
    b44c:	e51b3010 	ldr	r3, [fp, #-16]
    b450:	e3a02000 	mov	r2, #0
    b454:	e583200c 	str	r2, [r3, #12]
    b458:	e51b3010 	ldr	r3, [fp, #-16]
    b45c:	e3a02000 	mov	r2, #0
    b460:	e5832004 	str	r2, [r3, #4]
    b464:	e51b3010 	ldr	r3, [fp, #-16]
    b468:	e3a02000 	mov	r2, #0
    b46c:	e5832008 	str	r2, [r3, #8]
    b470:	e51b3010 	ldr	r3, [fp, #-16]
    b474:	e3a02000 	mov	r2, #0
    b478:	e5c32034 	strb	r2, [r3, #52]	; 0x34
    b47c:	e51b3010 	ldr	r3, [fp, #-16]
    b480:	e3a02000 	mov	r2, #0
    b484:	e5c32035 	strb	r2, [r3, #53]	; 0x35
    b488:	ea00004c 	b	b5c0 <file_filter+0x364>
    b48c:	e51b3034 	ldr	r3, [fp, #-52]	; 0xffffffcc
    b490:	e3530007 	cmp	r3, #7
    b494:	1a00002e 	bne	b554 <file_filter+0x2f8>
    b498:	e320f000 	nop	{0}
    b49c:	e51b301c 	ldr	r3, [fp, #-28]	; 0xffffffe4
    b4a0:	e3530000 	cmp	r3, #0
    b4a4:	da00000c 	ble	b4dc <file_filter+0x280>
    b4a8:	e51b3010 	ldr	r3, [fp, #-16]
    b4ac:	e5d32034 	ldrb	r2, [r3, #52]	; 0x34
    b4b0:	e51b301c 	ldr	r3, [fp, #-28]	; 0xffffffe4
    b4b4:	e6ef3073 	uxtb	r3, r3
    b4b8:	e0823003 	add	r3, r2, r3
    b4bc:	e6ef2073 	uxtb	r2, r3
    b4c0:	e51b3010 	ldr	r3, [fp, #-16]
    b4c4:	e5c32034 	strb	r2, [r3, #52]	; 0x34
    b4c8:	e51b3010 	ldr	r3, [fp, #-16]
    b4cc:	e5d33034 	ldrb	r3, [r3, #52]	; 0x34
    b4d0:	e353001f 	cmp	r3, #31
    b4d4:	8a00000a 	bhi	b504 <file_filter+0x2a8>
    b4d8:	eaffffef 	b	b49c <file_filter+0x240>
    b4dc:	e51b301c 	ldr	r3, [fp, #-28]	; 0xffffffe4
    b4e0:	e3530000 	cmp	r3, #0
    b4e4:	1a000003 	bne	b4f8 <file_filter+0x29c>
    b4e8:	e51b3010 	ldr	r3, [fp, #-16]
    b4ec:	e3a02001 	mov	r2, #1
    b4f0:	e583200c 	str	r2, [r3, #12]
    b4f4:	ea000002 	b	b504 <file_filter+0x2a8>
    b4f8:	ebfff30c 	bl	8130 <gpg_error_from_syserror>
    b4fc:	e1a03000 	mov	r3, r0
    b500:	e50b300c 	str	r3, [fp, #-12]
    b504:	e51b3010 	ldr	r3, [fp, #-16]
    b508:	e5d33034 	ldrb	r3, [r3, #52]	; 0x34
    b50c:	e1a02003 	mov	r2, r3
    b510:	e51b3018 	ldr	r3, [fp, #-24]	; 0xffffffe8
    b514:	e1530002 	cmp	r3, r2
    b518:	31a03003 	movcc	r3, r3
    b51c:	21a03002 	movcs	r3, r2
    b520:	e50b3018 	str	r3, [fp, #-24]	; 0xffffffe8
    b524:	e51b3010 	ldr	r3, [fp, #-16]
    b528:	e2833014 	add	r3, r3, #20
    b52c:	e51b2018 	ldr	r2, [fp, #-24]	; 0xffffffe8
    b530:	e1a01003 	mov	r1, r3
    b534:	e51b003c 	ldr	r0, [fp, #-60]	; 0xffffffc4
    b538:	eb0016de 	bl	110b8 <memcpy>
    b53c:	e59b3004 	ldr	r3, [fp, #4]
    b540:	e51b2018 	ldr	r2, [fp, #-24]	; 0xffffffe8
    b544:	e5832000 	str	r2, [r3]
    b548:	e3a03000 	mov	r3, #0
    b54c:	e50b300c 	str	r3, [fp, #-12]
    b550:	ea00001a 	b	b5c0 <file_filter+0x364>
    b554:	e51b3034 	ldr	r3, [fp, #-52]	; 0xffffffcc
    b558:	e3530005 	cmp	r3, #5
    b55c:	0a000017 	beq	b5c0 <file_filter+0x364>
    b560:	e51b3034 	ldr	r3, [fp, #-52]	; 0xffffffcc
    b564:	e3530002 	cmp	r3, #2
    b568:	1a000014 	bne	b5c0 <file_filter+0x364>
    b56c:	e51b3014 	ldr	r3, [fp, #-20]	; 0xffffffec
    b570:	e3530000 	cmp	r3, #0
    b574:	0a00000f 	beq	b5b8 <file_filter+0x35c>
    b578:	e51b3014 	ldr	r3, [fp, #-20]	; 0xffffffec
    b57c:	e3530001 	cmp	r3, #1
    b580:	0a00000c 	beq	b5b8 <file_filter+0x35c>
    b584:	e59f3048 	ldr	r3, [pc, #72]	; b5d4 <file_filter+0x378>
    b588:	e7923003 	ldr	r3, [r2, r3]
    b58c:	e5933000 	ldr	r3, [r3]
    b590:	e3530000 	cmp	r3, #0
    b594:	0a000007 	beq	b5b8 <file_filter+0x35c>
    b598:	e51b3010 	ldr	r3, [fp, #-16]
    b59c:	e2833036 	add	r3, r3, #54	; 0x36
    b5a0:	e51b2014 	ldr	r2, [fp, #-20]	; 0xffffffec
    b5a4:	e1a01003 	mov	r1, r3
    b5a8:	e59f3028 	ldr	r3, [pc, #40]	; b5d8 <file_filter+0x37c>
    b5ac:	e08f3003 	add	r3, pc, r3
    b5b0:	e1a00003 	mov	r0, r3
    b5b4:	eb00256e 	bl	14b74 <tfp_printf>
    b5b8:	e51b0010 	ldr	r0, [fp, #-16]
    b5bc:	eb001666 	bl	10f5c <xfree>
    b5c0:	e51b300c 	ldr	r3, [fp, #-12]
    b5c4:	e1a00003 	mov	r0, r3
    b5c8:	e24bd004 	sub	sp, fp, #4
    b5cc:	e8bd8800 	pop	{fp, pc}
    b5d0:	0001261c 	.word	0x0001261c
    b5d4:	0002ab08 	.word	0x0002ab08
    b5d8:	0000e3f4 	.word	0x0000e3f4

0000b5dc <log_hexdump>:
    b5dc:	e92d4800 	push	{fp, lr}
    b5e0:	e28db004 	add	fp, sp, #4
    b5e4:	e24dd030 	sub	sp, sp, #48	; 0x30
    b5e8:	e50b0030 	str	r0, [fp, #-48]	; 0xffffffd0
    b5ec:	e50b1034 	str	r1, [fp, #-52]	; 0xffffffcc
    b5f0:	e3a03000 	mov	r3, #0
    b5f4:	e50b3008 	str	r3, [fp, #-8]
    b5f8:	e51b1034 	ldr	r1, [fp, #-52]	; 0xffffffcc
    b5fc:	e59f31ec 	ldr	r3, [pc, #492]	; b7f0 <log_hexdump+0x214>
    b600:	e08f3003 	add	r3, pc, r3
    b604:	e1a00003 	mov	r0, r3
    b608:	eb002559 	bl	14b74 <tfp_printf>
    b60c:	ea000070 	b	b7d4 <log_hexdump+0x1f8>
    b610:	e51b3034 	ldr	r3, [fp, #-52]	; 0xffffffcc
    b614:	e3530010 	cmp	r3, #16
    b618:	b1a03003 	movlt	r3, r3
    b61c:	a3a03010 	movge	r3, #16
    b620:	e50b3014 	str	r3, [fp, #-20]	; 0xffffffec
    b624:	e51b1008 	ldr	r1, [fp, #-8]
    b628:	e59f31c4 	ldr	r3, [pc, #452]	; b7f4 <log_hexdump+0x218>
    b62c:	e08f3003 	add	r3, pc, r3
    b630:	e1a00003 	mov	r0, r3
    b634:	eb00254e 	bl	14b74 <tfp_printf>
    b638:	e3a03000 	mov	r3, #0
    b63c:	e50b300c 	str	r3, [fp, #-12]
    b640:	ea000024 	b	b6d8 <log_hexdump+0xfc>
    b644:	e51b300c 	ldr	r3, [fp, #-12]
    b648:	e2033001 	and	r3, r3, #1
    b64c:	e3530000 	cmp	r3, #0
    b650:	1a000003 	bne	b664 <log_hexdump+0x88>
    b654:	e59f319c 	ldr	r3, [pc, #412]	; b7f8 <log_hexdump+0x21c>
    b658:	e08f3003 	add	r3, pc, r3
    b65c:	e1a00003 	mov	r0, r3
    b660:	eb002543 	bl	14b74 <tfp_printf>
    b664:	e51b300c 	ldr	r3, [fp, #-12]
    b668:	e2033007 	and	r3, r3, #7
    b66c:	e3530000 	cmp	r3, #0
    b670:	1a000003 	bne	b684 <log_hexdump+0xa8>
    b674:	e59f3180 	ldr	r3, [pc, #384]	; b7fc <log_hexdump+0x220>
    b678:	e08f3003 	add	r3, pc, r3
    b67c:	e1a00003 	mov	r0, r3
    b680:	eb00253b 	bl	14b74 <tfp_printf>
    b684:	e51b200c 	ldr	r2, [fp, #-12]
    b688:	e51b3014 	ldr	r3, [fp, #-20]	; 0xffffffec
    b68c:	e1520003 	cmp	r2, r3
    b690:	aa000009 	bge	b6bc <log_hexdump+0xe0>
    b694:	e51b300c 	ldr	r3, [fp, #-12]
    b698:	e51b2030 	ldr	r2, [fp, #-48]	; 0xffffffd0
    b69c:	e0823003 	add	r3, r2, r3
    b6a0:	e5d33000 	ldrb	r3, [r3]
    b6a4:	e1a01003 	mov	r1, r3
    b6a8:	e59f3150 	ldr	r3, [pc, #336]	; b800 <log_hexdump+0x224>
    b6ac:	e08f3003 	add	r3, pc, r3
    b6b0:	e1a00003 	mov	r0, r3
    b6b4:	eb00252e 	bl	14b74 <tfp_printf>
    b6b8:	ea000003 	b	b6cc <log_hexdump+0xf0>
    b6bc:	e59f3140 	ldr	r3, [pc, #320]	; b804 <log_hexdump+0x228>
    b6c0:	e08f3003 	add	r3, pc, r3
    b6c4:	e1a00003 	mov	r0, r3
    b6c8:	eb002529 	bl	14b74 <tfp_printf>
    b6cc:	e51b300c 	ldr	r3, [fp, #-12]
    b6d0:	e2833001 	add	r3, r3, #1
    b6d4:	e50b300c 	str	r3, [fp, #-12]
    b6d8:	e51b300c 	ldr	r3, [fp, #-12]
    b6dc:	e353000f 	cmp	r3, #15
    b6e0:	daffffd7 	ble	b644 <log_hexdump+0x68>
    b6e4:	e59f311c 	ldr	r3, [pc, #284]	; b808 <log_hexdump+0x22c>
    b6e8:	e08f3003 	add	r3, pc, r3
    b6ec:	e1a00003 	mov	r0, r3
    b6f0:	eb00251f 	bl	14b74 <tfp_printf>
    b6f4:	e3a03000 	mov	r3, #0
    b6f8:	e50b3010 	str	r3, [fp, #-16]
    b6fc:	ea000019 	b	b768 <log_hexdump+0x18c>
    b700:	e51b3010 	ldr	r3, [fp, #-16]
    b704:	e51b2030 	ldr	r2, [fp, #-48]	; 0xffffffd0
    b708:	e0823003 	add	r3, r2, r3
    b70c:	e5d33000 	ldrb	r3, [r3]
    b710:	e353001f 	cmp	r3, #31
    b714:	9a00000a 	bls	b744 <log_hexdump+0x168>
    b718:	e51b3010 	ldr	r3, [fp, #-16]
    b71c:	e51b2030 	ldr	r2, [fp, #-48]	; 0xffffffd0
    b720:	e0823003 	add	r3, r2, r3
    b724:	e5d33000 	ldrb	r3, [r3]
    b728:	e353007e 	cmp	r3, #126	; 0x7e
    b72c:	8a000004 	bhi	b744 <log_hexdump+0x168>
    b730:	e51b3010 	ldr	r3, [fp, #-16]
    b734:	e51b2030 	ldr	r2, [fp, #-48]	; 0xffffffd0
    b738:	e0823003 	add	r3, r2, r3
    b73c:	e5d31000 	ldrb	r1, [r3]
    b740:	ea000000 	b	b748 <log_hexdump+0x16c>
    b744:	e3a0102e 	mov	r1, #46	; 0x2e
    b748:	e24b2028 	sub	r2, fp, #40	; 0x28
    b74c:	e51b3010 	ldr	r3, [fp, #-16]
    b750:	e0823003 	add	r3, r2, r3
    b754:	e1a02001 	mov	r2, r1
    b758:	e5c32000 	strb	r2, [r3]
    b75c:	e51b3010 	ldr	r3, [fp, #-16]
    b760:	e2833001 	add	r3, r3, #1
    b764:	e50b3010 	str	r3, [fp, #-16]
    b768:	e51b2010 	ldr	r2, [fp, #-16]
    b76c:	e51b3014 	ldr	r3, [fp, #-20]	; 0xffffffec
    b770:	e1520003 	cmp	r2, r3
    b774:	baffffe1 	blt	b700 <log_hexdump+0x124>
    b778:	e24b2028 	sub	r2, fp, #40	; 0x28
    b77c:	e51b3014 	ldr	r3, [fp, #-20]	; 0xffffffec
    b780:	e0823003 	add	r3, r2, r3
    b784:	e3a02000 	mov	r2, #0
    b788:	e5c32000 	strb	r2, [r3]
    b78c:	e24b3028 	sub	r3, fp, #40	; 0x28
    b790:	e1a01003 	mov	r1, r3
    b794:	e59f3070 	ldr	r3, [pc, #112]	; b80c <log_hexdump+0x230>
    b798:	e08f3003 	add	r3, pc, r3
    b79c:	e1a00003 	mov	r0, r3
    b7a0:	eb0024f3 	bl	14b74 <tfp_printf>
    b7a4:	e51b3014 	ldr	r3, [fp, #-20]	; 0xffffffec
    b7a8:	e51b2030 	ldr	r2, [fp, #-48]	; 0xffffffd0
    b7ac:	e0823003 	add	r3, r2, r3
    b7b0:	e50b3030 	str	r3, [fp, #-48]	; 0xffffffd0
    b7b4:	e51b2034 	ldr	r2, [fp, #-52]	; 0xffffffcc
    b7b8:	e51b3014 	ldr	r3, [fp, #-20]	; 0xffffffec
    b7bc:	e0423003 	sub	r3, r2, r3
    b7c0:	e50b3034 	str	r3, [fp, #-52]	; 0xffffffcc
    b7c4:	e51b2008 	ldr	r2, [fp, #-8]
    b7c8:	e51b3014 	ldr	r3, [fp, #-20]	; 0xffffffec
    b7cc:	e0823003 	add	r3, r2, r3
    b7d0:	e50b3008 	str	r3, [fp, #-8]
    b7d4:	e51b3034 	ldr	r3, [fp, #-52]	; 0xffffffcc
    b7d8:	e3530000 	cmp	r3, #0
    b7dc:	caffff8b 	bgt	b610 <log_hexdump+0x34>
    b7e0:	e320f000 	nop	{0}
    b7e4:	e320f000 	nop	{0}
    b7e8:	e24bd004 	sub	sp, fp, #4
    b7ec:	e8bd8800 	pop	{fp, pc}
    b7f0:	0000e498 	.word	0x0000e498
    b7f4:	0000e478 	.word	0x0000e478
    b7f8:	0000e454 	.word	0x0000e454
    b7fc:	0000e434 	.word	0x0000e434
    b800:	0000e404 	.word	0x0000e404
    b804:	0000e3f8 	.word	0x0000e3f8
    b808:	0000e3d0 	.word	0x0000e3d0
    b80c:	0000e324 	.word	0x0000e324

0000b810 <gpg_error_from_syserror>:
    b810:	e52db004 	push	{fp}		; (str fp, [sp, #-4]!)
    b814:	e28db000 	add	fp, sp, #0
    b818:	e3e03000 	mvn	r3, #0
    b81c:	e1a00003 	mov	r0, r3
    b820:	e28bd000 	add	sp, fp, #0
    b824:	e49db004 	pop	{fp}		; (ldr fp, [sp], #4)
    b828:	e12fff1e 	bx	lr

0000b82c <decrypt_memory>:
    b82c:	e92d4810 	push	{r4, fp, lr}
    b830:	e28db008 	add	fp, sp, #8
    b834:	e24dd044 	sub	sp, sp, #68	; 0x44
    b838:	e50b0038 	str	r0, [fp, #-56]	; 0xffffffc8
    b83c:	e50b103c 	str	r1, [fp, #-60]	; 0xffffffc4
    b840:	e50b2040 	str	r2, [fp, #-64]	; 0xffffffc0
    b844:	e59f418c 	ldr	r4, [pc, #396]	; b9d8 <decrypt_memory+0x1ac>
    b848:	e08f4004 	add	r4, pc, r4
    b84c:	e59f3188 	ldr	r3, [pc, #392]	; b9dc <decrypt_memory+0x1b0>
    b850:	e08f3003 	add	r3, pc, r3
    b854:	e1a00003 	mov	r0, r3
    b858:	eb0024c5 	bl	14b74 <tfp_printf>
    b85c:	e51b3038 	ldr	r3, [fp, #-56]	; 0xffffffc8
    b860:	e51b2040 	ldr	r2, [fp, #-64]	; 0xffffffc0
    b864:	e5832020 	str	r2, [r3, #32]
    b868:	e3a03000 	mov	r3, #0
    b86c:	e50b3034 	str	r3, [fp, #-52]	; 0xffffffcc
    b870:	e3a03000 	mov	r3, #0
    b874:	e50b3010 	str	r3, [fp, #-16]
    b878:	e59f3160 	ldr	r3, [pc, #352]	; b9e0 <decrypt_memory+0x1b4>
    b87c:	e08f3003 	add	r3, pc, r3
    b880:	e50b3014 	str	r3, [fp, #-20]	; 0xffffffec
    b884:	e3a03000 	mov	r3, #0
    b888:	e50b3018 	str	r3, [fp, #-24]	; 0xffffffe8
    b88c:	e3a03000 	mov	r3, #0
    b890:	e50b301c 	str	r3, [fp, #-28]	; 0xffffffe4
    b894:	e3a03000 	mov	r3, #0
    b898:	e50b3020 	str	r3, [fp, #-32]	; 0xffffffe0
    b89c:	e51b1040 	ldr	r1, [fp, #-64]	; 0xffffffc0
    b8a0:	e51b003c 	ldr	r0, [fp, #-60]	; 0xffffffc4
    b8a4:	ebfff740 	bl	95ac <iobuf_temp_with_content>
    b8a8:	e50b0024 	str	r0, [fp, #-36]	; 0xffffffdc
    b8ac:	e51b3024 	ldr	r3, [fp, #-36]	; 0xffffffdc
    b8b0:	e3530000 	cmp	r3, #0
    b8b4:	1a000002 	bne	b8c4 <decrypt_memory+0x98>
    b8b8:	ebffffd4 	bl	b810 <gpg_error_from_syserror>
    b8bc:	e1a03000 	mov	r3, r0
    b8c0:	ea000041 	b	b9cc <decrypt_memory+0x1a0>
    b8c4:	e51b3020 	ldr	r3, [fp, #-32]	; 0xffffffe0
    b8c8:	e3530000 	cmp	r3, #0
    b8cc:	13a03001 	movne	r3, #1
    b8d0:	03a03000 	moveq	r3, #0
    b8d4:	e6ef3073 	uxtb	r3, r3
    b8d8:	e1a01003 	mov	r1, r3
    b8dc:	e51b001c 	ldr	r0, [fp, #-28]	; 0xffffffe4
    b8e0:	ebfffdeb 	bl	b094 <translate_file_handle>
    b8e4:	e1a03000 	mov	r3, r0
    b8e8:	e51b1014 	ldr	r1, [fp, #-20]	; 0xffffffec
    b8ec:	e1a00003 	mov	r0, r3
    b8f0:	ebfff7ba 	bl	97e0 <iobuf_fdopen>
    b8f4:	e51b1014 	ldr	r1, [fp, #-20]	; 0xffffffec
    b8f8:	e3a00000 	mov	r0, #0
    b8fc:	ebfff30d 	bl	8538 <fd_cache_open>
    b900:	e50b0028 	str	r0, [fp, #-40]	; 0xffffffd8
    b904:	e51b0018 	ldr	r0, [fp, #-24]	; 0xffffffe8
    b908:	eb002f67 	bl	176ac <strlen>
    b90c:	e1a03000 	mov	r3, r0
    b910:	e2833038 	add	r3, r3, #56	; 0x38
    b914:	e1a00003 	mov	r0, r3
    b918:	eb001530 	bl	10de0 <xmalloc>
    b91c:	e50b002c 	str	r0, [fp, #-44]	; 0xffffffd4
    b920:	e51b302c 	ldr	r3, [fp, #-44]	; 0xffffffd4
    b924:	e51b2028 	ldr	r2, [fp, #-40]	; 0xffffffd8
    b928:	e5832000 	str	r2, [r3]
    b92c:	e51b302c 	ldr	r3, [fp, #-44]	; 0xffffffd4
    b930:	e51b2010 	ldr	r2, [fp, #-16]
    b934:	e5832010 	str	r2, [r3, #16]
    b938:	e51b302c 	ldr	r3, [fp, #-44]	; 0xffffffd4
    b93c:	e2833036 	add	r3, r3, #54	; 0x36
    b940:	e51b1018 	ldr	r1, [fp, #-24]	; 0xffffffe8
    b944:	e1a00003 	mov	r0, r3
    b948:	eb00164d 	bl	11284 <strcpy>
    b94c:	e51b3010 	ldr	r3, [fp, #-16]
    b950:	e3530000 	cmp	r3, #0
    b954:	1a000005 	bne	b970 <decrypt_memory+0x144>
    b958:	e51b0018 	ldr	r0, [fp, #-24]	; 0xffffffe8
    b95c:	eb0016f6 	bl	1153c <xstrdup>
    b960:	e1a03000 	mov	r3, r0
    b964:	e1a02003 	mov	r2, r3
    b968:	e51b3024 	ldr	r3, [fp, #-36]	; 0xffffffdc
    b96c:	e5832038 	str	r2, [r3, #56]	; 0x38
    b970:	e51b3024 	ldr	r3, [fp, #-36]	; 0xffffffdc
    b974:	e59f2068 	ldr	r2, [pc, #104]	; b9e4 <decrypt_memory+0x1b8>
    b978:	e7942002 	ldr	r2, [r4, r2]
    b97c:	e583202c 	str	r2, [r3, #44]	; 0x2c
    b980:	e51b302c 	ldr	r3, [fp, #-44]	; 0xffffffd4
    b984:	e3a02001 	mov	r2, #1
    b988:	e5832008 	str	r2, [r3, #8]
    b98c:	e51b3024 	ldr	r3, [fp, #-36]	; 0xffffffdc
    b990:	e51b202c 	ldr	r2, [fp, #-44]	; 0xffffffd4
    b994:	e5832030 	str	r2, [r3, #48]	; 0x30
    b998:	e24b3034 	sub	r3, fp, #52	; 0x34
    b99c:	e58d3000 	str	r3, [sp]
    b9a0:	e3a03000 	mov	r3, #0
    b9a4:	e3a02000 	mov	r2, #0
    b9a8:	e3a01001 	mov	r1, #1
    b9ac:	e51b002c 	ldr	r0, [fp, #-44]	; 0xffffffd4
    b9b0:	ebfffe29 	bl	b25c <file_filter>
    b9b4:	e51b2024 	ldr	r2, [fp, #-36]	; 0xffffffdc
    b9b8:	e3a01000 	mov	r1, #0
    b9bc:	e51b0038 	ldr	r0, [fp, #-56]	; 0xffffffc8
    b9c0:	eb003441 	bl	18acc <proc_encryption_packets>
    b9c4:	e50b0030 	str	r0, [fp, #-48]	; 0xffffffd0
    b9c8:	e51b3030 	ldr	r3, [fp, #-48]	; 0xffffffd0
    b9cc:	e1a00003 	mov	r0, r3
    b9d0:	e24bd008 	sub	sp, fp, #8
    b9d4:	e8bd8810 	pop	{r4, fp, pc}
    b9d8:	00012050 	.word	0x00012050
    b9dc:	0000e6ec 	.word	0x0000e6ec
    b9e0:	0000e6d0 	.word	0x0000e6d0
    b9e4:	0002ab20 	.word	0x0002ab20

0000b9e8 <gpg_err_make>:
    b9e8:	e52db004 	push	{fp}		; (str fp, [sp, #-4]!)
    b9ec:	e28db000 	add	fp, sp, #0
    b9f0:	e24dd00c 	sub	sp, sp, #12
    b9f4:	e1a03000 	mov	r3, r0
    b9f8:	e50b100c 	str	r1, [fp, #-12]
    b9fc:	e54b3005 	strb	r3, [fp, #-5]
    ba00:	e51b300c 	ldr	r3, [fp, #-12]
    ba04:	e3530000 	cmp	r3, #0
    ba08:	0a000006 	beq	ba28 <gpg_err_make+0x40>
    ba0c:	e55b3005 	ldrb	r3, [fp, #-5]
    ba10:	e1a03c03 	lsl	r3, r3, #24
    ba14:	e203247f 	and	r2, r3, #2130706432	; 0x7f000000
    ba18:	e51b300c 	ldr	r3, [fp, #-12]
    ba1c:	e6ff3073 	uxth	r3, r3
    ba20:	e1823003 	orr	r3, r2, r3
    ba24:	ea000000 	b	ba2c <gpg_err_make+0x44>
    ba28:	e3a03000 	mov	r3, #0
    ba2c:	e1a00003 	mov	r0, r3
    ba30:	e28bd000 	add	sp, fp, #0
    ba34:	e49db004 	pop	{fp}		; (ldr fp, [sp], #4)
    ba38:	e12fff1e 	bx	lr

0000ba3c <gpg_error>:
    ba3c:	e92d4800 	push	{fp, lr}
    ba40:	e28db004 	add	fp, sp, #4
    ba44:	e24dd008 	sub	sp, sp, #8
    ba48:	e50b0008 	str	r0, [fp, #-8]
    ba4c:	e51b1008 	ldr	r1, [fp, #-8]
    ba50:	e3a00002 	mov	r0, #2
    ba54:	ebffffe3 	bl	b9e8 <gpg_err_make>
    ba58:	e1a03000 	mov	r3, r0
    ba5c:	e1a00003 	mov	r0, r3
    ba60:	e24bd004 	sub	sp, fp, #4
    ba64:	e8bd8800 	pop	{fp, pc}

0000ba68 <gpg_error_from_syserror>:
    ba68:	e52db004 	push	{fp}		; (str fp, [sp, #-4]!)
    ba6c:	e28db000 	add	fp, sp, #0
    ba70:	e3e03000 	mvn	r3, #0
    ba74:	e1a00003 	mov	r0, r3
    ba78:	e28bd000 	add	sp, fp, #0
    ba7c:	e49db004 	pop	{fp}		; (ldr fp, [sp], #4)
    ba80:	e12fff1e 	bx	lr

0000ba84 <release_dfx_context>:
    ba84:	e92d4800 	push	{fp, lr}
    ba88:	e28db004 	add	fp, sp, #4
    ba8c:	e24dd008 	sub	sp, sp, #8
    ba90:	e50b0008 	str	r0, [fp, #-8]
    ba94:	e51b3008 	ldr	r3, [fp, #-8]
    ba98:	e3530000 	cmp	r3, #0
    ba9c:	0a00001d 	beq	bb18 <release_dfx_context+0x94>
    baa0:	e51b3008 	ldr	r3, [fp, #-8]
    baa4:	e5933000 	ldr	r3, [r3]
    baa8:	e1a00003 	mov	r0, r3
    baac:	eb002430 	bl	14b74 <tfp_printf>
    bab0:	e51b3008 	ldr	r3, [fp, #-8]
    bab4:	e5933000 	ldr	r3, [r3]
    bab8:	e2432001 	sub	r2, r3, #1
    babc:	e51b3008 	ldr	r3, [fp, #-8]
    bac0:	e5832000 	str	r2, [r3]
    bac4:	e51b3008 	ldr	r3, [fp, #-8]
    bac8:	e5933000 	ldr	r3, [r3]
    bacc:	e3530000 	cmp	r3, #0
    bad0:	1a000011 	bne	bb1c <release_dfx_context+0x98>
    bad4:	e51b3008 	ldr	r3, [fp, #-8]
    bad8:	e5933004 	ldr	r3, [r3, #4]
    badc:	e1a00003 	mov	r0, r3
    bae0:	eb00151d 	bl	10f5c <xfree>
    bae4:	e51b3008 	ldr	r3, [fp, #-8]
    bae8:	e3a02000 	mov	r2, #0
    baec:	e5832004 	str	r2, [r3, #4]
    baf0:	e51b3008 	ldr	r3, [fp, #-8]
    baf4:	e5933008 	ldr	r3, [r3, #8]
    baf8:	e1a00003 	mov	r0, r3
    bafc:	eb001516 	bl	10f5c <xfree>
    bb00:	e51b3008 	ldr	r3, [fp, #-8]
    bb04:	e3a02000 	mov	r2, #0
    bb08:	e5832008 	str	r2, [r3, #8]
    bb0c:	e51b0008 	ldr	r0, [fp, #-8]
    bb10:	eb001511 	bl	10f5c <xfree>
    bb14:	ea000000 	b	bb1c <release_dfx_context+0x98>
    bb18:	e320f000 	nop	{0}
    bb1c:	e24bd004 	sub	sp, fp, #4
    bb20:	e8bd8800 	pop	{fp, pc}

0000bb24 <decrypt_data>:
    bb24:	e92d4810 	push	{r4, fp, lr}
    bb28:	e28db008 	add	fp, sp, #8
    bb2c:	e24dd05c 	sub	sp, sp, #92	; 0x5c
    bb30:	e50b0050 	str	r0, [fp, #-80]	; 0xffffffb0
    bb34:	e50b1054 	str	r1, [fp, #-84]	; 0xffffffac
    bb38:	e50b2058 	str	r2, [fp, #-88]	; 0xffffffa8
    bb3c:	e50b305c 	str	r3, [fp, #-92]	; 0xffffffa4
    bb40:	e59f35e0 	ldr	r3, [pc, #1504]	; c128 <decrypt_data+0x604>
    bb44:	e08f3003 	add	r3, pc, r3
    bb48:	e1a00003 	mov	r0, r3
    bb4c:	eb002408 	bl	14b74 <tfp_printf>
    bb50:	e3a03000 	mov	r3, #0
    bb54:	e50b3010 	str	r3, [fp, #-16]
    bb58:	e59b3004 	ldr	r3, [fp, #4]
    bb5c:	e3a02000 	mov	r2, #0
    bb60:	e5832000 	str	r2, [r3]
    bb64:	e3a01080 	mov	r1, #128	; 0x80
    bb68:	e3a00001 	mov	r0, #1
    bb6c:	eb0015da 	bl	112dc <xtrycalloc>
    bb70:	e1a03000 	mov	r3, r0
    bb74:	e50b302c 	str	r3, [fp, #-44]	; 0xffffffd4
    bb78:	e51b302c 	ldr	r3, [fp, #-44]	; 0xffffffd4
    bb7c:	e3530000 	cmp	r3, #0
    bb80:	1a000002 	bne	bb90 <decrypt_data+0x6c>
    bb84:	ebffffb7 	bl	ba68 <gpg_error_from_syserror>
    bb88:	e1a03000 	mov	r3, r0
    bb8c:	ea000162 	b	c11c <decrypt_data+0x5f8>
    bb90:	e51b302c 	ldr	r3, [fp, #-44]	; 0xffffffd4
    bb94:	e3a02001 	mov	r2, #1
    bb98:	e5832000 	str	r2, [r3]
    bb9c:	e51b302c 	ldr	r3, [fp, #-44]	; 0xffffffd4
    bba0:	e5933078 	ldr	r3, [r3, #120]	; 0x78
    bba4:	e1a01003 	mov	r1, r3
    bba8:	e59f357c 	ldr	r3, [pc, #1404]	; c12c <decrypt_data+0x608>
    bbac:	e08f3003 	add	r3, pc, r3
    bbb0:	e1a00003 	mov	r0, r3
    bbb4:	eb0023ee 	bl	14b74 <tfp_printf>
    bbb8:	e3a03002 	mov	r3, #2
    bbbc:	e54b3015 	strb	r3, [fp, #-21]	; 0xffffffeb
    bbc0:	e51b3058 	ldr	r3, [fp, #-88]	; 0xffffffa8
    bbc4:	e5d3300a 	ldrb	r3, [r3, #10]
    bbc8:	e1a01003 	mov	r1, r3
    bbcc:	e51b305c 	ldr	r3, [fp, #-92]	; 0xffffffa4
    bbd0:	e5933000 	ldr	r3, [r3]
    bbd4:	e3a02000 	mov	r2, #0
    bbd8:	e58d2000 	str	r2, [sp]
    bbdc:	e1a02001 	mov	r2, r1
    bbe0:	e59f1548 	ldr	r1, [pc, #1352]	; c130 <decrypt_data+0x60c>
    bbe4:	e08f1001 	add	r1, pc, r1
    bbe8:	e3a00017 	mov	r0, #23
    bbec:	eb0023e0 	bl	14b74 <tfp_printf>
    bbf0:	e3a03008 	mov	r3, #8
    bbf4:	e50b301c 	str	r3, [fp, #-28]	; 0xffffffe4
    bbf8:	e51b301c 	ldr	r3, [fp, #-28]	; 0xffffffe4
    bbfc:	e3530000 	cmp	r3, #0
    bc00:	0a000002 	beq	bc10 <decrypt_data+0xec>
    bc04:	e51b301c 	ldr	r3, [fp, #-28]	; 0xffffffe4
    bc08:	e3530010 	cmp	r3, #16
    bc0c:	9a000004 	bls	bc24 <decrypt_data+0x100>
    bc10:	e51b101c 	ldr	r1, [fp, #-28]	; 0xffffffe4
    bc14:	e59f3518 	ldr	r3, [pc, #1304]	; c134 <decrypt_data+0x610>
    bc18:	e08f3003 	add	r3, pc, r3
    bc1c:	e1a00003 	mov	r0, r3
    bc20:	eb0023d3 	bl	14b74 <tfp_printf>
    bc24:	e51b3058 	ldr	r3, [fp, #-88]	; 0xffffffa8
    bc28:	e5d3300b 	ldrb	r3, [r3, #11]
    bc2c:	e3530000 	cmp	r3, #0
    bc30:	1a000107 	bne	c054 <decrypt_data+0x530>
    bc34:	e51b301c 	ldr	r3, [fp, #-28]	; 0xffffffe4
    bc38:	e50b3020 	str	r3, [fp, #-32]	; 0xffffffe0
    bc3c:	e51b3058 	ldr	r3, [fp, #-88]	; 0xffffffa8
    bc40:	e5933000 	ldr	r3, [r3]
    bc44:	e3530000 	cmp	r3, #0
    bc48:	0a00000a 	beq	bc78 <decrypt_data+0x154>
    bc4c:	e51b3058 	ldr	r3, [fp, #-88]	; 0xffffffa8
    bc50:	e5932000 	ldr	r2, [r3]
    bc54:	e51b3020 	ldr	r3, [fp, #-32]	; 0xffffffe0
    bc58:	e2833002 	add	r3, r3, #2
    bc5c:	e1520003 	cmp	r2, r3
    bc60:	2a000004 	bcs	bc78 <decrypt_data+0x154>
    bc64:	e3a0000e 	mov	r0, #14
    bc68:	ebffff73 	bl	ba3c <gpg_error>
    bc6c:	e1a03000 	mov	r3, r0
    bc70:	e50b3010 	str	r3, [fp, #-16]
    bc74:	ea000124 	b	c10c <decrypt_data+0x5e8>
    bc78:	e24b302c 	sub	r3, fp, #44	; 0x2c
    bc7c:	e3a02004 	mov	r2, #4
    bc80:	e3a01000 	mov	r1, #0
    bc84:	e1a00003 	mov	r0, r3
    bc88:	eb0014f1 	bl	11054 <memset>
    bc8c:	e51b402c 	ldr	r4, [fp, #-44]	; 0xffffffd4
    bc90:	e3a00040 	mov	r0, #64	; 0x40
    bc94:	eb001387 	bl	10ab8 <malloc>
    bc98:	e1a03000 	mov	r3, r0
    bc9c:	e5843004 	str	r3, [r4, #4]
    bca0:	e51b302c 	ldr	r3, [fp, #-44]	; 0xffffffd4
    bca4:	e5933004 	ldr	r3, [r3, #4]
    bca8:	e3530000 	cmp	r3, #0
    bcac:	1a000001 	bne	bcb8 <decrypt_data+0x194>
    bcb0:	e3e03000 	mvn	r3, #0
    bcb4:	ea000118 	b	c11c <decrypt_data+0x5f8>
    bcb8:	e51b302c 	ldr	r3, [fp, #-44]	; 0xffffffd4
    bcbc:	e5933004 	ldr	r3, [r3, #4]
    bcc0:	e3a02040 	mov	r2, #64	; 0x40
    bcc4:	e3a01000 	mov	r1, #0
    bcc8:	e1a00003 	mov	r0, r3
    bccc:	eb0014e0 	bl	11054 <memset>
    bcd0:	e51b3010 	ldr	r3, [fp, #-16]
    bcd4:	e3530000 	cmp	r3, #0
    bcd8:	0a000003 	beq	bcec <decrypt_data+0x1c8>
    bcdc:	e59f3454 	ldr	r3, [pc, #1108]	; c138 <decrypt_data+0x614>
    bce0:	e08f3003 	add	r3, pc, r3
    bce4:	e1a00003 	mov	r0, r3
    bce8:	eb0023a1 	bl	14b74 <tfp_printf>
    bcec:	e51b302c 	ldr	r3, [fp, #-44]	; 0xffffffd4
    bcf0:	e5930004 	ldr	r0, [r3, #4]
    bcf4:	e51b305c 	ldr	r3, [fp, #-92]	; 0xffffffa4
    bcf8:	e593100c 	ldr	r1, [r3, #12]
    bcfc:	e51b305c 	ldr	r3, [fp, #-92]	; 0xffffffa4
    bd00:	e5933004 	ldr	r3, [r3, #4]
    bd04:	e1a02003 	mov	r2, r3
    bd08:	eb000434 	bl	cde0 <_gcry_cipher_setkey>
    bd0c:	e50b0010 	str	r0, [fp, #-16]
    bd10:	e51b3058 	ldr	r3, [fp, #-88]	; 0xffffffa8
    bd14:	e5933010 	ldr	r3, [r3, #16]
    bd18:	e3530000 	cmp	r3, #0
    bd1c:	1a000008 	bne	bd44 <decrypt_data+0x220>
    bd20:	e59f3414 	ldr	r3, [pc, #1044]	; c13c <decrypt_data+0x618>
    bd24:	e08f3003 	add	r3, pc, r3
    bd28:	e1a00003 	mov	r0, r3
    bd2c:	eb002390 	bl	14b74 <tfp_printf>
    bd30:	e3a0000e 	mov	r0, #14
    bd34:	ebffff40 	bl	ba3c <gpg_error>
    bd38:	e1a03000 	mov	r3, r0
    bd3c:	e50b3010 	str	r3, [fp, #-16]
    bd40:	ea0000f1 	b	c10c <decrypt_data+0x5e8>
    bd44:	e51b302c 	ldr	r3, [fp, #-44]	; 0xffffffd4
    bd48:	e5933004 	ldr	r3, [r3, #4]
    bd4c:	e3a02008 	mov	r2, #8
    bd50:	e3a01000 	mov	r1, #0
    bd54:	e1a00003 	mov	r0, r3
    bd58:	eb00045d 	bl	ced4 <_gcry_cipher_setiv>
    bd5c:	e51b3058 	ldr	r3, [fp, #-88]	; 0xffffffa8
    bd60:	e5933000 	ldr	r3, [r3]
    bd64:	e3530000 	cmp	r3, #0
    bd68:	0a000048 	beq	be90 <decrypt_data+0x36c>
    bd6c:	e51b3058 	ldr	r3, [fp, #-88]	; 0xffffffa8
    bd70:	e5933000 	ldr	r3, [r3]
    bd74:	e1a01003 	mov	r1, r3
    bd78:	e59f33c0 	ldr	r3, [pc, #960]	; c140 <decrypt_data+0x61c>
    bd7c:	e08f3003 	add	r3, pc, r3
    bd80:	e1a00003 	mov	r0, r3
    bd84:	eb00237a 	bl	14b74 <tfp_printf>
    bd88:	e3a03000 	mov	r3, #0
    bd8c:	e50b3014 	str	r3, [fp, #-20]	; 0xffffffec
    bd90:	ea000034 	b	be68 <decrypt_data+0x344>
    bd94:	e51b3058 	ldr	r3, [fp, #-88]	; 0xffffffa8
    bd98:	e5933010 	ldr	r3, [r3, #16]
    bd9c:	e5933010 	ldr	r3, [r3, #16]
    bda0:	e3530000 	cmp	r3, #0
    bda4:	1a000007 	bne	bdc8 <decrypt_data+0x2a4>
    bda8:	e51b3058 	ldr	r3, [fp, #-88]	; 0xffffffa8
    bdac:	e5933010 	ldr	r3, [r3, #16]
    bdb0:	e5932018 	ldr	r2, [r3, #24]
    bdb4:	e51b3058 	ldr	r3, [fp, #-88]	; 0xffffffa8
    bdb8:	e5933010 	ldr	r3, [r3, #16]
    bdbc:	e593301c 	ldr	r3, [r3, #28]
    bdc0:	e1520003 	cmp	r2, r3
    bdc4:	3a000005 	bcc	bde0 <decrypt_data+0x2bc>
    bdc8:	e51b3058 	ldr	r3, [fp, #-88]	; 0xffffffa8
    bdcc:	e5933010 	ldr	r3, [r3, #16]
    bdd0:	e1a00003 	mov	r0, r3
    bdd4:	ebfffad3 	bl	a928 <iobuf_readbyte>
    bdd8:	e1a03000 	mov	r3, r0
    bddc:	ea00000e 	b	be1c <decrypt_data+0x2f8>
    bde0:	e51b3058 	ldr	r3, [fp, #-88]	; 0xffffffa8
    bde4:	e5933010 	ldr	r3, [r3, #16]
    bde8:	e5932008 	ldr	r2, [r3, #8]
    bdec:	e2822001 	add	r2, r2, #1
    bdf0:	e5832008 	str	r2, [r3, #8]
    bdf4:	e51b3058 	ldr	r3, [fp, #-88]	; 0xffffffa8
    bdf8:	e5933010 	ldr	r3, [r3, #16]
    bdfc:	e5931020 	ldr	r1, [r3, #32]
    be00:	e51b3058 	ldr	r3, [fp, #-88]	; 0xffffffa8
    be04:	e5932010 	ldr	r2, [r3, #16]
    be08:	e5923018 	ldr	r3, [r2, #24]
    be0c:	e2830001 	add	r0, r3, #1
    be10:	e5820018 	str	r0, [r2, #24]
    be14:	e0813003 	add	r3, r1, r3
    be18:	e5d33000 	ldrb	r3, [r3]
    be1c:	e50b3024 	str	r3, [fp, #-36]	; 0xffffffdc
    be20:	e51b3024 	ldr	r3, [fp, #-36]	; 0xffffffdc
    be24:	e3730001 	cmn	r3, #1
    be28:	0a000051 	beq	bf74 <decrypt_data+0x450>
    be2c:	e51b3024 	ldr	r3, [fp, #-36]	; 0xffffffdc
    be30:	e6ef1073 	uxtb	r1, r3
    be34:	e24b204c 	sub	r2, fp, #76	; 0x4c
    be38:	e51b3014 	ldr	r3, [fp, #-20]	; 0xffffffec
    be3c:	e0823003 	add	r3, r2, r3
    be40:	e1a02001 	mov	r2, r1
    be44:	e5c32000 	strb	r2, [r3]
    be48:	e51b3014 	ldr	r3, [fp, #-20]	; 0xffffffec
    be4c:	e2833001 	add	r3, r3, #1
    be50:	e50b3014 	str	r3, [fp, #-20]	; 0xffffffec
    be54:	e51b3058 	ldr	r3, [fp, #-88]	; 0xffffffa8
    be58:	e5933000 	ldr	r3, [r3]
    be5c:	e2432001 	sub	r2, r3, #1
    be60:	e51b3058 	ldr	r3, [fp, #-88]	; 0xffffffa8
    be64:	e5832000 	str	r2, [r3]
    be68:	e51b3020 	ldr	r3, [fp, #-32]	; 0xffffffe0
    be6c:	e2832002 	add	r2, r3, #2
    be70:	e51b3014 	ldr	r3, [fp, #-20]	; 0xffffffec
    be74:	e1520003 	cmp	r2, r3
    be78:	9a000040 	bls	bf80 <decrypt_data+0x45c>
    be7c:	e51b3058 	ldr	r3, [fp, #-88]	; 0xffffffa8
    be80:	e5933000 	ldr	r3, [r3]
    be84:	e3530000 	cmp	r3, #0
    be88:	1affffc1 	bne	bd94 <decrypt_data+0x270>
    be8c:	ea00003b 	b	bf80 <decrypt_data+0x45c>
    be90:	e3a03000 	mov	r3, #0
    be94:	e50b3014 	str	r3, [fp, #-20]	; 0xffffffec
    be98:	ea00002f 	b	bf5c <decrypt_data+0x438>
    be9c:	e51b3058 	ldr	r3, [fp, #-88]	; 0xffffffa8
    bea0:	e5933010 	ldr	r3, [r3, #16]
    bea4:	e5933010 	ldr	r3, [r3, #16]
    bea8:	e3530000 	cmp	r3, #0
    beac:	1a000007 	bne	bed0 <decrypt_data+0x3ac>
    beb0:	e51b3058 	ldr	r3, [fp, #-88]	; 0xffffffa8
    beb4:	e5933010 	ldr	r3, [r3, #16]
    beb8:	e5932018 	ldr	r2, [r3, #24]
    bebc:	e51b3058 	ldr	r3, [fp, #-88]	; 0xffffffa8
    bec0:	e5933010 	ldr	r3, [r3, #16]
    bec4:	e593301c 	ldr	r3, [r3, #28]
    bec8:	e1520003 	cmp	r2, r3
    becc:	3a000005 	bcc	bee8 <decrypt_data+0x3c4>
    bed0:	e51b3058 	ldr	r3, [fp, #-88]	; 0xffffffa8
    bed4:	e5933010 	ldr	r3, [r3, #16]
    bed8:	e1a00003 	mov	r0, r3
    bedc:	ebfffa91 	bl	a928 <iobuf_readbyte>
    bee0:	e1a03000 	mov	r3, r0
    bee4:	ea00000e 	b	bf24 <decrypt_data+0x400>
    bee8:	e51b3058 	ldr	r3, [fp, #-88]	; 0xffffffa8
    beec:	e5933010 	ldr	r3, [r3, #16]
    bef0:	e5932008 	ldr	r2, [r3, #8]
    bef4:	e2822001 	add	r2, r2, #1
    bef8:	e5832008 	str	r2, [r3, #8]
    befc:	e51b3058 	ldr	r3, [fp, #-88]	; 0xffffffa8
    bf00:	e5933010 	ldr	r3, [r3, #16]
    bf04:	e5931020 	ldr	r1, [r3, #32]
    bf08:	e51b3058 	ldr	r3, [fp, #-88]	; 0xffffffa8
    bf0c:	e5932010 	ldr	r2, [r3, #16]
    bf10:	e5923018 	ldr	r3, [r2, #24]
    bf14:	e2830001 	add	r0, r3, #1
    bf18:	e5820018 	str	r0, [r2, #24]
    bf1c:	e0813003 	add	r3, r1, r3
    bf20:	e5d33000 	ldrb	r3, [r3]
    bf24:	e50b3024 	str	r3, [fp, #-36]	; 0xffffffdc
    bf28:	e51b3024 	ldr	r3, [fp, #-36]	; 0xffffffdc
    bf2c:	e3730001 	cmn	r3, #1
    bf30:	0a000011 	beq	bf7c <decrypt_data+0x458>
    bf34:	e51b3024 	ldr	r3, [fp, #-36]	; 0xffffffdc
    bf38:	e6ef1073 	uxtb	r1, r3
    bf3c:	e24b204c 	sub	r2, fp, #76	; 0x4c
    bf40:	e51b3014 	ldr	r3, [fp, #-20]	; 0xffffffec
    bf44:	e0823003 	add	r3, r2, r3
    bf48:	e1a02001 	mov	r2, r1
    bf4c:	e5c32000 	strb	r2, [r3]
    bf50:	e51b3014 	ldr	r3, [fp, #-20]	; 0xffffffec
    bf54:	e2833001 	add	r3, r3, #1
    bf58:	e50b3014 	str	r3, [fp, #-20]	; 0xffffffec
    bf5c:	e51b3020 	ldr	r3, [fp, #-32]	; 0xffffffe0
    bf60:	e2832002 	add	r2, r3, #2
    bf64:	e51b3014 	ldr	r3, [fp, #-20]	; 0xffffffec
    bf68:	e1520003 	cmp	r2, r3
    bf6c:	8affffca 	bhi	be9c <decrypt_data+0x378>
    bf70:	ea000002 	b	bf80 <decrypt_data+0x45c>
    bf74:	e320f000 	nop	{0}
    bf78:	ea000000 	b	bf80 <decrypt_data+0x45c>
    bf7c:	e320f000 	nop	{0}
    bf80:	e51b302c 	ldr	r3, [fp, #-44]	; 0xffffffd4
    bf84:	e5930004 	ldr	r0, [r3, #4]
    bf88:	e51b3020 	ldr	r3, [fp, #-32]	; 0xffffffe0
    bf8c:	e2832002 	add	r2, r3, #2
    bf90:	e24b104c 	sub	r1, fp, #76	; 0x4c
    bf94:	e3a03000 	mov	r3, #0
    bf98:	e58d3000 	str	r3, [sp]
    bf9c:	e3a03000 	mov	r3, #0
    bfa0:	eb000409 	bl	cfcc <_gcry_cipher_decrypt>
    bfa4:	e51b302c 	ldr	r3, [fp, #-44]	; 0xffffffd4
    bfa8:	e5933004 	ldr	r3, [r3, #4]
    bfac:	e1a00003 	mov	r0, r3
    bfb0:	eb0003e2 	bl	cf40 <cipher_sync>
    bfb4:	e24b304c 	sub	r3, fp, #76	; 0x4c
    bfb8:	e50b3028 	str	r3, [fp, #-40]	; 0xffffffd8
    bfbc:	e51b305c 	ldr	r3, [fp, #-92]	; 0xffffffa4
    bfc0:	e5d33008 	ldrb	r3, [r3, #8]
    bfc4:	e2033040 	and	r3, r3, #64	; 0x40
    bfc8:	e6ef3073 	uxtb	r3, r3
    bfcc:	e3530000 	cmp	r3, #0
    bfd0:	0a00001b 	beq	c044 <decrypt_data+0x520>
    bfd4:	e51b3020 	ldr	r3, [fp, #-32]	; 0xffffffe0
    bfd8:	e2433002 	sub	r3, r3, #2
    bfdc:	e51b2028 	ldr	r2, [fp, #-40]	; 0xffffffd8
    bfe0:	e0823003 	add	r3, r2, r3
    bfe4:	e5d32000 	ldrb	r2, [r3]
    bfe8:	e51b1028 	ldr	r1, [fp, #-40]	; 0xffffffd8
    bfec:	e51b3020 	ldr	r3, [fp, #-32]	; 0xffffffe0
    bff0:	e0813003 	add	r3, r1, r3
    bff4:	e5d33000 	ldrb	r3, [r3]
    bff8:	e1520003 	cmp	r2, r3
    bffc:	1a00000b 	bne	c030 <decrypt_data+0x50c>
    c000:	e51b3020 	ldr	r3, [fp, #-32]	; 0xffffffe0
    c004:	e2433001 	sub	r3, r3, #1
    c008:	e51b2028 	ldr	r2, [fp, #-40]	; 0xffffffd8
    c00c:	e0823003 	add	r3, r2, r3
    c010:	e5d32000 	ldrb	r2, [r3]
    c014:	e51b3020 	ldr	r3, [fp, #-32]	; 0xffffffe0
    c018:	e2833001 	add	r3, r3, #1
    c01c:	e51b1028 	ldr	r1, [fp, #-40]	; 0xffffffd8
    c020:	e0813003 	add	r3, r1, r3
    c024:	e5d33000 	ldrb	r3, [r3]
    c028:	e1520003 	cmp	r2, r3
    c02c:	0a000004 	beq	c044 <decrypt_data+0x520>
    c030:	e59f310c 	ldr	r3, [pc, #268]	; c144 <decrypt_data+0x620>
    c034:	e08f3003 	add	r3, pc, r3
    c038:	e1a00003 	mov	r0, r3
    c03c:	eb0022cc 	bl	14b74 <tfp_printf>
    c040:	ea000031 	b	c10c <decrypt_data+0x5e8>
    c044:	e59f30fc 	ldr	r3, [pc, #252]	; c148 <decrypt_data+0x624>
    c048:	e08f3003 	add	r3, pc, r3
    c04c:	e1a00003 	mov	r0, r3
    c050:	eb0022c7 	bl	14b74 <tfp_printf>
    c054:	e51b302c 	ldr	r3, [fp, #-44]	; 0xffffffd4
    c058:	e5932000 	ldr	r2, [r3]
    c05c:	e2822001 	add	r2, r2, #1
    c060:	e5832000 	str	r2, [r3]
    c064:	e51b3058 	ldr	r3, [fp, #-88]	; 0xffffffa8
    c068:	e5d33009 	ldrb	r3, [r3, #9]
    c06c:	e51b202c 	ldr	r2, [fp, #-44]	; 0xffffffd4
    c070:	e3530000 	cmp	r3, #0
    c074:	13a03001 	movne	r3, #1
    c078:	03a03000 	moveq	r3, #0
    c07c:	e6ef1073 	uxtb	r1, r3
    c080:	e5d23050 	ldrb	r3, [r2, #80]	; 0x50
    c084:	e7c03011 	bfi	r3, r1, #0, #1
    c088:	e5c23050 	strb	r3, [r2, #80]	; 0x50
    c08c:	e51b302c 	ldr	r3, [fp, #-44]	; 0xffffffd4
    c090:	e51b2058 	ldr	r2, [fp, #-88]	; 0xffffffa8
    c094:	e5922000 	ldr	r2, [r2]
    c098:	e5832078 	str	r2, [r3, #120]	; 0x78
    c09c:	e51b3058 	ldr	r3, [fp, #-88]	; 0xffffffa8
    c0a0:	e5933010 	ldr	r3, [r3, #16]
    c0a4:	e51b202c 	ldr	r2, [fp, #-44]	; 0xffffffd4
    c0a8:	e59f109c 	ldr	r1, [pc, #156]	; c14c <decrypt_data+0x628>
    c0ac:	e08f1001 	add	r1, pc, r1
    c0b0:	e1a00003 	mov	r0, r3
    c0b4:	ebfff6f8 	bl	9c9c <iobuf_push_filter>
    c0b8:	e51b3058 	ldr	r3, [fp, #-88]	; 0xffffffa8
    c0bc:	e5933010 	ldr	r3, [r3, #16]
    c0c0:	e1a02003 	mov	r2, r3
    c0c4:	e51b1054 	ldr	r1, [fp, #-84]	; 0xffffffac
    c0c8:	e51b0050 	ldr	r0, [fp, #-80]	; 0xffffffb0
    c0cc:	eb00325e 	bl	18a4c <proc_packets>
    c0d0:	e51b3058 	ldr	r3, [fp, #-88]	; 0xffffffa8
    c0d4:	e3a02000 	mov	r2, #0
    c0d8:	e5832010 	str	r2, [r3, #16]
    c0dc:	e51b302c 	ldr	r3, [fp, #-44]	; 0xffffffd4
    c0e0:	e5d33050 	ldrb	r3, [r3, #80]	; 0x50
    c0e4:	e7e130d3 	ubfx	r3, r3, #1, #2
    c0e8:	e6ef3073 	uxtb	r3, r3
    c0ec:	e3530001 	cmp	r3, #1
    c0f0:	9a000004 	bls	c108 <decrypt_data+0x5e4>
    c0f4:	e3a0000e 	mov	r0, #14
    c0f8:	ebfffe4f 	bl	ba3c <gpg_error>
    c0fc:	e1a03000 	mov	r3, r0
    c100:	e50b3010 	str	r3, [fp, #-16]
    c104:	ea000000 	b	c10c <decrypt_data+0x5e8>
    c108:	e320f000 	nop	{0}
    c10c:	e51b302c 	ldr	r3, [fp, #-44]	; 0xffffffd4
    c110:	e1a00003 	mov	r0, r3
    c114:	ebfffe5a 	bl	ba84 <release_dfx_context>
    c118:	e51b3010 	ldr	r3, [fp, #-16]
    c11c:	e1a00003 	mov	r0, r3
    c120:	e24bd008 	sub	sp, fp, #8
    c124:	e8bd8810 	pop	{r4, fp, pc}
    c128:	0000e43c 	.word	0x0000e43c
    c12c:	0000e3e4 	.word	0x0000e3e4
    c130:	0000e3c0 	.word	0x0000e3c0
    c134:	0000e398 	.word	0x0000e398
    c138:	0000e2ec 	.word	0x0000e2ec
    c13c:	0000e2b8 	.word	0x0000e2b8
    c140:	0000e284 	.word	0x0000e284
    c144:	0000dfdc 	.word	0x0000dfdc
    c148:	0000dfd8 	.word	0x0000dfd8
    c14c:	00000270 	.word	0x00000270

0000c150 <fill_buffer>:
    c150:	e92d4800 	push	{fp, lr}
    c154:	e28db004 	add	fp, sp, #4
    c158:	e24dd020 	sub	sp, sp, #32
    c15c:	e50b0018 	str	r0, [fp, #-24]	; 0xffffffe8
    c160:	e50b101c 	str	r1, [fp, #-28]	; 0xffffffe4
    c164:	e50b2020 	str	r2, [fp, #-32]	; 0xffffffe0
    c168:	e50b3024 	str	r3, [fp, #-36]	; 0xffffffdc
    c16c:	e59f31a8 	ldr	r3, [pc, #424]	; c31c <fill_buffer+0x1cc>
    c170:	e08f3003 	add	r3, pc, r3
    c174:	e1a00003 	mov	r0, r3
    c178:	eb00227d 	bl	14b74 <tfp_printf>
    c17c:	e59b3004 	ldr	r3, [fp, #4]
    c180:	e50b3008 	str	r3, [fp, #-8]
    c184:	e51b3018 	ldr	r3, [fp, #-24]	; 0xffffffe8
    c188:	e5d33050 	ldrb	r3, [r3, #80]	; 0x50
    c18c:	e2033001 	and	r3, r3, #1
    c190:	e6ef3073 	uxtb	r3, r3
    c194:	e3530000 	cmp	r3, #0
    c198:	0a00004a 	beq	c2c8 <fill_buffer+0x178>
    c19c:	e51b2024 	ldr	r2, [fp, #-36]	; 0xffffffdc
    c1a0:	e51b1008 	ldr	r1, [fp, #-8]
    c1a4:	e59f3174 	ldr	r3, [pc, #372]	; c320 <fill_buffer+0x1d0>
    c1a8:	e08f3003 	add	r3, pc, r3
    c1ac:	e1a00003 	mov	r0, r3
    c1b0:	eb00226f 	bl	14b74 <tfp_printf>
    c1b4:	ea000018 	b	c21c <fill_buffer+0xcc>
    c1b8:	e51b2024 	ldr	r2, [fp, #-36]	; 0xffffffdc
    c1bc:	e51b3008 	ldr	r3, [fp, #-8]
    c1c0:	e0423003 	sub	r3, r2, r3
    c1c4:	e50b300c 	str	r3, [fp, #-12]
    c1c8:	e51b2020 	ldr	r2, [fp, #-32]	; 0xffffffe0
    c1cc:	e51b3008 	ldr	r3, [fp, #-8]
    c1d0:	e0823003 	add	r3, r2, r3
    c1d4:	e51b200c 	ldr	r2, [fp, #-12]
    c1d8:	e1a01003 	mov	r1, r3
    c1dc:	e51b001c 	ldr	r0, [fp, #-28]	; 0xffffffe4
    c1e0:	ebfffa12 	bl	aa30 <iobuf_read>
    c1e4:	e50b0010 	str	r0, [fp, #-16]
    c1e8:	e51b3010 	ldr	r3, [fp, #-16]
    c1ec:	e3730001 	cmn	r3, #1
    c1f0:	1a000005 	bne	c20c <fill_buffer+0xbc>
    c1f4:	e51b2018 	ldr	r2, [fp, #-24]	; 0xffffffe8
    c1f8:	e5d23050 	ldrb	r3, [r2, #80]	; 0x50
    c1fc:	e3a01001 	mov	r1, #1
    c200:	e7c23091 	bfi	r3, r1, #1, #2
    c204:	e5c23050 	strb	r3, [r2, #80]	; 0x50
    c208:	ea00003f 	b	c30c <fill_buffer+0x1bc>
    c20c:	e51b3010 	ldr	r3, [fp, #-16]
    c210:	e51b2008 	ldr	r2, [fp, #-8]
    c214:	e0823003 	add	r3, r2, r3
    c218:	e50b3008 	str	r3, [fp, #-8]
    c21c:	e51b2008 	ldr	r2, [fp, #-8]
    c220:	e51b3024 	ldr	r3, [fp, #-36]	; 0xffffffdc
    c224:	e1520003 	cmp	r2, r3
    c228:	3affffe2 	bcc	c1b8 <fill_buffer+0x68>
    c22c:	ea000036 	b	c30c <fill_buffer+0x1bc>
    c230:	e51b2024 	ldr	r2, [fp, #-36]	; 0xffffffdc
    c234:	e51b3008 	ldr	r3, [fp, #-8]
    c238:	e0423003 	sub	r3, r2, r3
    c23c:	e50b300c 	str	r3, [fp, #-12]
    c240:	e51b3018 	ldr	r3, [fp, #-24]	; 0xffffffe8
    c244:	e5933078 	ldr	r3, [r3, #120]	; 0x78
    c248:	e51b200c 	ldr	r2, [fp, #-12]
    c24c:	e1520003 	cmp	r2, r3
    c250:	9a000002 	bls	c260 <fill_buffer+0x110>
    c254:	e51b3018 	ldr	r3, [fp, #-24]	; 0xffffffe8
    c258:	e5933078 	ldr	r3, [r3, #120]	; 0x78
    c25c:	e50b300c 	str	r3, [fp, #-12]
    c260:	e51b2020 	ldr	r2, [fp, #-32]	; 0xffffffe0
    c264:	e51b3008 	ldr	r3, [fp, #-8]
    c268:	e0823003 	add	r3, r2, r3
    c26c:	e51b200c 	ldr	r2, [fp, #-12]
    c270:	e1a01003 	mov	r1, r3
    c274:	e51b001c 	ldr	r0, [fp, #-28]	; 0xffffffe4
    c278:	ebfff9ec 	bl	aa30 <iobuf_read>
    c27c:	e50b0010 	str	r0, [fp, #-16]
    c280:	e51b3010 	ldr	r3, [fp, #-16]
    c284:	e3730001 	cmn	r3, #1
    c288:	1a000004 	bne	c2a0 <fill_buffer+0x150>
    c28c:	e51b2018 	ldr	r2, [fp, #-24]	; 0xffffffe8
    c290:	e5d23050 	ldrb	r3, [r2, #80]	; 0x50
    c294:	e3833006 	orr	r3, r3, #6
    c298:	e5c23050 	strb	r3, [r2, #80]	; 0x50
    c29c:	ea000011 	b	c2e8 <fill_buffer+0x198>
    c2a0:	e51b3010 	ldr	r3, [fp, #-16]
    c2a4:	e51b2008 	ldr	r2, [fp, #-8]
    c2a8:	e0823003 	add	r3, r2, r3
    c2ac:	e50b3008 	str	r3, [fp, #-8]
    c2b0:	e51b3018 	ldr	r3, [fp, #-24]	; 0xffffffe8
    c2b4:	e5932078 	ldr	r2, [r3, #120]	; 0x78
    c2b8:	e51b3010 	ldr	r3, [fp, #-16]
    c2bc:	e0422003 	sub	r2, r2, r3
    c2c0:	e51b3018 	ldr	r3, [fp, #-24]	; 0xffffffe8
    c2c4:	e5832078 	str	r2, [r3, #120]	; 0x78
    c2c8:	e51b2008 	ldr	r2, [fp, #-8]
    c2cc:	e51b3024 	ldr	r3, [fp, #-36]	; 0xffffffdc
    c2d0:	e1520003 	cmp	r2, r3
    c2d4:	2a000003 	bcs	c2e8 <fill_buffer+0x198>
    c2d8:	e51b3018 	ldr	r3, [fp, #-24]	; 0xffffffe8
    c2dc:	e5933078 	ldr	r3, [r3, #120]	; 0x78
    c2e0:	e3530000 	cmp	r3, #0
    c2e4:	1affffd1 	bne	c230 <fill_buffer+0xe0>
    c2e8:	e51b3018 	ldr	r3, [fp, #-24]	; 0xffffffe8
    c2ec:	e5933078 	ldr	r3, [r3, #120]	; 0x78
    c2f0:	e3530000 	cmp	r3, #0
    c2f4:	1a000004 	bne	c30c <fill_buffer+0x1bc>
    c2f8:	e51b2018 	ldr	r2, [fp, #-24]	; 0xffffffe8
    c2fc:	e5d23050 	ldrb	r3, [r2, #80]	; 0x50
    c300:	e3a01001 	mov	r1, #1
    c304:	e7c23091 	bfi	r3, r1, #1, #2
    c308:	e5c23050 	strb	r3, [r2, #80]	; 0x50
    c30c:	e51b3008 	ldr	r3, [fp, #-8]
    c310:	e1a00003 	mov	r0, r3
    c314:	e24bd004 	sub	sp, fp, #4
    c318:	e8bd8800 	pop	{fp, pc}
    c31c:	0000dec0 	.word	0x0000dec0
    c320:	0000de98 	.word	0x0000de98

0000c324 <decode_filter>:
    c324:	e92d4800 	push	{fp, lr}
    c328:	e28db004 	add	fp, sp, #4
    c32c:	e24dd028 	sub	sp, sp, #40	; 0x28
    c330:	e50b0018 	str	r0, [fp, #-24]	; 0xffffffe8
    c334:	e50b101c 	str	r1, [fp, #-28]	; 0xffffffe4
    c338:	e50b2020 	str	r2, [fp, #-32]	; 0xffffffe0
    c33c:	e50b3024 	str	r3, [fp, #-36]	; 0xffffffdc
    c340:	e51b3018 	ldr	r3, [fp, #-24]	; 0xffffffe8
    c344:	e50b300c 	str	r3, [fp, #-12]
    c348:	e59b3004 	ldr	r3, [fp, #4]
    c34c:	e5932000 	ldr	r2, [r3]
    c350:	e51b300c 	ldr	r3, [fp, #-12]
    c354:	e5933078 	ldr	r3, [r3, #120]	; 0x78
    c358:	e51b101c 	ldr	r1, [fp, #-28]	; 0xffffffe4
    c35c:	e59f0158 	ldr	r0, [pc, #344]	; c4bc <decode_filter+0x198>
    c360:	e08f0000 	add	r0, pc, r0
    c364:	eb002202 	bl	14b74 <tfp_printf>
    c368:	e59b3004 	ldr	r3, [fp, #4]
    c36c:	e5933000 	ldr	r3, [r3]
    c370:	e50b3010 	str	r3, [fp, #-16]
    c374:	e3a03000 	mov	r3, #0
    c378:	e50b3008 	str	r3, [fp, #-8]
    c37c:	e51b301c 	ldr	r3, [fp, #-28]	; 0xffffffe4
    c380:	e3530003 	cmp	r3, #3
    c384:	1a00000f 	bne	c3c8 <decode_filter+0xa4>
    c388:	e51b300c 	ldr	r3, [fp, #-12]
    c38c:	e5d33050 	ldrb	r3, [r3, #80]	; 0x50
    c390:	e2033006 	and	r3, r3, #6
    c394:	e6ef3073 	uxtb	r3, r3
    c398:	e3530000 	cmp	r3, #0
    c39c:	0a000009 	beq	c3c8 <decode_filter+0xa4>
    c3a0:	e59f3118 	ldr	r3, [pc, #280]	; c4c0 <decode_filter+0x19c>
    c3a4:	e08f3003 	add	r3, pc, r3
    c3a8:	e1a00003 	mov	r0, r3
    c3ac:	eb0021f0 	bl	14b74 <tfp_printf>
    c3b0:	e59b3004 	ldr	r3, [fp, #4]
    c3b4:	e3a02000 	mov	r2, #0
    c3b8:	e5832000 	str	r2, [r3]
    c3bc:	e3e03000 	mvn	r3, #0
    c3c0:	e50b3008 	str	r3, [fp, #-8]
    c3c4:	ea000038 	b	c4ac <decode_filter+0x188>
    c3c8:	e51b301c 	ldr	r3, [fp, #-28]	; 0xffffffe4
    c3cc:	e3530003 	cmp	r3, #3
    c3d0:	1a000030 	bne	c498 <decode_filter+0x174>
    c3d4:	e59f30e8 	ldr	r3, [pc, #232]	; c4c4 <decode_filter+0x1a0>
    c3d8:	e08f3003 	add	r3, pc, r3
    c3dc:	e1a00003 	mov	r0, r3
    c3e0:	eb0021e3 	bl	14b74 <tfp_printf>
    c3e4:	e3a03000 	mov	r3, #0
    c3e8:	e58d3000 	str	r3, [sp]
    c3ec:	e51b3010 	ldr	r3, [fp, #-16]
    c3f0:	e51b2024 	ldr	r2, [fp, #-36]	; 0xffffffdc
    c3f4:	e51b1020 	ldr	r1, [fp, #-32]	; 0xffffffe0
    c3f8:	e51b000c 	ldr	r0, [fp, #-12]
    c3fc:	ebffff53 	bl	c150 <fill_buffer>
    c400:	e50b0014 	str	r0, [fp, #-20]	; 0xffffffec
    c404:	e51b3014 	ldr	r3, [fp, #-20]	; 0xffffffec
    c408:	e3530000 	cmp	r3, #0
    c40c:	0a000010 	beq	c454 <decode_filter+0x130>
    c410:	e51b300c 	ldr	r3, [fp, #-12]
    c414:	e5933004 	ldr	r3, [r3, #4]
    c418:	e3530000 	cmp	r3, #0
    c41c:	0a000003 	beq	c430 <decode_filter+0x10c>
    c420:	e59f30a0 	ldr	r3, [pc, #160]	; c4c8 <decode_filter+0x1a4>
    c424:	e08f3003 	add	r3, pc, r3
    c428:	e1a00003 	mov	r0, r3
    c42c:	eb0021d0 	bl	14b74 <tfp_printf>
    c430:	e51b300c 	ldr	r3, [fp, #-12]
    c434:	e5930004 	ldr	r0, [r3, #4]
    c438:	e3a03000 	mov	r3, #0
    c43c:	e58d3000 	str	r3, [sp]
    c440:	e3a03000 	mov	r3, #0
    c444:	e51b2014 	ldr	r2, [fp, #-20]	; 0xffffffec
    c448:	e51b1024 	ldr	r1, [fp, #-36]	; 0xffffffdc
    c44c:	eb0002de 	bl	cfcc <_gcry_cipher_decrypt>
    c450:	ea00000c 	b	c488 <decode_filter+0x164>
    c454:	e51b300c 	ldr	r3, [fp, #-12]
    c458:	e5d33050 	ldrb	r3, [r3, #80]	; 0x50
    c45c:	e2033006 	and	r3, r3, #6
    c460:	e6ef3073 	uxtb	r3, r3
    c464:	e3530000 	cmp	r3, #0
    c468:	1a000004 	bne	c480 <decode_filter+0x15c>
    c46c:	e51b200c 	ldr	r2, [fp, #-12]
    c470:	e5d23050 	ldrb	r3, [r2, #80]	; 0x50
    c474:	e3a01001 	mov	r1, #1
    c478:	e7c23091 	bfi	r3, r1, #1, #2
    c47c:	e5c23050 	strb	r3, [r2, #80]	; 0x50
    c480:	e3e03000 	mvn	r3, #0
    c484:	e50b3008 	str	r3, [fp, #-8]
    c488:	e59b3004 	ldr	r3, [fp, #4]
    c48c:	e51b2014 	ldr	r2, [fp, #-20]	; 0xffffffec
    c490:	e5832000 	str	r2, [r3]
    c494:	ea000004 	b	c4ac <decode_filter+0x188>
    c498:	e51b301c 	ldr	r3, [fp, #-28]	; 0xffffffe4
    c49c:	e3530002 	cmp	r3, #2
    c4a0:	1a000001 	bne	c4ac <decode_filter+0x188>
    c4a4:	e51b000c 	ldr	r0, [fp, #-12]
    c4a8:	ebfffd75 	bl	ba84 <release_dfx_context>
    c4ac:	e51b3008 	ldr	r3, [fp, #-8]
    c4b0:	e1a00003 	mov	r0, r3
    c4b4:	e24bd004 	sub	sp, fp, #4
    c4b8:	e8bd8800 	pop	{fp, pc}
    c4bc:	0000dd04 	.word	0x0000dd04
    c4c0:	0000dcf0 	.word	0x0000dcf0
    c4c4:	0000dce4 	.word	0x0000dce4
    c4c8:	0000dcb8 	.word	0x0000dcb8

0000c4cc <free_packet>:
    c4cc:	e92d4800 	push	{fp, lr}
    c4d0:	e28db004 	add	fp, sp, #4
    c4d4:	e24dd008 	sub	sp, sp, #8
    c4d8:	e50b0008 	str	r0, [fp, #-8]
    c4dc:	e50b100c 	str	r1, [fp, #-12]
    c4e0:	e51b3008 	ldr	r3, [fp, #-8]
    c4e4:	e3530000 	cmp	r3, #0
    c4e8:	0a000003 	beq	c4fc <free_packet+0x30>
    c4ec:	e51b3008 	ldr	r3, [fp, #-8]
    c4f0:	e5933004 	ldr	r3, [r3, #4]
    c4f4:	e3530000 	cmp	r3, #0
    c4f8:	1a000019 	bne	c564 <free_packet+0x98>
    c4fc:	e51b300c 	ldr	r3, [fp, #-12]
    c500:	e3530000 	cmp	r3, #0
    c504:	0a000018 	beq	c56c <free_packet+0xa0>
    c508:	e51b300c 	ldr	r3, [fp, #-12]
    c50c:	e5933008 	ldr	r3, [r3, #8]
    c510:	e3530000 	cmp	r3, #0
    c514:	0a000014 	beq	c56c <free_packet+0xa0>
    c518:	e51b300c 	ldr	r3, [fp, #-12]
    c51c:	e593300c 	ldr	r3, [r3, #12]
    c520:	e3530000 	cmp	r3, #0
    c524:	0a000007 	beq	c548 <free_packet+0x7c>
    c528:	e51b300c 	ldr	r3, [fp, #-12]
    c52c:	e2833004 	add	r3, r3, #4
    c530:	e3a01000 	mov	r1, #0
    c534:	e1a00003 	mov	r0, r3
    c538:	ebffffe3 	bl	c4cc <free_packet>
    c53c:	e51b300c 	ldr	r3, [fp, #-12]
    c540:	e3a02000 	mov	r2, #0
    c544:	e583200c 	str	r2, [r3, #12]
    c548:	e51b300c 	ldr	r3, [fp, #-12]
    c54c:	e3a02000 	mov	r2, #0
    c550:	e5c32004 	strb	r2, [r3, #4]
    c554:	e51b300c 	ldr	r3, [fp, #-12]
    c558:	e3a02000 	mov	r2, #0
    c55c:	e5832008 	str	r2, [r3, #8]
    c560:	ea000001 	b	c56c <free_packet+0xa0>
    c564:	e320f000 	nop	{0}
    c568:	ea000000 	b	c570 <free_packet+0xa4>
    c56c:	e320f000 	nop	{0}
    c570:	e24bd004 	sub	sp, fp, #4
    c574:	e8bd8800 	pop	{fp, pc}

0000c578 <buf_get_le32>:
    c578:	e52db004 	push	{fp}		; (str fp, [sp, #-4]!)
    c57c:	e28db000 	add	fp, sp, #0
    c580:	e24dd024 	sub	sp, sp, #36	; 0x24
    c584:	e50b0020 	str	r0, [fp, #-32]	; 0xffffffe0
    c588:	e51b3020 	ldr	r3, [fp, #-32]	; 0xffffffe0
    c58c:	e3530000 	cmp	r3, #0
    c590:	1a000001 	bne	c59c <buf_get_le32+0x24>
    c594:	e3a03000 	mov	r3, #0
    c598:	ea000020 	b	c620 <buf_get_le32+0xa8>
    c59c:	e51b3020 	ldr	r3, [fp, #-32]	; 0xffffffe0
    c5a0:	e50b3008 	str	r3, [fp, #-8]
    c5a4:	e51b3008 	ldr	r3, [fp, #-8]
    c5a8:	e50b300c 	str	r3, [fp, #-12]
    c5ac:	e51b300c 	ldr	r3, [fp, #-12]
    c5b0:	e5d33000 	ldrb	r3, [r3]
    c5b4:	e6ef3073 	uxtb	r3, r3
    c5b8:	e50b3010 	str	r3, [fp, #-16]
    c5bc:	e51b300c 	ldr	r3, [fp, #-12]
    c5c0:	e2833001 	add	r3, r3, #1
    c5c4:	e5d33000 	ldrb	r3, [r3]
    c5c8:	e6ef3073 	uxtb	r3, r3
    c5cc:	e50b3014 	str	r3, [fp, #-20]	; 0xffffffec
    c5d0:	e51b300c 	ldr	r3, [fp, #-12]
    c5d4:	e2833002 	add	r3, r3, #2
    c5d8:	e5d33000 	ldrb	r3, [r3]
    c5dc:	e6ef3073 	uxtb	r3, r3
    c5e0:	e50b3018 	str	r3, [fp, #-24]	; 0xffffffe8
    c5e4:	e51b300c 	ldr	r3, [fp, #-12]
    c5e8:	e2833003 	add	r3, r3, #3
    c5ec:	e5d33000 	ldrb	r3, [r3]
    c5f0:	e6ef3073 	uxtb	r3, r3
    c5f4:	e50b301c 	str	r3, [fp, #-28]	; 0xffffffe4
    c5f8:	e51b301c 	ldr	r3, [fp, #-28]	; 0xffffffe4
    c5fc:	e1a02c03 	lsl	r2, r3, #24
    c600:	e51b3018 	ldr	r3, [fp, #-24]	; 0xffffffe8
    c604:	e1a03803 	lsl	r3, r3, #16
    c608:	e1822003 	orr	r2, r2, r3
    c60c:	e51b3014 	ldr	r3, [fp, #-20]	; 0xffffffec
    c610:	e1a03403 	lsl	r3, r3, #8
    c614:	e1822003 	orr	r2, r2, r3
    c618:	e51b3010 	ldr	r3, [fp, #-16]
    c61c:	e1823003 	orr	r3, r2, r3
    c620:	e1a00003 	mov	r0, r3
    c624:	e28bd000 	add	sp, fp, #0
    c628:	e49db004 	pop	{fp}		; (ldr fp, [sp], #4)
    c62c:	e12fff1e 	bx	lr

0000c630 <buf_put_le32>:
    c630:	e52db004 	push	{fp}		; (str fp, [sp, #-4]!)
    c634:	e28db000 	add	fp, sp, #0
    c638:	e24dd014 	sub	sp, sp, #20
    c63c:	e50b0010 	str	r0, [fp, #-16]
    c640:	e50b1014 	str	r1, [fp, #-20]	; 0xffffffec
    c644:	e51b3010 	ldr	r3, [fp, #-16]
    c648:	e50b3008 	str	r3, [fp, #-8]
    c64c:	e51b3014 	ldr	r3, [fp, #-20]	; 0xffffffec
    c650:	e1a02c23 	lsr	r2, r3, #24
    c654:	e51b3008 	ldr	r3, [fp, #-8]
    c658:	e2833003 	add	r3, r3, #3
    c65c:	e6ef2072 	uxtb	r2, r2
    c660:	e5c32000 	strb	r2, [r3]
    c664:	e51b3014 	ldr	r3, [fp, #-20]	; 0xffffffec
    c668:	e1a02823 	lsr	r2, r3, #16
    c66c:	e51b3008 	ldr	r3, [fp, #-8]
    c670:	e2833002 	add	r3, r3, #2
    c674:	e6ef2072 	uxtb	r2, r2
    c678:	e5c32000 	strb	r2, [r3]
    c67c:	e51b3014 	ldr	r3, [fp, #-20]	; 0xffffffec
    c680:	e1a02423 	lsr	r2, r3, #8
    c684:	e51b3008 	ldr	r3, [fp, #-8]
    c688:	e2833001 	add	r3, r3, #1
    c68c:	e6ef2072 	uxtb	r2, r2
    c690:	e5c32000 	strb	r2, [r3]
    c694:	e51b3014 	ldr	r3, [fp, #-20]	; 0xffffffec
    c698:	e6ef2073 	uxtb	r2, r3
    c69c:	e51b3008 	ldr	r3, [fp, #-8]
    c6a0:	e5c32000 	strb	r2, [r3]
    c6a4:	e320f000 	nop	{0}
    c6a8:	e28bd000 	add	sp, fp, #0
    c6ac:	e49db004 	pop	{fp}		; (ldr fp, [sp], #4)
    c6b0:	e12fff1e 	bx	lr

0000c6b4 <cipher_block_cpy>:
    c6b4:	e92d4800 	push	{fp, lr}
    c6b8:	e28db004 	add	fp, sp, #4
    c6bc:	e24dd028 	sub	sp, sp, #40	; 0x28
    c6c0:	e50b0020 	str	r0, [fp, #-32]	; 0xffffffe0
    c6c4:	e50b1024 	str	r1, [fp, #-36]	; 0xffffffdc
    c6c8:	e50b2028 	str	r2, [fp, #-40]	; 0xffffffd8
    c6cc:	e51b3020 	ldr	r3, [fp, #-32]	; 0xffffffe0
    c6d0:	e50b3008 	str	r3, [fp, #-8]
    c6d4:	e51b3024 	ldr	r3, [fp, #-36]	; 0xffffffdc
    c6d8:	e50b300c 	str	r3, [fp, #-12]
    c6dc:	e51b3028 	ldr	r3, [fp, #-40]	; 0xffffffd8
    c6e0:	e3530008 	cmp	r3, #8
    c6e4:	1a000014 	bne	c73c <cipher_block_cpy+0x88>
    c6e8:	e51b000c 	ldr	r0, [fp, #-12]
    c6ec:	ebffffa1 	bl	c578 <buf_get_le32>
    c6f0:	e1a03000 	mov	r3, r0
    c6f4:	e50b301c 	str	r3, [fp, #-28]	; 0xffffffe4
    c6f8:	e51b300c 	ldr	r3, [fp, #-12]
    c6fc:	e2833004 	add	r3, r3, #4
    c700:	e1a00003 	mov	r0, r3
    c704:	ebffff9b 	bl	c578 <buf_get_le32>
    c708:	e1a03000 	mov	r3, r0
    c70c:	e50b3018 	str	r3, [fp, #-24]	; 0xffffffe8
    c710:	e51b301c 	ldr	r3, [fp, #-28]	; 0xffffffe4
    c714:	e1a01003 	mov	r1, r3
    c718:	e51b0008 	ldr	r0, [fp, #-8]
    c71c:	ebffffc3 	bl	c630 <buf_put_le32>
    c720:	e51b3008 	ldr	r3, [fp, #-8]
    c724:	e2833004 	add	r3, r3, #4
    c728:	e51b2018 	ldr	r2, [fp, #-24]	; 0xffffffe8
    c72c:	e1a01002 	mov	r1, r2
    c730:	e1a00003 	mov	r0, r3
    c734:	ebffffbd 	bl	c630 <buf_put_le32>
    c738:	ea00002b 	b	c7ec <cipher_block_cpy+0x138>
    c73c:	e51b000c 	ldr	r0, [fp, #-12]
    c740:	ebffff8c 	bl	c578 <buf_get_le32>
    c744:	e1a03000 	mov	r3, r0
    c748:	e50b301c 	str	r3, [fp, #-28]	; 0xffffffe4
    c74c:	e51b300c 	ldr	r3, [fp, #-12]
    c750:	e2833004 	add	r3, r3, #4
    c754:	e1a00003 	mov	r0, r3
    c758:	ebffff86 	bl	c578 <buf_get_le32>
    c75c:	e1a03000 	mov	r3, r0
    c760:	e50b3018 	str	r3, [fp, #-24]	; 0xffffffe8
    c764:	e51b300c 	ldr	r3, [fp, #-12]
    c768:	e2833008 	add	r3, r3, #8
    c76c:	e1a00003 	mov	r0, r3
    c770:	ebffff80 	bl	c578 <buf_get_le32>
    c774:	e1a03000 	mov	r3, r0
    c778:	e50b3014 	str	r3, [fp, #-20]	; 0xffffffec
    c77c:	e51b300c 	ldr	r3, [fp, #-12]
    c780:	e283300c 	add	r3, r3, #12
    c784:	e1a00003 	mov	r0, r3
    c788:	ebffff7a 	bl	c578 <buf_get_le32>
    c78c:	e1a03000 	mov	r3, r0
    c790:	e50b3010 	str	r3, [fp, #-16]
    c794:	e51b301c 	ldr	r3, [fp, #-28]	; 0xffffffe4
    c798:	e1a01003 	mov	r1, r3
    c79c:	e51b0008 	ldr	r0, [fp, #-8]
    c7a0:	ebffffa2 	bl	c630 <buf_put_le32>
    c7a4:	e51b3008 	ldr	r3, [fp, #-8]
    c7a8:	e2833004 	add	r3, r3, #4
    c7ac:	e51b2018 	ldr	r2, [fp, #-24]	; 0xffffffe8
    c7b0:	e1a01002 	mov	r1, r2
    c7b4:	e1a00003 	mov	r0, r3
    c7b8:	ebffff9c 	bl	c630 <buf_put_le32>
    c7bc:	e51b3008 	ldr	r3, [fp, #-8]
    c7c0:	e2833008 	add	r3, r3, #8
    c7c4:	e51b2014 	ldr	r2, [fp, #-20]	; 0xffffffec
    c7c8:	e1a01002 	mov	r1, r2
    c7cc:	e1a00003 	mov	r0, r3
    c7d0:	ebffff96 	bl	c630 <buf_put_le32>
    c7d4:	e51b3008 	ldr	r3, [fp, #-8]
    c7d8:	e283300c 	add	r3, r3, #12
    c7dc:	e51b2010 	ldr	r2, [fp, #-16]
    c7e0:	e1a01002 	mov	r1, r2
    c7e4:	e1a00003 	mov	r0, r3
    c7e8:	ebffff90 	bl	c630 <buf_put_le32>
    c7ec:	e320f000 	nop	{0}
    c7f0:	e24bd004 	sub	sp, fp, #4
    c7f4:	e8bd8800 	pop	{fp, pc}

0000c7f8 <cipher_block_xor_n_copy_2>:
    c7f8:	e92d4800 	push	{fp, lr}
    c7fc:	e28db004 	add	fp, sp, #4
    c800:	e24dd058 	sub	sp, sp, #88	; 0x58
    c804:	e50b0050 	str	r0, [fp, #-80]	; 0xffffffb0
    c808:	e50b1054 	str	r1, [fp, #-84]	; 0xffffffac
    c80c:	e50b2058 	str	r2, [fp, #-88]	; 0xffffffa8
    c810:	e50b305c 	str	r3, [fp, #-92]	; 0xffffffa4
    c814:	e51b3050 	ldr	r3, [fp, #-80]	; 0xffffffb0
    c818:	e50b300c 	str	r3, [fp, #-12]
    c81c:	e51b3058 	ldr	r3, [fp, #-88]	; 0xffffffa8
    c820:	e50b3010 	str	r3, [fp, #-16]
    c824:	e51b3054 	ldr	r3, [fp, #-84]	; 0xffffffac
    c828:	e50b3014 	str	r3, [fp, #-20]	; 0xffffffec
    c82c:	e51b305c 	ldr	r3, [fp, #-92]	; 0xffffffa4
    c830:	e50b3018 	str	r3, [fp, #-24]	; 0xffffffe8
    c834:	e59b3004 	ldr	r3, [fp, #4]
    c838:	e3530008 	cmp	r3, #8
    c83c:	1a000036 	bne	c91c <cipher_block_xor_n_copy_2+0x124>
    c840:	e51b0018 	ldr	r0, [fp, #-24]	; 0xffffffe8
    c844:	ebffff4b 	bl	c578 <buf_get_le32>
    c848:	e1a03000 	mov	r3, r0
    c84c:	e50b3028 	str	r3, [fp, #-40]	; 0xffffffd8
    c850:	e51b3018 	ldr	r3, [fp, #-24]	; 0xffffffe8
    c854:	e2833004 	add	r3, r3, #4
    c858:	e1a00003 	mov	r0, r3
    c85c:	ebffff45 	bl	c578 <buf_get_le32>
    c860:	e1a03000 	mov	r3, r0
    c864:	e50b3024 	str	r3, [fp, #-36]	; 0xffffffdc
    c868:	e51b0010 	ldr	r0, [fp, #-16]
    c86c:	ebffff41 	bl	c578 <buf_get_le32>
    c870:	e1a03000 	mov	r3, r0
    c874:	e50b3048 	str	r3, [fp, #-72]	; 0xffffffb8
    c878:	e51b3010 	ldr	r3, [fp, #-16]
    c87c:	e2833004 	add	r3, r3, #4
    c880:	e1a00003 	mov	r0, r3
    c884:	ebffff3b 	bl	c578 <buf_get_le32>
    c888:	e1a03000 	mov	r3, r0
    c88c:	e50b3044 	str	r3, [fp, #-68]	; 0xffffffbc
    c890:	e51b0014 	ldr	r0, [fp, #-20]	; 0xffffffec
    c894:	ebffff37 	bl	c578 <buf_get_le32>
    c898:	e1a02000 	mov	r2, r0
    c89c:	e51b3048 	ldr	r3, [fp, #-72]	; 0xffffffb8
    c8a0:	e0233002 	eor	r3, r3, r2
    c8a4:	e50b3038 	str	r3, [fp, #-56]	; 0xffffffc8
    c8a8:	e51b3014 	ldr	r3, [fp, #-20]	; 0xffffffec
    c8ac:	e2833004 	add	r3, r3, #4
    c8b0:	e1a00003 	mov	r0, r3
    c8b4:	ebffff2f 	bl	c578 <buf_get_le32>
    c8b8:	e1a02000 	mov	r2, r0
    c8bc:	e51b3044 	ldr	r3, [fp, #-68]	; 0xffffffbc
    c8c0:	e0233002 	eor	r3, r3, r2
    c8c4:	e50b3034 	str	r3, [fp, #-52]	; 0xffffffcc
    c8c8:	e51b3038 	ldr	r3, [fp, #-56]	; 0xffffffc8
    c8cc:	e1a01003 	mov	r1, r3
    c8d0:	e51b000c 	ldr	r0, [fp, #-12]
    c8d4:	ebffff55 	bl	c630 <buf_put_le32>
    c8d8:	e51b300c 	ldr	r3, [fp, #-12]
    c8dc:	e2833004 	add	r3, r3, #4
    c8e0:	e51b2034 	ldr	r2, [fp, #-52]	; 0xffffffcc
    c8e4:	e1a01002 	mov	r1, r2
    c8e8:	e1a00003 	mov	r0, r3
    c8ec:	ebffff4f 	bl	c630 <buf_put_le32>
    c8f0:	e51b3028 	ldr	r3, [fp, #-40]	; 0xffffffd8
    c8f4:	e1a01003 	mov	r1, r3
    c8f8:	e51b0010 	ldr	r0, [fp, #-16]
    c8fc:	ebffff4b 	bl	c630 <buf_put_le32>
    c900:	e51b3010 	ldr	r3, [fp, #-16]
    c904:	e2833004 	add	r3, r3, #4
    c908:	e51b2024 	ldr	r2, [fp, #-36]	; 0xffffffdc
    c90c:	e1a01002 	mov	r1, r2
    c910:	e1a00003 	mov	r0, r3
    c914:	ebffff45 	bl	c630 <buf_put_le32>
    c918:	ea00004f 	b	ca5c <cipher_block_xor_n_copy_2+0x264>
    c91c:	e3a03000 	mov	r3, #0
    c920:	e50b3008 	str	r3, [fp, #-8]
    c924:	ea000049 	b	ca50 <cipher_block_xor_n_copy_2+0x258>
    c928:	e51b3008 	ldr	r3, [fp, #-8]
    c92c:	e1a03103 	lsl	r3, r3, #2
    c930:	e1a02003 	mov	r2, r3
    c934:	e51b3018 	ldr	r3, [fp, #-24]	; 0xffffffe8
    c938:	e0833002 	add	r3, r3, r2
    c93c:	e1a00003 	mov	r0, r3
    c940:	ebffff0c 	bl	c578 <buf_get_le32>
    c944:	e1a02000 	mov	r2, r0
    c948:	e51b3008 	ldr	r3, [fp, #-8]
    c94c:	e1a03103 	lsl	r3, r3, #2
    c950:	e2433004 	sub	r3, r3, #4
    c954:	e083300b 	add	r3, r3, fp
    c958:	e5032024 	str	r2, [r3, #-36]	; 0xffffffdc
    c95c:	e51b3008 	ldr	r3, [fp, #-8]
    c960:	e1a03103 	lsl	r3, r3, #2
    c964:	e1a02003 	mov	r2, r3
    c968:	e51b3010 	ldr	r3, [fp, #-16]
    c96c:	e0833002 	add	r3, r3, r2
    c970:	e1a00003 	mov	r0, r3
    c974:	ebfffeff 	bl	c578 <buf_get_le32>
    c978:	e1a02000 	mov	r2, r0
    c97c:	e51b3008 	ldr	r3, [fp, #-8]
    c980:	e1a03103 	lsl	r3, r3, #2
    c984:	e2433004 	sub	r3, r3, #4
    c988:	e083300b 	add	r3, r3, fp
    c98c:	e5032044 	str	r2, [r3, #-68]	; 0xffffffbc
    c990:	e51b3008 	ldr	r3, [fp, #-8]
    c994:	e1a03103 	lsl	r3, r3, #2
    c998:	e1a02003 	mov	r2, r3
    c99c:	e51b3014 	ldr	r3, [fp, #-20]	; 0xffffffec
    c9a0:	e0833002 	add	r3, r3, r2
    c9a4:	e1a00003 	mov	r0, r3
    c9a8:	ebfffef2 	bl	c578 <buf_get_le32>
    c9ac:	e1a02000 	mov	r2, r0
    c9b0:	e51b3008 	ldr	r3, [fp, #-8]
    c9b4:	e1a03103 	lsl	r3, r3, #2
    c9b8:	e2433004 	sub	r3, r3, #4
    c9bc:	e083300b 	add	r3, r3, fp
    c9c0:	e5133044 	ldr	r3, [r3, #-68]	; 0xffffffbc
    c9c4:	e0222003 	eor	r2, r2, r3
    c9c8:	e51b3008 	ldr	r3, [fp, #-8]
    c9cc:	e1a03103 	lsl	r3, r3, #2
    c9d0:	e2433004 	sub	r3, r3, #4
    c9d4:	e083300b 	add	r3, r3, fp
    c9d8:	e5032034 	str	r2, [r3, #-52]	; 0xffffffcc
    c9dc:	e51b3008 	ldr	r3, [fp, #-8]
    c9e0:	e1a03103 	lsl	r3, r3, #2
    c9e4:	e1a02003 	mov	r2, r3
    c9e8:	e51b300c 	ldr	r3, [fp, #-12]
    c9ec:	e0832002 	add	r2, r3, r2
    c9f0:	e51b3008 	ldr	r3, [fp, #-8]
    c9f4:	e1a03103 	lsl	r3, r3, #2
    c9f8:	e2433004 	sub	r3, r3, #4
    c9fc:	e083300b 	add	r3, r3, fp
    ca00:	e5133034 	ldr	r3, [r3, #-52]	; 0xffffffcc
    ca04:	e1a01003 	mov	r1, r3
    ca08:	e1a00002 	mov	r0, r2
    ca0c:	ebffff07 	bl	c630 <buf_put_le32>
    ca10:	e51b3008 	ldr	r3, [fp, #-8]
    ca14:	e1a03103 	lsl	r3, r3, #2
    ca18:	e1a02003 	mov	r2, r3
    ca1c:	e51b3010 	ldr	r3, [fp, #-16]
    ca20:	e0832002 	add	r2, r3, r2
    ca24:	e51b3008 	ldr	r3, [fp, #-8]
    ca28:	e1a03103 	lsl	r3, r3, #2
    ca2c:	e2433004 	sub	r3, r3, #4
    ca30:	e083300b 	add	r3, r3, fp
    ca34:	e5133024 	ldr	r3, [r3, #-36]	; 0xffffffdc
    ca38:	e1a01003 	mov	r1, r3
    ca3c:	e1a00002 	mov	r0, r2
    ca40:	ebfffefa 	bl	c630 <buf_put_le32>
    ca44:	e51b3008 	ldr	r3, [fp, #-8]
    ca48:	e2833001 	add	r3, r3, #1
    ca4c:	e50b3008 	str	r3, [fp, #-8]
    ca50:	e51b3008 	ldr	r3, [fp, #-8]
    ca54:	e3530003 	cmp	r3, #3
    ca58:	daffffb2 	ble	c928 <cipher_block_xor_n_copy_2+0x130>
    ca5c:	e320f000 	nop	{0}
    ca60:	e24bd004 	sub	sp, fp, #4
    ca64:	e8bd8800 	pop	{fp, pc}

0000ca68 <buf_xor_n_copy_2>:
    ca68:	e92d4810 	push	{r4, fp, lr}
    ca6c:	e28db008 	add	fp, sp, #8
    ca70:	e24dd02c 	sub	sp, sp, #44	; 0x2c
    ca74:	e50b0028 	str	r0, [fp, #-40]	; 0xffffffd8
    ca78:	e50b102c 	str	r1, [fp, #-44]	; 0xffffffd4
    ca7c:	e50b2030 	str	r2, [fp, #-48]	; 0xffffffd0
    ca80:	e50b3034 	str	r3, [fp, #-52]	; 0xffffffcc
    ca84:	e51b3028 	ldr	r3, [fp, #-40]	; 0xffffffd8
    ca88:	e50b3010 	str	r3, [fp, #-16]
    ca8c:	e51b3030 	ldr	r3, [fp, #-48]	; 0xffffffd0
    ca90:	e50b3014 	str	r3, [fp, #-20]	; 0xffffffec
    ca94:	e51b302c 	ldr	r3, [fp, #-44]	; 0xffffffd4
    ca98:	e50b3018 	str	r3, [fp, #-24]	; 0xffffffe8
    ca9c:	e51b3034 	ldr	r3, [fp, #-52]	; 0xffffffcc
    caa0:	e50b301c 	str	r3, [fp, #-28]	; 0xffffffe4
    caa4:	ea00001e 	b	cb24 <buf_xor_n_copy_2+0xbc>
    caa8:	e51b001c 	ldr	r0, [fp, #-28]	; 0xffffffe4
    caac:	ebfffeb1 	bl	c578 <buf_get_le32>
    cab0:	e50b0024 	str	r0, [fp, #-36]	; 0xffffffdc
    cab4:	e51b0014 	ldr	r0, [fp, #-20]	; 0xffffffec
    cab8:	ebfffeae 	bl	c578 <buf_get_le32>
    cabc:	e1a04000 	mov	r4, r0
    cac0:	e51b0018 	ldr	r0, [fp, #-24]	; 0xffffffe8
    cac4:	ebfffeab 	bl	c578 <buf_get_le32>
    cac8:	e1a03000 	mov	r3, r0
    cacc:	e0233004 	eor	r3, r3, r4
    cad0:	e1a01003 	mov	r1, r3
    cad4:	e51b0010 	ldr	r0, [fp, #-16]
    cad8:	ebfffed4 	bl	c630 <buf_put_le32>
    cadc:	e51b1024 	ldr	r1, [fp, #-36]	; 0xffffffdc
    cae0:	e51b0014 	ldr	r0, [fp, #-20]	; 0xffffffec
    cae4:	ebfffed1 	bl	c630 <buf_put_le32>
    cae8:	e51b3010 	ldr	r3, [fp, #-16]
    caec:	e2833004 	add	r3, r3, #4
    caf0:	e50b3010 	str	r3, [fp, #-16]
    caf4:	e51b3014 	ldr	r3, [fp, #-20]	; 0xffffffec
    caf8:	e2833004 	add	r3, r3, #4
    cafc:	e50b3014 	str	r3, [fp, #-20]	; 0xffffffec
    cb00:	e51b3018 	ldr	r3, [fp, #-24]	; 0xffffffe8
    cb04:	e2833004 	add	r3, r3, #4
    cb08:	e50b3018 	str	r3, [fp, #-24]	; 0xffffffe8
    cb0c:	e51b301c 	ldr	r3, [fp, #-28]	; 0xffffffe4
    cb10:	e2833004 	add	r3, r3, #4
    cb14:	e50b301c 	str	r3, [fp, #-28]	; 0xffffffe4
    cb18:	e59b3004 	ldr	r3, [fp, #4]
    cb1c:	e2433004 	sub	r3, r3, #4
    cb20:	e58b3004 	str	r3, [fp, #4]
    cb24:	e59b3004 	ldr	r3, [fp, #4]
    cb28:	e3530003 	cmp	r3, #3
    cb2c:	8affffdd 	bhi	caa8 <buf_xor_n_copy_2+0x40>
    cb30:	ea000018 	b	cb98 <buf_xor_n_copy_2+0x130>
    cb34:	e51b301c 	ldr	r3, [fp, #-28]	; 0xffffffe4
    cb38:	e2832001 	add	r2, r3, #1
    cb3c:	e50b201c 	str	r2, [fp, #-28]	; 0xffffffe4
    cb40:	e5d33000 	ldrb	r3, [r3]
    cb44:	e54b301d 	strb	r3, [fp, #-29]	; 0xffffffe3
    cb48:	e51b3014 	ldr	r3, [fp, #-20]	; 0xffffffec
    cb4c:	e5d31000 	ldrb	r1, [r3]
    cb50:	e51b3018 	ldr	r3, [fp, #-24]	; 0xffffffe8
    cb54:	e2832001 	add	r2, r3, #1
    cb58:	e50b2018 	str	r2, [fp, #-24]	; 0xffffffe8
    cb5c:	e5d32000 	ldrb	r2, [r3]
    cb60:	e51b3010 	ldr	r3, [fp, #-16]
    cb64:	e2830001 	add	r0, r3, #1
    cb68:	e50b0010 	str	r0, [fp, #-16]
    cb6c:	e0222001 	eor	r2, r2, r1
    cb70:	e6ef2072 	uxtb	r2, r2
    cb74:	e5c32000 	strb	r2, [r3]
    cb78:	e51b3014 	ldr	r3, [fp, #-20]	; 0xffffffec
    cb7c:	e2832001 	add	r2, r3, #1
    cb80:	e50b2014 	str	r2, [fp, #-20]	; 0xffffffec
    cb84:	e55b201d 	ldrb	r2, [fp, #-29]	; 0xffffffe3
    cb88:	e5c32000 	strb	r2, [r3]
    cb8c:	e59b3004 	ldr	r3, [fp, #4]
    cb90:	e2433001 	sub	r3, r3, #1
    cb94:	e58b3004 	str	r3, [fp, #4]
    cb98:	e59b3004 	ldr	r3, [fp, #4]
    cb9c:	e3530000 	cmp	r3, #0
    cba0:	1affffe3 	bne	cb34 <buf_xor_n_copy_2+0xcc>
    cba4:	e320f000 	nop	{0}
    cba8:	e320f000 	nop	{0}
    cbac:	e24bd008 	sub	sp, fp, #8
    cbb0:	e8bd8810 	pop	{r4, fp, pc}

0000cbb4 <buf_xor_n_copy>:
    cbb4:	e92d4800 	push	{fp, lr}
    cbb8:	e28db004 	add	fp, sp, #4
    cbbc:	e24dd018 	sub	sp, sp, #24
    cbc0:	e50b0008 	str	r0, [fp, #-8]
    cbc4:	e50b100c 	str	r1, [fp, #-12]
    cbc8:	e50b2010 	str	r2, [fp, #-16]
    cbcc:	e50b3014 	str	r3, [fp, #-20]	; 0xffffffec
    cbd0:	e51b3014 	ldr	r3, [fp, #-20]	; 0xffffffec
    cbd4:	e58d3000 	str	r3, [sp]
    cbd8:	e51b3010 	ldr	r3, [fp, #-16]
    cbdc:	e51b200c 	ldr	r2, [fp, #-12]
    cbe0:	e51b1010 	ldr	r1, [fp, #-16]
    cbe4:	e51b0008 	ldr	r0, [fp, #-8]
    cbe8:	ebffff9e 	bl	ca68 <buf_xor_n_copy_2>
    cbec:	e320f000 	nop	{0}
    cbf0:	e24bd004 	sub	sp, fp, #4
    cbf4:	e8bd8800 	pop	{fp, pc}

0000cbf8 <cipher_block_xor_n_copy>:
    cbf8:	e92d4800 	push	{fp, lr}
    cbfc:	e28db004 	add	fp, sp, #4
    cc00:	e24dd018 	sub	sp, sp, #24
    cc04:	e50b0008 	str	r0, [fp, #-8]
    cc08:	e50b100c 	str	r1, [fp, #-12]
    cc0c:	e50b2010 	str	r2, [fp, #-16]
    cc10:	e50b3014 	str	r3, [fp, #-20]	; 0xffffffec
    cc14:	e51b3014 	ldr	r3, [fp, #-20]	; 0xffffffec
    cc18:	e58d3000 	str	r3, [sp]
    cc1c:	e51b3010 	ldr	r3, [fp, #-16]
    cc20:	e51b200c 	ldr	r2, [fp, #-12]
    cc24:	e51b1010 	ldr	r1, [fp, #-16]
    cc28:	e51b0008 	ldr	r0, [fp, #-8]
    cc2c:	ebfffef1 	bl	c7f8 <cipher_block_xor_n_copy_2>
    cc30:	e320f000 	nop	{0}
    cc34:	e24bd004 	sub	sp, fp, #4
    cc38:	e8bd8800 	pop	{fp, pc}

0000cc3c <buf_xor>:
    cc3c:	e92d4830 	push	{r4, r5, fp, lr}
    cc40:	e28db00c 	add	fp, sp, #12
    cc44:	e24dd020 	sub	sp, sp, #32
    cc48:	e50b0020 	str	r0, [fp, #-32]	; 0xffffffe0
    cc4c:	e50b1024 	str	r1, [fp, #-36]	; 0xffffffdc
    cc50:	e50b2028 	str	r2, [fp, #-40]	; 0xffffffd8
    cc54:	e50b302c 	str	r3, [fp, #-44]	; 0xffffffd4
    cc58:	e51b3020 	ldr	r3, [fp, #-32]	; 0xffffffe0
    cc5c:	e50b3010 	str	r3, [fp, #-16]
    cc60:	e51b3024 	ldr	r3, [fp, #-36]	; 0xffffffdc
    cc64:	e50b3014 	str	r3, [fp, #-20]	; 0xffffffec
    cc68:	e51b3028 	ldr	r3, [fp, #-40]	; 0xffffffd8
    cc6c:	e50b3018 	str	r3, [fp, #-24]	; 0xffffffe8
    cc70:	ea00002a 	b	cd20 <buf_xor+0xe4>
    cc74:	e59b3004 	ldr	r3, [fp, #4]
    cc78:	e3530000 	cmp	r3, #0
    cc7c:	0a000011 	beq	ccc8 <buf_xor+0x8c>
    cc80:	e51b0014 	ldr	r0, [fp, #-20]	; 0xffffffec
    cc84:	ebfffe3b 	bl	c578 <buf_get_le32>
    cc88:	e1a04000 	mov	r4, r0
    cc8c:	e51b0018 	ldr	r0, [fp, #-24]	; 0xffffffe8
    cc90:	ebfffe38 	bl	c578 <buf_get_le32>
    cc94:	e1a03000 	mov	r3, r0
    cc98:	e0244003 	eor	r4, r4, r3
    cc9c:	e51b0014 	ldr	r0, [fp, #-20]	; 0xffffffec
    cca0:	ebfffe34 	bl	c578 <buf_get_le32>
    cca4:	e1a05000 	mov	r5, r0
    cca8:	e51b0018 	ldr	r0, [fp, #-24]	; 0xffffffe8
    ccac:	ebfffe31 	bl	c578 <buf_get_le32>
    ccb0:	e1a03000 	mov	r3, r0
    ccb4:	e1a02005 	mov	r2, r5
    ccb8:	e1a01004 	mov	r1, r4
    ccbc:	e59f0114 	ldr	r0, [pc, #276]	; cdd8 <buf_xor+0x19c>
    ccc0:	e08f0000 	add	r0, pc, r0
    ccc4:	eb001faa 	bl	14b74 <tfp_printf>
    ccc8:	e51b0014 	ldr	r0, [fp, #-20]	; 0xffffffec
    cccc:	ebfffe29 	bl	c578 <buf_get_le32>
    ccd0:	e1a04000 	mov	r4, r0
    ccd4:	e51b0018 	ldr	r0, [fp, #-24]	; 0xffffffe8
    ccd8:	ebfffe26 	bl	c578 <buf_get_le32>
    ccdc:	e1a03000 	mov	r3, r0
    cce0:	e0233004 	eor	r3, r3, r4
    cce4:	e1a01003 	mov	r1, r3
    cce8:	e51b0010 	ldr	r0, [fp, #-16]
    ccec:	ebfffe4f 	bl	c630 <buf_put_le32>
    ccf0:	e51b3010 	ldr	r3, [fp, #-16]
    ccf4:	e2833004 	add	r3, r3, #4
    ccf8:	e50b3010 	str	r3, [fp, #-16]
    ccfc:	e51b3014 	ldr	r3, [fp, #-20]	; 0xffffffec
    cd00:	e2833004 	add	r3, r3, #4
    cd04:	e50b3014 	str	r3, [fp, #-20]	; 0xffffffec
    cd08:	e51b3018 	ldr	r3, [fp, #-24]	; 0xffffffe8
    cd0c:	e2833004 	add	r3, r3, #4
    cd10:	e50b3018 	str	r3, [fp, #-24]	; 0xffffffe8
    cd14:	e51b302c 	ldr	r3, [fp, #-44]	; 0xffffffd4
    cd18:	e2433004 	sub	r3, r3, #4
    cd1c:	e50b302c 	str	r3, [fp, #-44]	; 0xffffffd4
    cd20:	e51b302c 	ldr	r3, [fp, #-44]	; 0xffffffd4
    cd24:	e3530003 	cmp	r3, #3
    cd28:	8affffd1 	bhi	cc74 <buf_xor+0x38>
    cd2c:	ea000022 	b	cdbc <buf_xor+0x180>
    cd30:	e59b3004 	ldr	r3, [fp, #4]
    cd34:	e3530000 	cmp	r3, #0
    cd38:	0a00000e 	beq	cd78 <buf_xor+0x13c>
    cd3c:	e51b3014 	ldr	r3, [fp, #-20]	; 0xffffffec
    cd40:	e5d32000 	ldrb	r2, [r3]
    cd44:	e51b3018 	ldr	r3, [fp, #-24]	; 0xffffffe8
    cd48:	e5d33000 	ldrb	r3, [r3]
    cd4c:	e0233002 	eor	r3, r3, r2
    cd50:	e6ef3073 	uxtb	r3, r3
    cd54:	e1a01003 	mov	r1, r3
    cd58:	e51b3014 	ldr	r3, [fp, #-20]	; 0xffffffec
    cd5c:	e5d33000 	ldrb	r3, [r3]
    cd60:	e1a02003 	mov	r2, r3
    cd64:	e51b3018 	ldr	r3, [fp, #-24]	; 0xffffffe8
    cd68:	e5d33000 	ldrb	r3, [r3]
    cd6c:	e59f0068 	ldr	r0, [pc, #104]	; cddc <buf_xor+0x1a0>
    cd70:	e08f0000 	add	r0, pc, r0
    cd74:	eb001f7e 	bl	14b74 <tfp_printf>
    cd78:	e51b3014 	ldr	r3, [fp, #-20]	; 0xffffffec
    cd7c:	e2832001 	add	r2, r3, #1
    cd80:	e50b2014 	str	r2, [fp, #-20]	; 0xffffffec
    cd84:	e5d31000 	ldrb	r1, [r3]
    cd88:	e51b3018 	ldr	r3, [fp, #-24]	; 0xffffffe8
    cd8c:	e2832001 	add	r2, r3, #1
    cd90:	e50b2018 	str	r2, [fp, #-24]	; 0xffffffe8
    cd94:	e5d32000 	ldrb	r2, [r3]
    cd98:	e51b3010 	ldr	r3, [fp, #-16]
    cd9c:	e2830001 	add	r0, r3, #1
    cda0:	e50b0010 	str	r0, [fp, #-16]
    cda4:	e0222001 	eor	r2, r2, r1
    cda8:	e6ef2072 	uxtb	r2, r2
    cdac:	e5c32000 	strb	r2, [r3]
    cdb0:	e51b302c 	ldr	r3, [fp, #-44]	; 0xffffffd4
    cdb4:	e2433001 	sub	r3, r3, #1
    cdb8:	e50b302c 	str	r3, [fp, #-44]	; 0xffffffd4
    cdbc:	e51b302c 	ldr	r3, [fp, #-44]	; 0xffffffd4
    cdc0:	e3530000 	cmp	r3, #0
    cdc4:	1affffd9 	bne	cd30 <buf_xor+0xf4>
    cdc8:	e320f000 	nop	{0}
    cdcc:	e320f000 	nop	{0}
    cdd0:	e24bd00c 	sub	sp, fp, #12
    cdd4:	e8bd8830 	pop	{r4, r5, fp, pc}
    cdd8:	0000d434 	.word	0x0000d434
    cddc:	0000d39c 	.word	0x0000d39c

0000cde0 <_gcry_cipher_setkey>:
    cde0:	e52db004 	push	{fp}		; (str fp, [sp, #-4]!)
    cde4:	e28db000 	add	fp, sp, #0
    cde8:	e24dd02c 	sub	sp, sp, #44	; 0x2c
    cdec:	e50b0020 	str	r0, [fp, #-32]	; 0xffffffe0
    cdf0:	e50b1024 	str	r1, [fp, #-36]	; 0xffffffdc
    cdf4:	e50b2028 	str	r2, [fp, #-40]	; 0xffffffd8
    cdf8:	e24b301c 	sub	r3, fp, #28
    cdfc:	e3a02000 	mov	r2, #0
    ce00:	e5832000 	str	r2, [r3]
    ce04:	e5832004 	str	r2, [r3, #4]
    ce08:	e5832008 	str	r2, [r3, #8]
    ce0c:	e583200c 	str	r2, [r3, #12]
    ce10:	e3a03000 	mov	r3, #0
    ce14:	e50b3008 	str	r3, [fp, #-8]
    ce18:	e3a03000 	mov	r3, #0
    ce1c:	e50b300c 	str	r3, [fp, #-12]
    ce20:	ea000023 	b	ceb4 <_gcry_cipher_setkey+0xd4>
    ce24:	e51b3008 	ldr	r3, [fp, #-8]
    ce28:	e51b2024 	ldr	r2, [fp, #-36]	; 0xffffffdc
    ce2c:	e0823003 	add	r3, r2, r3
    ce30:	e5d33000 	ldrb	r3, [r3]
    ce34:	e1a02c03 	lsl	r2, r3, #24
    ce38:	e51b3008 	ldr	r3, [fp, #-8]
    ce3c:	e2833001 	add	r3, r3, #1
    ce40:	e51b1024 	ldr	r1, [fp, #-36]	; 0xffffffdc
    ce44:	e0813003 	add	r3, r1, r3
    ce48:	e5d33000 	ldrb	r3, [r3]
    ce4c:	e1a03803 	lsl	r3, r3, #16
    ce50:	e0822003 	add	r2, r2, r3
    ce54:	e51b3008 	ldr	r3, [fp, #-8]
    ce58:	e2833002 	add	r3, r3, #2
    ce5c:	e51b1024 	ldr	r1, [fp, #-36]	; 0xffffffdc
    ce60:	e0813003 	add	r3, r1, r3
    ce64:	e5d33000 	ldrb	r3, [r3]
    ce68:	e1a03403 	lsl	r3, r3, #8
    ce6c:	e0823003 	add	r3, r2, r3
    ce70:	e51b2008 	ldr	r2, [fp, #-8]
    ce74:	e2822003 	add	r2, r2, #3
    ce78:	e51b1024 	ldr	r1, [fp, #-36]	; 0xffffffdc
    ce7c:	e0812002 	add	r2, r1, r2
    ce80:	e5d22000 	ldrb	r2, [r2]
    ce84:	e0833002 	add	r3, r3, r2
    ce88:	e1a01003 	mov	r1, r3
    ce8c:	e51b3020 	ldr	r3, [fp, #-32]	; 0xffffffe0
    ce90:	e51b200c 	ldr	r2, [fp, #-12]
    ce94:	e282200c 	add	r2, r2, #12
    ce98:	e7831102 	str	r1, [r3, r2, lsl #2]
    ce9c:	e51b3008 	ldr	r3, [fp, #-8]
    cea0:	e2833004 	add	r3, r3, #4
    cea4:	e50b3008 	str	r3, [fp, #-8]
    cea8:	e51b300c 	ldr	r3, [fp, #-12]
    ceac:	e2833001 	add	r3, r3, #1
    ceb0:	e50b300c 	str	r3, [fp, #-12]
    ceb4:	e51b300c 	ldr	r3, [fp, #-12]
    ceb8:	e3530003 	cmp	r3, #3
    cebc:	daffffd8 	ble	ce24 <_gcry_cipher_setkey+0x44>
    cec0:	e3a03000 	mov	r3, #0
    cec4:	e1a00003 	mov	r0, r3
    cec8:	e28bd000 	add	sp, fp, #0
    cecc:	e49db004 	pop	{fp}		; (ldr fp, [sp], #4)
    ced0:	e12fff1e 	bx	lr

0000ced4 <_gcry_cipher_setiv>:
    ced4:	e92d4800 	push	{fp, lr}
    ced8:	e28db004 	add	fp, sp, #4
    cedc:	e24dd010 	sub	sp, sp, #16
    cee0:	e50b0008 	str	r0, [fp, #-8]
    cee4:	e50b100c 	str	r1, [fp, #-12]
    cee8:	e50b2010 	str	r2, [fp, #-16]
    ceec:	e51b3008 	ldr	r3, [fp, #-8]
    cef0:	e3a02000 	mov	r2, #0
    cef4:	e5832020 	str	r2, [r3, #32]
    cef8:	e51b300c 	ldr	r3, [fp, #-12]
    cefc:	e3530000 	cmp	r3, #0
    cf00:	0a000005 	beq	cf1c <_gcry_cipher_setiv+0x48>
    cf04:	e51b3008 	ldr	r3, [fp, #-8]
    cf08:	e51b2010 	ldr	r2, [fp, #-16]
    cf0c:	e51b100c 	ldr	r1, [fp, #-12]
    cf10:	e1a00003 	mov	r0, r3
    cf14:	eb001067 	bl	110b8 <memcpy>
    cf18:	ea000004 	b	cf30 <_gcry_cipher_setiv+0x5c>
    cf1c:	e51b3008 	ldr	r3, [fp, #-8]
    cf20:	e51b2010 	ldr	r2, [fp, #-16]
    cf24:	e3a01000 	mov	r1, #0
    cf28:	e1a00003 	mov	r0, r3
    cf2c:	eb001048 	bl	11054 <memset>
    cf30:	e3a03000 	mov	r3, #0
    cf34:	e1a00003 	mov	r0, r3
    cf38:	e24bd004 	sub	sp, fp, #4
    cf3c:	e8bd8800 	pop	{fp, pc}

0000cf40 <cipher_sync>:
    cf40:	e92d4800 	push	{fp, lr}
    cf44:	e28db004 	add	fp, sp, #4
    cf48:	e24dd008 	sub	sp, sp, #8
    cf4c:	e50b0008 	str	r0, [fp, #-8]
    cf50:	e51b3008 	ldr	r3, [fp, #-8]
    cf54:	e5933020 	ldr	r3, [r3, #32]
    cf58:	e3530000 	cmp	r3, #0
    cf5c:	0a000017 	beq	cfc0 <cipher_sync+0x80>
    cf60:	e51b3008 	ldr	r3, [fp, #-8]
    cf64:	e51b2008 	ldr	r2, [fp, #-8]
    cf68:	e5922020 	ldr	r2, [r2, #32]
    cf6c:	e0830002 	add	r0, r3, r2
    cf70:	e51b1008 	ldr	r1, [fp, #-8]
    cf74:	e51b3008 	ldr	r3, [fp, #-8]
    cf78:	e5933020 	ldr	r3, [r3, #32]
    cf7c:	e2633008 	rsb	r3, r3, #8
    cf80:	e1a02003 	mov	r2, r3
    cf84:	eb001068 	bl	1112c <memmove>
    cf88:	e51b0008 	ldr	r0, [fp, #-8]
    cf8c:	e51b3008 	ldr	r3, [fp, #-8]
    cf90:	e2832010 	add	r2, r3, #16
    cf94:	e51b3008 	ldr	r3, [fp, #-8]
    cf98:	e5933020 	ldr	r3, [r3, #32]
    cf9c:	e2633008 	rsb	r3, r3, #8
    cfa0:	e0821003 	add	r1, r2, r3
    cfa4:	e51b3008 	ldr	r3, [fp, #-8]
    cfa8:	e5933020 	ldr	r3, [r3, #32]
    cfac:	e1a02003 	mov	r2, r3
    cfb0:	eb001040 	bl	110b8 <memcpy>
    cfb4:	e51b3008 	ldr	r3, [fp, #-8]
    cfb8:	e3a02000 	mov	r2, #0
    cfbc:	e5832020 	str	r2, [r3, #32]
    cfc0:	e320f000 	nop	{0}
    cfc4:	e24bd004 	sub	sp, fp, #4
    cfc8:	e8bd8800 	pop	{fp, pc}

0000cfcc <_gcry_cipher_decrypt>:
    cfcc:	e92d4800 	push	{fp, lr}
    cfd0:	e28db004 	add	fp, sp, #4
    cfd4:	e24dd018 	sub	sp, sp, #24
    cfd8:	e50b0008 	str	r0, [fp, #-8]
    cfdc:	e50b100c 	str	r1, [fp, #-12]
    cfe0:	e50b2010 	str	r2, [fp, #-16]
    cfe4:	e50b3014 	str	r3, [fp, #-20]	; 0xffffffec
    cfe8:	e51b3008 	ldr	r3, [fp, #-8]
    cfec:	e5933020 	ldr	r3, [r3, #32]
    cff0:	e51b2010 	ldr	r2, [fp, #-16]
    cff4:	e59b1004 	ldr	r1, [fp, #4]
    cff8:	e59f0074 	ldr	r0, [pc, #116]	; d074 <_gcry_cipher_decrypt+0xa8>
    cffc:	e08f0000 	add	r0, pc, r0
    d000:	eb001edb 	bl	14b74 <tfp_printf>
    d004:	e51b3014 	ldr	r3, [fp, #-20]	; 0xffffffec
    d008:	e3530000 	cmp	r3, #0
    d00c:	1a000003 	bne	d020 <_gcry_cipher_decrypt+0x54>
    d010:	e51b300c 	ldr	r3, [fp, #-12]
    d014:	e50b3014 	str	r3, [fp, #-20]	; 0xffffffec
    d018:	e51b3010 	ldr	r3, [fp, #-16]
    d01c:	e58b3004 	str	r3, [fp, #4]
    d020:	e59b2004 	ldr	r2, [fp, #4]
    d024:	e51b3010 	ldr	r3, [fp, #-16]
    d028:	e1520003 	cmp	r2, r3
    d02c:	0a000005 	beq	d048 <_gcry_cipher_decrypt+0x7c>
    d030:	e51b2010 	ldr	r2, [fp, #-16]
    d034:	e59b1004 	ldr	r1, [fp, #4]
    d038:	e59f3038 	ldr	r3, [pc, #56]	; d078 <_gcry_cipher_decrypt+0xac>
    d03c:	e08f3003 	add	r3, pc, r3
    d040:	e1a00003 	mov	r0, r3
    d044:	eb001eca 	bl	14b74 <tfp_printf>
    d048:	e59b3004 	ldr	r3, [fp, #4]
    d04c:	e58d3000 	str	r3, [sp]
    d050:	e51b3014 	ldr	r3, [fp, #-20]	; 0xffffffec
    d054:	e51b2010 	ldr	r2, [fp, #-16]
    d058:	e51b100c 	ldr	r1, [fp, #-12]
    d05c:	e51b0008 	ldr	r0, [fp, #-8]
    d060:	eb0000cc 	bl	d398 <_gcry_cipher_cfb_decrypt>
    d064:	e1a03000 	mov	r3, r0
    d068:	e1a00003 	mov	r0, r3
    d06c:	e24bd004 	sub	sp, fp, #4
    d070:	e8bd8800 	pop	{fp, pc}
    d074:	0000d130 	.word	0x0000d130
    d078:	0000d12c 	.word	0x0000d12c

0000d07c <ascii_dump>:
    d07c:	e92d4800 	push	{fp, lr}
    d080:	e28db004 	add	fp, sp, #4
    d084:	e24dd010 	sub	sp, sp, #16
    d088:	e50b0010 	str	r0, [fp, #-16]
    d08c:	e50b1014 	str	r1, [fp, #-20]	; 0xffffffec
    d090:	e3a03000 	mov	r3, #0
    d094:	e50b3008 	str	r3, [fp, #-8]
    d098:	ea00000b 	b	d0cc <ascii_dump+0x50>
    d09c:	e51b2010 	ldr	r2, [fp, #-16]
    d0a0:	e51b3008 	ldr	r3, [fp, #-8]
    d0a4:	e0823003 	add	r3, r2, r3
    d0a8:	e5d33000 	ldrb	r3, [r3]
    d0ac:	e1a01003 	mov	r1, r3
    d0b0:	e59f3034 	ldr	r3, [pc, #52]	; d0ec <ascii_dump+0x70>
    d0b4:	e08f3003 	add	r3, pc, r3
    d0b8:	e1a00003 	mov	r0, r3
    d0bc:	eb001eac 	bl	14b74 <tfp_printf>
    d0c0:	e51b3008 	ldr	r3, [fp, #-8]
    d0c4:	e2833001 	add	r3, r3, #1
    d0c8:	e50b3008 	str	r3, [fp, #-8]
    d0cc:	e51b2008 	ldr	r2, [fp, #-8]
    d0d0:	e51b3014 	ldr	r3, [fp, #-20]	; 0xffffffec
    d0d4:	e1520003 	cmp	r2, r3
    d0d8:	3affffef 	bcc	d09c <ascii_dump+0x20>
    d0dc:	e320f000 	nop	{0}
    d0e0:	e320f000 	nop	{0}
    d0e4:	e24bd004 	sub	sp, fp, #4
    d0e8:	e8bd8800 	pop	{fp, pc}
    d0ec:	0000d0f0 	.word	0x0000d0f0

0000d0f0 <_gcry_cast5_cfb_dec>:
    d0f0:	e92d4800 	push	{fp, lr}
    d0f4:	e28db004 	add	fp, sp, #4
    d0f8:	e24dd060 	sub	sp, sp, #96	; 0x60
    d0fc:	e50b0048 	str	r0, [fp, #-72]	; 0xffffffb8
    d100:	e50b104c 	str	r1, [fp, #-76]	; 0xffffffb4
    d104:	e50b2050 	str	r2, [fp, #-80]	; 0xffffffb0
    d108:	e50b3054 	str	r3, [fp, #-84]	; 0xffffffac
    d10c:	e59f3258 	ldr	r3, [pc, #600]	; d36c <_gcry_cast5_cfb_dec+0x27c>
    d110:	e08f3003 	add	r3, pc, r3
    d114:	e1a00003 	mov	r0, r3
    d118:	eb001e95 	bl	14b74 <tfp_printf>
    d11c:	e51b3050 	ldr	r3, [fp, #-80]	; 0xffffffb0
    d120:	e50b3008 	str	r3, [fp, #-8]
    d124:	e51b3054 	ldr	r3, [fp, #-84]	; 0xffffffac
    d128:	e50b300c 	str	r3, [fp, #-12]
    d12c:	e59b1004 	ldr	r1, [fp, #4]
    d130:	e59f3238 	ldr	r3, [pc, #568]	; d370 <_gcry_cast5_cfb_dec+0x280>
    d134:	e08f3003 	add	r3, pc, r3
    d138:	e1a00003 	mov	r0, r3
    d13c:	eb001e8c 	bl	14b74 <tfp_printf>
    d140:	e3a03001 	mov	r3, #1
    d144:	e50b3010 	str	r3, [fp, #-16]
    d148:	ea00004d 	b	d284 <_gcry_cast5_cfb_dec+0x194>
    d14c:	e24b302c 	sub	r3, fp, #44	; 0x2c
    d150:	e3a02008 	mov	r2, #8
    d154:	e51b104c 	ldr	r1, [fp, #-76]	; 0xffffffb4
    d158:	e1a00003 	mov	r0, r3
    d15c:	ebfffd54 	bl	c6b4 <cipher_block_cpy>
    d160:	e24b302c 	sub	r3, fp, #44	; 0x2c
    d164:	e2833008 	add	r3, r3, #8
    d168:	e3a02010 	mov	r2, #16
    d16c:	e51b100c 	ldr	r1, [fp, #-12]
    d170:	e1a00003 	mov	r0, r3
    d174:	ebfffd4e 	bl	c6b4 <cipher_block_cpy>
    d178:	e51b300c 	ldr	r3, [fp, #-12]
    d17c:	e2833010 	add	r3, r3, #16
    d180:	e3a02008 	mov	r2, #8
    d184:	e1a01003 	mov	r1, r3
    d188:	e51b004c 	ldr	r0, [fp, #-76]	; 0xffffffb4
    d18c:	ebfffd48 	bl	c6b4 <cipher_block_cpy>
    d190:	e3a03000 	mov	r3, #0
    d194:	e50b3014 	str	r3, [fp, #-20]	; 0xffffffec
    d198:	ea000020 	b	d220 <_gcry_cast5_cfb_dec+0x130>
    d19c:	e51b3014 	ldr	r3, [fp, #-20]	; 0xffffffec
    d1a0:	e1a03183 	lsl	r3, r3, #3
    d1a4:	e1a02003 	mov	r2, r3
    d1a8:	e24b302c 	sub	r3, fp, #44	; 0x2c
    d1ac:	e0832002 	add	r2, r3, r2
    d1b0:	e24b3044 	sub	r3, fp, #68	; 0x44
    d1b4:	e1a01002 	mov	r1, r2
    d1b8:	e1a00003 	mov	r0, r3
    d1bc:	eb000dce 	bl	108fc <blockFromBytes>
    d1c0:	e51b3048 	ldr	r3, [fp, #-72]	; 0xffffffb8
    d1c4:	e2831030 	add	r1, r3, #48	; 0x30
    d1c8:	e24b005c 	sub	r0, fp, #92	; 0x5c
    d1cc:	e3a03000 	mov	r3, #0
    d1d0:	e58d3000 	str	r3, [sp]
    d1d4:	e24b3044 	sub	r3, fp, #68	; 0x44
    d1d8:	e893000c 	ldm	r3, {r2, r3}
    d1dc:	eb000db3 	bl	108b0 <encrypt>
    d1e0:	e24b3044 	sub	r3, fp, #68	; 0x44
    d1e4:	e24b205c 	sub	r2, fp, #92	; 0x5c
    d1e8:	e8920003 	ldm	r2, {r0, r1}
    d1ec:	e8830003 	stm	r3, {r0, r1}
    d1f0:	e51b3014 	ldr	r3, [fp, #-20]	; 0xffffffec
    d1f4:	e1a03183 	lsl	r3, r3, #3
    d1f8:	e1a02003 	mov	r2, r3
    d1fc:	e24b302c 	sub	r3, fp, #44	; 0x2c
    d200:	e0833002 	add	r3, r3, r2
    d204:	e1a02003 	mov	r2, r3
    d208:	e24b3044 	sub	r3, fp, #68	; 0x44
    d20c:	e8930003 	ldm	r3, {r0, r1}
    d210:	eb0001c8 	bl	d938 <bytesFromBlock>
    d214:	e51b3014 	ldr	r3, [fp, #-20]	; 0xffffffec
    d218:	e2833001 	add	r3, r3, #1
    d21c:	e50b3014 	str	r3, [fp, #-20]	; 0xffffffec
    d220:	e51b3014 	ldr	r3, [fp, #-20]	; 0xffffffec
    d224:	e3530002 	cmp	r3, #2
    d228:	daffffdb 	ble	d19c <_gcry_cast5_cfb_dec+0xac>
    d22c:	e24b202c 	sub	r2, fp, #44	; 0x2c
    d230:	e3a03000 	mov	r3, #0
    d234:	e58d3000 	str	r3, [sp]
    d238:	e3a03018 	mov	r3, #24
    d23c:	e51b100c 	ldr	r1, [fp, #-12]
    d240:	e51b0008 	ldr	r0, [fp, #-8]
    d244:	ebfffe7c 	bl	cc3c <buf_xor>
    d248:	e3a01018 	mov	r1, #24
    d24c:	e51b0008 	ldr	r0, [fp, #-8]
    d250:	ebffff89 	bl	d07c <ascii_dump>
    d254:	e51b3008 	ldr	r3, [fp, #-8]
    d258:	e2833018 	add	r3, r3, #24
    d25c:	e50b3008 	str	r3, [fp, #-8]
    d260:	e51b300c 	ldr	r3, [fp, #-12]
    d264:	e2833018 	add	r3, r3, #24
    d268:	e50b300c 	str	r3, [fp, #-12]
    d26c:	e51b3010 	ldr	r3, [fp, #-16]
    d270:	e2433001 	sub	r3, r3, #1
    d274:	e50b3010 	str	r3, [fp, #-16]
    d278:	e59b3004 	ldr	r3, [fp, #4]
    d27c:	e2433003 	sub	r3, r3, #3
    d280:	e58b3004 	str	r3, [fp, #4]
    d284:	e59b3004 	ldr	r3, [fp, #4]
    d288:	e3530002 	cmp	r3, #2
    d28c:	8affffae 	bhi	d14c <_gcry_cast5_cfb_dec+0x5c>
    d290:	ea00002b 	b	d344 <_gcry_cast5_cfb_dec+0x254>
    d294:	e24b3034 	sub	r3, fp, #52	; 0x34
    d298:	e51b104c 	ldr	r1, [fp, #-76]	; 0xffffffb4
    d29c:	e1a00003 	mov	r0, r3
    d2a0:	eb000d95 	bl	108fc <blockFromBytes>
    d2a4:	e51b3048 	ldr	r3, [fp, #-72]	; 0xffffffb8
    d2a8:	e2831030 	add	r1, r3, #48	; 0x30
    d2ac:	e51b3010 	ldr	r3, [fp, #-16]
    d2b0:	e3530000 	cmp	r3, #0
    d2b4:	c3a03001 	movgt	r3, #1
    d2b8:	d3a03000 	movle	r3, #0
    d2bc:	e6ef3073 	uxtb	r3, r3
    d2c0:	e24b005c 	sub	r0, fp, #92	; 0x5c
    d2c4:	e58d3000 	str	r3, [sp]
    d2c8:	e24b3034 	sub	r3, fp, #52	; 0x34
    d2cc:	e893000c 	ldm	r3, {r2, r3}
    d2d0:	eb000d76 	bl	108b0 <encrypt>
    d2d4:	e24b3034 	sub	r3, fp, #52	; 0x34
    d2d8:	e24b205c 	sub	r2, fp, #92	; 0x5c
    d2dc:	e8920003 	ldm	r2, {r0, r1}
    d2e0:	e8830003 	stm	r3, {r0, r1}
    d2e4:	e51b204c 	ldr	r2, [fp, #-76]	; 0xffffffb4
    d2e8:	e24b3034 	sub	r3, fp, #52	; 0x34
    d2ec:	e8930003 	ldm	r3, {r0, r1}
    d2f0:	eb000190 	bl	d938 <bytesFromBlock>
    d2f4:	e3a03008 	mov	r3, #8
    d2f8:	e51b200c 	ldr	r2, [fp, #-12]
    d2fc:	e51b104c 	ldr	r1, [fp, #-76]	; 0xffffffb4
    d300:	e51b0008 	ldr	r0, [fp, #-8]
    d304:	ebfffe3b 	bl	cbf8 <cipher_block_xor_n_copy>
    d308:	e3a01008 	mov	r1, #8
    d30c:	e51b0008 	ldr	r0, [fp, #-8]
    d310:	ebffff59 	bl	d07c <ascii_dump>
    d314:	e51b3008 	ldr	r3, [fp, #-8]
    d318:	e2833008 	add	r3, r3, #8
    d31c:	e50b3008 	str	r3, [fp, #-8]
    d320:	e51b300c 	ldr	r3, [fp, #-12]
    d324:	e2833008 	add	r3, r3, #8
    d328:	e50b300c 	str	r3, [fp, #-12]
    d32c:	e51b3010 	ldr	r3, [fp, #-16]
    d330:	e2433001 	sub	r3, r3, #1
    d334:	e50b3010 	str	r3, [fp, #-16]
    d338:	e59b3004 	ldr	r3, [fp, #4]
    d33c:	e2433001 	sub	r3, r3, #1
    d340:	e58b3004 	str	r3, [fp, #4]
    d344:	e59b3004 	ldr	r3, [fp, #4]
    d348:	e3530000 	cmp	r3, #0
    d34c:	1affffd0 	bne	d294 <_gcry_cast5_cfb_dec+0x1a4>
    d350:	e24b302c 	sub	r3, fp, #44	; 0x2c
    d354:	e3a01018 	mov	r1, #24
    d358:	e1a00003 	mov	r0, r3
    d35c:	eb000fb1 	bl	11228 <wipememory>
    d360:	e320f000 	nop	{0}
    d364:	e24bd004 	sub	sp, fp, #4
    d368:	e8bd8800 	pop	{fp, pc}
    d36c:	0000d098 	.word	0x0000d098
    d370:	0000d08c 	.word	0x0000d08c

0000d374 <_gcry_blocksize_shift>:
    d374:	e52db004 	push	{fp}		; (str fp, [sp, #-4]!)
    d378:	e28db000 	add	fp, sp, #0
    d37c:	e24dd00c 	sub	sp, sp, #12
    d380:	e50b0008 	str	r0, [fp, #-8]
    d384:	e3a03003 	mov	r3, #3
    d388:	e1a00003 	mov	r0, r3
    d38c:	e28bd000 	add	sp, fp, #0
    d390:	e49db004 	pop	{fp}		; (ldr fp, [sp], #4)
    d394:	e12fff1e 	bx	lr

0000d398 <_gcry_cipher_cfb_decrypt>:
    d398:	e92d4800 	push	{fp, lr}
    d39c:	e28db004 	add	fp, sp, #4
    d3a0:	e24dd058 	sub	sp, sp, #88	; 0x58
    d3a4:	e50b0040 	str	r0, [fp, #-64]	; 0xffffffc0
    d3a8:	e50b1044 	str	r1, [fp, #-68]	; 0xffffffbc
    d3ac:	e50b2048 	str	r2, [fp, #-72]	; 0xffffffb8
    d3b0:	e50b304c 	str	r3, [fp, #-76]	; 0xffffffb4
    d3b4:	e3a03001 	mov	r3, #1
    d3b8:	e51b2048 	ldr	r2, [fp, #-72]	; 0xffffffb8
    d3bc:	e59b1004 	ldr	r1, [fp, #4]
    d3c0:	e59f0558 	ldr	r0, [pc, #1368]	; d920 <_gcry_cipher_cfb_decrypt+0x588>
    d3c4:	e08f0000 	add	r0, pc, r0
    d3c8:	eb001de9 	bl	14b74 <tfp_printf>
    d3cc:	e59f3550 	ldr	r3, [pc, #1360]	; d924 <_gcry_cipher_cfb_decrypt+0x58c>
    d3d0:	e08f3003 	add	r3, pc, r3
    d3d4:	e1a00003 	mov	r0, r3
    d3d8:	eb001de5 	bl	14b74 <tfp_printf>
    d3dc:	e3a03000 	mov	r3, #0
    d3e0:	e50b3008 	str	r3, [fp, #-8]
    d3e4:	ea00000b 	b	d418 <_gcry_cipher_cfb_decrypt+0x80>
    d3e8:	e51b2040 	ldr	r2, [fp, #-64]	; 0xffffffc0
    d3ec:	e51b3008 	ldr	r3, [fp, #-8]
    d3f0:	e0823003 	add	r3, r2, r3
    d3f4:	e5d33000 	ldrb	r3, [r3]
    d3f8:	e1a01003 	mov	r1, r3
    d3fc:	e59f3524 	ldr	r3, [pc, #1316]	; d928 <_gcry_cipher_cfb_decrypt+0x590>
    d400:	e08f3003 	add	r3, pc, r3
    d404:	e1a00003 	mov	r0, r3
    d408:	eb001dd9 	bl	14b74 <tfp_printf>
    d40c:	e51b3008 	ldr	r3, [fp, #-8]
    d410:	e2833001 	add	r3, r3, #1
    d414:	e50b3008 	str	r3, [fp, #-8]
    d418:	e51b3008 	ldr	r3, [fp, #-8]
    d41c:	e3530007 	cmp	r3, #7
    d420:	dafffff0 	ble	d3e8 <_gcry_cipher_cfb_decrypt+0x50>
    d424:	e59f3500 	ldr	r3, [pc, #1280]	; d92c <_gcry_cipher_cfb_decrypt+0x594>
    d428:	e08f3003 	add	r3, pc, r3
    d42c:	e1a00003 	mov	r0, r3
    d430:	eb001dcf 	bl	14b74 <tfp_printf>
    d434:	e51b0040 	ldr	r0, [fp, #-64]	; 0xffffffc0
    d438:	ebffffcd 	bl	d374 <_gcry_blocksize_shift>
    d43c:	e50b000c 	str	r0, [fp, #-12]
    d440:	e3a03008 	mov	r3, #8
    d444:	e50b3010 	str	r3, [fp, #-16]
    d448:	e51b3010 	ldr	r3, [fp, #-16]
    d44c:	e1a03083 	lsl	r3, r3, #1
    d450:	e50b3014 	str	r3, [fp, #-20]	; 0xffffffec
    d454:	e51b2048 	ldr	r2, [fp, #-72]	; 0xffffffb8
    d458:	e59b3004 	ldr	r3, [fp, #4]
    d45c:	e1520003 	cmp	r2, r3
    d460:	2a000001 	bcs	d46c <_gcry_cipher_cfb_decrypt+0xd4>
    d464:	e3e03000 	mvn	r3, #0
    d468:	ea000129 	b	d914 <_gcry_cipher_cfb_decrypt+0x57c>
    d46c:	e51b3040 	ldr	r3, [fp, #-64]	; 0xffffffc0
    d470:	e5933020 	ldr	r3, [r3, #32]
    d474:	e1a02003 	mov	r2, r3
    d478:	e59b3004 	ldr	r3, [fp, #4]
    d47c:	e1530002 	cmp	r3, r2
    d480:	8a000016 	bhi	d4e0 <_gcry_cipher_cfb_decrypt+0x148>
    d484:	e51b2040 	ldr	r2, [fp, #-64]	; 0xffffffc0
    d488:	e51b3040 	ldr	r3, [fp, #-64]	; 0xffffffc0
    d48c:	e5933020 	ldr	r3, [r3, #32]
    d490:	e1a01003 	mov	r1, r3
    d494:	e51b3010 	ldr	r3, [fp, #-16]
    d498:	e0433001 	sub	r3, r3, r1
    d49c:	e0823003 	add	r3, r2, r3
    d4a0:	e50b301c 	str	r3, [fp, #-28]	; 0xffffffe4
    d4a4:	e59b3004 	ldr	r3, [fp, #4]
    d4a8:	e51b204c 	ldr	r2, [fp, #-76]	; 0xffffffb4
    d4ac:	e51b101c 	ldr	r1, [fp, #-28]	; 0xffffffe4
    d4b0:	e51b0044 	ldr	r0, [fp, #-68]	; 0xffffffbc
    d4b4:	ebfffdbe 	bl	cbb4 <buf_xor_n_copy>
    d4b8:	e51b3040 	ldr	r3, [fp, #-64]	; 0xffffffc0
    d4bc:	e5933020 	ldr	r3, [r3, #32]
    d4c0:	e1a02003 	mov	r2, r3
    d4c4:	e59b3004 	ldr	r3, [fp, #4]
    d4c8:	e0423003 	sub	r3, r2, r3
    d4cc:	e1a02003 	mov	r2, r3
    d4d0:	e51b3040 	ldr	r3, [fp, #-64]	; 0xffffffc0
    d4d4:	e5832020 	str	r2, [r3, #32]
    d4d8:	e3a03000 	mov	r3, #0
    d4dc:	ea00010c 	b	d914 <_gcry_cipher_cfb_decrypt+0x57c>
    d4e0:	e3a03000 	mov	r3, #0
    d4e4:	e50b3018 	str	r3, [fp, #-24]	; 0xffffffe8
    d4e8:	e51b3040 	ldr	r3, [fp, #-64]	; 0xffffffc0
    d4ec:	e5933020 	ldr	r3, [r3, #32]
    d4f0:	e3530000 	cmp	r3, #0
    d4f4:	0a000022 	beq	d584 <_gcry_cipher_cfb_decrypt+0x1ec>
    d4f8:	e51b3040 	ldr	r3, [fp, #-64]	; 0xffffffc0
    d4fc:	e5933020 	ldr	r3, [r3, #32]
    d500:	e1a02003 	mov	r2, r3
    d504:	e59b3004 	ldr	r3, [fp, #4]
    d508:	e0433002 	sub	r3, r3, r2
    d50c:	e58b3004 	str	r3, [fp, #4]
    d510:	e51b2040 	ldr	r2, [fp, #-64]	; 0xffffffc0
    d514:	e51b3040 	ldr	r3, [fp, #-64]	; 0xffffffc0
    d518:	e5933020 	ldr	r3, [r3, #32]
    d51c:	e1a01003 	mov	r1, r3
    d520:	e51b3010 	ldr	r3, [fp, #-16]
    d524:	e0433001 	sub	r3, r3, r1
    d528:	e0823003 	add	r3, r2, r3
    d52c:	e50b301c 	str	r3, [fp, #-28]	; 0xffffffe4
    d530:	e51b3040 	ldr	r3, [fp, #-64]	; 0xffffffc0
    d534:	e5933020 	ldr	r3, [r3, #32]
    d538:	e51b204c 	ldr	r2, [fp, #-76]	; 0xffffffb4
    d53c:	e51b101c 	ldr	r1, [fp, #-28]	; 0xffffffe4
    d540:	e51b0044 	ldr	r0, [fp, #-68]	; 0xffffffbc
    d544:	ebfffd9a 	bl	cbb4 <buf_xor_n_copy>
    d548:	e51b3040 	ldr	r3, [fp, #-64]	; 0xffffffc0
    d54c:	e5933020 	ldr	r3, [r3, #32]
    d550:	e1a02003 	mov	r2, r3
    d554:	e51b3044 	ldr	r3, [fp, #-68]	; 0xffffffbc
    d558:	e0833002 	add	r3, r3, r2
    d55c:	e50b3044 	str	r3, [fp, #-68]	; 0xffffffbc
    d560:	e51b3040 	ldr	r3, [fp, #-64]	; 0xffffffc0
    d564:	e5933020 	ldr	r3, [r3, #32]
    d568:	e1a02003 	mov	r2, r3
    d56c:	e51b304c 	ldr	r3, [fp, #-76]	; 0xffffffb4
    d570:	e0833002 	add	r3, r3, r2
    d574:	e50b304c 	str	r3, [fp, #-76]	; 0xffffffb4
    d578:	e51b3040 	ldr	r3, [fp, #-64]	; 0xffffffc0
    d57c:	e3a02000 	mov	r2, #0
    d580:	e5832020 	str	r2, [r3, #32]
    d584:	e59b2004 	ldr	r2, [fp, #4]
    d588:	e51b3014 	ldr	r3, [fp, #-20]	; 0xffffffec
    d58c:	e1520003 	cmp	r2, r3
    d590:	3a00004a 	bcc	d6c0 <_gcry_cipher_cfb_decrypt+0x328>
    d594:	e59b2004 	ldr	r2, [fp, #4]
    d598:	e51b300c 	ldr	r3, [fp, #-12]
    d59c:	e1a03332 	lsr	r3, r2, r3
    d5a0:	e50b3020 	str	r3, [fp, #-32]	; 0xffffffe0
    d5a4:	e51b1040 	ldr	r1, [fp, #-64]	; 0xffffffc0
    d5a8:	e51b3020 	ldr	r3, [fp, #-32]	; 0xffffffe0
    d5ac:	e58d3000 	str	r3, [sp]
    d5b0:	e51b304c 	ldr	r3, [fp, #-76]	; 0xffffffb4
    d5b4:	e51b2044 	ldr	r2, [fp, #-68]	; 0xffffffbc
    d5b8:	e51b0040 	ldr	r0, [fp, #-64]	; 0xffffffc0
    d5bc:	ebfffecb 	bl	d0f0 <_gcry_cast5_cfb_dec>
    d5c0:	e51b2020 	ldr	r2, [fp, #-32]	; 0xffffffe0
    d5c4:	e51b300c 	ldr	r3, [fp, #-12]
    d5c8:	e1a03312 	lsl	r3, r2, r3
    d5cc:	e51b2044 	ldr	r2, [fp, #-68]	; 0xffffffbc
    d5d0:	e0823003 	add	r3, r2, r3
    d5d4:	e50b3044 	str	r3, [fp, #-68]	; 0xffffffbc
    d5d8:	e51b2020 	ldr	r2, [fp, #-32]	; 0xffffffe0
    d5dc:	e51b300c 	ldr	r3, [fp, #-12]
    d5e0:	e1a03312 	lsl	r3, r2, r3
    d5e4:	e51b204c 	ldr	r2, [fp, #-76]	; 0xffffffb4
    d5e8:	e0823003 	add	r3, r2, r3
    d5ec:	e50b304c 	str	r3, [fp, #-76]	; 0xffffffb4
    d5f0:	e51b2020 	ldr	r2, [fp, #-32]	; 0xffffffe0
    d5f4:	e51b300c 	ldr	r3, [fp, #-12]
    d5f8:	e1a03312 	lsl	r3, r2, r3
    d5fc:	e59b2004 	ldr	r2, [fp, #4]
    d600:	e0423003 	sub	r3, r2, r3
    d604:	e58b3004 	str	r3, [fp, #4]
    d608:	ea000030 	b	d6d0 <_gcry_cipher_cfb_decrypt+0x338>
    d60c:	e51b2040 	ldr	r2, [fp, #-64]	; 0xffffffc0
    d610:	e24b3028 	sub	r3, fp, #40	; 0x28
    d614:	e1a01002 	mov	r1, r2
    d618:	e1a00003 	mov	r0, r3
    d61c:	eb000cb6 	bl	108fc <blockFromBytes>
    d620:	e24b3028 	sub	r3, fp, #40	; 0x28
    d624:	e8930003 	ldm	r3, {r0, r1}
    d628:	eb00012a 	bl	dad8 <printBlock>
    d62c:	e51b3040 	ldr	r3, [fp, #-64]	; 0xffffffc0
    d630:	e2831030 	add	r1, r3, #48	; 0x30
    d634:	e24b0054 	sub	r0, fp, #84	; 0x54
    d638:	e3a03000 	mov	r3, #0
    d63c:	e58d3000 	str	r3, [sp]
    d640:	e24b3028 	sub	r3, fp, #40	; 0x28
    d644:	e893000c 	ldm	r3, {r2, r3}
    d648:	eb000c98 	bl	108b0 <encrypt>
    d64c:	e24b3028 	sub	r3, fp, #40	; 0x28
    d650:	e24b2054 	sub	r2, fp, #84	; 0x54
    d654:	e8920003 	ldm	r2, {r0, r1}
    d658:	e8830003 	stm	r3, {r0, r1}
    d65c:	e51b3040 	ldr	r3, [fp, #-64]	; 0xffffffc0
    d660:	e1a02003 	mov	r2, r3
    d664:	e24b3028 	sub	r3, fp, #40	; 0x28
    d668:	e8930003 	ldm	r3, {r0, r1}
    d66c:	eb0000b1 	bl	d938 <bytesFromBlock>
    d670:	e24b3028 	sub	r3, fp, #40	; 0x28
    d674:	e8930003 	ldm	r3, {r0, r1}
    d678:	eb000116 	bl	dad8 <printBlock>
    d67c:	e51b1040 	ldr	r1, [fp, #-64]	; 0xffffffc0
    d680:	e51b3010 	ldr	r3, [fp, #-16]
    d684:	e51b204c 	ldr	r2, [fp, #-76]	; 0xffffffb4
    d688:	e51b0044 	ldr	r0, [fp, #-68]	; 0xffffffbc
    d68c:	ebfffd59 	bl	cbf8 <cipher_block_xor_n_copy>
    d690:	e51b2044 	ldr	r2, [fp, #-68]	; 0xffffffbc
    d694:	e51b3010 	ldr	r3, [fp, #-16]
    d698:	e0823003 	add	r3, r2, r3
    d69c:	e50b3044 	str	r3, [fp, #-68]	; 0xffffffbc
    d6a0:	e51b204c 	ldr	r2, [fp, #-76]	; 0xffffffb4
    d6a4:	e51b3010 	ldr	r3, [fp, #-16]
    d6a8:	e0823003 	add	r3, r2, r3
    d6ac:	e50b304c 	str	r3, [fp, #-76]	; 0xffffffb4
    d6b0:	e59b2004 	ldr	r2, [fp, #4]
    d6b4:	e51b3010 	ldr	r3, [fp, #-16]
    d6b8:	e0423003 	sub	r3, r2, r3
    d6bc:	e58b3004 	str	r3, [fp, #4]
    d6c0:	e59b2004 	ldr	r2, [fp, #4]
    d6c4:	e51b3014 	ldr	r3, [fp, #-20]	; 0xffffffec
    d6c8:	e1520003 	cmp	r2, r3
    d6cc:	2affffce 	bcs	d60c <_gcry_cipher_cfb_decrypt+0x274>
    d6d0:	e59b2004 	ldr	r2, [fp, #4]
    d6d4:	e51b3010 	ldr	r3, [fp, #-16]
    d6d8:	e1520003 	cmp	r2, r3
    d6dc:	3a000039 	bcc	d7c8 <_gcry_cipher_cfb_decrypt+0x430>
    d6e0:	e51b3040 	ldr	r3, [fp, #-64]	; 0xffffffc0
    d6e4:	e5933020 	ldr	r3, [r3, #32]
    d6e8:	e51b2048 	ldr	r2, [fp, #-72]	; 0xffffffb8
    d6ec:	e59b1004 	ldr	r1, [fp, #4]
    d6f0:	e59f0238 	ldr	r0, [pc, #568]	; d930 <_gcry_cipher_cfb_decrypt+0x598>
    d6f4:	e08f0000 	add	r0, pc, r0
    d6f8:	eb001d1d 	bl	14b74 <tfp_printf>
    d6fc:	e51b3040 	ldr	r3, [fp, #-64]	; 0xffffffc0
    d700:	e2833010 	add	r3, r3, #16
    d704:	e51b1040 	ldr	r1, [fp, #-64]	; 0xffffffc0
    d708:	e51b2010 	ldr	r2, [fp, #-16]
    d70c:	e1a00003 	mov	r0, r3
    d710:	ebfffbe7 	bl	c6b4 <cipher_block_cpy>
    d714:	e51b2040 	ldr	r2, [fp, #-64]	; 0xffffffc0
    d718:	e24b3030 	sub	r3, fp, #48	; 0x30
    d71c:	e1a01002 	mov	r1, r2
    d720:	e1a00003 	mov	r0, r3
    d724:	eb000c74 	bl	108fc <blockFromBytes>
    d728:	e24b3030 	sub	r3, fp, #48	; 0x30
    d72c:	e8930003 	ldm	r3, {r0, r1}
    d730:	eb0000e8 	bl	dad8 <printBlock>
    d734:	e51b3040 	ldr	r3, [fp, #-64]	; 0xffffffc0
    d738:	e2831030 	add	r1, r3, #48	; 0x30
    d73c:	e24b0054 	sub	r0, fp, #84	; 0x54
    d740:	e3a03000 	mov	r3, #0
    d744:	e58d3000 	str	r3, [sp]
    d748:	e24b3030 	sub	r3, fp, #48	; 0x30
    d74c:	e893000c 	ldm	r3, {r2, r3}
    d750:	eb000c56 	bl	108b0 <encrypt>
    d754:	e24b3030 	sub	r3, fp, #48	; 0x30
    d758:	e24b2054 	sub	r2, fp, #84	; 0x54
    d75c:	e8920003 	ldm	r2, {r0, r1}
    d760:	e8830003 	stm	r3, {r0, r1}
    d764:	e51b3040 	ldr	r3, [fp, #-64]	; 0xffffffc0
    d768:	e1a02003 	mov	r2, r3
    d76c:	e24b3030 	sub	r3, fp, #48	; 0x30
    d770:	e8930003 	ldm	r3, {r0, r1}
    d774:	eb00006f 	bl	d938 <bytesFromBlock>
    d778:	e24b3030 	sub	r3, fp, #48	; 0x30
    d77c:	e8930003 	ldm	r3, {r0, r1}
    d780:	eb0000d4 	bl	dad8 <printBlock>
    d784:	e51b1040 	ldr	r1, [fp, #-64]	; 0xffffffc0
    d788:	e51b3010 	ldr	r3, [fp, #-16]
    d78c:	e51b204c 	ldr	r2, [fp, #-76]	; 0xffffffb4
    d790:	e51b0044 	ldr	r0, [fp, #-68]	; 0xffffffbc
    d794:	ebfffd17 	bl	cbf8 <cipher_block_xor_n_copy>
    d798:	e51b2044 	ldr	r2, [fp, #-68]	; 0xffffffbc
    d79c:	e51b3010 	ldr	r3, [fp, #-16]
    d7a0:	e0823003 	add	r3, r2, r3
    d7a4:	e50b3044 	str	r3, [fp, #-68]	; 0xffffffbc
    d7a8:	e51b204c 	ldr	r2, [fp, #-76]	; 0xffffffb4
    d7ac:	e51b3010 	ldr	r3, [fp, #-16]
    d7b0:	e0823003 	add	r3, r2, r3
    d7b4:	e50b304c 	str	r3, [fp, #-76]	; 0xffffffb4
    d7b8:	e59b2004 	ldr	r2, [fp, #4]
    d7bc:	e51b3010 	ldr	r3, [fp, #-16]
    d7c0:	e0423003 	sub	r3, r2, r3
    d7c4:	e58b3004 	str	r3, [fp, #4]
    d7c8:	e59b3004 	ldr	r3, [fp, #4]
    d7cc:	e3530000 	cmp	r3, #0
    d7d0:	0a00004e 	beq	d910 <_gcry_cipher_cfb_decrypt+0x578>
    d7d4:	e51b3040 	ldr	r3, [fp, #-64]	; 0xffffffc0
    d7d8:	e5933020 	ldr	r3, [r3, #32]
    d7dc:	e51b2048 	ldr	r2, [fp, #-72]	; 0xffffffb8
    d7e0:	e59b1004 	ldr	r1, [fp, #4]
    d7e4:	e59f0148 	ldr	r0, [pc, #328]	; d934 <_gcry_cipher_cfb_decrypt+0x59c>
    d7e8:	e08f0000 	add	r0, pc, r0
    d7ec:	eb001ce0 	bl	14b74 <tfp_printf>
    d7f0:	e51b3040 	ldr	r3, [fp, #-64]	; 0xffffffc0
    d7f4:	e2833010 	add	r3, r3, #16
    d7f8:	e51b1040 	ldr	r1, [fp, #-64]	; 0xffffffc0
    d7fc:	e51b2010 	ldr	r2, [fp, #-16]
    d800:	e1a00003 	mov	r0, r3
    d804:	ebfffbaa 	bl	c6b4 <cipher_block_cpy>
    d808:	e51b2040 	ldr	r2, [fp, #-64]	; 0xffffffc0
    d80c:	e24b3038 	sub	r3, fp, #56	; 0x38
    d810:	e1a01002 	mov	r1, r2
    d814:	e1a00003 	mov	r0, r3
    d818:	eb000c37 	bl	108fc <blockFromBytes>
    d81c:	e24b3038 	sub	r3, fp, #56	; 0x38
    d820:	e8930003 	ldm	r3, {r0, r1}
    d824:	eb0000ab 	bl	dad8 <printBlock>
    d828:	e51b3040 	ldr	r3, [fp, #-64]	; 0xffffffc0
    d82c:	e2831030 	add	r1, r3, #48	; 0x30
    d830:	e24b0054 	sub	r0, fp, #84	; 0x54
    d834:	e3a03000 	mov	r3, #0
    d838:	e58d3000 	str	r3, [sp]
    d83c:	e24b3038 	sub	r3, fp, #56	; 0x38
    d840:	e893000c 	ldm	r3, {r2, r3}
    d844:	eb000c19 	bl	108b0 <encrypt>
    d848:	e24b3038 	sub	r3, fp, #56	; 0x38
    d84c:	e24b2054 	sub	r2, fp, #84	; 0x54
    d850:	e8920003 	ldm	r2, {r0, r1}
    d854:	e8830003 	stm	r3, {r0, r1}
    d858:	e51b3040 	ldr	r3, [fp, #-64]	; 0xffffffc0
    d85c:	e1a02003 	mov	r2, r3
    d860:	e24b3038 	sub	r3, fp, #56	; 0x38
    d864:	e8930003 	ldm	r3, {r0, r1}
    d868:	eb000032 	bl	d938 <bytesFromBlock>
    d86c:	e24b3038 	sub	r3, fp, #56	; 0x38
    d870:	e8930003 	ldm	r3, {r0, r1}
    d874:	eb000097 	bl	dad8 <printBlock>
    d878:	e51b2010 	ldr	r2, [fp, #-16]
    d87c:	e51b3040 	ldr	r3, [fp, #-64]	; 0xffffffc0
    d880:	e5832020 	str	r2, [r3, #32]
    d884:	e51b3040 	ldr	r3, [fp, #-64]	; 0xffffffc0
    d888:	e5933020 	ldr	r3, [r3, #32]
    d88c:	e1a02003 	mov	r2, r3
    d890:	e59b3004 	ldr	r3, [fp, #4]
    d894:	e0423003 	sub	r3, r2, r3
    d898:	e1a02003 	mov	r2, r3
    d89c:	e51b3040 	ldr	r3, [fp, #-64]	; 0xffffffc0
    d8a0:	e5832020 	str	r2, [r3, #32]
    d8a4:	e51b1040 	ldr	r1, [fp, #-64]	; 0xffffffc0
    d8a8:	e59b3004 	ldr	r3, [fp, #4]
    d8ac:	e51b204c 	ldr	r2, [fp, #-76]	; 0xffffffb4
    d8b0:	e51b0044 	ldr	r0, [fp, #-68]	; 0xffffffbc
    d8b4:	ebfffcbe 	bl	cbb4 <buf_xor_n_copy>
    d8b8:	e51b2044 	ldr	r2, [fp, #-68]	; 0xffffffbc
    d8bc:	e59b3004 	ldr	r3, [fp, #4]
    d8c0:	e0823003 	add	r3, r2, r3
    d8c4:	e50b3044 	str	r3, [fp, #-68]	; 0xffffffbc
    d8c8:	e51b204c 	ldr	r2, [fp, #-76]	; 0xffffffb4
    d8cc:	e59b3004 	ldr	r3, [fp, #4]
    d8d0:	e0823003 	add	r3, r2, r3
    d8d4:	e50b304c 	str	r3, [fp, #-76]	; 0xffffffb4
    d8d8:	e3a03000 	mov	r3, #0
    d8dc:	e58b3004 	str	r3, [fp, #4]
    d8e0:	e51b2040 	ldr	r2, [fp, #-64]	; 0xffffffc0
    d8e4:	e24b3054 	sub	r3, fp, #84	; 0x54
    d8e8:	e1a01002 	mov	r1, r2
    d8ec:	e1a00003 	mov	r0, r3
    d8f0:	eb000c01 	bl	108fc <blockFromBytes>
    d8f4:	e24b3038 	sub	r3, fp, #56	; 0x38
    d8f8:	e24b2054 	sub	r2, fp, #84	; 0x54
    d8fc:	e8920003 	ldm	r2, {r0, r1}
    d900:	e8830003 	stm	r3, {r0, r1}
    d904:	e24b3038 	sub	r3, fp, #56	; 0x38
    d908:	e8930003 	ldm	r3, {r0, r1}
    d90c:	eb000071 	bl	dad8 <printBlock>
    d910:	e3a03000 	mov	r3, #0
    d914:	e1a00003 	mov	r0, r3
    d918:	e24bd004 	sub	sp, fp, #4
    d91c:	e8bd8800 	pop	{fp, pc}
    d920:	0000ce0c 	.word	0x0000ce0c
    d924:	0000ce40 	.word	0x0000ce40
    d928:	0000cd98 	.word	0x0000cd98
    d92c:	0000cd78 	.word	0x0000cd78
    d930:	0000cb34 	.word	0x0000cb34
    d934:	0000ca58 	.word	0x0000ca58

0000d938 <bytesFromBlock>:
    d938:	e52db004 	push	{fp}		; (str fp, [sp, #-4]!)
    d93c:	e28db000 	add	fp, sp, #0
    d940:	e24dd014 	sub	sp, sp, #20
    d944:	e24b300c 	sub	r3, fp, #12
    d948:	e8830003 	stm	r3, {r0, r1}
    d94c:	e50b2010 	str	r2, [fp, #-16]
    d950:	e51b2008 	ldr	r2, [fp, #-8]
    d954:	e51b3010 	ldr	r3, [fp, #-16]
    d958:	e2833007 	add	r3, r3, #7
    d95c:	e6ef2072 	uxtb	r2, r2
    d960:	e5c32000 	strb	r2, [r3]
    d964:	e51b3008 	ldr	r3, [fp, #-8]
    d968:	e1a02423 	lsr	r2, r3, #8
    d96c:	e51b3010 	ldr	r3, [fp, #-16]
    d970:	e2833006 	add	r3, r3, #6
    d974:	e6ef2072 	uxtb	r2, r2
    d978:	e5c32000 	strb	r2, [r3]
    d97c:	e51b3008 	ldr	r3, [fp, #-8]
    d980:	e1a02823 	lsr	r2, r3, #16
    d984:	e51b3010 	ldr	r3, [fp, #-16]
    d988:	e2833005 	add	r3, r3, #5
    d98c:	e6ef2072 	uxtb	r2, r2
    d990:	e5c32000 	strb	r2, [r3]
    d994:	e51b3008 	ldr	r3, [fp, #-8]
    d998:	e1a02c23 	lsr	r2, r3, #24
    d99c:	e51b3010 	ldr	r3, [fp, #-16]
    d9a0:	e2833004 	add	r3, r3, #4
    d9a4:	e6ef2072 	uxtb	r2, r2
    d9a8:	e5c32000 	strb	r2, [r3]
    d9ac:	e51b200c 	ldr	r2, [fp, #-12]
    d9b0:	e51b3010 	ldr	r3, [fp, #-16]
    d9b4:	e2833003 	add	r3, r3, #3
    d9b8:	e6ef2072 	uxtb	r2, r2
    d9bc:	e5c32000 	strb	r2, [r3]
    d9c0:	e51b300c 	ldr	r3, [fp, #-12]
    d9c4:	e1a02423 	lsr	r2, r3, #8
    d9c8:	e51b3010 	ldr	r3, [fp, #-16]
    d9cc:	e2833002 	add	r3, r3, #2
    d9d0:	e6ef2072 	uxtb	r2, r2
    d9d4:	e5c32000 	strb	r2, [r3]
    d9d8:	e51b300c 	ldr	r3, [fp, #-12]
    d9dc:	e1a02823 	lsr	r2, r3, #16
    d9e0:	e51b3010 	ldr	r3, [fp, #-16]
    d9e4:	e2833001 	add	r3, r3, #1
    d9e8:	e6ef2072 	uxtb	r2, r2
    d9ec:	e5c32000 	strb	r2, [r3]
    d9f0:	e51b300c 	ldr	r3, [fp, #-12]
    d9f4:	e1a03c23 	lsr	r3, r3, #24
    d9f8:	e6ef2073 	uxtb	r2, r3
    d9fc:	e51b3010 	ldr	r3, [fp, #-16]
    da00:	e5c32000 	strb	r2, [r3]
    da04:	e320f000 	nop	{0}
    da08:	e28bd000 	add	sp, fp, #0
    da0c:	e49db004 	pop	{fp}		; (ldr fp, [sp], #4)
    da10:	e12fff1e 	bx	lr

0000da14 <g>:
    da14:	e52db004 	push	{fp}		; (str fp, [sp, #-4]!)
    da18:	e28db000 	add	fp, sp, #0
    da1c:	e24dd00c 	sub	sp, sp, #12
    da20:	e50b0008 	str	r0, [fp, #-8]
    da24:	e1a03001 	mov	r3, r1
    da28:	e54b3009 	strb	r3, [fp, #-9]
    da2c:	e55b3009 	ldrb	r3, [fp, #-9]
    da30:	e59f2024 	ldr	r2, [pc, #36]	; da5c <g+0x48>
    da34:	e08f2002 	add	r2, pc, r2
    da38:	e7d23003 	ldrb	r3, [r2, r3]
    da3c:	e1a02003 	mov	r2, r3
    da40:	e51b3008 	ldr	r3, [fp, #-8]
    da44:	e0833002 	add	r3, r3, r2
    da48:	e5d33000 	ldrb	r3, [r3]
    da4c:	e1a00003 	mov	r0, r3
    da50:	e28bd000 	add	sp, fp, #0
    da54:	e49db004 	pop	{fp}		; (ldr fp, [sp], #4)
    da58:	e12fff1e 	bx	lr
    da5c:	0000fe54 	.word	0x0000fe54

0000da60 <splitI>:
    da60:	e52db004 	push	{fp}		; (str fp, [sp, #-4]!)
    da64:	e28db000 	add	fp, sp, #0
    da68:	e24dd014 	sub	sp, sp, #20
    da6c:	e50b0008 	str	r0, [fp, #-8]
    da70:	e50b100c 	str	r1, [fp, #-12]
    da74:	e50b2010 	str	r2, [fp, #-16]
    da78:	e50b3014 	str	r3, [fp, #-20]	; 0xffffffec
    da7c:	e51b3008 	ldr	r3, [fp, #-8]
    da80:	e1a03c23 	lsr	r3, r3, #24
    da84:	e6ef2073 	uxtb	r2, r3
    da88:	e51b300c 	ldr	r3, [fp, #-12]
    da8c:	e5c32000 	strb	r2, [r3]
    da90:	e51b3008 	ldr	r3, [fp, #-8]
    da94:	e1a03823 	lsr	r3, r3, #16
    da98:	e6ef2073 	uxtb	r2, r3
    da9c:	e51b3010 	ldr	r3, [fp, #-16]
    daa0:	e5c32000 	strb	r2, [r3]
    daa4:	e51b3008 	ldr	r3, [fp, #-8]
    daa8:	e1a03423 	lsr	r3, r3, #8
    daac:	e6ef2073 	uxtb	r2, r3
    dab0:	e51b3014 	ldr	r3, [fp, #-20]	; 0xffffffec
    dab4:	e5c32000 	strb	r2, [r3]
    dab8:	e51b3008 	ldr	r3, [fp, #-8]
    dabc:	e6ef2073 	uxtb	r2, r3
    dac0:	e59b3004 	ldr	r3, [fp, #4]
    dac4:	e5c32000 	strb	r2, [r3]
    dac8:	e320f000 	nop	{0}
    dacc:	e28bd000 	add	sp, fp, #0
    dad0:	e49db004 	pop	{fp}		; (ldr fp, [sp], #4)
    dad4:	e12fff1e 	bx	lr

0000dad8 <printBlock>:
    dad8:	e92d4800 	push	{fp, lr}
    dadc:	e28db004 	add	fp, sp, #4
    dae0:	e24dd008 	sub	sp, sp, #8
    dae4:	e24b300c 	sub	r3, fp, #12
    dae8:	e8830003 	stm	r3, {r0, r1}
    daec:	e51b300c 	ldr	r3, [fp, #-12]
    daf0:	e51b2008 	ldr	r2, [fp, #-8]
    daf4:	e1a01003 	mov	r1, r3
    daf8:	e59f3014 	ldr	r3, [pc, #20]	; db14 <printBlock+0x3c>
    dafc:	e08f3003 	add	r3, pc, r3
    db00:	e1a00003 	mov	r0, r3
    db04:	eb001c1a 	bl	14b74 <tfp_printf>
    db08:	e320f000 	nop	{0}
    db0c:	e24bd004 	sub	sp, fp, #4
    db10:	e8bd8800 	pop	{fp, pc}
    db14:	0000c7e0 	.word	0x0000c7e0

0000db18 <sumMod2_32b>:
    db18:	e52db004 	push	{fp}		; (str fp, [sp, #-4]!)
    db1c:	e28db000 	add	fp, sp, #0
    db20:	e24dd00c 	sub	sp, sp, #12
    db24:	e50b0008 	str	r0, [fp, #-8]
    db28:	e50b100c 	str	r1, [fp, #-12]
    db2c:	e51b2008 	ldr	r2, [fp, #-8]
    db30:	e51b300c 	ldr	r3, [fp, #-12]
    db34:	e0823003 	add	r3, r2, r3
    db38:	e1a00003 	mov	r0, r3
    db3c:	e28bd000 	add	sp, fp, #0
    db40:	e49db004 	pop	{fp}		; (ldr fp, [sp], #4)
    db44:	e12fff1e 	bx	lr

0000db48 <subtractMod2_32b>:
    db48:	e52db004 	push	{fp}		; (str fp, [sp, #-4]!)
    db4c:	e28db000 	add	fp, sp, #0
    db50:	e24dd00c 	sub	sp, sp, #12
    db54:	e50b0008 	str	r0, [fp, #-8]
    db58:	e50b100c 	str	r1, [fp, #-12]
    db5c:	e51b200c 	ldr	r2, [fp, #-12]
    db60:	e51b3008 	ldr	r3, [fp, #-8]
    db64:	e1520003 	cmp	r2, r3
    db68:	8a000003 	bhi	db7c <subtractMod2_32b+0x34>
    db6c:	e51b2008 	ldr	r2, [fp, #-8]
    db70:	e51b300c 	ldr	r3, [fp, #-12]
    db74:	e0423003 	sub	r3, r2, r3
    db78:	ea000005 	b	db94 <subtractMod2_32b+0x4c>
    db7c:	e3e02000 	mvn	r2, #0
    db80:	e51b3008 	ldr	r3, [fp, #-8]
    db84:	e0822003 	add	r2, r2, r3
    db88:	e51b300c 	ldr	r3, [fp, #-12]
    db8c:	e0423003 	sub	r3, r2, r3
    db90:	e2833001 	add	r3, r3, #1
    db94:	e1a00003 	mov	r0, r3
    db98:	e28bd000 	add	sp, fp, #0
    db9c:	e49db004 	pop	{fp}		; (ldr fp, [sp], #4)
    dba0:	e12fff1e 	bx	lr

0000dba4 <cyclicShift>:
    dba4:	e52db004 	push	{fp}		; (str fp, [sp, #-4]!)
    dba8:	e28db000 	add	fp, sp, #0
    dbac:	e24dd014 	sub	sp, sp, #20
    dbb0:	e50b0010 	str	r0, [fp, #-16]
    dbb4:	e1a03001 	mov	r3, r1
    dbb8:	e54b3011 	strb	r3, [fp, #-17]	; 0xffffffef
    dbbc:	e55b3011 	ldrb	r3, [fp, #-17]	; 0xffffffef
    dbc0:	e203301f 	and	r3, r3, #31
    dbc4:	e54b3005 	strb	r3, [fp, #-5]
    dbc8:	e55b3005 	ldrb	r3, [fp, #-5]
    dbcc:	e51b2010 	ldr	r2, [fp, #-16]
    dbd0:	e2633020 	rsb	r3, r3, #32
    dbd4:	e1a03372 	ror	r3, r2, r3
    dbd8:	e1a00003 	mov	r0, r3
    dbdc:	e28bd000 	add	sp, fp, #0
    dbe0:	e49db004 	pop	{fp}		; (ldr fp, [sp], #4)
    dbe4:	e12fff1e 	bx	lr

0000dbe8 <run>:
    dbe8:	e92d48f0 	push	{r4, r5, r6, r7, fp, lr}
    dbec:	e28db014 	add	fp, sp, #20
    dbf0:	e24dde1a 	sub	sp, sp, #416	; 0x1a0
    dbf4:	e50b0190 	str	r0, [fp, #-400]	; 0xfffffe70
    dbf8:	e50b1194 	str	r1, [fp, #-404]	; 0xfffffe6c
    dbfc:	e24b1f67 	sub	r1, fp, #412	; 0x19c
    dc00:	e881000c 	stm	r1, {r2, r3}
    dc04:	e59f4dd0 	ldr	r4, [pc, #3536]	; e9dc <run+0xdf4>
    dc08:	e08f4004 	add	r4, pc, r4
    dc0c:	e24b3070 	sub	r3, fp, #112	; 0x70
    dc10:	e3a02000 	mov	r2, #0
    dc14:	e5832000 	str	r2, [r3]
    dc18:	e5832004 	str	r2, [r3, #4]
    dc1c:	e5832008 	str	r2, [r3, #8]
    dc20:	e583200c 	str	r2, [r3, #12]
    dc24:	e24b3070 	sub	r3, fp, #112	; 0x70
    dc28:	e3a02010 	mov	r2, #16
    dc2c:	e51b1194 	ldr	r1, [fp, #-404]	; 0xfffffe6c
    dc30:	e1a00003 	mov	r0, r3
    dc34:	eb000d1f 	bl	110b8 <memcpy>
    dc38:	e24b3080 	sub	r3, fp, #128	; 0x80
    dc3c:	e3a02000 	mov	r2, #0
    dc40:	e5832000 	str	r2, [r3]
    dc44:	e5832004 	str	r2, [r3, #4]
    dc48:	e5832008 	str	r2, [r3, #8]
    dc4c:	e583200c 	str	r2, [r3, #12]
    dc50:	e59b3008 	ldr	r3, [fp, #8]
    dc54:	e3530000 	cmp	r3, #0
    dc58:	0a000026 	beq	dcf8 <run+0x110>
    dc5c:	e59f3d7c 	ldr	r3, [pc, #3452]	; e9e0 <run+0xdf8>
    dc60:	e08f3003 	add	r3, pc, r3
    dc64:	e1a00003 	mov	r0, r3
    dc68:	eb001bc1 	bl	14b74 <tfp_printf>
    dc6c:	e59f3d70 	ldr	r3, [pc, #3440]	; e9e4 <run+0xdfc>
    dc70:	e08f3003 	add	r3, pc, r3
    dc74:	e1a00003 	mov	r0, r3
    dc78:	eb001bbd 	bl	14b74 <tfp_printf>
    dc7c:	e3a03000 	mov	r3, #0
    dc80:	e50b3018 	str	r3, [fp, #-24]	; 0xffffffe8
    dc84:	ea00000c 	b	dcbc <run+0xd4>
    dc88:	e51b3018 	ldr	r3, [fp, #-24]	; 0xffffffe8
    dc8c:	e1a03103 	lsl	r3, r3, #2
    dc90:	e51b2194 	ldr	r2, [fp, #-404]	; 0xfffffe6c
    dc94:	e0823003 	add	r3, r2, r3
    dc98:	e5933000 	ldr	r3, [r3]
    dc9c:	e1a01003 	mov	r1, r3
    dca0:	e59f3d40 	ldr	r3, [pc, #3392]	; e9e8 <run+0xe00>
    dca4:	e08f3003 	add	r3, pc, r3
    dca8:	e1a00003 	mov	r0, r3
    dcac:	eb001bb0 	bl	14b74 <tfp_printf>
    dcb0:	e51b3018 	ldr	r3, [fp, #-24]	; 0xffffffe8
    dcb4:	e2833001 	add	r3, r3, #1
    dcb8:	e50b3018 	str	r3, [fp, #-24]	; 0xffffffe8
    dcbc:	e51b3018 	ldr	r3, [fp, #-24]	; 0xffffffe8
    dcc0:	e3530003 	cmp	r3, #3
    dcc4:	daffffef 	ble	dc88 <run+0xa0>
    dcc8:	e51b319c 	ldr	r3, [fp, #-412]	; 0xfffffe64
    dccc:	e51b2198 	ldr	r2, [fp, #-408]	; 0xfffffe68
    dcd0:	e1a01003 	mov	r1, r3
    dcd4:	e59f3d10 	ldr	r3, [pc, #3344]	; e9ec <run+0xe04>
    dcd8:	e08f3003 	add	r3, pc, r3
    dcdc:	e1a00003 	mov	r0, r3
    dce0:	eb001ba3 	bl	14b74 <tfp_printf>
    dce4:	e59b1004 	ldr	r1, [fp, #4]
    dce8:	e59f3d00 	ldr	r3, [pc, #3328]	; e9f0 <run+0xe08>
    dcec:	e08f3003 	add	r3, pc, r3
    dcf0:	e1a00003 	mov	r0, r3
    dcf4:	eb001b9e 	bl	14b74 <tfp_printf>
    dcf8:	e24b3c01 	sub	r3, fp, #256	; 0x100
    dcfc:	e3a02080 	mov	r2, #128	; 0x80
    dd00:	e3a01000 	mov	r1, #0
    dd04:	e1a00003 	mov	r0, r3
    dd08:	eb000cd1 	bl	11054 <memset>
    dd0c:	e3a03000 	mov	r3, #0
    dd10:	e50b301c 	str	r3, [fp, #-28]	; 0xffffffe4
    dd14:	ea000864 	b	feac <run+0x22c4>
    dd18:	e59b3008 	ldr	r3, [fp, #8]
    dd1c:	e3530000 	cmp	r3, #0
    dd20:	0a000004 	beq	dd38 <run+0x150>
    dd24:	e51b101c 	ldr	r1, [fp, #-28]	; 0xffffffe4
    dd28:	e59f3cc4 	ldr	r3, [pc, #3268]	; e9f4 <run+0xe0c>
    dd2c:	e08f3003 	add	r3, pc, r3
    dd30:	e1a00003 	mov	r0, r3
    dd34:	eb001b8e 	bl	14b74 <tfp_printf>
    dd38:	e59b3008 	ldr	r3, [fp, #8]
    dd3c:	e3530000 	cmp	r3, #0
    dd40:	0a000037 	beq	de24 <run+0x23c>
    dd44:	e59f3cac 	ldr	r3, [pc, #3244]	; e9f8 <run+0xe10>
    dd48:	e08f3003 	add	r3, pc, r3
    dd4c:	e1a00003 	mov	r0, r3
    dd50:	eb001b87 	bl	14b74 <tfp_printf>
    dd54:	e3a03000 	mov	r3, #0
    dd58:	e50b3020 	str	r3, [fp, #-32]	; 0xffffffe0
    dd5c:	ea00000c 	b	dd94 <run+0x1ac>
    dd60:	e51b3020 	ldr	r3, [fp, #-32]	; 0xffffffe0
    dd64:	e1a03103 	lsl	r3, r3, #2
    dd68:	e2433014 	sub	r3, r3, #20
    dd6c:	e083300b 	add	r3, r3, fp
    dd70:	e513305c 	ldr	r3, [r3, #-92]	; 0xffffffa4
    dd74:	e1a01003 	mov	r1, r3
    dd78:	e59f3c7c 	ldr	r3, [pc, #3196]	; e9fc <run+0xe14>
    dd7c:	e08f3003 	add	r3, pc, r3
    dd80:	e1a00003 	mov	r0, r3
    dd84:	eb001b7a 	bl	14b74 <tfp_printf>
    dd88:	e51b3020 	ldr	r3, [fp, #-32]	; 0xffffffe0
    dd8c:	e2833001 	add	r3, r3, #1
    dd90:	e50b3020 	str	r3, [fp, #-32]	; 0xffffffe0
    dd94:	e51b3020 	ldr	r3, [fp, #-32]	; 0xffffffe0
    dd98:	e3530003 	cmp	r3, #3
    dd9c:	daffffef 	ble	dd60 <run+0x178>
    dda0:	e59f3c58 	ldr	r3, [pc, #3160]	; ea00 <run+0xe18>
    dda4:	e08f3003 	add	r3, pc, r3
    dda8:	e1a00003 	mov	r0, r3
    ddac:	eb001b70 	bl	14b74 <tfp_printf>
    ddb0:	e59f3c4c 	ldr	r3, [pc, #3148]	; ea04 <run+0xe1c>
    ddb4:	e08f3003 	add	r3, pc, r3
    ddb8:	e1a00003 	mov	r0, r3
    ddbc:	eb001b6c 	bl	14b74 <tfp_printf>
    ddc0:	e3a03008 	mov	r3, #8
    ddc4:	e50b3024 	str	r3, [fp, #-36]	; 0xffffffdc
    ddc8:	ea00000e 	b	de08 <run+0x220>
    ddcc:	e51b3024 	ldr	r3, [fp, #-36]	; 0xffffffdc
    ddd0:	e6ef2073 	uxtb	r2, r3
    ddd4:	e24b3070 	sub	r3, fp, #112	; 0x70
    ddd8:	e1a01002 	mov	r1, r2
    dddc:	e1a00003 	mov	r0, r3
    dde0:	ebffff0b 	bl	da14 <g>
    dde4:	e1a03000 	mov	r3, r0
    dde8:	e1a01003 	mov	r1, r3
    ddec:	e59f3c14 	ldr	r3, [pc, #3092]	; ea08 <run+0xe20>
    ddf0:	e08f3003 	add	r3, pc, r3
    ddf4:	e1a00003 	mov	r0, r3
    ddf8:	eb001b5d 	bl	14b74 <tfp_printf>
    ddfc:	e51b3024 	ldr	r3, [fp, #-36]	; 0xffffffdc
    de00:	e2833001 	add	r3, r3, #1
    de04:	e50b3024 	str	r3, [fp, #-36]	; 0xffffffdc
    de08:	e51b3024 	ldr	r3, [fp, #-36]	; 0xffffffdc
    de0c:	e353000f 	cmp	r3, #15
    de10:	daffffed 	ble	ddcc <run+0x1e4>
    de14:	e59f3bf0 	ldr	r3, [pc, #3056]	; ea0c <run+0xe24>
    de18:	e08f3003 	add	r3, pc, r3
    de1c:	e1a00003 	mov	r0, r3
    de20:	eb001b53 	bl	14b74 <tfp_printf>
    de24:	e51b5070 	ldr	r5, [fp, #-112]	; 0xffffff90
    de28:	e24b3070 	sub	r3, fp, #112	; 0x70
    de2c:	e3a0100d 	mov	r1, #13
    de30:	e1a00003 	mov	r0, r3
    de34:	ebfffef6 	bl	da14 <g>
    de38:	e1a03000 	mov	r3, r0
    de3c:	e1a02003 	mov	r2, r3
    de40:	e59f3c1c 	ldr	r3, [pc, #3100]	; ea64 <run+0xe7c>
    de44:	e7943003 	ldr	r3, [r4, r3]
    de48:	e7933102 	ldr	r3, [r3, r2, lsl #2]
    de4c:	e0255003 	eor	r5, r5, r3
    de50:	e24b3070 	sub	r3, fp, #112	; 0x70
    de54:	e3a0100f 	mov	r1, #15
    de58:	e1a00003 	mov	r0, r3
    de5c:	ebfffeec 	bl	da14 <g>
    de60:	e1a03000 	mov	r3, r0
    de64:	e1a02003 	mov	r2, r3
    de68:	e59f3c00 	ldr	r3, [pc, #3072]	; ea70 <run+0xe88>
    de6c:	e7943003 	ldr	r3, [r4, r3]
    de70:	e7933102 	ldr	r3, [r3, r2, lsl #2]
    de74:	e0255003 	eor	r5, r5, r3
    de78:	e24b3070 	sub	r3, fp, #112	; 0x70
    de7c:	e3a0100c 	mov	r1, #12
    de80:	e1a00003 	mov	r0, r3
    de84:	ebfffee2 	bl	da14 <g>
    de88:	e1a03000 	mov	r3, r0
    de8c:	e1a02003 	mov	r2, r3
    de90:	e59f3bd0 	ldr	r3, [pc, #3024]	; ea68 <run+0xe80>
    de94:	e7943003 	ldr	r3, [r4, r3]
    de98:	e7933102 	ldr	r3, [r3, r2, lsl #2]
    de9c:	e0255003 	eor	r5, r5, r3
    dea0:	e24b3070 	sub	r3, fp, #112	; 0x70
    dea4:	e3a0100e 	mov	r1, #14
    dea8:	e1a00003 	mov	r0, r3
    deac:	ebfffed8 	bl	da14 <g>
    deb0:	e1a03000 	mov	r3, r0
    deb4:	e1a02003 	mov	r2, r3
    deb8:	e59f3bac 	ldr	r3, [pc, #2988]	; ea6c <run+0xe84>
    debc:	e7943003 	ldr	r3, [r4, r3]
    dec0:	e7933102 	ldr	r3, [r3, r2, lsl #2]
    dec4:	e0255003 	eor	r5, r5, r3
    dec8:	e24b3070 	sub	r3, fp, #112	; 0x70
    decc:	e3a01008 	mov	r1, #8
    ded0:	e1a00003 	mov	r0, r3
    ded4:	ebfffece 	bl	da14 <g>
    ded8:	e1a03000 	mov	r3, r0
    dedc:	e1a02003 	mov	r2, r3
    dee0:	e59f3b80 	ldr	r3, [pc, #2944]	; ea68 <run+0xe80>
    dee4:	e7943003 	ldr	r3, [r4, r3]
    dee8:	e7933102 	ldr	r3, [r3, r2, lsl #2]
    deec:	e0233005 	eor	r3, r3, r5
    def0:	e50b3080 	str	r3, [fp, #-128]	; 0xffffff80
    def4:	e51b5068 	ldr	r5, [fp, #-104]	; 0xffffff98
    def8:	e24b3080 	sub	r3, fp, #128	; 0x80
    defc:	e3a01000 	mov	r1, #0
    df00:	e1a00003 	mov	r0, r3
    df04:	ebfffec2 	bl	da14 <g>
    df08:	e1a03000 	mov	r3, r0
    df0c:	e1a02003 	mov	r2, r3
    df10:	e59f3b4c 	ldr	r3, [pc, #2892]	; ea64 <run+0xe7c>
    df14:	e7943003 	ldr	r3, [r4, r3]
    df18:	e7933102 	ldr	r3, [r3, r2, lsl #2]
    df1c:	e0255003 	eor	r5, r5, r3
    df20:	e24b3080 	sub	r3, fp, #128	; 0x80
    df24:	e3a01002 	mov	r1, #2
    df28:	e1a00003 	mov	r0, r3
    df2c:	ebfffeb8 	bl	da14 <g>
    df30:	e1a03000 	mov	r3, r0
    df34:	e1a02003 	mov	r2, r3
    df38:	e59f3b30 	ldr	r3, [pc, #2864]	; ea70 <run+0xe88>
    df3c:	e7943003 	ldr	r3, [r4, r3]
    df40:	e7933102 	ldr	r3, [r3, r2, lsl #2]
    df44:	e0255003 	eor	r5, r5, r3
    df48:	e24b3080 	sub	r3, fp, #128	; 0x80
    df4c:	e3a01001 	mov	r1, #1
    df50:	e1a00003 	mov	r0, r3
    df54:	ebfffeae 	bl	da14 <g>
    df58:	e1a03000 	mov	r3, r0
    df5c:	e1a02003 	mov	r2, r3
    df60:	e59f3b00 	ldr	r3, [pc, #2816]	; ea68 <run+0xe80>
    df64:	e7943003 	ldr	r3, [r4, r3]
    df68:	e7933102 	ldr	r3, [r3, r2, lsl #2]
    df6c:	e0255003 	eor	r5, r5, r3
    df70:	e24b3080 	sub	r3, fp, #128	; 0x80
    df74:	e3a01003 	mov	r1, #3
    df78:	e1a00003 	mov	r0, r3
    df7c:	ebfffea4 	bl	da14 <g>
    df80:	e1a03000 	mov	r3, r0
    df84:	e1a02003 	mov	r2, r3
    df88:	e59f3adc 	ldr	r3, [pc, #2780]	; ea6c <run+0xe84>
    df8c:	e7943003 	ldr	r3, [r4, r3]
    df90:	e7933102 	ldr	r3, [r3, r2, lsl #2]
    df94:	e0255003 	eor	r5, r5, r3
    df98:	e24b3070 	sub	r3, fp, #112	; 0x70
    df9c:	e3a0100a 	mov	r1, #10
    dfa0:	e1a00003 	mov	r0, r3
    dfa4:	ebfffe9a 	bl	da14 <g>
    dfa8:	e1a03000 	mov	r3, r0
    dfac:	e1a02003 	mov	r2, r3
    dfb0:	e59f3ab4 	ldr	r3, [pc, #2740]	; ea6c <run+0xe84>
    dfb4:	e7943003 	ldr	r3, [r4, r3]
    dfb8:	e7933102 	ldr	r3, [r3, r2, lsl #2]
    dfbc:	e0233005 	eor	r3, r3, r5
    dfc0:	e50b307c 	str	r3, [fp, #-124]	; 0xffffff84
    dfc4:	e51b5064 	ldr	r5, [fp, #-100]	; 0xffffff9c
    dfc8:	e24b3080 	sub	r3, fp, #128	; 0x80
    dfcc:	e3a01007 	mov	r1, #7
    dfd0:	e1a00003 	mov	r0, r3
    dfd4:	ebfffe8e 	bl	da14 <g>
    dfd8:	e1a03000 	mov	r3, r0
    dfdc:	e1a02003 	mov	r2, r3
    dfe0:	e59f3a7c 	ldr	r3, [pc, #2684]	; ea64 <run+0xe7c>
    dfe4:	e7943003 	ldr	r3, [r4, r3]
    dfe8:	e7933102 	ldr	r3, [r3, r2, lsl #2]
    dfec:	e0255003 	eor	r5, r5, r3
    dff0:	e24b3080 	sub	r3, fp, #128	; 0x80
    dff4:	e3a01006 	mov	r1, #6
    dff8:	e1a00003 	mov	r0, r3
    dffc:	ebfffe84 	bl	da14 <g>
    e000:	e1a03000 	mov	r3, r0
    e004:	e1a02003 	mov	r2, r3
    e008:	e59f3a60 	ldr	r3, [pc, #2656]	; ea70 <run+0xe88>
    e00c:	e7943003 	ldr	r3, [r4, r3]
    e010:	e7933102 	ldr	r3, [r3, r2, lsl #2]
    e014:	e0255003 	eor	r5, r5, r3
    e018:	e24b3080 	sub	r3, fp, #128	; 0x80
    e01c:	e3a01005 	mov	r1, #5
    e020:	e1a00003 	mov	r0, r3
    e024:	ebfffe7a 	bl	da14 <g>
    e028:	e1a03000 	mov	r3, r0
    e02c:	e1a02003 	mov	r2, r3
    e030:	e59f3a30 	ldr	r3, [pc, #2608]	; ea68 <run+0xe80>
    e034:	e7943003 	ldr	r3, [r4, r3]
    e038:	e7933102 	ldr	r3, [r3, r2, lsl #2]
    e03c:	e0255003 	eor	r5, r5, r3
    e040:	e24b3080 	sub	r3, fp, #128	; 0x80
    e044:	e3a01004 	mov	r1, #4
    e048:	e1a00003 	mov	r0, r3
    e04c:	ebfffe70 	bl	da14 <g>
    e050:	e1a03000 	mov	r3, r0
    e054:	e1a02003 	mov	r2, r3
    e058:	e59f3a0c 	ldr	r3, [pc, #2572]	; ea6c <run+0xe84>
    e05c:	e7943003 	ldr	r3, [r4, r3]
    e060:	e7933102 	ldr	r3, [r3, r2, lsl #2]
    e064:	e0255003 	eor	r5, r5, r3
    e068:	e24b3070 	sub	r3, fp, #112	; 0x70
    e06c:	e3a01009 	mov	r1, #9
    e070:	e1a00003 	mov	r0, r3
    e074:	ebfffe66 	bl	da14 <g>
    e078:	e1a03000 	mov	r3, r0
    e07c:	e1a02003 	mov	r2, r3
    e080:	e59f39dc 	ldr	r3, [pc, #2524]	; ea64 <run+0xe7c>
    e084:	e7943003 	ldr	r3, [r4, r3]
    e088:	e7933102 	ldr	r3, [r3, r2, lsl #2]
    e08c:	e0233005 	eor	r3, r3, r5
    e090:	e50b3078 	str	r3, [fp, #-120]	; 0xffffff88
    e094:	e51b506c 	ldr	r5, [fp, #-108]	; 0xffffff94
    e098:	e24b3080 	sub	r3, fp, #128	; 0x80
    e09c:	e3a0100a 	mov	r1, #10
    e0a0:	e1a00003 	mov	r0, r3
    e0a4:	ebfffe5a 	bl	da14 <g>
    e0a8:	e1a03000 	mov	r3, r0
    e0ac:	e1a02003 	mov	r2, r3
    e0b0:	e59f39ac 	ldr	r3, [pc, #2476]	; ea64 <run+0xe7c>
    e0b4:	e7943003 	ldr	r3, [r4, r3]
    e0b8:	e7933102 	ldr	r3, [r3, r2, lsl #2]
    e0bc:	e0255003 	eor	r5, r5, r3
    e0c0:	e24b3080 	sub	r3, fp, #128	; 0x80
    e0c4:	e3a01009 	mov	r1, #9
    e0c8:	e1a00003 	mov	r0, r3
    e0cc:	ebfffe50 	bl	da14 <g>
    e0d0:	e1a03000 	mov	r3, r0
    e0d4:	e1a02003 	mov	r2, r3
    e0d8:	e59f3990 	ldr	r3, [pc, #2448]	; ea70 <run+0xe88>
    e0dc:	e7943003 	ldr	r3, [r4, r3]
    e0e0:	e7933102 	ldr	r3, [r3, r2, lsl #2]
    e0e4:	e0255003 	eor	r5, r5, r3
    e0e8:	e24b3080 	sub	r3, fp, #128	; 0x80
    e0ec:	e3a0100b 	mov	r1, #11
    e0f0:	e1a00003 	mov	r0, r3
    e0f4:	ebfffe46 	bl	da14 <g>
    e0f8:	e1a03000 	mov	r3, r0
    e0fc:	e1a02003 	mov	r2, r3
    e100:	e59f3960 	ldr	r3, [pc, #2400]	; ea68 <run+0xe80>
    e104:	e7943003 	ldr	r3, [r4, r3]
    e108:	e7933102 	ldr	r3, [r3, r2, lsl #2]
    e10c:	e0255003 	eor	r5, r5, r3
    e110:	e24b3080 	sub	r3, fp, #128	; 0x80
    e114:	e3a01008 	mov	r1, #8
    e118:	e1a00003 	mov	r0, r3
    e11c:	ebfffe3c 	bl	da14 <g>
    e120:	e1a03000 	mov	r3, r0
    e124:	e1a02003 	mov	r2, r3
    e128:	e59f393c 	ldr	r3, [pc, #2364]	; ea6c <run+0xe84>
    e12c:	e7943003 	ldr	r3, [r4, r3]
    e130:	e7933102 	ldr	r3, [r3, r2, lsl #2]
    e134:	e0255003 	eor	r5, r5, r3
    e138:	e24b3070 	sub	r3, fp, #112	; 0x70
    e13c:	e3a0100b 	mov	r1, #11
    e140:	e1a00003 	mov	r0, r3
    e144:	ebfffe32 	bl	da14 <g>
    e148:	e1a03000 	mov	r3, r0
    e14c:	e1a02003 	mov	r2, r3
    e150:	e59f3918 	ldr	r3, [pc, #2328]	; ea70 <run+0xe88>
    e154:	e7943003 	ldr	r3, [r4, r3]
    e158:	e7933102 	ldr	r3, [r3, r2, lsl #2]
    e15c:	e0233005 	eor	r3, r3, r5
    e160:	e50b3074 	str	r3, [fp, #-116]	; 0xffffff8c
    e164:	e59b3008 	ldr	r3, [fp, #8]
    e168:	e3530000 	cmp	r3, #0
    e16c:	0a00001a 	beq	e1dc <run+0x5f4>
    e170:	e59f3898 	ldr	r3, [pc, #2200]	; ea10 <run+0xe28>
    e174:	e08f3003 	add	r3, pc, r3
    e178:	e1a00003 	mov	r0, r3
    e17c:	eb001a7c 	bl	14b74 <tfp_printf>
    e180:	e3a03000 	mov	r3, #0
    e184:	e50b3028 	str	r3, [fp, #-40]	; 0xffffffd8
    e188:	ea00000c 	b	e1c0 <run+0x5d8>
    e18c:	e51b3028 	ldr	r3, [fp, #-40]	; 0xffffffd8
    e190:	e1a03103 	lsl	r3, r3, #2
    e194:	e2433014 	sub	r3, r3, #20
    e198:	e083300b 	add	r3, r3, fp
    e19c:	e513306c 	ldr	r3, [r3, #-108]	; 0xffffff94
    e1a0:	e1a01003 	mov	r1, r3
    e1a4:	e59f3868 	ldr	r3, [pc, #2152]	; ea14 <run+0xe2c>
    e1a8:	e08f3003 	add	r3, pc, r3
    e1ac:	e1a00003 	mov	r0, r3
    e1b0:	eb001a6f 	bl	14b74 <tfp_printf>
    e1b4:	e51b3028 	ldr	r3, [fp, #-40]	; 0xffffffd8
    e1b8:	e2833001 	add	r3, r3, #1
    e1bc:	e50b3028 	str	r3, [fp, #-40]	; 0xffffffd8
    e1c0:	e51b3028 	ldr	r3, [fp, #-40]	; 0xffffffd8
    e1c4:	e3530003 	cmp	r3, #3
    e1c8:	daffffef 	ble	e18c <run+0x5a4>
    e1cc:	e59f3844 	ldr	r3, [pc, #2116]	; ea18 <run+0xe30>
    e1d0:	e08f3003 	add	r3, pc, r3
    e1d4:	e1a00003 	mov	r0, r3
    e1d8:	eb001a65 	bl	14b74 <tfp_printf>
    e1dc:	e24b3080 	sub	r3, fp, #128	; 0x80
    e1e0:	e3a01008 	mov	r1, #8
    e1e4:	e1a00003 	mov	r0, r3
    e1e8:	ebfffe09 	bl	da14 <g>
    e1ec:	e1a03000 	mov	r3, r0
    e1f0:	e1a02003 	mov	r2, r3
    e1f4:	e59f3868 	ldr	r3, [pc, #2152]	; ea64 <run+0xe7c>
    e1f8:	e7943003 	ldr	r3, [r4, r3]
    e1fc:	e7935102 	ldr	r5, [r3, r2, lsl #2]
    e200:	e24b3080 	sub	r3, fp, #128	; 0x80
    e204:	e3a01009 	mov	r1, #9
    e208:	e1a00003 	mov	r0, r3
    e20c:	ebfffe00 	bl	da14 <g>
    e210:	e1a03000 	mov	r3, r0
    e214:	e1a02003 	mov	r2, r3
    e218:	e59f3850 	ldr	r3, [pc, #2128]	; ea70 <run+0xe88>
    e21c:	e7943003 	ldr	r3, [r4, r3]
    e220:	e7933102 	ldr	r3, [r3, r2, lsl #2]
    e224:	e0255003 	eor	r5, r5, r3
    e228:	e24b3080 	sub	r3, fp, #128	; 0x80
    e22c:	e3a01007 	mov	r1, #7
    e230:	e1a00003 	mov	r0, r3
    e234:	ebfffdf6 	bl	da14 <g>
    e238:	e1a03000 	mov	r3, r0
    e23c:	e1a02003 	mov	r2, r3
    e240:	e59f3820 	ldr	r3, [pc, #2080]	; ea68 <run+0xe80>
    e244:	e7943003 	ldr	r3, [r4, r3]
    e248:	e7933102 	ldr	r3, [r3, r2, lsl #2]
    e24c:	e0255003 	eor	r5, r5, r3
    e250:	e24b3080 	sub	r3, fp, #128	; 0x80
    e254:	e3a01006 	mov	r1, #6
    e258:	e1a00003 	mov	r0, r3
    e25c:	ebfffdec 	bl	da14 <g>
    e260:	e1a03000 	mov	r3, r0
    e264:	e1a02003 	mov	r2, r3
    e268:	e59f37fc 	ldr	r3, [pc, #2044]	; ea6c <run+0xe84>
    e26c:	e7943003 	ldr	r3, [r4, r3]
    e270:	e7933102 	ldr	r3, [r3, r2, lsl #2]
    e274:	e0255003 	eor	r5, r5, r3
    e278:	e24b3080 	sub	r3, fp, #128	; 0x80
    e27c:	e3a01002 	mov	r1, #2
    e280:	e1a00003 	mov	r0, r3
    e284:	ebfffde2 	bl	da14 <g>
    e288:	e1a03000 	mov	r3, r0
    e28c:	e1a02003 	mov	r2, r3
    e290:	e59f37cc 	ldr	r3, [pc, #1996]	; ea64 <run+0xe7c>
    e294:	e7943003 	ldr	r3, [r4, r3]
    e298:	e7932102 	ldr	r2, [r3, r2, lsl #2]
    e29c:	e51b301c 	ldr	r3, [fp, #-28]	; 0xffffffe4
    e2a0:	e1a03203 	lsl	r3, r3, #4
    e2a4:	e0222005 	eor	r2, r2, r5
    e2a8:	e1a03103 	lsl	r3, r3, #2
    e2ac:	e2433014 	sub	r3, r3, #20
    e2b0:	e083300b 	add	r3, r3, fp
    e2b4:	e50320ec 	str	r2, [r3, #-236]	; 0xffffff14
    e2b8:	e24b3080 	sub	r3, fp, #128	; 0x80
    e2bc:	e3a0100a 	mov	r1, #10
    e2c0:	e1a00003 	mov	r0, r3
    e2c4:	ebfffdd2 	bl	da14 <g>
    e2c8:	e1a03000 	mov	r3, r0
    e2cc:	e1a02003 	mov	r2, r3
    e2d0:	e59f378c 	ldr	r3, [pc, #1932]	; ea64 <run+0xe7c>
    e2d4:	e7943003 	ldr	r3, [r4, r3]
    e2d8:	e7935102 	ldr	r5, [r3, r2, lsl #2]
    e2dc:	e24b3080 	sub	r3, fp, #128	; 0x80
    e2e0:	e3a0100b 	mov	r1, #11
    e2e4:	e1a00003 	mov	r0, r3
    e2e8:	ebfffdc9 	bl	da14 <g>
    e2ec:	e1a03000 	mov	r3, r0
    e2f0:	e1a02003 	mov	r2, r3
    e2f4:	e59f3774 	ldr	r3, [pc, #1908]	; ea70 <run+0xe88>
    e2f8:	e7943003 	ldr	r3, [r4, r3]
    e2fc:	e7933102 	ldr	r3, [r3, r2, lsl #2]
    e300:	e0255003 	eor	r5, r5, r3
    e304:	e24b3080 	sub	r3, fp, #128	; 0x80
    e308:	e3a01005 	mov	r1, #5
    e30c:	e1a00003 	mov	r0, r3
    e310:	ebfffdbf 	bl	da14 <g>
    e314:	e1a03000 	mov	r3, r0
    e318:	e1a02003 	mov	r2, r3
    e31c:	e59f3744 	ldr	r3, [pc, #1860]	; ea68 <run+0xe80>
    e320:	e7943003 	ldr	r3, [r4, r3]
    e324:	e7933102 	ldr	r3, [r3, r2, lsl #2]
    e328:	e0255003 	eor	r5, r5, r3
    e32c:	e24b3080 	sub	r3, fp, #128	; 0x80
    e330:	e3a01004 	mov	r1, #4
    e334:	e1a00003 	mov	r0, r3
    e338:	ebfffdb5 	bl	da14 <g>
    e33c:	e1a03000 	mov	r3, r0
    e340:	e1a02003 	mov	r2, r3
    e344:	e59f3720 	ldr	r3, [pc, #1824]	; ea6c <run+0xe84>
    e348:	e7943003 	ldr	r3, [r4, r3]
    e34c:	e7933102 	ldr	r3, [r3, r2, lsl #2]
    e350:	e0255003 	eor	r5, r5, r3
    e354:	e24b3080 	sub	r3, fp, #128	; 0x80
    e358:	e3a01006 	mov	r1, #6
    e35c:	e1a00003 	mov	r0, r3
    e360:	ebfffdab 	bl	da14 <g>
    e364:	e1a03000 	mov	r3, r0
    e368:	e1a02003 	mov	r2, r3
    e36c:	e59f36fc 	ldr	r3, [pc, #1788]	; ea70 <run+0xe88>
    e370:	e7943003 	ldr	r3, [r4, r3]
    e374:	e7932102 	ldr	r2, [r3, r2, lsl #2]
    e378:	e51b301c 	ldr	r3, [fp, #-28]	; 0xffffffe4
    e37c:	e1a03203 	lsl	r3, r3, #4
    e380:	e2833001 	add	r3, r3, #1
    e384:	e0222005 	eor	r2, r2, r5
    e388:	e1a03103 	lsl	r3, r3, #2
    e38c:	e2433014 	sub	r3, r3, #20
    e390:	e083300b 	add	r3, r3, fp
    e394:	e50320ec 	str	r2, [r3, #-236]	; 0xffffff14
    e398:	e24b3080 	sub	r3, fp, #128	; 0x80
    e39c:	e3a0100c 	mov	r1, #12
    e3a0:	e1a00003 	mov	r0, r3
    e3a4:	ebfffd9a 	bl	da14 <g>
    e3a8:	e1a03000 	mov	r3, r0
    e3ac:	e1a02003 	mov	r2, r3
    e3b0:	e59f36ac 	ldr	r3, [pc, #1708]	; ea64 <run+0xe7c>
    e3b4:	e7943003 	ldr	r3, [r4, r3]
    e3b8:	e7935102 	ldr	r5, [r3, r2, lsl #2]
    e3bc:	e24b3080 	sub	r3, fp, #128	; 0x80
    e3c0:	e3a0100d 	mov	r1, #13
    e3c4:	e1a00003 	mov	r0, r3
    e3c8:	ebfffd91 	bl	da14 <g>
    e3cc:	e1a03000 	mov	r3, r0
    e3d0:	e1a02003 	mov	r2, r3
    e3d4:	e59f3694 	ldr	r3, [pc, #1684]	; ea70 <run+0xe88>
    e3d8:	e7943003 	ldr	r3, [r4, r3]
    e3dc:	e7933102 	ldr	r3, [r3, r2, lsl #2]
    e3e0:	e0255003 	eor	r5, r5, r3
    e3e4:	e24b3080 	sub	r3, fp, #128	; 0x80
    e3e8:	e3a01003 	mov	r1, #3
    e3ec:	e1a00003 	mov	r0, r3
    e3f0:	ebfffd87 	bl	da14 <g>
    e3f4:	e1a03000 	mov	r3, r0
    e3f8:	e1a02003 	mov	r2, r3
    e3fc:	e59f3664 	ldr	r3, [pc, #1636]	; ea68 <run+0xe80>
    e400:	e7943003 	ldr	r3, [r4, r3]
    e404:	e7933102 	ldr	r3, [r3, r2, lsl #2]
    e408:	e0255003 	eor	r5, r5, r3
    e40c:	e24b3080 	sub	r3, fp, #128	; 0x80
    e410:	e3a01002 	mov	r1, #2
    e414:	e1a00003 	mov	r0, r3
    e418:	ebfffd7d 	bl	da14 <g>
    e41c:	e1a03000 	mov	r3, r0
    e420:	e1a02003 	mov	r2, r3
    e424:	e59f3640 	ldr	r3, [pc, #1600]	; ea6c <run+0xe84>
    e428:	e7943003 	ldr	r3, [r4, r3]
    e42c:	e7933102 	ldr	r3, [r3, r2, lsl #2]
    e430:	e0255003 	eor	r5, r5, r3
    e434:	e24b3080 	sub	r3, fp, #128	; 0x80
    e438:	e3a01009 	mov	r1, #9
    e43c:	e1a00003 	mov	r0, r3
    e440:	ebfffd73 	bl	da14 <g>
    e444:	e1a03000 	mov	r3, r0
    e448:	e1a02003 	mov	r2, r3
    e44c:	e59f3614 	ldr	r3, [pc, #1556]	; ea68 <run+0xe80>
    e450:	e7943003 	ldr	r3, [r4, r3]
    e454:	e7932102 	ldr	r2, [r3, r2, lsl #2]
    e458:	e51b301c 	ldr	r3, [fp, #-28]	; 0xffffffe4
    e45c:	e1a03203 	lsl	r3, r3, #4
    e460:	e2833002 	add	r3, r3, #2
    e464:	e0222005 	eor	r2, r2, r5
    e468:	e1a03103 	lsl	r3, r3, #2
    e46c:	e2433014 	sub	r3, r3, #20
    e470:	e083300b 	add	r3, r3, fp
    e474:	e50320ec 	str	r2, [r3, #-236]	; 0xffffff14
    e478:	e24b3080 	sub	r3, fp, #128	; 0x80
    e47c:	e3a0100e 	mov	r1, #14
    e480:	e1a00003 	mov	r0, r3
    e484:	ebfffd62 	bl	da14 <g>
    e488:	e1a03000 	mov	r3, r0
    e48c:	e1a02003 	mov	r2, r3
    e490:	e59f35cc 	ldr	r3, [pc, #1484]	; ea64 <run+0xe7c>
    e494:	e7943003 	ldr	r3, [r4, r3]
    e498:	e7935102 	ldr	r5, [r3, r2, lsl #2]
    e49c:	e24b3080 	sub	r3, fp, #128	; 0x80
    e4a0:	e3a0100f 	mov	r1, #15
    e4a4:	e1a00003 	mov	r0, r3
    e4a8:	ebfffd59 	bl	da14 <g>
    e4ac:	e1a03000 	mov	r3, r0
    e4b0:	e1a02003 	mov	r2, r3
    e4b4:	e59f35b4 	ldr	r3, [pc, #1460]	; ea70 <run+0xe88>
    e4b8:	e7943003 	ldr	r3, [r4, r3]
    e4bc:	e7933102 	ldr	r3, [r3, r2, lsl #2]
    e4c0:	e0255003 	eor	r5, r5, r3
    e4c4:	e24b3080 	sub	r3, fp, #128	; 0x80
    e4c8:	e3a01001 	mov	r1, #1
    e4cc:	e1a00003 	mov	r0, r3
    e4d0:	ebfffd4f 	bl	da14 <g>
    e4d4:	e1a03000 	mov	r3, r0
    e4d8:	e1a02003 	mov	r2, r3
    e4dc:	e59f3584 	ldr	r3, [pc, #1412]	; ea68 <run+0xe80>
    e4e0:	e7943003 	ldr	r3, [r4, r3]
    e4e4:	e7933102 	ldr	r3, [r3, r2, lsl #2]
    e4e8:	e0255003 	eor	r5, r5, r3
    e4ec:	e24b3080 	sub	r3, fp, #128	; 0x80
    e4f0:	e3a01000 	mov	r1, #0
    e4f4:	e1a00003 	mov	r0, r3
    e4f8:	ebfffd45 	bl	da14 <g>
    e4fc:	e1a03000 	mov	r3, r0
    e500:	e1a02003 	mov	r2, r3
    e504:	e59f3560 	ldr	r3, [pc, #1376]	; ea6c <run+0xe84>
    e508:	e7943003 	ldr	r3, [r4, r3]
    e50c:	e7933102 	ldr	r3, [r3, r2, lsl #2]
    e510:	e0255003 	eor	r5, r5, r3
    e514:	e24b3080 	sub	r3, fp, #128	; 0x80
    e518:	e3a0100c 	mov	r1, #12
    e51c:	e1a00003 	mov	r0, r3
    e520:	ebfffd3b 	bl	da14 <g>
    e524:	e1a03000 	mov	r3, r0
    e528:	e1a02003 	mov	r2, r3
    e52c:	e59f3538 	ldr	r3, [pc, #1336]	; ea6c <run+0xe84>
    e530:	e7943003 	ldr	r3, [r4, r3]
    e534:	e7932102 	ldr	r2, [r3, r2, lsl #2]
    e538:	e51b301c 	ldr	r3, [fp, #-28]	; 0xffffffe4
    e53c:	e1a03203 	lsl	r3, r3, #4
    e540:	e2833003 	add	r3, r3, #3
    e544:	e0222005 	eor	r2, r2, r5
    e548:	e1a03103 	lsl	r3, r3, #2
    e54c:	e2433014 	sub	r3, r3, #20
    e550:	e083300b 	add	r3, r3, fp
    e554:	e50320ec 	str	r2, [r3, #-236]	; 0xffffff14
    e558:	e59b3008 	ldr	r3, [fp, #8]
    e55c:	e3530000 	cmp	r3, #0
    e560:	0a000023 	beq	e5f4 <run+0xa0c>
    e564:	e51b301c 	ldr	r3, [fp, #-28]	; 0xffffffe4
    e568:	e1a01203 	lsl	r1, r3, #4
    e56c:	e51b301c 	ldr	r3, [fp, #-28]	; 0xffffffe4
    e570:	e1a03203 	lsl	r3, r3, #4
    e574:	e2833003 	add	r3, r3, #3
    e578:	e1a02003 	mov	r2, r3
    e57c:	e59f3498 	ldr	r3, [pc, #1176]	; ea1c <run+0xe34>
    e580:	e08f3003 	add	r3, pc, r3
    e584:	e1a00003 	mov	r0, r3
    e588:	eb001979 	bl	14b74 <tfp_printf>
    e58c:	e3a03000 	mov	r3, #0
    e590:	e50b302c 	str	r3, [fp, #-44]	; 0xffffffd4
    e594:	ea00000f 	b	e5d8 <run+0x9f0>
    e598:	e51b301c 	ldr	r3, [fp, #-28]	; 0xffffffe4
    e59c:	e1a02203 	lsl	r2, r3, #4
    e5a0:	e51b302c 	ldr	r3, [fp, #-44]	; 0xffffffd4
    e5a4:	e0823003 	add	r3, r2, r3
    e5a8:	e1a03103 	lsl	r3, r3, #2
    e5ac:	e2433014 	sub	r3, r3, #20
    e5b0:	e083300b 	add	r3, r3, fp
    e5b4:	e51330ec 	ldr	r3, [r3, #-236]	; 0xffffff14
    e5b8:	e1a01003 	mov	r1, r3
    e5bc:	e59f345c 	ldr	r3, [pc, #1116]	; ea20 <run+0xe38>
    e5c0:	e08f3003 	add	r3, pc, r3
    e5c4:	e1a00003 	mov	r0, r3
    e5c8:	eb001969 	bl	14b74 <tfp_printf>
    e5cc:	e51b302c 	ldr	r3, [fp, #-44]	; 0xffffffd4
    e5d0:	e2833001 	add	r3, r3, #1
    e5d4:	e50b302c 	str	r3, [fp, #-44]	; 0xffffffd4
    e5d8:	e51b302c 	ldr	r3, [fp, #-44]	; 0xffffffd4
    e5dc:	e3530003 	cmp	r3, #3
    e5e0:	daffffec 	ble	e598 <run+0x9b0>
    e5e4:	e59f3438 	ldr	r3, [pc, #1080]	; ea24 <run+0xe3c>
    e5e8:	e08f3003 	add	r3, pc, r3
    e5ec:	e1a00003 	mov	r0, r3
    e5f0:	eb00195f 	bl	14b74 <tfp_printf>
    e5f4:	e59b3008 	ldr	r3, [fp, #8]
    e5f8:	e3530000 	cmp	r3, #0
    e5fc:	0a00001c 	beq	e674 <run+0xa8c>
    e600:	e59f3420 	ldr	r3, [pc, #1056]	; ea28 <run+0xe40>
    e604:	e08f3003 	add	r3, pc, r3
    e608:	e1a00003 	mov	r0, r3
    e60c:	eb001958 	bl	14b74 <tfp_printf>
    e610:	e3a03000 	mov	r3, #0
    e614:	e50b3030 	str	r3, [fp, #-48]	; 0xffffffd0
    e618:	ea00000e 	b	e658 <run+0xa70>
    e61c:	e51b3030 	ldr	r3, [fp, #-48]	; 0xffffffd0
    e620:	e6ef2073 	uxtb	r2, r3
    e624:	e24b3080 	sub	r3, fp, #128	; 0x80
    e628:	e1a01002 	mov	r1, r2
    e62c:	e1a00003 	mov	r0, r3
    e630:	ebfffcf7 	bl	da14 <g>
    e634:	e1a03000 	mov	r3, r0
    e638:	e1a01003 	mov	r1, r3
    e63c:	e59f33e8 	ldr	r3, [pc, #1000]	; ea2c <run+0xe44>
    e640:	e08f3003 	add	r3, pc, r3
    e644:	e1a00003 	mov	r0, r3
    e648:	eb001949 	bl	14b74 <tfp_printf>
    e64c:	e51b3030 	ldr	r3, [fp, #-48]	; 0xffffffd0
    e650:	e2833001 	add	r3, r3, #1
    e654:	e50b3030 	str	r3, [fp, #-48]	; 0xffffffd0
    e658:	e51b3030 	ldr	r3, [fp, #-48]	; 0xffffffd0
    e65c:	e3530007 	cmp	r3, #7
    e660:	daffffed 	ble	e61c <run+0xa34>
    e664:	e59f33c4 	ldr	r3, [pc, #964]	; ea30 <run+0xe48>
    e668:	e08f3003 	add	r3, pc, r3
    e66c:	e1a00003 	mov	r0, r3
    e670:	eb00193f 	bl	14b74 <tfp_printf>
    e674:	e51b5078 	ldr	r5, [fp, #-120]	; 0xffffff88
    e678:	e24b3080 	sub	r3, fp, #128	; 0x80
    e67c:	e3a01005 	mov	r1, #5
    e680:	e1a00003 	mov	r0, r3
    e684:	ebfffce2 	bl	da14 <g>
    e688:	e1a03000 	mov	r3, r0
    e68c:	e1a02003 	mov	r2, r3
    e690:	e59f33cc 	ldr	r3, [pc, #972]	; ea64 <run+0xe7c>
    e694:	e7943003 	ldr	r3, [r4, r3]
    e698:	e7933102 	ldr	r3, [r3, r2, lsl #2]
    e69c:	e0255003 	eor	r5, r5, r3
    e6a0:	e24b3080 	sub	r3, fp, #128	; 0x80
    e6a4:	e3a01007 	mov	r1, #7
    e6a8:	e1a00003 	mov	r0, r3
    e6ac:	ebfffcd8 	bl	da14 <g>
    e6b0:	e1a03000 	mov	r3, r0
    e6b4:	e1a02003 	mov	r2, r3
    e6b8:	e59f33b0 	ldr	r3, [pc, #944]	; ea70 <run+0xe88>
    e6bc:	e7943003 	ldr	r3, [r4, r3]
    e6c0:	e7933102 	ldr	r3, [r3, r2, lsl #2]
    e6c4:	e0255003 	eor	r5, r5, r3
    e6c8:	e24b3080 	sub	r3, fp, #128	; 0x80
    e6cc:	e3a01004 	mov	r1, #4
    e6d0:	e1a00003 	mov	r0, r3
    e6d4:	ebfffcce 	bl	da14 <g>
    e6d8:	e1a03000 	mov	r3, r0
    e6dc:	e1a02003 	mov	r2, r3
    e6e0:	e59f3380 	ldr	r3, [pc, #896]	; ea68 <run+0xe80>
    e6e4:	e7943003 	ldr	r3, [r4, r3]
    e6e8:	e7933102 	ldr	r3, [r3, r2, lsl #2]
    e6ec:	e0255003 	eor	r5, r5, r3
    e6f0:	e24b3080 	sub	r3, fp, #128	; 0x80
    e6f4:	e3a01006 	mov	r1, #6
    e6f8:	e1a00003 	mov	r0, r3
    e6fc:	ebfffcc4 	bl	da14 <g>
    e700:	e1a03000 	mov	r3, r0
    e704:	e1a02003 	mov	r2, r3
    e708:	e59f335c 	ldr	r3, [pc, #860]	; ea6c <run+0xe84>
    e70c:	e7943003 	ldr	r3, [r4, r3]
    e710:	e7933102 	ldr	r3, [r3, r2, lsl #2]
    e714:	e0255003 	eor	r5, r5, r3
    e718:	e24b3080 	sub	r3, fp, #128	; 0x80
    e71c:	e3a01000 	mov	r1, #0
    e720:	e1a00003 	mov	r0, r3
    e724:	ebfffcba 	bl	da14 <g>
    e728:	e1a03000 	mov	r3, r0
    e72c:	e1a02003 	mov	r2, r3
    e730:	e59f3330 	ldr	r3, [pc, #816]	; ea68 <run+0xe80>
    e734:	e7943003 	ldr	r3, [r4, r3]
    e738:	e7933102 	ldr	r3, [r3, r2, lsl #2]
    e73c:	e0233005 	eor	r3, r3, r5
    e740:	e50b3070 	str	r3, [fp, #-112]	; 0xffffff90
    e744:	e51b5080 	ldr	r5, [fp, #-128]	; 0xffffff80
    e748:	e24b3070 	sub	r3, fp, #112	; 0x70
    e74c:	e3a01000 	mov	r1, #0
    e750:	e1a00003 	mov	r0, r3
    e754:	ebfffcae 	bl	da14 <g>
    e758:	e1a03000 	mov	r3, r0
    e75c:	e1a02003 	mov	r2, r3
    e760:	e59f32fc 	ldr	r3, [pc, #764]	; ea64 <run+0xe7c>
    e764:	e7943003 	ldr	r3, [r4, r3]
    e768:	e7933102 	ldr	r3, [r3, r2, lsl #2]
    e76c:	e0255003 	eor	r5, r5, r3
    e770:	e24b3070 	sub	r3, fp, #112	; 0x70
    e774:	e3a01002 	mov	r1, #2
    e778:	e1a00003 	mov	r0, r3
    e77c:	ebfffca4 	bl	da14 <g>
    e780:	e1a03000 	mov	r3, r0
    e784:	e1a02003 	mov	r2, r3
    e788:	e59f32e0 	ldr	r3, [pc, #736]	; ea70 <run+0xe88>
    e78c:	e7943003 	ldr	r3, [r4, r3]
    e790:	e7933102 	ldr	r3, [r3, r2, lsl #2]
    e794:	e0255003 	eor	r5, r5, r3
    e798:	e24b3070 	sub	r3, fp, #112	; 0x70
    e79c:	e3a01001 	mov	r1, #1
    e7a0:	e1a00003 	mov	r0, r3
    e7a4:	ebfffc9a 	bl	da14 <g>
    e7a8:	e1a03000 	mov	r3, r0
    e7ac:	e1a02003 	mov	r2, r3
    e7b0:	e59f32b0 	ldr	r3, [pc, #688]	; ea68 <run+0xe80>
    e7b4:	e7943003 	ldr	r3, [r4, r3]
    e7b8:	e7933102 	ldr	r3, [r3, r2, lsl #2]
    e7bc:	e0255003 	eor	r5, r5, r3
    e7c0:	e24b3070 	sub	r3, fp, #112	; 0x70
    e7c4:	e3a01003 	mov	r1, #3
    e7c8:	e1a00003 	mov	r0, r3
    e7cc:	ebfffc90 	bl	da14 <g>
    e7d0:	e1a03000 	mov	r3, r0
    e7d4:	e1a02003 	mov	r2, r3
    e7d8:	e59f328c 	ldr	r3, [pc, #652]	; ea6c <run+0xe84>
    e7dc:	e7943003 	ldr	r3, [r4, r3]
    e7e0:	e7933102 	ldr	r3, [r3, r2, lsl #2]
    e7e4:	e0255003 	eor	r5, r5, r3
    e7e8:	e24b3080 	sub	r3, fp, #128	; 0x80
    e7ec:	e3a01002 	mov	r1, #2
    e7f0:	e1a00003 	mov	r0, r3
    e7f4:	ebfffc86 	bl	da14 <g>
    e7f8:	e1a03000 	mov	r3, r0
    e7fc:	e1a02003 	mov	r2, r3
    e800:	e59f3264 	ldr	r3, [pc, #612]	; ea6c <run+0xe84>
    e804:	e7943003 	ldr	r3, [r4, r3]
    e808:	e7933102 	ldr	r3, [r3, r2, lsl #2]
    e80c:	e0233005 	eor	r3, r3, r5
    e810:	e50b306c 	str	r3, [fp, #-108]	; 0xffffff94
    e814:	e51b507c 	ldr	r5, [fp, #-124]	; 0xffffff84
    e818:	e24b3070 	sub	r3, fp, #112	; 0x70
    e81c:	e3a01007 	mov	r1, #7
    e820:	e1a00003 	mov	r0, r3
    e824:	ebfffc7a 	bl	da14 <g>
    e828:	e1a03000 	mov	r3, r0
    e82c:	e1a02003 	mov	r2, r3
    e830:	e59f322c 	ldr	r3, [pc, #556]	; ea64 <run+0xe7c>
    e834:	e7943003 	ldr	r3, [r4, r3]
    e838:	e7933102 	ldr	r3, [r3, r2, lsl #2]
    e83c:	e0255003 	eor	r5, r5, r3
    e840:	e24b3070 	sub	r3, fp, #112	; 0x70
    e844:	e3a01006 	mov	r1, #6
    e848:	e1a00003 	mov	r0, r3
    e84c:	ebfffc70 	bl	da14 <g>
    e850:	e1a03000 	mov	r3, r0
    e854:	e1a02003 	mov	r2, r3
    e858:	e59f3210 	ldr	r3, [pc, #528]	; ea70 <run+0xe88>
    e85c:	e7943003 	ldr	r3, [r4, r3]
    e860:	e7933102 	ldr	r3, [r3, r2, lsl #2]
    e864:	e0255003 	eor	r5, r5, r3
    e868:	e24b3070 	sub	r3, fp, #112	; 0x70
    e86c:	e3a01005 	mov	r1, #5
    e870:	e1a00003 	mov	r0, r3
    e874:	ebfffc66 	bl	da14 <g>
    e878:	e1a03000 	mov	r3, r0
    e87c:	e1a02003 	mov	r2, r3
    e880:	e59f31e0 	ldr	r3, [pc, #480]	; ea68 <run+0xe80>
    e884:	e7943003 	ldr	r3, [r4, r3]
    e888:	e7933102 	ldr	r3, [r3, r2, lsl #2]
    e88c:	e0255003 	eor	r5, r5, r3
    e890:	e24b3070 	sub	r3, fp, #112	; 0x70
    e894:	e3a01004 	mov	r1, #4
    e898:	e1a00003 	mov	r0, r3
    e89c:	ebfffc5c 	bl	da14 <g>
    e8a0:	e1a03000 	mov	r3, r0
    e8a4:	e1a02003 	mov	r2, r3
    e8a8:	e59f31bc 	ldr	r3, [pc, #444]	; ea6c <run+0xe84>
    e8ac:	e7943003 	ldr	r3, [r4, r3]
    e8b0:	e7933102 	ldr	r3, [r3, r2, lsl #2]
    e8b4:	e0255003 	eor	r5, r5, r3
    e8b8:	e24b3080 	sub	r3, fp, #128	; 0x80
    e8bc:	e3a01001 	mov	r1, #1
    e8c0:	e1a00003 	mov	r0, r3
    e8c4:	ebfffc52 	bl	da14 <g>
    e8c8:	e1a03000 	mov	r3, r0
    e8cc:	e1a02003 	mov	r2, r3
    e8d0:	e59f318c 	ldr	r3, [pc, #396]	; ea64 <run+0xe7c>
    e8d4:	e7943003 	ldr	r3, [r4, r3]
    e8d8:	e7933102 	ldr	r3, [r3, r2, lsl #2]
    e8dc:	e0233005 	eor	r3, r3, r5
    e8e0:	e50b3068 	str	r3, [fp, #-104]	; 0xffffff98
    e8e4:	e51b5074 	ldr	r5, [fp, #-116]	; 0xffffff8c
    e8e8:	e24b3070 	sub	r3, fp, #112	; 0x70
    e8ec:	e3a0100a 	mov	r1, #10
    e8f0:	e1a00003 	mov	r0, r3
    e8f4:	ebfffc46 	bl	da14 <g>
    e8f8:	e1a03000 	mov	r3, r0
    e8fc:	e1a02003 	mov	r2, r3
    e900:	e59f315c 	ldr	r3, [pc, #348]	; ea64 <run+0xe7c>
    e904:	e7943003 	ldr	r3, [r4, r3]
    e908:	e7933102 	ldr	r3, [r3, r2, lsl #2]
    e90c:	e0255003 	eor	r5, r5, r3
    e910:	e24b3070 	sub	r3, fp, #112	; 0x70
    e914:	e3a01009 	mov	r1, #9
    e918:	e1a00003 	mov	r0, r3
    e91c:	ebfffc3c 	bl	da14 <g>
    e920:	e1a03000 	mov	r3, r0
    e924:	e1a02003 	mov	r2, r3
    e928:	e59f3140 	ldr	r3, [pc, #320]	; ea70 <run+0xe88>
    e92c:	e7943003 	ldr	r3, [r4, r3]
    e930:	e7933102 	ldr	r3, [r3, r2, lsl #2]
    e934:	e0255003 	eor	r5, r5, r3
    e938:	e24b3070 	sub	r3, fp, #112	; 0x70
    e93c:	e3a0100b 	mov	r1, #11
    e940:	e1a00003 	mov	r0, r3
    e944:	ebfffc32 	bl	da14 <g>
    e948:	e1a03000 	mov	r3, r0
    e94c:	e1a02003 	mov	r2, r3
    e950:	e59f3110 	ldr	r3, [pc, #272]	; ea68 <run+0xe80>
    e954:	e7943003 	ldr	r3, [r4, r3]
    e958:	e7933102 	ldr	r3, [r3, r2, lsl #2]
    e95c:	e0255003 	eor	r5, r5, r3
    e960:	e24b3070 	sub	r3, fp, #112	; 0x70
    e964:	e3a01008 	mov	r1, #8
    e968:	e1a00003 	mov	r0, r3
    e96c:	ebfffc28 	bl	da14 <g>
    e970:	e1a03000 	mov	r3, r0
    e974:	e1a02003 	mov	r2, r3
    e978:	e59f30ec 	ldr	r3, [pc, #236]	; ea6c <run+0xe84>
    e97c:	e7943003 	ldr	r3, [r4, r3]
    e980:	e7933102 	ldr	r3, [r3, r2, lsl #2]
    e984:	e0255003 	eor	r5, r5, r3
    e988:	e24b3080 	sub	r3, fp, #128	; 0x80
    e98c:	e3a01003 	mov	r1, #3
    e990:	e1a00003 	mov	r0, r3
    e994:	ebfffc1e 	bl	da14 <g>
    e998:	e1a03000 	mov	r3, r0
    e99c:	e1a02003 	mov	r2, r3
    e9a0:	e59f30c8 	ldr	r3, [pc, #200]	; ea70 <run+0xe88>
    e9a4:	e7943003 	ldr	r3, [r4, r3]
    e9a8:	e7933102 	ldr	r3, [r3, r2, lsl #2]
    e9ac:	e0233005 	eor	r3, r3, r5
    e9b0:	e50b3064 	str	r3, [fp, #-100]	; 0xffffff9c
    e9b4:	e59b3008 	ldr	r3, [fp, #8]
    e9b8:	e3530000 	cmp	r3, #0
    e9bc:	0a000043 	beq	ead0 <run+0xee8>
    e9c0:	e59f306c 	ldr	r3, [pc, #108]	; ea34 <run+0xe4c>
    e9c4:	e08f3003 	add	r3, pc, r3
    e9c8:	e1a00003 	mov	r0, r3
    e9cc:	eb001868 	bl	14b74 <tfp_printf>
    e9d0:	e3a03000 	mov	r3, #0
    e9d4:	e50b3034 	str	r3, [fp, #-52]	; 0xffffffcc
    e9d8:	ea000035 	b	eab4 <run+0xecc>
    e9dc:	0000fc90 	.word	0x0000fc90
    e9e0:	0000c688 	.word	0x0000c688
    e9e4:	0000c694 	.word	0x0000c694
    e9e8:	0000c66c 	.word	0x0000c66c
    e9ec:	0000c640 	.word	0x0000c640
    e9f0:	0000c650 	.word	0x0000c650
    e9f4:	0000c624 	.word	0x0000c624
    e9f8:	0000c628 	.word	0x0000c628
    e9fc:	0000c608 	.word	0x0000c608
    ea00:	0000c3fc 	.word	0x0000c3fc
    ea04:	0000c5d8 	.word	0x0000c5d8
    ea08:	0000c5ac 	.word	0x0000c5ac
    ea0c:	0000c388 	.word	0x0000c388
    ea10:	0000c230 	.word	0x0000c230
    ea14:	0000c1dc 	.word	0x0000c1dc
    ea18:	0000bfd0 	.word	0x0000bfd0
    ea1c:	0000be38 	.word	0x0000be38
    ea20:	0000bdc4 	.word	0x0000bdc4
    ea24:	0000bbb8 	.word	0x0000bbb8
    ea28:	0000bdc0 	.word	0x0000bdc0
    ea2c:	0000bd5c 	.word	0x0000bd5c
    ea30:	0000bb38 	.word	0x0000bb38
    ea34:	0000ba1c 	.word	0x0000ba1c
    ea38:	0000b8e8 	.word	0x0000b8e8
    ea3c:	0000b6dc 	.word	0x0000b6dc
    ea40:	0000b53c 	.word	0x0000b53c
    ea44:	0000b4c8 	.word	0x0000b4c8
    ea48:	0000b2bc 	.word	0x0000b2bc
    ea4c:	0000b1b8 	.word	0x0000b1b8
    ea50:	0000b110 	.word	0x0000b110
    ea54:	0000af04 	.word	0x0000af04
    ea58:	0000ad64 	.word	0x0000ad64
    ea5c:	0000acf0 	.word	0x0000acf0
    ea60:	0000aae4 	.word	0x0000aae4
    ea64:	0002ab2c 	.word	0x0002ab2c
    ea68:	0002ab10 	.word	0x0002ab10
    ea6c:	0002aaf8 	.word	0x0002aaf8
    ea70:	0002ab04 	.word	0x0002ab04
    ea74:	0000a9f4 	.word	0x0000a9f4
    ea78:	0000a938 	.word	0x0000a938
    ea7c:	0000a72c 	.word	0x0000a72c
    ea80:	e51b3034 	ldr	r3, [fp, #-52]	; 0xffffffcc
    ea84:	e1a03103 	lsl	r3, r3, #2
    ea88:	e2433014 	sub	r3, r3, #20
    ea8c:	e083300b 	add	r3, r3, fp
    ea90:	e513305c 	ldr	r3, [r3, #-92]	; 0xffffffa4
    ea94:	e1a01003 	mov	r1, r3
    ea98:	e51f3068 	ldr	r3, [pc, #-104]	; ea38 <run+0xe50>
    ea9c:	e08f3003 	add	r3, pc, r3
    eaa0:	e1a00003 	mov	r0, r3
    eaa4:	eb001832 	bl	14b74 <tfp_printf>
    eaa8:	e51b3034 	ldr	r3, [fp, #-52]	; 0xffffffcc
    eaac:	e2833001 	add	r3, r3, #1
    eab0:	e50b3034 	str	r3, [fp, #-52]	; 0xffffffcc
    eab4:	e51b3034 	ldr	r3, [fp, #-52]	; 0xffffffcc
    eab8:	e3530003 	cmp	r3, #3
    eabc:	daffffef 	ble	ea80 <run+0xe98>
    eac0:	e51f308c 	ldr	r3, [pc, #-140]	; ea3c <run+0xe54>
    eac4:	e08f3003 	add	r3, pc, r3
    eac8:	e1a00003 	mov	r0, r3
    eacc:	eb001828 	bl	14b74 <tfp_printf>
    ead0:	e24b3070 	sub	r3, fp, #112	; 0x70
    ead4:	e3a01003 	mov	r1, #3
    ead8:	e1a00003 	mov	r0, r3
    eadc:	ebfffbcc 	bl	da14 <g>
    eae0:	e1a03000 	mov	r3, r0
    eae4:	e1a02003 	mov	r2, r3
    eae8:	e51f308c 	ldr	r3, [pc, #-140]	; ea64 <run+0xe7c>
    eaec:	e7943003 	ldr	r3, [r4, r3]
    eaf0:	e7935102 	ldr	r5, [r3, r2, lsl #2]
    eaf4:	e24b3070 	sub	r3, fp, #112	; 0x70
    eaf8:	e3a01002 	mov	r1, #2
    eafc:	e1a00003 	mov	r0, r3
    eb00:	ebfffbc3 	bl	da14 <g>
    eb04:	e1a03000 	mov	r3, r0
    eb08:	e1a02003 	mov	r2, r3
    eb0c:	e51f30a4 	ldr	r3, [pc, #-164]	; ea70 <run+0xe88>
    eb10:	e7943003 	ldr	r3, [r4, r3]
    eb14:	e7933102 	ldr	r3, [r3, r2, lsl #2]
    eb18:	e0255003 	eor	r5, r5, r3
    eb1c:	e24b3070 	sub	r3, fp, #112	; 0x70
    eb20:	e3a0100c 	mov	r1, #12
    eb24:	e1a00003 	mov	r0, r3
    eb28:	ebfffbb9 	bl	da14 <g>
    eb2c:	e1a03000 	mov	r3, r0
    eb30:	e1a02003 	mov	r2, r3
    eb34:	e51f30d4 	ldr	r3, [pc, #-212]	; ea68 <run+0xe80>
    eb38:	e7943003 	ldr	r3, [r4, r3]
    eb3c:	e7933102 	ldr	r3, [r3, r2, lsl #2]
    eb40:	e0255003 	eor	r5, r5, r3
    eb44:	e24b3070 	sub	r3, fp, #112	; 0x70
    eb48:	e3a0100d 	mov	r1, #13
    eb4c:	e1a00003 	mov	r0, r3
    eb50:	ebfffbaf 	bl	da14 <g>
    eb54:	e1a03000 	mov	r3, r0
    eb58:	e1a02003 	mov	r2, r3
    eb5c:	e51f30f8 	ldr	r3, [pc, #-248]	; ea6c <run+0xe84>
    eb60:	e7943003 	ldr	r3, [r4, r3]
    eb64:	e7933102 	ldr	r3, [r3, r2, lsl #2]
    eb68:	e0255003 	eor	r5, r5, r3
    eb6c:	e24b3070 	sub	r3, fp, #112	; 0x70
    eb70:	e3a01008 	mov	r1, #8
    eb74:	e1a00003 	mov	r0, r3
    eb78:	ebfffba5 	bl	da14 <g>
    eb7c:	e1a03000 	mov	r3, r0
    eb80:	e1a02003 	mov	r2, r3
    eb84:	e51f3128 	ldr	r3, [pc, #-296]	; ea64 <run+0xe7c>
    eb88:	e7943003 	ldr	r3, [r4, r3]
    eb8c:	e7932102 	ldr	r2, [r3, r2, lsl #2]
    eb90:	e51b301c 	ldr	r3, [fp, #-28]	; 0xffffffe4
    eb94:	e1a03203 	lsl	r3, r3, #4
    eb98:	e2833004 	add	r3, r3, #4
    eb9c:	e0222005 	eor	r2, r2, r5
    eba0:	e1a03103 	lsl	r3, r3, #2
    eba4:	e2433014 	sub	r3, r3, #20
    eba8:	e083300b 	add	r3, r3, fp
    ebac:	e50320ec 	str	r2, [r3, #-236]	; 0xffffff14
    ebb0:	e24b3070 	sub	r3, fp, #112	; 0x70
    ebb4:	e3a01001 	mov	r1, #1
    ebb8:	e1a00003 	mov	r0, r3
    ebbc:	ebfffb94 	bl	da14 <g>
    ebc0:	e1a03000 	mov	r3, r0
    ebc4:	e1a02003 	mov	r2, r3
    ebc8:	e51f316c 	ldr	r3, [pc, #-364]	; ea64 <run+0xe7c>
    ebcc:	e7943003 	ldr	r3, [r4, r3]
    ebd0:	e7935102 	ldr	r5, [r3, r2, lsl #2]
    ebd4:	e24b3070 	sub	r3, fp, #112	; 0x70
    ebd8:	e3a01000 	mov	r1, #0
    ebdc:	e1a00003 	mov	r0, r3
    ebe0:	ebfffb8b 	bl	da14 <g>
    ebe4:	e1a03000 	mov	r3, r0
    ebe8:	e1a02003 	mov	r2, r3
    ebec:	e51f3184 	ldr	r3, [pc, #-388]	; ea70 <run+0xe88>
    ebf0:	e7943003 	ldr	r3, [r4, r3]
    ebf4:	e7933102 	ldr	r3, [r3, r2, lsl #2]
    ebf8:	e0255003 	eor	r5, r5, r3
    ebfc:	e24b3070 	sub	r3, fp, #112	; 0x70
    ec00:	e3a0100e 	mov	r1, #14
    ec04:	e1a00003 	mov	r0, r3
    ec08:	ebfffb81 	bl	da14 <g>
    ec0c:	e1a03000 	mov	r3, r0
    ec10:	e1a02003 	mov	r2, r3
    ec14:	e51f31b4 	ldr	r3, [pc, #-436]	; ea68 <run+0xe80>
    ec18:	e7943003 	ldr	r3, [r4, r3]
    ec1c:	e7933102 	ldr	r3, [r3, r2, lsl #2]
    ec20:	e0255003 	eor	r5, r5, r3
    ec24:	e24b3070 	sub	r3, fp, #112	; 0x70
    ec28:	e3a0100f 	mov	r1, #15
    ec2c:	e1a00003 	mov	r0, r3
    ec30:	ebfffb77 	bl	da14 <g>
    ec34:	e1a03000 	mov	r3, r0
    ec38:	e1a02003 	mov	r2, r3
    ec3c:	e51f31d8 	ldr	r3, [pc, #-472]	; ea6c <run+0xe84>
    ec40:	e7943003 	ldr	r3, [r4, r3]
    ec44:	e7933102 	ldr	r3, [r3, r2, lsl #2]
    ec48:	e0255003 	eor	r5, r5, r3
    ec4c:	e24b3070 	sub	r3, fp, #112	; 0x70
    ec50:	e3a0100d 	mov	r1, #13
    ec54:	e1a00003 	mov	r0, r3
    ec58:	ebfffb6d 	bl	da14 <g>
    ec5c:	e1a03000 	mov	r3, r0
    ec60:	e1a02003 	mov	r2, r3
    ec64:	e51f31fc 	ldr	r3, [pc, #-508]	; ea70 <run+0xe88>
    ec68:	e7943003 	ldr	r3, [r4, r3]
    ec6c:	e7932102 	ldr	r2, [r3, r2, lsl #2]
    ec70:	e51b301c 	ldr	r3, [fp, #-28]	; 0xffffffe4
    ec74:	e1a03203 	lsl	r3, r3, #4
    ec78:	e2833005 	add	r3, r3, #5
    ec7c:	e0222005 	eor	r2, r2, r5
    ec80:	e1a03103 	lsl	r3, r3, #2
    ec84:	e2433014 	sub	r3, r3, #20
    ec88:	e083300b 	add	r3, r3, fp
    ec8c:	e50320ec 	str	r2, [r3, #-236]	; 0xffffff14
    ec90:	e24b3070 	sub	r3, fp, #112	; 0x70
    ec94:	e3a01007 	mov	r1, #7
    ec98:	e1a00003 	mov	r0, r3
    ec9c:	ebfffb5c 	bl	da14 <g>
    eca0:	e1a03000 	mov	r3, r0
    eca4:	e1a02003 	mov	r2, r3
    eca8:	e51f324c 	ldr	r3, [pc, #-588]	; ea64 <run+0xe7c>
    ecac:	e7943003 	ldr	r3, [r4, r3]
    ecb0:	e7935102 	ldr	r5, [r3, r2, lsl #2]
    ecb4:	e24b3070 	sub	r3, fp, #112	; 0x70
    ecb8:	e3a01006 	mov	r1, #6
    ecbc:	e1a00003 	mov	r0, r3
    ecc0:	ebfffb53 	bl	da14 <g>
    ecc4:	e1a03000 	mov	r3, r0
    ecc8:	e1a02003 	mov	r2, r3
    eccc:	e51f3264 	ldr	r3, [pc, #-612]	; ea70 <run+0xe88>
    ecd0:	e7943003 	ldr	r3, [r4, r3]
    ecd4:	e7933102 	ldr	r3, [r3, r2, lsl #2]
    ecd8:	e0255003 	eor	r5, r5, r3
    ecdc:	e24b3070 	sub	r3, fp, #112	; 0x70
    ece0:	e3a01008 	mov	r1, #8
    ece4:	e1a00003 	mov	r0, r3
    ece8:	ebfffb49 	bl	da14 <g>
    ecec:	e1a03000 	mov	r3, r0
    ecf0:	e1a02003 	mov	r2, r3
    ecf4:	e51f3294 	ldr	r3, [pc, #-660]	; ea68 <run+0xe80>
    ecf8:	e7943003 	ldr	r3, [r4, r3]
    ecfc:	e7933102 	ldr	r3, [r3, r2, lsl #2]
    ed00:	e0255003 	eor	r5, r5, r3
    ed04:	e24b3070 	sub	r3, fp, #112	; 0x70
    ed08:	e3a01009 	mov	r1, #9
    ed0c:	e1a00003 	mov	r0, r3
    ed10:	ebfffb3f 	bl	da14 <g>
    ed14:	e1a03000 	mov	r3, r0
    ed18:	e1a02003 	mov	r2, r3
    ed1c:	e51f32b8 	ldr	r3, [pc, #-696]	; ea6c <run+0xe84>
    ed20:	e7943003 	ldr	r3, [r4, r3]
    ed24:	e7933102 	ldr	r3, [r3, r2, lsl #2]
    ed28:	e0255003 	eor	r5, r5, r3
    ed2c:	e24b3070 	sub	r3, fp, #112	; 0x70
    ed30:	e3a01003 	mov	r1, #3
    ed34:	e1a00003 	mov	r0, r3
    ed38:	ebfffb35 	bl	da14 <g>
    ed3c:	e1a03000 	mov	r3, r0
    ed40:	e1a02003 	mov	r2, r3
    ed44:	e51f32e4 	ldr	r3, [pc, #-740]	; ea68 <run+0xe80>
    ed48:	e7943003 	ldr	r3, [r4, r3]
    ed4c:	e7932102 	ldr	r2, [r3, r2, lsl #2]
    ed50:	e51b301c 	ldr	r3, [fp, #-28]	; 0xffffffe4
    ed54:	e1a03203 	lsl	r3, r3, #4
    ed58:	e2833006 	add	r3, r3, #6
    ed5c:	e0222005 	eor	r2, r2, r5
    ed60:	e1a03103 	lsl	r3, r3, #2
    ed64:	e2433014 	sub	r3, r3, #20
    ed68:	e083300b 	add	r3, r3, fp
    ed6c:	e50320ec 	str	r2, [r3, #-236]	; 0xffffff14
    ed70:	e24b3070 	sub	r3, fp, #112	; 0x70
    ed74:	e3a01005 	mov	r1, #5
    ed78:	e1a00003 	mov	r0, r3
    ed7c:	ebfffb24 	bl	da14 <g>
    ed80:	e1a03000 	mov	r3, r0
    ed84:	e1a02003 	mov	r2, r3
    ed88:	e51f332c 	ldr	r3, [pc, #-812]	; ea64 <run+0xe7c>
    ed8c:	e7943003 	ldr	r3, [r4, r3]
    ed90:	e7935102 	ldr	r5, [r3, r2, lsl #2]
    ed94:	e24b3070 	sub	r3, fp, #112	; 0x70
    ed98:	e3a01004 	mov	r1, #4
    ed9c:	e1a00003 	mov	r0, r3
    eda0:	ebfffb1b 	bl	da14 <g>
    eda4:	e1a03000 	mov	r3, r0
    eda8:	e1a02003 	mov	r2, r3
    edac:	e51f3344 	ldr	r3, [pc, #-836]	; ea70 <run+0xe88>
    edb0:	e7943003 	ldr	r3, [r4, r3]
    edb4:	e7933102 	ldr	r3, [r3, r2, lsl #2]
    edb8:	e0255003 	eor	r5, r5, r3
    edbc:	e24b3070 	sub	r3, fp, #112	; 0x70
    edc0:	e3a0100a 	mov	r1, #10
    edc4:	e1a00003 	mov	r0, r3
    edc8:	ebfffb11 	bl	da14 <g>
    edcc:	e1a03000 	mov	r3, r0
    edd0:	e1a02003 	mov	r2, r3
    edd4:	e51f3374 	ldr	r3, [pc, #-884]	; ea68 <run+0xe80>
    edd8:	e7943003 	ldr	r3, [r4, r3]
    eddc:	e7933102 	ldr	r3, [r3, r2, lsl #2]
    ede0:	e0255003 	eor	r5, r5, r3
    ede4:	e24b3070 	sub	r3, fp, #112	; 0x70
    ede8:	e3a0100b 	mov	r1, #11
    edec:	e1a00003 	mov	r0, r3
    edf0:	ebfffb07 	bl	da14 <g>
    edf4:	e1a03000 	mov	r3, r0
    edf8:	e1a02003 	mov	r2, r3
    edfc:	e51f3398 	ldr	r3, [pc, #-920]	; ea6c <run+0xe84>
    ee00:	e7943003 	ldr	r3, [r4, r3]
    ee04:	e7933102 	ldr	r3, [r3, r2, lsl #2]
    ee08:	e0255003 	eor	r5, r5, r3
    ee0c:	e24b3070 	sub	r3, fp, #112	; 0x70
    ee10:	e3a01007 	mov	r1, #7
    ee14:	e1a00003 	mov	r0, r3
    ee18:	ebfffafd 	bl	da14 <g>
    ee1c:	e1a03000 	mov	r3, r0
    ee20:	e1a02003 	mov	r2, r3
    ee24:	e51f33c0 	ldr	r3, [pc, #-960]	; ea6c <run+0xe84>
    ee28:	e7943003 	ldr	r3, [r4, r3]
    ee2c:	e7932102 	ldr	r2, [r3, r2, lsl #2]
    ee30:	e51b301c 	ldr	r3, [fp, #-28]	; 0xffffffe4
    ee34:	e1a03203 	lsl	r3, r3, #4
    ee38:	e2833007 	add	r3, r3, #7
    ee3c:	e0222005 	eor	r2, r2, r5
    ee40:	e1a03103 	lsl	r3, r3, #2
    ee44:	e2433014 	sub	r3, r3, #20
    ee48:	e083300b 	add	r3, r3, fp
    ee4c:	e50320ec 	str	r2, [r3, #-236]	; 0xffffff14
    ee50:	e59b3008 	ldr	r3, [fp, #8]
    ee54:	e3530000 	cmp	r3, #0
    ee58:	0a000024 	beq	eef0 <run+0x1308>
    ee5c:	e51b301c 	ldr	r3, [fp, #-28]	; 0xffffffe4
    ee60:	e1a03203 	lsl	r3, r3, #4
    ee64:	e2831004 	add	r1, r3, #4
    ee68:	e51b301c 	ldr	r3, [fp, #-28]	; 0xffffffe4
    ee6c:	e1a03203 	lsl	r3, r3, #4
    ee70:	e2833007 	add	r3, r3, #7
    ee74:	e1a02003 	mov	r2, r3
    ee78:	e51f3440 	ldr	r3, [pc, #-1088]	; ea40 <run+0xe58>
    ee7c:	e08f3003 	add	r3, pc, r3
    ee80:	e1a00003 	mov	r0, r3
    ee84:	eb00173a 	bl	14b74 <tfp_printf>
    ee88:	e3a03004 	mov	r3, #4
    ee8c:	e50b3038 	str	r3, [fp, #-56]	; 0xffffffc8
    ee90:	ea00000f 	b	eed4 <run+0x12ec>
    ee94:	e51b301c 	ldr	r3, [fp, #-28]	; 0xffffffe4
    ee98:	e1a02203 	lsl	r2, r3, #4
    ee9c:	e51b3038 	ldr	r3, [fp, #-56]	; 0xffffffc8
    eea0:	e0823003 	add	r3, r2, r3
    eea4:	e1a03103 	lsl	r3, r3, #2
    eea8:	e2433014 	sub	r3, r3, #20
    eeac:	e083300b 	add	r3, r3, fp
    eeb0:	e51330ec 	ldr	r3, [r3, #-236]	; 0xffffff14
    eeb4:	e1a01003 	mov	r1, r3
    eeb8:	e51f347c 	ldr	r3, [pc, #-1148]	; ea44 <run+0xe5c>
    eebc:	e08f3003 	add	r3, pc, r3
    eec0:	e1a00003 	mov	r0, r3
    eec4:	eb00172a 	bl	14b74 <tfp_printf>
    eec8:	e51b3038 	ldr	r3, [fp, #-56]	; 0xffffffc8
    eecc:	e2833001 	add	r3, r3, #1
    eed0:	e50b3038 	str	r3, [fp, #-56]	; 0xffffffc8
    eed4:	e51b3038 	ldr	r3, [fp, #-56]	; 0xffffffc8
    eed8:	e3530007 	cmp	r3, #7
    eedc:	daffffec 	ble	ee94 <run+0x12ac>
    eee0:	e51f34a0 	ldr	r3, [pc, #-1184]	; ea48 <run+0xe60>
    eee4:	e08f3003 	add	r3, pc, r3
    eee8:	e1a00003 	mov	r0, r3
    eeec:	eb001720 	bl	14b74 <tfp_printf>
    eef0:	e51b5070 	ldr	r5, [fp, #-112]	; 0xffffff90
    eef4:	e24b3070 	sub	r3, fp, #112	; 0x70
    eef8:	e3a0100d 	mov	r1, #13
    eefc:	e1a00003 	mov	r0, r3
    ef00:	ebfffac3 	bl	da14 <g>
    ef04:	e1a03000 	mov	r3, r0
    ef08:	e1a02003 	mov	r2, r3
    ef0c:	e51f34b0 	ldr	r3, [pc, #-1200]	; ea64 <run+0xe7c>
    ef10:	e7943003 	ldr	r3, [r4, r3]
    ef14:	e7933102 	ldr	r3, [r3, r2, lsl #2]
    ef18:	e0255003 	eor	r5, r5, r3
    ef1c:	e24b3070 	sub	r3, fp, #112	; 0x70
    ef20:	e3a0100f 	mov	r1, #15
    ef24:	e1a00003 	mov	r0, r3
    ef28:	ebfffab9 	bl	da14 <g>
    ef2c:	e1a03000 	mov	r3, r0
    ef30:	e1a02003 	mov	r2, r3
    ef34:	e51f34cc 	ldr	r3, [pc, #-1228]	; ea70 <run+0xe88>
    ef38:	e7943003 	ldr	r3, [r4, r3]
    ef3c:	e7933102 	ldr	r3, [r3, r2, lsl #2]
    ef40:	e0255003 	eor	r5, r5, r3
    ef44:	e24b3070 	sub	r3, fp, #112	; 0x70
    ef48:	e3a0100c 	mov	r1, #12
    ef4c:	e1a00003 	mov	r0, r3
    ef50:	ebfffaaf 	bl	da14 <g>
    ef54:	e1a03000 	mov	r3, r0
    ef58:	e1a02003 	mov	r2, r3
    ef5c:	e51f34fc 	ldr	r3, [pc, #-1276]	; ea68 <run+0xe80>
    ef60:	e7943003 	ldr	r3, [r4, r3]
    ef64:	e7933102 	ldr	r3, [r3, r2, lsl #2]
    ef68:	e0255003 	eor	r5, r5, r3
    ef6c:	e24b3070 	sub	r3, fp, #112	; 0x70
    ef70:	e3a0100e 	mov	r1, #14
    ef74:	e1a00003 	mov	r0, r3
    ef78:	ebfffaa5 	bl	da14 <g>
    ef7c:	e1a03000 	mov	r3, r0
    ef80:	e1a02003 	mov	r2, r3
    ef84:	e51f3520 	ldr	r3, [pc, #-1312]	; ea6c <run+0xe84>
    ef88:	e7943003 	ldr	r3, [r4, r3]
    ef8c:	e7933102 	ldr	r3, [r3, r2, lsl #2]
    ef90:	e0255003 	eor	r5, r5, r3
    ef94:	e24b3070 	sub	r3, fp, #112	; 0x70
    ef98:	e3a01008 	mov	r1, #8
    ef9c:	e1a00003 	mov	r0, r3
    efa0:	ebfffa9b 	bl	da14 <g>
    efa4:	e1a03000 	mov	r3, r0
    efa8:	e1a02003 	mov	r2, r3
    efac:	e51f354c 	ldr	r3, [pc, #-1356]	; ea68 <run+0xe80>
    efb0:	e7943003 	ldr	r3, [r4, r3]
    efb4:	e7933102 	ldr	r3, [r3, r2, lsl #2]
    efb8:	e0233005 	eor	r3, r3, r5
    efbc:	e50b3080 	str	r3, [fp, #-128]	; 0xffffff80
    efc0:	e51b5068 	ldr	r5, [fp, #-104]	; 0xffffff98
    efc4:	e24b3080 	sub	r3, fp, #128	; 0x80
    efc8:	e3a01000 	mov	r1, #0
    efcc:	e1a00003 	mov	r0, r3
    efd0:	ebfffa8f 	bl	da14 <g>
    efd4:	e1a03000 	mov	r3, r0
    efd8:	e1a02003 	mov	r2, r3
    efdc:	e51f3580 	ldr	r3, [pc, #-1408]	; ea64 <run+0xe7c>
    efe0:	e7943003 	ldr	r3, [r4, r3]
    efe4:	e7933102 	ldr	r3, [r3, r2, lsl #2]
    efe8:	e0255003 	eor	r5, r5, r3
    efec:	e24b3080 	sub	r3, fp, #128	; 0x80
    eff0:	e3a01002 	mov	r1, #2
    eff4:	e1a00003 	mov	r0, r3
    eff8:	ebfffa85 	bl	da14 <g>
    effc:	e1a03000 	mov	r3, r0
    f000:	e1a02003 	mov	r2, r3
    f004:	e51f359c 	ldr	r3, [pc, #-1436]	; ea70 <run+0xe88>
    f008:	e7943003 	ldr	r3, [r4, r3]
    f00c:	e7933102 	ldr	r3, [r3, r2, lsl #2]
    f010:	e0255003 	eor	r5, r5, r3
    f014:	e24b3080 	sub	r3, fp, #128	; 0x80
    f018:	e3a01001 	mov	r1, #1
    f01c:	e1a00003 	mov	r0, r3
    f020:	ebfffa7b 	bl	da14 <g>
    f024:	e1a03000 	mov	r3, r0
    f028:	e1a02003 	mov	r2, r3
    f02c:	e51f35cc 	ldr	r3, [pc, #-1484]	; ea68 <run+0xe80>
    f030:	e7943003 	ldr	r3, [r4, r3]
    f034:	e7933102 	ldr	r3, [r3, r2, lsl #2]
    f038:	e0255003 	eor	r5, r5, r3
    f03c:	e24b3080 	sub	r3, fp, #128	; 0x80
    f040:	e3a01003 	mov	r1, #3
    f044:	e1a00003 	mov	r0, r3
    f048:	ebfffa71 	bl	da14 <g>
    f04c:	e1a03000 	mov	r3, r0
    f050:	e1a02003 	mov	r2, r3
    f054:	e51f35f0 	ldr	r3, [pc, #-1520]	; ea6c <run+0xe84>
    f058:	e7943003 	ldr	r3, [r4, r3]
    f05c:	e7933102 	ldr	r3, [r3, r2, lsl #2]
    f060:	e0255003 	eor	r5, r5, r3
    f064:	e24b3070 	sub	r3, fp, #112	; 0x70
    f068:	e3a0100a 	mov	r1, #10
    f06c:	e1a00003 	mov	r0, r3
    f070:	ebfffa67 	bl	da14 <g>
    f074:	e1a03000 	mov	r3, r0
    f078:	e1a02003 	mov	r2, r3
    f07c:	e51f3618 	ldr	r3, [pc, #-1560]	; ea6c <run+0xe84>
    f080:	e7943003 	ldr	r3, [r4, r3]
    f084:	e7933102 	ldr	r3, [r3, r2, lsl #2]
    f088:	e0233005 	eor	r3, r3, r5
    f08c:	e50b307c 	str	r3, [fp, #-124]	; 0xffffff84
    f090:	e51b5064 	ldr	r5, [fp, #-100]	; 0xffffff9c
    f094:	e24b3080 	sub	r3, fp, #128	; 0x80
    f098:	e3a01007 	mov	r1, #7
    f09c:	e1a00003 	mov	r0, r3
    f0a0:	ebfffa5b 	bl	da14 <g>
    f0a4:	e1a03000 	mov	r3, r0
    f0a8:	e1a02003 	mov	r2, r3
    f0ac:	e51f3650 	ldr	r3, [pc, #-1616]	; ea64 <run+0xe7c>
    f0b0:	e7943003 	ldr	r3, [r4, r3]
    f0b4:	e7933102 	ldr	r3, [r3, r2, lsl #2]
    f0b8:	e0255003 	eor	r5, r5, r3
    f0bc:	e24b3080 	sub	r3, fp, #128	; 0x80
    f0c0:	e3a01006 	mov	r1, #6
    f0c4:	e1a00003 	mov	r0, r3
    f0c8:	ebfffa51 	bl	da14 <g>
    f0cc:	e1a03000 	mov	r3, r0
    f0d0:	e1a02003 	mov	r2, r3
    f0d4:	e51f366c 	ldr	r3, [pc, #-1644]	; ea70 <run+0xe88>
    f0d8:	e7943003 	ldr	r3, [r4, r3]
    f0dc:	e7933102 	ldr	r3, [r3, r2, lsl #2]
    f0e0:	e0255003 	eor	r5, r5, r3
    f0e4:	e24b3080 	sub	r3, fp, #128	; 0x80
    f0e8:	e3a01005 	mov	r1, #5
    f0ec:	e1a00003 	mov	r0, r3
    f0f0:	ebfffa47 	bl	da14 <g>
    f0f4:	e1a03000 	mov	r3, r0
    f0f8:	e1a02003 	mov	r2, r3
    f0fc:	e51f369c 	ldr	r3, [pc, #-1692]	; ea68 <run+0xe80>
    f100:	e7943003 	ldr	r3, [r4, r3]
    f104:	e7933102 	ldr	r3, [r3, r2, lsl #2]
    f108:	e0255003 	eor	r5, r5, r3
    f10c:	e24b3080 	sub	r3, fp, #128	; 0x80
    f110:	e3a01004 	mov	r1, #4
    f114:	e1a00003 	mov	r0, r3
    f118:	ebfffa3d 	bl	da14 <g>
    f11c:	e1a03000 	mov	r3, r0
    f120:	e1a02003 	mov	r2, r3
    f124:	e51f36c0 	ldr	r3, [pc, #-1728]	; ea6c <run+0xe84>
    f128:	e7943003 	ldr	r3, [r4, r3]
    f12c:	e7933102 	ldr	r3, [r3, r2, lsl #2]
    f130:	e0255003 	eor	r5, r5, r3
    f134:	e24b3070 	sub	r3, fp, #112	; 0x70
    f138:	e3a01009 	mov	r1, #9
    f13c:	e1a00003 	mov	r0, r3
    f140:	ebfffa33 	bl	da14 <g>
    f144:	e1a03000 	mov	r3, r0
    f148:	e1a02003 	mov	r2, r3
    f14c:	e51f36f0 	ldr	r3, [pc, #-1776]	; ea64 <run+0xe7c>
    f150:	e7943003 	ldr	r3, [r4, r3]
    f154:	e7933102 	ldr	r3, [r3, r2, lsl #2]
    f158:	e0233005 	eor	r3, r3, r5
    f15c:	e50b3078 	str	r3, [fp, #-120]	; 0xffffff88
    f160:	e51b506c 	ldr	r5, [fp, #-108]	; 0xffffff94
    f164:	e24b3080 	sub	r3, fp, #128	; 0x80
    f168:	e3a0100a 	mov	r1, #10
    f16c:	e1a00003 	mov	r0, r3
    f170:	ebfffa27 	bl	da14 <g>
    f174:	e1a03000 	mov	r3, r0
    f178:	e1a02003 	mov	r2, r3
    f17c:	e51f3720 	ldr	r3, [pc, #-1824]	; ea64 <run+0xe7c>
    f180:	e7943003 	ldr	r3, [r4, r3]
    f184:	e7933102 	ldr	r3, [r3, r2, lsl #2]
    f188:	e0255003 	eor	r5, r5, r3
    f18c:	e24b3080 	sub	r3, fp, #128	; 0x80
    f190:	e3a01009 	mov	r1, #9
    f194:	e1a00003 	mov	r0, r3
    f198:	ebfffa1d 	bl	da14 <g>
    f19c:	e1a03000 	mov	r3, r0
    f1a0:	e1a02003 	mov	r2, r3
    f1a4:	e51f373c 	ldr	r3, [pc, #-1852]	; ea70 <run+0xe88>
    f1a8:	e7943003 	ldr	r3, [r4, r3]
    f1ac:	e7933102 	ldr	r3, [r3, r2, lsl #2]
    f1b0:	e0255003 	eor	r5, r5, r3
    f1b4:	e24b3080 	sub	r3, fp, #128	; 0x80
    f1b8:	e3a0100b 	mov	r1, #11
    f1bc:	e1a00003 	mov	r0, r3
    f1c0:	ebfffa13 	bl	da14 <g>
    f1c4:	e1a03000 	mov	r3, r0
    f1c8:	e1a02003 	mov	r2, r3
    f1cc:	e51f376c 	ldr	r3, [pc, #-1900]	; ea68 <run+0xe80>
    f1d0:	e7943003 	ldr	r3, [r4, r3]
    f1d4:	e7933102 	ldr	r3, [r3, r2, lsl #2]
    f1d8:	e0255003 	eor	r5, r5, r3
    f1dc:	e24b3080 	sub	r3, fp, #128	; 0x80
    f1e0:	e3a01008 	mov	r1, #8
    f1e4:	e1a00003 	mov	r0, r3
    f1e8:	ebfffa09 	bl	da14 <g>
    f1ec:	e1a03000 	mov	r3, r0
    f1f0:	e1a02003 	mov	r2, r3
    f1f4:	e51f3790 	ldr	r3, [pc, #-1936]	; ea6c <run+0xe84>
    f1f8:	e7943003 	ldr	r3, [r4, r3]
    f1fc:	e7933102 	ldr	r3, [r3, r2, lsl #2]
    f200:	e0255003 	eor	r5, r5, r3
    f204:	e24b3070 	sub	r3, fp, #112	; 0x70
    f208:	e3a0100b 	mov	r1, #11
    f20c:	e1a00003 	mov	r0, r3
    f210:	ebfff9ff 	bl	da14 <g>
    f214:	e1a03000 	mov	r3, r0
    f218:	e1a02003 	mov	r2, r3
    f21c:	e51f37b4 	ldr	r3, [pc, #-1972]	; ea70 <run+0xe88>
    f220:	e7943003 	ldr	r3, [r4, r3]
    f224:	e7933102 	ldr	r3, [r3, r2, lsl #2]
    f228:	e0233005 	eor	r3, r3, r5
    f22c:	e50b3074 	str	r3, [fp, #-116]	; 0xffffff8c
    f230:	e59b3008 	ldr	r3, [fp, #8]
    f234:	e3530000 	cmp	r3, #0
    f238:	0a00001a 	beq	f2a8 <run+0x16c0>
    f23c:	e51f37f8 	ldr	r3, [pc, #-2040]	; ea4c <run+0xe64>
    f240:	e08f3003 	add	r3, pc, r3
    f244:	e1a00003 	mov	r0, r3
    f248:	eb001649 	bl	14b74 <tfp_printf>
    f24c:	e3a03000 	mov	r3, #0
    f250:	e50b303c 	str	r3, [fp, #-60]	; 0xffffffc4
    f254:	ea00000c 	b	f28c <run+0x16a4>
    f258:	e51b303c 	ldr	r3, [fp, #-60]	; 0xffffffc4
    f25c:	e1a03103 	lsl	r3, r3, #2
    f260:	e2433014 	sub	r3, r3, #20
    f264:	e083300b 	add	r3, r3, fp
    f268:	e513306c 	ldr	r3, [r3, #-108]	; 0xffffff94
    f26c:	e1a01003 	mov	r1, r3
    f270:	e51f3828 	ldr	r3, [pc, #-2088]	; ea50 <run+0xe68>
    f274:	e08f3003 	add	r3, pc, r3
    f278:	e1a00003 	mov	r0, r3
    f27c:	eb00163c 	bl	14b74 <tfp_printf>
    f280:	e51b303c 	ldr	r3, [fp, #-60]	; 0xffffffc4
    f284:	e2833001 	add	r3, r3, #1
    f288:	e50b303c 	str	r3, [fp, #-60]	; 0xffffffc4
    f28c:	e51b303c 	ldr	r3, [fp, #-60]	; 0xffffffc4
    f290:	e3530003 	cmp	r3, #3
    f294:	daffffef 	ble	f258 <run+0x1670>
    f298:	e51f384c 	ldr	r3, [pc, #-2124]	; ea54 <run+0xe6c>
    f29c:	e08f3003 	add	r3, pc, r3
    f2a0:	e1a00003 	mov	r0, r3
    f2a4:	eb001632 	bl	14b74 <tfp_printf>
    f2a8:	e24b3080 	sub	r3, fp, #128	; 0x80
    f2ac:	e3a01003 	mov	r1, #3
    f2b0:	e1a00003 	mov	r0, r3
    f2b4:	ebfff9d6 	bl	da14 <g>
    f2b8:	e1a03000 	mov	r3, r0
    f2bc:	e1a02003 	mov	r2, r3
    f2c0:	e51f3864 	ldr	r3, [pc, #-2148]	; ea64 <run+0xe7c>
    f2c4:	e7943003 	ldr	r3, [r4, r3]
    f2c8:	e7935102 	ldr	r5, [r3, r2, lsl #2]
    f2cc:	e24b3080 	sub	r3, fp, #128	; 0x80
    f2d0:	e3a01002 	mov	r1, #2
    f2d4:	e1a00003 	mov	r0, r3
    f2d8:	ebfff9cd 	bl	da14 <g>
    f2dc:	e1a03000 	mov	r3, r0
    f2e0:	e1a02003 	mov	r2, r3
    f2e4:	e51f387c 	ldr	r3, [pc, #-2172]	; ea70 <run+0xe88>
    f2e8:	e7943003 	ldr	r3, [r4, r3]
    f2ec:	e7933102 	ldr	r3, [r3, r2, lsl #2]
    f2f0:	e0255003 	eor	r5, r5, r3
    f2f4:	e24b3080 	sub	r3, fp, #128	; 0x80
    f2f8:	e3a0100c 	mov	r1, #12
    f2fc:	e1a00003 	mov	r0, r3
    f300:	ebfff9c3 	bl	da14 <g>
    f304:	e1a03000 	mov	r3, r0
    f308:	e1a02003 	mov	r2, r3
    f30c:	e51f38ac 	ldr	r3, [pc, #-2220]	; ea68 <run+0xe80>
    f310:	e7943003 	ldr	r3, [r4, r3]
    f314:	e7933102 	ldr	r3, [r3, r2, lsl #2]
    f318:	e0255003 	eor	r5, r5, r3
    f31c:	e24b3080 	sub	r3, fp, #128	; 0x80
    f320:	e3a0100d 	mov	r1, #13
    f324:	e1a00003 	mov	r0, r3
    f328:	ebfff9b9 	bl	da14 <g>
    f32c:	e1a03000 	mov	r3, r0
    f330:	e1a02003 	mov	r2, r3
    f334:	e51f38d0 	ldr	r3, [pc, #-2256]	; ea6c <run+0xe84>
    f338:	e7943003 	ldr	r3, [r4, r3]
    f33c:	e7933102 	ldr	r3, [r3, r2, lsl #2]
    f340:	e0255003 	eor	r5, r5, r3
    f344:	e24b3080 	sub	r3, fp, #128	; 0x80
    f348:	e3a01009 	mov	r1, #9
    f34c:	e1a00003 	mov	r0, r3
    f350:	ebfff9af 	bl	da14 <g>
    f354:	e1a03000 	mov	r3, r0
    f358:	e1a02003 	mov	r2, r3
    f35c:	e51f3900 	ldr	r3, [pc, #-2304]	; ea64 <run+0xe7c>
    f360:	e7943003 	ldr	r3, [r4, r3]
    f364:	e7932102 	ldr	r2, [r3, r2, lsl #2]
    f368:	e51b301c 	ldr	r3, [fp, #-28]	; 0xffffffe4
    f36c:	e1a03203 	lsl	r3, r3, #4
    f370:	e2833008 	add	r3, r3, #8
    f374:	e0222005 	eor	r2, r2, r5
    f378:	e1a03103 	lsl	r3, r3, #2
    f37c:	e2433014 	sub	r3, r3, #20
    f380:	e083300b 	add	r3, r3, fp
    f384:	e50320ec 	str	r2, [r3, #-236]	; 0xffffff14
    f388:	e24b3080 	sub	r3, fp, #128	; 0x80
    f38c:	e3a01001 	mov	r1, #1
    f390:	e1a00003 	mov	r0, r3
    f394:	ebfff99e 	bl	da14 <g>
    f398:	e1a03000 	mov	r3, r0
    f39c:	e1a02003 	mov	r2, r3
    f3a0:	e51f3944 	ldr	r3, [pc, #-2372]	; ea64 <run+0xe7c>
    f3a4:	e7943003 	ldr	r3, [r4, r3]
    f3a8:	e7935102 	ldr	r5, [r3, r2, lsl #2]
    f3ac:	e24b3080 	sub	r3, fp, #128	; 0x80
    f3b0:	e3a01000 	mov	r1, #0
    f3b4:	e1a00003 	mov	r0, r3
    f3b8:	ebfff995 	bl	da14 <g>
    f3bc:	e1a03000 	mov	r3, r0
    f3c0:	e1a02003 	mov	r2, r3
    f3c4:	e51f395c 	ldr	r3, [pc, #-2396]	; ea70 <run+0xe88>
    f3c8:	e7943003 	ldr	r3, [r4, r3]
    f3cc:	e7933102 	ldr	r3, [r3, r2, lsl #2]
    f3d0:	e0255003 	eor	r5, r5, r3
    f3d4:	e24b3080 	sub	r3, fp, #128	; 0x80
    f3d8:	e3a0100e 	mov	r1, #14
    f3dc:	e1a00003 	mov	r0, r3
    f3e0:	ebfff98b 	bl	da14 <g>
    f3e4:	e1a03000 	mov	r3, r0
    f3e8:	e1a02003 	mov	r2, r3
    f3ec:	e51f398c 	ldr	r3, [pc, #-2444]	; ea68 <run+0xe80>
    f3f0:	e7943003 	ldr	r3, [r4, r3]
    f3f4:	e7933102 	ldr	r3, [r3, r2, lsl #2]
    f3f8:	e0255003 	eor	r5, r5, r3
    f3fc:	e24b3080 	sub	r3, fp, #128	; 0x80
    f400:	e3a0100f 	mov	r1, #15
    f404:	e1a00003 	mov	r0, r3
    f408:	ebfff981 	bl	da14 <g>
    f40c:	e1a03000 	mov	r3, r0
    f410:	e1a02003 	mov	r2, r3
    f414:	e51f39b0 	ldr	r3, [pc, #-2480]	; ea6c <run+0xe84>
    f418:	e7943003 	ldr	r3, [r4, r3]
    f41c:	e7933102 	ldr	r3, [r3, r2, lsl #2]
    f420:	e0255003 	eor	r5, r5, r3
    f424:	e24b3080 	sub	r3, fp, #128	; 0x80
    f428:	e3a0100c 	mov	r1, #12
    f42c:	e1a00003 	mov	r0, r3
    f430:	ebfff977 	bl	da14 <g>
    f434:	e1a03000 	mov	r3, r0
    f438:	e1a02003 	mov	r2, r3
    f43c:	e51f39d4 	ldr	r3, [pc, #-2516]	; ea70 <run+0xe88>
    f440:	e7943003 	ldr	r3, [r4, r3]
    f444:	e7932102 	ldr	r2, [r3, r2, lsl #2]
    f448:	e51b301c 	ldr	r3, [fp, #-28]	; 0xffffffe4
    f44c:	e1a03203 	lsl	r3, r3, #4
    f450:	e2833009 	add	r3, r3, #9
    f454:	e0222005 	eor	r2, r2, r5
    f458:	e1a03103 	lsl	r3, r3, #2
    f45c:	e2433014 	sub	r3, r3, #20
    f460:	e083300b 	add	r3, r3, fp
    f464:	e50320ec 	str	r2, [r3, #-236]	; 0xffffff14
    f468:	e24b3080 	sub	r3, fp, #128	; 0x80
    f46c:	e3a01007 	mov	r1, #7
    f470:	e1a00003 	mov	r0, r3
    f474:	ebfff966 	bl	da14 <g>
    f478:	e1a03000 	mov	r3, r0
    f47c:	e1a02003 	mov	r2, r3
    f480:	e51f3a24 	ldr	r3, [pc, #-2596]	; ea64 <run+0xe7c>
    f484:	e7943003 	ldr	r3, [r4, r3]
    f488:	e7935102 	ldr	r5, [r3, r2, lsl #2]
    f48c:	e24b3080 	sub	r3, fp, #128	; 0x80
    f490:	e3a01006 	mov	r1, #6
    f494:	e1a00003 	mov	r0, r3
    f498:	ebfff95d 	bl	da14 <g>
    f49c:	e1a03000 	mov	r3, r0
    f4a0:	e1a02003 	mov	r2, r3
    f4a4:	e51f3a3c 	ldr	r3, [pc, #-2620]	; ea70 <run+0xe88>
    f4a8:	e7943003 	ldr	r3, [r4, r3]
    f4ac:	e7933102 	ldr	r3, [r3, r2, lsl #2]
    f4b0:	e0255003 	eor	r5, r5, r3
    f4b4:	e24b3080 	sub	r3, fp, #128	; 0x80
    f4b8:	e3a01008 	mov	r1, #8
    f4bc:	e1a00003 	mov	r0, r3
    f4c0:	ebfff953 	bl	da14 <g>
    f4c4:	e1a03000 	mov	r3, r0
    f4c8:	e1a02003 	mov	r2, r3
    f4cc:	e51f3a6c 	ldr	r3, [pc, #-2668]	; ea68 <run+0xe80>
    f4d0:	e7943003 	ldr	r3, [r4, r3]
    f4d4:	e7933102 	ldr	r3, [r3, r2, lsl #2]
    f4d8:	e0255003 	eor	r5, r5, r3
    f4dc:	e24b3080 	sub	r3, fp, #128	; 0x80
    f4e0:	e3a01009 	mov	r1, #9
    f4e4:	e1a00003 	mov	r0, r3
    f4e8:	ebfff949 	bl	da14 <g>
    f4ec:	e1a03000 	mov	r3, r0
    f4f0:	e1a02003 	mov	r2, r3
    f4f4:	e51f3a90 	ldr	r3, [pc, #-2704]	; ea6c <run+0xe84>
    f4f8:	e7943003 	ldr	r3, [r4, r3]
    f4fc:	e7933102 	ldr	r3, [r3, r2, lsl #2]
    f500:	e0255003 	eor	r5, r5, r3
    f504:	e24b3080 	sub	r3, fp, #128	; 0x80
    f508:	e3a01002 	mov	r1, #2
    f50c:	e1a00003 	mov	r0, r3
    f510:	ebfff93f 	bl	da14 <g>
    f514:	e1a03000 	mov	r3, r0
    f518:	e1a02003 	mov	r2, r3
    f51c:	e51f3abc 	ldr	r3, [pc, #-2748]	; ea68 <run+0xe80>
    f520:	e7943003 	ldr	r3, [r4, r3]
    f524:	e7932102 	ldr	r2, [r3, r2, lsl #2]
    f528:	e51b301c 	ldr	r3, [fp, #-28]	; 0xffffffe4
    f52c:	e1a03203 	lsl	r3, r3, #4
    f530:	e283300a 	add	r3, r3, #10
    f534:	e0222005 	eor	r2, r2, r5
    f538:	e1a03103 	lsl	r3, r3, #2
    f53c:	e2433014 	sub	r3, r3, #20
    f540:	e083300b 	add	r3, r3, fp
    f544:	e50320ec 	str	r2, [r3, #-236]	; 0xffffff14
    f548:	e24b3080 	sub	r3, fp, #128	; 0x80
    f54c:	e3a01005 	mov	r1, #5
    f550:	e1a00003 	mov	r0, r3
    f554:	ebfff92e 	bl	da14 <g>
    f558:	e1a03000 	mov	r3, r0
    f55c:	e1a02003 	mov	r2, r3
    f560:	e51f3b04 	ldr	r3, [pc, #-2820]	; ea64 <run+0xe7c>
    f564:	e7943003 	ldr	r3, [r4, r3]
    f568:	e7935102 	ldr	r5, [r3, r2, lsl #2]
    f56c:	e24b3080 	sub	r3, fp, #128	; 0x80
    f570:	e3a01004 	mov	r1, #4
    f574:	e1a00003 	mov	r0, r3
    f578:	ebfff925 	bl	da14 <g>
    f57c:	e1a03000 	mov	r3, r0
    f580:	e1a02003 	mov	r2, r3
    f584:	e51f3b1c 	ldr	r3, [pc, #-2844]	; ea70 <run+0xe88>
    f588:	e7943003 	ldr	r3, [r4, r3]
    f58c:	e7933102 	ldr	r3, [r3, r2, lsl #2]
    f590:	e0255003 	eor	r5, r5, r3
    f594:	e24b3080 	sub	r3, fp, #128	; 0x80
    f598:	e3a0100a 	mov	r1, #10
    f59c:	e1a00003 	mov	r0, r3
    f5a0:	ebfff91b 	bl	da14 <g>
    f5a4:	e1a03000 	mov	r3, r0
    f5a8:	e1a02003 	mov	r2, r3
    f5ac:	e51f3b4c 	ldr	r3, [pc, #-2892]	; ea68 <run+0xe80>
    f5b0:	e7943003 	ldr	r3, [r4, r3]
    f5b4:	e7933102 	ldr	r3, [r3, r2, lsl #2]
    f5b8:	e0255003 	eor	r5, r5, r3
    f5bc:	e24b3080 	sub	r3, fp, #128	; 0x80
    f5c0:	e3a0100b 	mov	r1, #11
    f5c4:	e1a00003 	mov	r0, r3
    f5c8:	ebfff911 	bl	da14 <g>
    f5cc:	e1a03000 	mov	r3, r0
    f5d0:	e1a02003 	mov	r2, r3
    f5d4:	e51f3b70 	ldr	r3, [pc, #-2928]	; ea6c <run+0xe84>
    f5d8:	e7943003 	ldr	r3, [r4, r3]
    f5dc:	e7933102 	ldr	r3, [r3, r2, lsl #2]
    f5e0:	e0255003 	eor	r5, r5, r3
    f5e4:	e24b3080 	sub	r3, fp, #128	; 0x80
    f5e8:	e3a01006 	mov	r1, #6
    f5ec:	e1a00003 	mov	r0, r3
    f5f0:	ebfff907 	bl	da14 <g>
    f5f4:	e1a03000 	mov	r3, r0
    f5f8:	e1a02003 	mov	r2, r3
    f5fc:	e51f3b98 	ldr	r3, [pc, #-2968]	; ea6c <run+0xe84>
    f600:	e7943003 	ldr	r3, [r4, r3]
    f604:	e7932102 	ldr	r2, [r3, r2, lsl #2]
    f608:	e51b301c 	ldr	r3, [fp, #-28]	; 0xffffffe4
    f60c:	e1a03203 	lsl	r3, r3, #4
    f610:	e283300b 	add	r3, r3, #11
    f614:	e0222005 	eor	r2, r2, r5
    f618:	e1a03103 	lsl	r3, r3, #2
    f61c:	e2433014 	sub	r3, r3, #20
    f620:	e083300b 	add	r3, r3, fp
    f624:	e50320ec 	str	r2, [r3, #-236]	; 0xffffff14
    f628:	e59b3008 	ldr	r3, [fp, #8]
    f62c:	e3530000 	cmp	r3, #0
    f630:	0a000024 	beq	f6c8 <run+0x1ae0>
    f634:	e51b301c 	ldr	r3, [fp, #-28]	; 0xffffffe4
    f638:	e1a03203 	lsl	r3, r3, #4
    f63c:	e2831008 	add	r1, r3, #8
    f640:	e51b301c 	ldr	r3, [fp, #-28]	; 0xffffffe4
    f644:	e1a03203 	lsl	r3, r3, #4
    f648:	e283300b 	add	r3, r3, #11
    f64c:	e1a02003 	mov	r2, r3
    f650:	e51f3c00 	ldr	r3, [pc, #-3072]	; ea58 <run+0xe70>
    f654:	e08f3003 	add	r3, pc, r3
    f658:	e1a00003 	mov	r0, r3
    f65c:	eb001544 	bl	14b74 <tfp_printf>
    f660:	e3a03008 	mov	r3, #8
    f664:	e50b3040 	str	r3, [fp, #-64]	; 0xffffffc0
    f668:	ea00000f 	b	f6ac <run+0x1ac4>
    f66c:	e51b301c 	ldr	r3, [fp, #-28]	; 0xffffffe4
    f670:	e1a02203 	lsl	r2, r3, #4
    f674:	e51b3040 	ldr	r3, [fp, #-64]	; 0xffffffc0
    f678:	e0823003 	add	r3, r2, r3
    f67c:	e1a03103 	lsl	r3, r3, #2
    f680:	e2433014 	sub	r3, r3, #20
    f684:	e083300b 	add	r3, r3, fp
    f688:	e51330ec 	ldr	r3, [r3, #-236]	; 0xffffff14
    f68c:	e1a01003 	mov	r1, r3
    f690:	e51f3c3c 	ldr	r3, [pc, #-3132]	; ea5c <run+0xe74>
    f694:	e08f3003 	add	r3, pc, r3
    f698:	e1a00003 	mov	r0, r3
    f69c:	eb001534 	bl	14b74 <tfp_printf>
    f6a0:	e51b3040 	ldr	r3, [fp, #-64]	; 0xffffffc0
    f6a4:	e2833001 	add	r3, r3, #1
    f6a8:	e50b3040 	str	r3, [fp, #-64]	; 0xffffffc0
    f6ac:	e51b3040 	ldr	r3, [fp, #-64]	; 0xffffffc0
    f6b0:	e353000b 	cmp	r3, #11
    f6b4:	daffffec 	ble	f66c <run+0x1a84>
    f6b8:	e51f3c60 	ldr	r3, [pc, #-3168]	; ea60 <run+0xe78>
    f6bc:	e08f3003 	add	r3, pc, r3
    f6c0:	e1a00003 	mov	r0, r3
    f6c4:	eb00152a 	bl	14b74 <tfp_printf>
    f6c8:	e51b5078 	ldr	r5, [fp, #-120]	; 0xffffff88
    f6cc:	e24b3080 	sub	r3, fp, #128	; 0x80
    f6d0:	e3a01005 	mov	r1, #5
    f6d4:	e1a00003 	mov	r0, r3
    f6d8:	ebfff8cd 	bl	da14 <g>
    f6dc:	e1a03000 	mov	r3, r0
    f6e0:	e1a02003 	mov	r2, r3
    f6e4:	e51f3c88 	ldr	r3, [pc, #-3208]	; ea64 <run+0xe7c>
    f6e8:	e7943003 	ldr	r3, [r4, r3]
    f6ec:	e7933102 	ldr	r3, [r3, r2, lsl #2]
    f6f0:	e0255003 	eor	r5, r5, r3
    f6f4:	e24b3080 	sub	r3, fp, #128	; 0x80
    f6f8:	e3a01007 	mov	r1, #7
    f6fc:	e1a00003 	mov	r0, r3
    f700:	ebfff8c3 	bl	da14 <g>
    f704:	e1a03000 	mov	r3, r0
    f708:	e1a02003 	mov	r2, r3
    f70c:	e51f3ca4 	ldr	r3, [pc, #-3236]	; ea70 <run+0xe88>
    f710:	e7943003 	ldr	r3, [r4, r3]
    f714:	e7933102 	ldr	r3, [r3, r2, lsl #2]
    f718:	e0255003 	eor	r5, r5, r3
    f71c:	e24b3080 	sub	r3, fp, #128	; 0x80
    f720:	e3a01004 	mov	r1, #4
    f724:	e1a00003 	mov	r0, r3
    f728:	ebfff8b9 	bl	da14 <g>
    f72c:	e1a03000 	mov	r3, r0
    f730:	e1a02003 	mov	r2, r3
    f734:	e51f3cd4 	ldr	r3, [pc, #-3284]	; ea68 <run+0xe80>
    f738:	e7943003 	ldr	r3, [r4, r3]
    f73c:	e7933102 	ldr	r3, [r3, r2, lsl #2]
    f740:	e0255003 	eor	r5, r5, r3
    f744:	e24b3080 	sub	r3, fp, #128	; 0x80
    f748:	e3a01006 	mov	r1, #6
    f74c:	e1a00003 	mov	r0, r3
    f750:	ebfff8af 	bl	da14 <g>
    f754:	e1a03000 	mov	r3, r0
    f758:	e1a02003 	mov	r2, r3
    f75c:	e51f3cf8 	ldr	r3, [pc, #-3320]	; ea6c <run+0xe84>
    f760:	e7943003 	ldr	r3, [r4, r3]
    f764:	e7933102 	ldr	r3, [r3, r2, lsl #2]
    f768:	e0255003 	eor	r5, r5, r3
    f76c:	e24b3080 	sub	r3, fp, #128	; 0x80
    f770:	e3a01000 	mov	r1, #0
    f774:	e1a00003 	mov	r0, r3
    f778:	ebfff8a5 	bl	da14 <g>
    f77c:	e1a03000 	mov	r3, r0
    f780:	e1a02003 	mov	r2, r3
    f784:	e51f3d24 	ldr	r3, [pc, #-3364]	; ea68 <run+0xe80>
    f788:	e7943003 	ldr	r3, [r4, r3]
    f78c:	e7933102 	ldr	r3, [r3, r2, lsl #2]
    f790:	e0233005 	eor	r3, r3, r5
    f794:	e50b3070 	str	r3, [fp, #-112]	; 0xffffff90
    f798:	e51b5080 	ldr	r5, [fp, #-128]	; 0xffffff80
    f79c:	e24b3070 	sub	r3, fp, #112	; 0x70
    f7a0:	e3a01000 	mov	r1, #0
    f7a4:	e1a00003 	mov	r0, r3
    f7a8:	ebfff899 	bl	da14 <g>
    f7ac:	e1a03000 	mov	r3, r0
    f7b0:	e1a02003 	mov	r2, r3
    f7b4:	e51f3d58 	ldr	r3, [pc, #-3416]	; ea64 <run+0xe7c>
    f7b8:	e7943003 	ldr	r3, [r4, r3]
    f7bc:	e7933102 	ldr	r3, [r3, r2, lsl #2]
    f7c0:	e0255003 	eor	r5, r5, r3
    f7c4:	e24b3070 	sub	r3, fp, #112	; 0x70
    f7c8:	e3a01002 	mov	r1, #2
    f7cc:	e1a00003 	mov	r0, r3
    f7d0:	ebfff88f 	bl	da14 <g>
    f7d4:	e1a03000 	mov	r3, r0
    f7d8:	e1a02003 	mov	r2, r3
    f7dc:	e51f3d74 	ldr	r3, [pc, #-3444]	; ea70 <run+0xe88>
    f7e0:	e7943003 	ldr	r3, [r4, r3]
    f7e4:	e7933102 	ldr	r3, [r3, r2, lsl #2]
    f7e8:	e0255003 	eor	r5, r5, r3
    f7ec:	e24b3070 	sub	r3, fp, #112	; 0x70
    f7f0:	e3a01001 	mov	r1, #1
    f7f4:	e1a00003 	mov	r0, r3
    f7f8:	ebfff885 	bl	da14 <g>
    f7fc:	e1a03000 	mov	r3, r0
    f800:	e1a02003 	mov	r2, r3
    f804:	e51f3da4 	ldr	r3, [pc, #-3492]	; ea68 <run+0xe80>
    f808:	e7943003 	ldr	r3, [r4, r3]
    f80c:	e7933102 	ldr	r3, [r3, r2, lsl #2]
    f810:	e0255003 	eor	r5, r5, r3
    f814:	e24b3070 	sub	r3, fp, #112	; 0x70
    f818:	e3a01003 	mov	r1, #3
    f81c:	e1a00003 	mov	r0, r3
    f820:	ebfff87b 	bl	da14 <g>
    f824:	e1a03000 	mov	r3, r0
    f828:	e1a02003 	mov	r2, r3
    f82c:	e51f3dc8 	ldr	r3, [pc, #-3528]	; ea6c <run+0xe84>
    f830:	e7943003 	ldr	r3, [r4, r3]
    f834:	e7933102 	ldr	r3, [r3, r2, lsl #2]
    f838:	e0255003 	eor	r5, r5, r3
    f83c:	e24b3080 	sub	r3, fp, #128	; 0x80
    f840:	e3a01002 	mov	r1, #2
    f844:	e1a00003 	mov	r0, r3
    f848:	ebfff871 	bl	da14 <g>
    f84c:	e1a03000 	mov	r3, r0
    f850:	e1a02003 	mov	r2, r3
    f854:	e51f3df0 	ldr	r3, [pc, #-3568]	; ea6c <run+0xe84>
    f858:	e7943003 	ldr	r3, [r4, r3]
    f85c:	e7933102 	ldr	r3, [r3, r2, lsl #2]
    f860:	e0233005 	eor	r3, r3, r5
    f864:	e50b306c 	str	r3, [fp, #-108]	; 0xffffff94
    f868:	e51b507c 	ldr	r5, [fp, #-124]	; 0xffffff84
    f86c:	e24b3070 	sub	r3, fp, #112	; 0x70
    f870:	e3a01007 	mov	r1, #7
    f874:	e1a00003 	mov	r0, r3
    f878:	ebfff865 	bl	da14 <g>
    f87c:	e1a03000 	mov	r3, r0
    f880:	e1a02003 	mov	r2, r3
    f884:	e51f3e28 	ldr	r3, [pc, #-3624]	; ea64 <run+0xe7c>
    f888:	e7943003 	ldr	r3, [r4, r3]
    f88c:	e7933102 	ldr	r3, [r3, r2, lsl #2]
    f890:	e0255003 	eor	r5, r5, r3
    f894:	e24b3070 	sub	r3, fp, #112	; 0x70
    f898:	e3a01006 	mov	r1, #6
    f89c:	e1a00003 	mov	r0, r3
    f8a0:	ebfff85b 	bl	da14 <g>
    f8a4:	e1a03000 	mov	r3, r0
    f8a8:	e1a02003 	mov	r2, r3
    f8ac:	e51f3e44 	ldr	r3, [pc, #-3652]	; ea70 <run+0xe88>
    f8b0:	e7943003 	ldr	r3, [r4, r3]
    f8b4:	e7933102 	ldr	r3, [r3, r2, lsl #2]
    f8b8:	e0255003 	eor	r5, r5, r3
    f8bc:	e24b3070 	sub	r3, fp, #112	; 0x70
    f8c0:	e3a01005 	mov	r1, #5
    f8c4:	e1a00003 	mov	r0, r3
    f8c8:	ebfff851 	bl	da14 <g>
    f8cc:	e1a03000 	mov	r3, r0
    f8d0:	e1a02003 	mov	r2, r3
    f8d4:	e51f3e74 	ldr	r3, [pc, #-3700]	; ea68 <run+0xe80>
    f8d8:	e7943003 	ldr	r3, [r4, r3]
    f8dc:	e7933102 	ldr	r3, [r3, r2, lsl #2]
    f8e0:	e0255003 	eor	r5, r5, r3
    f8e4:	e24b3070 	sub	r3, fp, #112	; 0x70
    f8e8:	e3a01004 	mov	r1, #4
    f8ec:	e1a00003 	mov	r0, r3
    f8f0:	ebfff847 	bl	da14 <g>
    f8f4:	e1a03000 	mov	r3, r0
    f8f8:	e1a02003 	mov	r2, r3
    f8fc:	e51f3e98 	ldr	r3, [pc, #-3736]	; ea6c <run+0xe84>
    f900:	e7943003 	ldr	r3, [r4, r3]
    f904:	e7933102 	ldr	r3, [r3, r2, lsl #2]
    f908:	e0255003 	eor	r5, r5, r3
    f90c:	e24b3080 	sub	r3, fp, #128	; 0x80
    f910:	e3a01001 	mov	r1, #1
    f914:	e1a00003 	mov	r0, r3
    f918:	ebfff83d 	bl	da14 <g>
    f91c:	e1a03000 	mov	r3, r0
    f920:	e1a02003 	mov	r2, r3
    f924:	e51f3ec8 	ldr	r3, [pc, #-3784]	; ea64 <run+0xe7c>
    f928:	e7943003 	ldr	r3, [r4, r3]
    f92c:	e7933102 	ldr	r3, [r3, r2, lsl #2]
    f930:	e0233005 	eor	r3, r3, r5
    f934:	e50b3068 	str	r3, [fp, #-104]	; 0xffffff98
    f938:	e51b5074 	ldr	r5, [fp, #-116]	; 0xffffff8c
    f93c:	e24b3070 	sub	r3, fp, #112	; 0x70
    f940:	e3a0100a 	mov	r1, #10
    f944:	e1a00003 	mov	r0, r3
    f948:	ebfff831 	bl	da14 <g>
    f94c:	e1a03000 	mov	r3, r0
    f950:	e1a02003 	mov	r2, r3
    f954:	e51f3ef8 	ldr	r3, [pc, #-3832]	; ea64 <run+0xe7c>
    f958:	e7943003 	ldr	r3, [r4, r3]
    f95c:	e7933102 	ldr	r3, [r3, r2, lsl #2]
    f960:	e0255003 	eor	r5, r5, r3
    f964:	e24b3070 	sub	r3, fp, #112	; 0x70
    f968:	e3a01009 	mov	r1, #9
    f96c:	e1a00003 	mov	r0, r3
    f970:	ebfff827 	bl	da14 <g>
    f974:	e1a03000 	mov	r3, r0
    f978:	e1a02003 	mov	r2, r3
    f97c:	e51f3f14 	ldr	r3, [pc, #-3860]	; ea70 <run+0xe88>
    f980:	e7943003 	ldr	r3, [r4, r3]
    f984:	e7933102 	ldr	r3, [r3, r2, lsl #2]
    f988:	e0255003 	eor	r5, r5, r3
    f98c:	e24b3070 	sub	r3, fp, #112	; 0x70
    f990:	e3a0100b 	mov	r1, #11
    f994:	e1a00003 	mov	r0, r3
    f998:	ebfff81d 	bl	da14 <g>
    f99c:	e1a03000 	mov	r3, r0
    f9a0:	e1a02003 	mov	r2, r3
    f9a4:	e51f3f44 	ldr	r3, [pc, #-3908]	; ea68 <run+0xe80>
    f9a8:	e7943003 	ldr	r3, [r4, r3]
    f9ac:	e7933102 	ldr	r3, [r3, r2, lsl #2]
    f9b0:	e0255003 	eor	r5, r5, r3
    f9b4:	e24b3070 	sub	r3, fp, #112	; 0x70
    f9b8:	e3a01008 	mov	r1, #8
    f9bc:	e1a00003 	mov	r0, r3
    f9c0:	ebfff813 	bl	da14 <g>
    f9c4:	e1a03000 	mov	r3, r0
    f9c8:	e1a02003 	mov	r2, r3
    f9cc:	e51f3f68 	ldr	r3, [pc, #-3944]	; ea6c <run+0xe84>
    f9d0:	e7943003 	ldr	r3, [r4, r3]
    f9d4:	e7933102 	ldr	r3, [r3, r2, lsl #2]
    f9d8:	e0255003 	eor	r5, r5, r3
    f9dc:	e24b3080 	sub	r3, fp, #128	; 0x80
    f9e0:	e3a01003 	mov	r1, #3
    f9e4:	e1a00003 	mov	r0, r3
    f9e8:	ebfff809 	bl	da14 <g>
    f9ec:	e1a03000 	mov	r3, r0
    f9f0:	e1a02003 	mov	r2, r3
    f9f4:	e51f3f8c 	ldr	r3, [pc, #-3980]	; ea70 <run+0xe88>
    f9f8:	e7943003 	ldr	r3, [r4, r3]
    f9fc:	e7933102 	ldr	r3, [r3, r2, lsl #2]
    fa00:	e0233005 	eor	r3, r3, r5
    fa04:	e50b3064 	str	r3, [fp, #-100]	; 0xffffff9c
    fa08:	e59b3008 	ldr	r3, [fp, #8]
    fa0c:	e3530000 	cmp	r3, #0
    fa10:	0a00001a 	beq	fa80 <run+0x1e98>
    fa14:	e51f3fa8 	ldr	r3, [pc, #-4008]	; ea74 <run+0xe8c>
    fa18:	e08f3003 	add	r3, pc, r3
    fa1c:	e1a00003 	mov	r0, r3
    fa20:	eb001453 	bl	14b74 <tfp_printf>
    fa24:	e3a03000 	mov	r3, #0
    fa28:	e50b3044 	str	r3, [fp, #-68]	; 0xffffffbc
    fa2c:	ea00000c 	b	fa64 <run+0x1e7c>
    fa30:	e51b3044 	ldr	r3, [fp, #-68]	; 0xffffffbc
    fa34:	e1a03103 	lsl	r3, r3, #2
    fa38:	e2433014 	sub	r3, r3, #20
    fa3c:	e083300b 	add	r3, r3, fp
    fa40:	e513305c 	ldr	r3, [r3, #-92]	; 0xffffffa4
    fa44:	e1a01003 	mov	r1, r3
    fa48:	e51f3fd8 	ldr	r3, [pc, #-4056]	; ea78 <run+0xe90>
    fa4c:	e08f3003 	add	r3, pc, r3
    fa50:	e1a00003 	mov	r0, r3
    fa54:	eb001446 	bl	14b74 <tfp_printf>
    fa58:	e51b3044 	ldr	r3, [fp, #-68]	; 0xffffffbc
    fa5c:	e2833001 	add	r3, r3, #1
    fa60:	e50b3044 	str	r3, [fp, #-68]	; 0xffffffbc
    fa64:	e51b3044 	ldr	r3, [fp, #-68]	; 0xffffffbc
    fa68:	e3530003 	cmp	r3, #3
    fa6c:	daffffef 	ble	fa30 <run+0x1e48>
    fa70:	e51f3ffc 	ldr	r3, [pc, #-4092]	; ea7c <run+0xe94>
    fa74:	e08f3003 	add	r3, pc, r3
    fa78:	e1a00003 	mov	r0, r3
    fa7c:	eb00143c 	bl	14b74 <tfp_printf>
    fa80:	e24b3070 	sub	r3, fp, #112	; 0x70
    fa84:	e3a01008 	mov	r1, #8
    fa88:	e1a00003 	mov	r0, r3
    fa8c:	ebfff7e0 	bl	da14 <g>
    fa90:	e1a03000 	mov	r3, r0
    fa94:	e1a02003 	mov	r2, r3
    fa98:	e59f3d90 	ldr	r3, [pc, #3472]	; 10830 <run+0x2c48>
    fa9c:	e7943003 	ldr	r3, [r4, r3]
    faa0:	e7935102 	ldr	r5, [r3, r2, lsl #2]
    faa4:	e24b3070 	sub	r3, fp, #112	; 0x70
    faa8:	e3a01009 	mov	r1, #9
    faac:	e1a00003 	mov	r0, r3
    fab0:	ebfff7d7 	bl	da14 <g>
    fab4:	e1a03000 	mov	r3, r0
    fab8:	e1a02003 	mov	r2, r3
    fabc:	e59f3d70 	ldr	r3, [pc, #3440]	; 10834 <run+0x2c4c>
    fac0:	e7943003 	ldr	r3, [r4, r3]
    fac4:	e7933102 	ldr	r3, [r3, r2, lsl #2]
    fac8:	e0255003 	eor	r5, r5, r3
    facc:	e24b3070 	sub	r3, fp, #112	; 0x70
    fad0:	e3a01007 	mov	r1, #7
    fad4:	e1a00003 	mov	r0, r3
    fad8:	ebfff7cd 	bl	da14 <g>
    fadc:	e1a03000 	mov	r3, r0
    fae0:	e1a02003 	mov	r2, r3
    fae4:	e59f3d4c 	ldr	r3, [pc, #3404]	; 10838 <run+0x2c50>
    fae8:	e7943003 	ldr	r3, [r4, r3]
    faec:	e7933102 	ldr	r3, [r3, r2, lsl #2]
    faf0:	e0255003 	eor	r5, r5, r3
    faf4:	e24b3070 	sub	r3, fp, #112	; 0x70
    faf8:	e3a01006 	mov	r1, #6
    fafc:	e1a00003 	mov	r0, r3
    fb00:	ebfff7c3 	bl	da14 <g>
    fb04:	e1a03000 	mov	r3, r0
    fb08:	e1a02003 	mov	r2, r3
    fb0c:	e59f3d28 	ldr	r3, [pc, #3368]	; 1083c <run+0x2c54>
    fb10:	e7943003 	ldr	r3, [r4, r3]
    fb14:	e7933102 	ldr	r3, [r3, r2, lsl #2]
    fb18:	e0255003 	eor	r5, r5, r3
    fb1c:	e24b3070 	sub	r3, fp, #112	; 0x70
    fb20:	e3a01003 	mov	r1, #3
    fb24:	e1a00003 	mov	r0, r3
    fb28:	ebfff7b9 	bl	da14 <g>
    fb2c:	e1a03000 	mov	r3, r0
    fb30:	e1a02003 	mov	r2, r3
    fb34:	e59f3cf4 	ldr	r3, [pc, #3316]	; 10830 <run+0x2c48>
    fb38:	e7943003 	ldr	r3, [r4, r3]
    fb3c:	e7932102 	ldr	r2, [r3, r2, lsl #2]
    fb40:	e51b301c 	ldr	r3, [fp, #-28]	; 0xffffffe4
    fb44:	e1a03203 	lsl	r3, r3, #4
    fb48:	e283300c 	add	r3, r3, #12
    fb4c:	e0222005 	eor	r2, r2, r5
    fb50:	e1a03103 	lsl	r3, r3, #2
    fb54:	e2433014 	sub	r3, r3, #20
    fb58:	e083300b 	add	r3, r3, fp
    fb5c:	e50320ec 	str	r2, [r3, #-236]	; 0xffffff14
    fb60:	e24b3070 	sub	r3, fp, #112	; 0x70
    fb64:	e3a0100a 	mov	r1, #10
    fb68:	e1a00003 	mov	r0, r3
    fb6c:	ebfff7a8 	bl	da14 <g>
    fb70:	e1a03000 	mov	r3, r0
    fb74:	e1a02003 	mov	r2, r3
    fb78:	e59f3cb0 	ldr	r3, [pc, #3248]	; 10830 <run+0x2c48>
    fb7c:	e7943003 	ldr	r3, [r4, r3]
    fb80:	e7935102 	ldr	r5, [r3, r2, lsl #2]
    fb84:	e24b3070 	sub	r3, fp, #112	; 0x70
    fb88:	e3a0100b 	mov	r1, #11
    fb8c:	e1a00003 	mov	r0, r3
    fb90:	ebfff79f 	bl	da14 <g>
    fb94:	e1a03000 	mov	r3, r0
    fb98:	e1a02003 	mov	r2, r3
    fb9c:	e59f3c90 	ldr	r3, [pc, #3216]	; 10834 <run+0x2c4c>
    fba0:	e7943003 	ldr	r3, [r4, r3]
    fba4:	e7933102 	ldr	r3, [r3, r2, lsl #2]
    fba8:	e0255003 	eor	r5, r5, r3
    fbac:	e24b3070 	sub	r3, fp, #112	; 0x70
    fbb0:	e3a01005 	mov	r1, #5
    fbb4:	e1a00003 	mov	r0, r3
    fbb8:	ebfff795 	bl	da14 <g>
    fbbc:	e1a03000 	mov	r3, r0
    fbc0:	e1a02003 	mov	r2, r3
    fbc4:	e59f3c6c 	ldr	r3, [pc, #3180]	; 10838 <run+0x2c50>
    fbc8:	e7943003 	ldr	r3, [r4, r3]
    fbcc:	e7933102 	ldr	r3, [r3, r2, lsl #2]
    fbd0:	e0255003 	eor	r5, r5, r3
    fbd4:	e24b3070 	sub	r3, fp, #112	; 0x70
    fbd8:	e3a01004 	mov	r1, #4
    fbdc:	e1a00003 	mov	r0, r3
    fbe0:	ebfff78b 	bl	da14 <g>
    fbe4:	e1a03000 	mov	r3, r0
    fbe8:	e1a02003 	mov	r2, r3
    fbec:	e59f3c48 	ldr	r3, [pc, #3144]	; 1083c <run+0x2c54>
    fbf0:	e7943003 	ldr	r3, [r4, r3]
    fbf4:	e7933102 	ldr	r3, [r3, r2, lsl #2]
    fbf8:	e0255003 	eor	r5, r5, r3
    fbfc:	e24b3070 	sub	r3, fp, #112	; 0x70
    fc00:	e3a01007 	mov	r1, #7
    fc04:	e1a00003 	mov	r0, r3
    fc08:	ebfff781 	bl	da14 <g>
    fc0c:	e1a03000 	mov	r3, r0
    fc10:	e1a02003 	mov	r2, r3
    fc14:	e59f3c18 	ldr	r3, [pc, #3096]	; 10834 <run+0x2c4c>
    fc18:	e7943003 	ldr	r3, [r4, r3]
    fc1c:	e7932102 	ldr	r2, [r3, r2, lsl #2]
    fc20:	e51b301c 	ldr	r3, [fp, #-28]	; 0xffffffe4
    fc24:	e1a03203 	lsl	r3, r3, #4
    fc28:	e283300d 	add	r3, r3, #13
    fc2c:	e0222005 	eor	r2, r2, r5
    fc30:	e1a03103 	lsl	r3, r3, #2
    fc34:	e2433014 	sub	r3, r3, #20
    fc38:	e083300b 	add	r3, r3, fp
    fc3c:	e50320ec 	str	r2, [r3, #-236]	; 0xffffff14
    fc40:	e24b3070 	sub	r3, fp, #112	; 0x70
    fc44:	e3a0100c 	mov	r1, #12
    fc48:	e1a00003 	mov	r0, r3
    fc4c:	ebfff770 	bl	da14 <g>
    fc50:	e1a03000 	mov	r3, r0
    fc54:	e1a02003 	mov	r2, r3
    fc58:	e59f3bd0 	ldr	r3, [pc, #3024]	; 10830 <run+0x2c48>
    fc5c:	e7943003 	ldr	r3, [r4, r3]
    fc60:	e7935102 	ldr	r5, [r3, r2, lsl #2]
    fc64:	e24b3070 	sub	r3, fp, #112	; 0x70
    fc68:	e3a0100d 	mov	r1, #13
    fc6c:	e1a00003 	mov	r0, r3
    fc70:	ebfff767 	bl	da14 <g>
    fc74:	e1a03000 	mov	r3, r0
    fc78:	e1a02003 	mov	r2, r3
    fc7c:	e59f3bb0 	ldr	r3, [pc, #2992]	; 10834 <run+0x2c4c>
    fc80:	e7943003 	ldr	r3, [r4, r3]
    fc84:	e7933102 	ldr	r3, [r3, r2, lsl #2]
    fc88:	e0255003 	eor	r5, r5, r3
    fc8c:	e24b3070 	sub	r3, fp, #112	; 0x70
    fc90:	e3a01003 	mov	r1, #3
    fc94:	e1a00003 	mov	r0, r3
    fc98:	ebfff75d 	bl	da14 <g>
    fc9c:	e1a03000 	mov	r3, r0
    fca0:	e1a02003 	mov	r2, r3
    fca4:	e59f3b8c 	ldr	r3, [pc, #2956]	; 10838 <run+0x2c50>
    fca8:	e7943003 	ldr	r3, [r4, r3]
    fcac:	e7933102 	ldr	r3, [r3, r2, lsl #2]
    fcb0:	e0255003 	eor	r5, r5, r3
    fcb4:	e24b3070 	sub	r3, fp, #112	; 0x70
    fcb8:	e3a01002 	mov	r1, #2
    fcbc:	e1a00003 	mov	r0, r3
    fcc0:	ebfff753 	bl	da14 <g>
    fcc4:	e1a03000 	mov	r3, r0
    fcc8:	e1a02003 	mov	r2, r3
    fccc:	e59f3b68 	ldr	r3, [pc, #2920]	; 1083c <run+0x2c54>
    fcd0:	e7943003 	ldr	r3, [r4, r3]
    fcd4:	e7933102 	ldr	r3, [r3, r2, lsl #2]
    fcd8:	e0255003 	eor	r5, r5, r3
    fcdc:	e24b3070 	sub	r3, fp, #112	; 0x70
    fce0:	e3a01008 	mov	r1, #8
    fce4:	e1a00003 	mov	r0, r3
    fce8:	ebfff749 	bl	da14 <g>
    fcec:	e1a03000 	mov	r3, r0
    fcf0:	e1a02003 	mov	r2, r3
    fcf4:	e59f3b3c 	ldr	r3, [pc, #2876]	; 10838 <run+0x2c50>
    fcf8:	e7943003 	ldr	r3, [r4, r3]
    fcfc:	e7932102 	ldr	r2, [r3, r2, lsl #2]
    fd00:	e51b301c 	ldr	r3, [fp, #-28]	; 0xffffffe4
    fd04:	e1a03203 	lsl	r3, r3, #4
    fd08:	e283300e 	add	r3, r3, #14
    fd0c:	e0222005 	eor	r2, r2, r5
    fd10:	e1a03103 	lsl	r3, r3, #2
    fd14:	e2433014 	sub	r3, r3, #20
    fd18:	e083300b 	add	r3, r3, fp
    fd1c:	e50320ec 	str	r2, [r3, #-236]	; 0xffffff14
    fd20:	e24b3070 	sub	r3, fp, #112	; 0x70
    fd24:	e3a0100e 	mov	r1, #14
    fd28:	e1a00003 	mov	r0, r3
    fd2c:	ebfff738 	bl	da14 <g>
    fd30:	e1a03000 	mov	r3, r0
    fd34:	e1a02003 	mov	r2, r3
    fd38:	e59f3af0 	ldr	r3, [pc, #2800]	; 10830 <run+0x2c48>
    fd3c:	e7943003 	ldr	r3, [r4, r3]
    fd40:	e7935102 	ldr	r5, [r3, r2, lsl #2]
    fd44:	e24b3070 	sub	r3, fp, #112	; 0x70
    fd48:	e3a0100f 	mov	r1, #15
    fd4c:	e1a00003 	mov	r0, r3
    fd50:	ebfff72f 	bl	da14 <g>
    fd54:	e1a03000 	mov	r3, r0
    fd58:	e1a02003 	mov	r2, r3
    fd5c:	e59f3ad0 	ldr	r3, [pc, #2768]	; 10834 <run+0x2c4c>
    fd60:	e7943003 	ldr	r3, [r4, r3]
    fd64:	e7933102 	ldr	r3, [r3, r2, lsl #2]
    fd68:	e0255003 	eor	r5, r5, r3
    fd6c:	e24b3070 	sub	r3, fp, #112	; 0x70
    fd70:	e3a01001 	mov	r1, #1
    fd74:	e1a00003 	mov	r0, r3
    fd78:	ebfff725 	bl	da14 <g>
    fd7c:	e1a03000 	mov	r3, r0
    fd80:	e1a02003 	mov	r2, r3
    fd84:	e59f3aac 	ldr	r3, [pc, #2732]	; 10838 <run+0x2c50>
    fd88:	e7943003 	ldr	r3, [r4, r3]
    fd8c:	e7933102 	ldr	r3, [r3, r2, lsl #2]
    fd90:	e0255003 	eor	r5, r5, r3
    fd94:	e24b3070 	sub	r3, fp, #112	; 0x70
    fd98:	e3a01000 	mov	r1, #0
    fd9c:	e1a00003 	mov	r0, r3
    fda0:	ebfff71b 	bl	da14 <g>
    fda4:	e1a03000 	mov	r3, r0
    fda8:	e1a02003 	mov	r2, r3
    fdac:	e59f3a88 	ldr	r3, [pc, #2696]	; 1083c <run+0x2c54>
    fdb0:	e7943003 	ldr	r3, [r4, r3]
    fdb4:	e7933102 	ldr	r3, [r3, r2, lsl #2]
    fdb8:	e0255003 	eor	r5, r5, r3
    fdbc:	e24b3070 	sub	r3, fp, #112	; 0x70
    fdc0:	e3a0100d 	mov	r1, #13
    fdc4:	e1a00003 	mov	r0, r3
    fdc8:	ebfff711 	bl	da14 <g>
    fdcc:	e1a03000 	mov	r3, r0
    fdd0:	e1a02003 	mov	r2, r3
    fdd4:	e59f3a60 	ldr	r3, [pc, #2656]	; 1083c <run+0x2c54>
    fdd8:	e7943003 	ldr	r3, [r4, r3]
    fddc:	e7932102 	ldr	r2, [r3, r2, lsl #2]
    fde0:	e51b301c 	ldr	r3, [fp, #-28]	; 0xffffffe4
    fde4:	e1a03203 	lsl	r3, r3, #4
    fde8:	e283300f 	add	r3, r3, #15
    fdec:	e0222005 	eor	r2, r2, r5
    fdf0:	e1a03103 	lsl	r3, r3, #2
    fdf4:	e2433014 	sub	r3, r3, #20
    fdf8:	e083300b 	add	r3, r3, fp
    fdfc:	e50320ec 	str	r2, [r3, #-236]	; 0xffffff14
    fe00:	e59b3008 	ldr	r3, [fp, #8]
    fe04:	e3530000 	cmp	r3, #0
    fe08:	0a000024 	beq	fea0 <run+0x22b8>
    fe0c:	e51b301c 	ldr	r3, [fp, #-28]	; 0xffffffe4
    fe10:	e1a03203 	lsl	r3, r3, #4
    fe14:	e283100c 	add	r1, r3, #12
    fe18:	e51b301c 	ldr	r3, [fp, #-28]	; 0xffffffe4
    fe1c:	e1a03203 	lsl	r3, r3, #4
    fe20:	e283300f 	add	r3, r3, #15
    fe24:	e1a02003 	mov	r2, r3
    fe28:	e59f3a10 	ldr	r3, [pc, #2576]	; 10840 <run+0x2c58>
    fe2c:	e08f3003 	add	r3, pc, r3
    fe30:	e1a00003 	mov	r0, r3
    fe34:	eb00134e 	bl	14b74 <tfp_printf>
    fe38:	e3a0300c 	mov	r3, #12
    fe3c:	e50b3048 	str	r3, [fp, #-72]	; 0xffffffb8
    fe40:	ea00000f 	b	fe84 <run+0x229c>
    fe44:	e51b301c 	ldr	r3, [fp, #-28]	; 0xffffffe4
    fe48:	e1a02203 	lsl	r2, r3, #4
    fe4c:	e51b3048 	ldr	r3, [fp, #-72]	; 0xffffffb8
    fe50:	e0823003 	add	r3, r2, r3
    fe54:	e1a03103 	lsl	r3, r3, #2
    fe58:	e2433014 	sub	r3, r3, #20
    fe5c:	e083300b 	add	r3, r3, fp
    fe60:	e51330ec 	ldr	r3, [r3, #-236]	; 0xffffff14
    fe64:	e1a01003 	mov	r1, r3
    fe68:	e59f39d4 	ldr	r3, [pc, #2516]	; 10844 <run+0x2c5c>
    fe6c:	e08f3003 	add	r3, pc, r3
    fe70:	e1a00003 	mov	r0, r3
    fe74:	eb00133e 	bl	14b74 <tfp_printf>
    fe78:	e51b3048 	ldr	r3, [fp, #-72]	; 0xffffffb8
    fe7c:	e2833001 	add	r3, r3, #1
    fe80:	e50b3048 	str	r3, [fp, #-72]	; 0xffffffb8
    fe84:	e51b3048 	ldr	r3, [fp, #-72]	; 0xffffffb8
    fe88:	e353000f 	cmp	r3, #15
    fe8c:	daffffec 	ble	fe44 <run+0x225c>
    fe90:	e59f39b0 	ldr	r3, [pc, #2480]	; 10848 <run+0x2c60>
    fe94:	e08f3003 	add	r3, pc, r3
    fe98:	e1a00003 	mov	r0, r3
    fe9c:	eb001334 	bl	14b74 <tfp_printf>
    fea0:	e51b301c 	ldr	r3, [fp, #-28]	; 0xffffffe4
    fea4:	e2833001 	add	r3, r3, #1
    fea8:	e50b301c 	str	r3, [fp, #-28]	; 0xffffffe4
    feac:	e51b301c 	ldr	r3, [fp, #-28]	; 0xffffffe4
    feb0:	e3530001 	cmp	r3, #1
    feb4:	dafff797 	ble	dd18 <run+0x130>
    feb8:	e24b3f51 	sub	r3, fp, #324	; 0x144
    febc:	e3a02044 	mov	r2, #68	; 0x44
    fec0:	e3a01000 	mov	r1, #0
    fec4:	e1a00003 	mov	r0, r3
    fec8:	eb000461 	bl	11054 <memset>
    fecc:	e51b319c 	ldr	r3, [fp, #-412]	; 0xfffffe64
    fed0:	e50b3144 	str	r3, [fp, #-324]	; 0xfffffebc
    fed4:	e24b3f62 	sub	r3, fp, #392	; 0x188
    fed8:	e3a02044 	mov	r2, #68	; 0x44
    fedc:	e3a01000 	mov	r1, #0
    fee0:	e1a00003 	mov	r0, r3
    fee4:	eb00045a 	bl	11054 <memset>
    fee8:	e51b3198 	ldr	r3, [fp, #-408]	; 0xfffffe68
    feec:	e50b3188 	str	r3, [fp, #-392]	; 0xfffffe78
    fef0:	e59b3008 	ldr	r3, [fp, #8]
    fef4:	e3530000 	cmp	r3, #0
    fef8:	0a000003 	beq	ff0c <run+0x2324>
    fefc:	e59f3948 	ldr	r3, [pc, #2376]	; 1084c <run+0x2c64>
    ff00:	e08f3003 	add	r3, pc, r3
    ff04:	e1a00003 	mov	r0, r3
    ff08:	eb001319 	bl	14b74 <tfp_printf>
    ff0c:	e3a03000 	mov	r3, #0
    ff10:	e50b304c 	str	r3, [fp, #-76]	; 0xffffffb4
    ff14:	ea000228 	b	107bc <run+0x2bd4>
    ff18:	e59b3004 	ldr	r3, [fp, #4]
    ff1c:	e3530000 	cmp	r3, #0
    ff20:	0a000002 	beq	ff30 <run+0x2348>
    ff24:	e51b304c 	ldr	r3, [fp, #-76]	; 0xffffffb4
    ff28:	e263300f 	rsb	r3, r3, #15
    ff2c:	ea000000 	b	ff34 <run+0x234c>
    ff30:	e51b304c 	ldr	r3, [fp, #-76]	; 0xffffffb4
    ff34:	e50b3054 	str	r3, [fp, #-84]	; 0xffffffac
    ff38:	e51b3054 	ldr	r3, [fp, #-84]	; 0xffffffac
    ff3c:	e1a03103 	lsl	r3, r3, #2
    ff40:	e2433014 	sub	r3, r3, #20
    ff44:	e083300b 	add	r3, r3, fp
    ff48:	e51330ec 	ldr	r3, [r3, #-236]	; 0xffffff14
    ff4c:	e50b3058 	str	r3, [fp, #-88]	; 0xffffffa8
    ff50:	e51b3054 	ldr	r3, [fp, #-84]	; 0xffffffac
    ff54:	e2833010 	add	r3, r3, #16
    ff58:	e1a03103 	lsl	r3, r3, #2
    ff5c:	e2433014 	sub	r3, r3, #20
    ff60:	e083300b 	add	r3, r3, fp
    ff64:	e51330ec 	ldr	r3, [r3, #-236]	; 0xffffff14
    ff68:	e6ef3073 	uxtb	r3, r3
    ff6c:	e203301f 	and	r3, r3, #31
    ff70:	e54b3059 	strb	r3, [fp, #-89]	; 0xffffffa7
    ff74:	e59b3008 	ldr	r3, [fp, #8]
    ff78:	e3530000 	cmp	r3, #0
    ff7c:	0a000024 	beq	10014 <run+0x242c>
    ff80:	e51b104c 	ldr	r1, [fp, #-76]	; 0xffffffb4
    ff84:	e59f38c4 	ldr	r3, [pc, #2244]	; 10850 <run+0x2c68>
    ff88:	e08f3003 	add	r3, pc, r3
    ff8c:	e1a00003 	mov	r0, r3
    ff90:	eb0012f7 	bl	14b74 <tfp_printf>
    ff94:	e51b3054 	ldr	r3, [fp, #-84]	; 0xffffffac
    ff98:	e2831010 	add	r1, r3, #16
    ff9c:	e51b3054 	ldr	r3, [fp, #-84]	; 0xffffffac
    ffa0:	e2833010 	add	r3, r3, #16
    ffa4:	e1a03103 	lsl	r3, r3, #2
    ffa8:	e2433014 	sub	r3, r3, #20
    ffac:	e083300b 	add	r3, r3, fp
    ffb0:	e51330ec 	ldr	r3, [r3, #-236]	; 0xffffff14
    ffb4:	e55b2059 	ldrb	r2, [fp, #-89]	; 0xffffffa7
    ffb8:	e58d2004 	str	r2, [sp, #4]
    ffbc:	e58d3000 	str	r3, [sp]
    ffc0:	e1a03001 	mov	r3, r1
    ffc4:	e51b2058 	ldr	r2, [fp, #-88]	; 0xffffffa8
    ffc8:	e51b1054 	ldr	r1, [fp, #-84]	; 0xffffffac
    ffcc:	e59f0880 	ldr	r0, [pc, #2176]	; 10854 <run+0x2c6c>
    ffd0:	e08f0000 	add	r0, pc, r0
    ffd4:	eb0012e6 	bl	14b74 <tfp_printf>
    ffd8:	e51b304c 	ldr	r3, [fp, #-76]	; 0xffffffb4
    ffdc:	e1a03103 	lsl	r3, r3, #2
    ffe0:	e2433014 	sub	r3, r3, #20
    ffe4:	e083300b 	add	r3, r3, fp
    ffe8:	e5131130 	ldr	r1, [r3, #-304]	; 0xfffffed0
    ffec:	e51b304c 	ldr	r3, [fp, #-76]	; 0xffffffb4
    fff0:	e1a03103 	lsl	r3, r3, #2
    fff4:	e2433014 	sub	r3, r3, #20
    fff8:	e083300b 	add	r3, r3, fp
    fffc:	e5133174 	ldr	r3, [r3, #-372]	; 0xfffffe8c
   10000:	e1a02003 	mov	r2, r3
   10004:	e59f384c 	ldr	r3, [pc, #2124]	; 10858 <run+0x2c70>
   10008:	e08f3003 	add	r3, pc, r3
   1000c:	e1a00003 	mov	r0, r3
   10010:	eb0012d7 	bl	14b74 <tfp_printf>
   10014:	e3a03000 	mov	r3, #0
   10018:	e50b3060 	str	r3, [fp, #-96]	; 0xffffffa0
   1001c:	e3a03000 	mov	r3, #0
   10020:	e50b3050 	str	r3, [fp, #-80]	; 0xffffffb0
   10024:	e51b2054 	ldr	r2, [fp, #-84]	; 0xffffffac
   10028:	e3053556 	movw	r3, #21846	; 0x5556
   1002c:	e3453555 	movt	r3, #21845	; 0x5555
   10030:	e0c13293 	smull	r3, r1, r3, r2
   10034:	e1a03fc2 	asr	r3, r2, #31
   10038:	e0413003 	sub	r3, r1, r3
   1003c:	e3a01003 	mov	r1, #3
   10040:	e0030391 	mul	r3, r1, r3
   10044:	e0423003 	sub	r3, r2, r3
   10048:	e3530002 	cmp	r3, #2
   1004c:	0a00010d 	beq	10488 <run+0x28a0>
   10050:	e3530002 	cmp	r3, #2
   10054:	ca000194 	bgt	106ac <run+0x2ac4>
   10058:	e3530000 	cmp	r3, #0
   1005c:	0a000002 	beq	1006c <run+0x2484>
   10060:	e3530001 	cmp	r3, #1
   10064:	0a000084 	beq	1027c <run+0x2694>
   10068:	ea00018f 	b	106ac <run+0x2ac4>
   1006c:	e51b304c 	ldr	r3, [fp, #-76]	; 0xffffffb4
   10070:	e1a03103 	lsl	r3, r3, #2
   10074:	e2433014 	sub	r3, r3, #20
   10078:	e083300b 	add	r3, r3, fp
   1007c:	e5133174 	ldr	r3, [r3, #-372]	; 0xfffffe8c
   10080:	e1a01003 	mov	r1, r3
   10084:	e51b0058 	ldr	r0, [fp, #-88]	; 0xffffffa8
   10088:	ebfff6a2 	bl	db18 <sumMod2_32b>
   1008c:	e1a02000 	mov	r2, r0
   10090:	e55b3059 	ldrb	r3, [fp, #-89]	; 0xffffffa7
   10094:	e1a01003 	mov	r1, r3
   10098:	e1a00002 	mov	r0, r2
   1009c:	ebfff6c0 	bl	dba4 <cyclicShift>
   100a0:	e50b0060 	str	r0, [fp, #-96]	; 0xffffffa0
   100a4:	e59b3008 	ldr	r3, [fp, #8]
   100a8:	e3530000 	cmp	r3, #0
   100ac:	0a00000c 	beq	100e4 <run+0x24fc>
   100b0:	e51b304c 	ldr	r3, [fp, #-76]	; 0xffffffb4
   100b4:	e1a03103 	lsl	r3, r3, #2
   100b8:	e2433014 	sub	r3, r3, #20
   100bc:	e083300b 	add	r3, r3, fp
   100c0:	e5132174 	ldr	r2, [r3, #-372]	; 0xfffffe8c
   100c4:	e55b1059 	ldrb	r1, [fp, #-89]	; 0xffffffa7
   100c8:	e51b3060 	ldr	r3, [fp, #-96]	; 0xffffffa0
   100cc:	e58d3000 	str	r3, [sp]
   100d0:	e1a03001 	mov	r3, r1
   100d4:	e51b1058 	ldr	r1, [fp, #-88]	; 0xffffffa8
   100d8:	e59f077c 	ldr	r0, [pc, #1916]	; 1085c <run+0x2c74>
   100dc:	e08f0000 	add	r0, pc, r0
   100e0:	eb0012a3 	bl	14b74 <tfp_printf>
   100e4:	e24b3f62 	sub	r3, fp, #392	; 0x188
   100e8:	e2433003 	sub	r3, r3, #3
   100ec:	e24b2f62 	sub	r2, fp, #392	; 0x188
   100f0:	e2422002 	sub	r2, r2, #2
   100f4:	e24b1f62 	sub	r1, fp, #392	; 0x188
   100f8:	e2411001 	sub	r1, r1, #1
   100fc:	e24b0f63 	sub	r0, fp, #396	; 0x18c
   10100:	e58d0000 	str	r0, [sp]
   10104:	e51b0060 	ldr	r0, [fp, #-96]	; 0xffffffa0
   10108:	ebfff654 	bl	da60 <splitI>
   1010c:	e59b3008 	ldr	r3, [fp, #8]
   10110:	e3530000 	cmp	r3, #0
   10114:	0a00000b 	beq	10148 <run+0x2560>
   10118:	e55b3189 	ldrb	r3, [fp, #-393]	; 0xfffffe77
   1011c:	e1a01003 	mov	r1, r3
   10120:	e55b318a 	ldrb	r3, [fp, #-394]	; 0xfffffe76
   10124:	e1a02003 	mov	r2, r3
   10128:	e55b318b 	ldrb	r3, [fp, #-395]	; 0xfffffe75
   1012c:	e1a00003 	mov	r0, r3
   10130:	e55b318c 	ldrb	r3, [fp, #-396]	; 0xfffffe74
   10134:	e58d3000 	str	r3, [sp]
   10138:	e1a03000 	mov	r3, r0
   1013c:	e59f071c 	ldr	r0, [pc, #1820]	; 10860 <run+0x2c78>
   10140:	e08f0000 	add	r0, pc, r0
   10144:	eb00128a 	bl	14b74 <tfp_printf>
   10148:	e55b3189 	ldrb	r3, [fp, #-393]	; 0xfffffe77
   1014c:	e1a02003 	mov	r2, r3
   10150:	e59f370c 	ldr	r3, [pc, #1804]	; 10864 <run+0x2c7c>
   10154:	e7943003 	ldr	r3, [r4, r3]
   10158:	e7932102 	ldr	r2, [r3, r2, lsl #2]
   1015c:	e55b318a 	ldrb	r3, [fp, #-394]	; 0xfffffe76
   10160:	e1a01003 	mov	r1, r3
   10164:	e59f36fc 	ldr	r3, [pc, #1788]	; 10868 <run+0x2c80>
   10168:	e7943003 	ldr	r3, [r4, r3]
   1016c:	e7933101 	ldr	r3, [r3, r1, lsl #2]
   10170:	e0222003 	eor	r2, r2, r3
   10174:	e55b318b 	ldrb	r3, [fp, #-395]	; 0xfffffe75
   10178:	e1a01003 	mov	r1, r3
   1017c:	e59f36e8 	ldr	r3, [pc, #1768]	; 1086c <run+0x2c84>
   10180:	e7943003 	ldr	r3, [r4, r3]
   10184:	e7933101 	ldr	r3, [r3, r1, lsl #2]
   10188:	e1a01003 	mov	r1, r3
   1018c:	e1a00002 	mov	r0, r2
   10190:	ebfff66c 	bl	db48 <subtractMod2_32b>
   10194:	e1a02000 	mov	r2, r0
   10198:	e55b318c 	ldrb	r3, [fp, #-396]	; 0xfffffe74
   1019c:	e1a01003 	mov	r1, r3
   101a0:	e59f36c8 	ldr	r3, [pc, #1736]	; 10870 <run+0x2c88>
   101a4:	e7943003 	ldr	r3, [r4, r3]
   101a8:	e7933101 	ldr	r3, [r3, r1, lsl #2]
   101ac:	e1a01003 	mov	r1, r3
   101b0:	e1a00002 	mov	r0, r2
   101b4:	ebfff657 	bl	db18 <sumMod2_32b>
   101b8:	e50b0050 	str	r0, [fp, #-80]	; 0xffffffb0
   101bc:	e59b3008 	ldr	r3, [fp, #8]
   101c0:	e3530000 	cmp	r3, #0
   101c4:	0a000133 	beq	10698 <run+0x2ab0>
   101c8:	e55b3189 	ldrb	r3, [fp, #-393]	; 0xfffffe77
   101cc:	e1a06003 	mov	r6, r3
   101d0:	e55b3189 	ldrb	r3, [fp, #-393]	; 0xfffffe77
   101d4:	e1a02003 	mov	r2, r3
   101d8:	e59f3684 	ldr	r3, [pc, #1668]	; 10864 <run+0x2c7c>
   101dc:	e7943003 	ldr	r3, [r4, r3]
   101e0:	e7930102 	ldr	r0, [r3, r2, lsl #2]
   101e4:	e55b318a 	ldrb	r3, [fp, #-394]	; 0xfffffe76
   101e8:	e1a07003 	mov	r7, r3
   101ec:	e55b318a 	ldrb	r3, [fp, #-394]	; 0xfffffe76
   101f0:	e1a02003 	mov	r2, r3
   101f4:	e59f366c 	ldr	r3, [pc, #1644]	; 10868 <run+0x2c80>
   101f8:	e7943003 	ldr	r3, [r4, r3]
   101fc:	e7933102 	ldr	r3, [r3, r2, lsl #2]
   10200:	e55b218b 	ldrb	r2, [fp, #-395]	; 0xfffffe75
   10204:	e1a0c002 	mov	ip, r2
   10208:	e55b218b 	ldrb	r2, [fp, #-395]	; 0xfffffe75
   1020c:	e1a01002 	mov	r1, r2
   10210:	e59f2654 	ldr	r2, [pc, #1620]	; 1086c <run+0x2c84>
   10214:	e7942002 	ldr	r2, [r4, r2]
   10218:	e7922101 	ldr	r2, [r2, r1, lsl #2]
   1021c:	e55b118c 	ldrb	r1, [fp, #-396]	; 0xfffffe74
   10220:	e1a0e001 	mov	lr, r1
   10224:	e55b118c 	ldrb	r1, [fp, #-396]	; 0xfffffe74
   10228:	e1a05001 	mov	r5, r1
   1022c:	e59f163c 	ldr	r1, [pc, #1596]	; 10870 <run+0x2c88>
   10230:	e7941001 	ldr	r1, [r4, r1]
   10234:	e7911105 	ldr	r1, [r1, r5, lsl #2]
   10238:	e58d1010 	str	r1, [sp, #16]
   1023c:	e58de00c 	str	lr, [sp, #12]
   10240:	e58d2008 	str	r2, [sp, #8]
   10244:	e58dc004 	str	ip, [sp, #4]
   10248:	e58d3000 	str	r3, [sp]
   1024c:	e1a03007 	mov	r3, r7
   10250:	e1a02000 	mov	r2, r0
   10254:	e1a01006 	mov	r1, r6
   10258:	e59f0614 	ldr	r0, [pc, #1556]	; 10874 <run+0x2c8c>
   1025c:	e08f0000 	add	r0, pc, r0
   10260:	eb001243 	bl	14b74 <tfp_printf>
   10264:	e51b1050 	ldr	r1, [fp, #-80]	; 0xffffffb0
   10268:	e59f3608 	ldr	r3, [pc, #1544]	; 10878 <run+0x2c90>
   1026c:	e08f3003 	add	r3, pc, r3
   10270:	e1a00003 	mov	r0, r3
   10274:	eb00123e 	bl	14b74 <tfp_printf>
   10278:	ea000106 	b	10698 <run+0x2ab0>
   1027c:	e51b304c 	ldr	r3, [fp, #-76]	; 0xffffffb4
   10280:	e1a03103 	lsl	r3, r3, #2
   10284:	e2433014 	sub	r3, r3, #20
   10288:	e083300b 	add	r3, r3, fp
   1028c:	e5132174 	ldr	r2, [r3, #-372]	; 0xfffffe8c
   10290:	e51b3058 	ldr	r3, [fp, #-88]	; 0xffffffa8
   10294:	e0233002 	eor	r3, r3, r2
   10298:	e55b2059 	ldrb	r2, [fp, #-89]	; 0xffffffa7
   1029c:	e1a01002 	mov	r1, r2
   102a0:	e1a00003 	mov	r0, r3
   102a4:	ebfff63e 	bl	dba4 <cyclicShift>
   102a8:	e50b0060 	str	r0, [fp, #-96]	; 0xffffffa0
   102ac:	e59b3008 	ldr	r3, [fp, #8]
   102b0:	e3530000 	cmp	r3, #0
   102b4:	0a00000c 	beq	102ec <run+0x2704>
   102b8:	e51b304c 	ldr	r3, [fp, #-76]	; 0xffffffb4
   102bc:	e1a03103 	lsl	r3, r3, #2
   102c0:	e2433014 	sub	r3, r3, #20
   102c4:	e083300b 	add	r3, r3, fp
   102c8:	e5132174 	ldr	r2, [r3, #-372]	; 0xfffffe8c
   102cc:	e55b1059 	ldrb	r1, [fp, #-89]	; 0xffffffa7
   102d0:	e51b3060 	ldr	r3, [fp, #-96]	; 0xffffffa0
   102d4:	e58d3000 	str	r3, [sp]
   102d8:	e1a03001 	mov	r3, r1
   102dc:	e51b1058 	ldr	r1, [fp, #-88]	; 0xffffffa8
   102e0:	e59f0594 	ldr	r0, [pc, #1428]	; 1087c <run+0x2c94>
   102e4:	e08f0000 	add	r0, pc, r0
   102e8:	eb001221 	bl	14b74 <tfp_printf>
   102ec:	e24b3f62 	sub	r3, fp, #392	; 0x188
   102f0:	e2433003 	sub	r3, r3, #3
   102f4:	e24b2f62 	sub	r2, fp, #392	; 0x188
   102f8:	e2422002 	sub	r2, r2, #2
   102fc:	e24b1f62 	sub	r1, fp, #392	; 0x188
   10300:	e2411001 	sub	r1, r1, #1
   10304:	e24b0f63 	sub	r0, fp, #396	; 0x18c
   10308:	e58d0000 	str	r0, [sp]
   1030c:	e51b0060 	ldr	r0, [fp, #-96]	; 0xffffffa0
   10310:	ebfff5d2 	bl	da60 <splitI>
   10314:	e59b3008 	ldr	r3, [fp, #8]
   10318:	e3530000 	cmp	r3, #0
   1031c:	0a00000b 	beq	10350 <run+0x2768>
   10320:	e55b3189 	ldrb	r3, [fp, #-393]	; 0xfffffe77
   10324:	e1a01003 	mov	r1, r3
   10328:	e55b318a 	ldrb	r3, [fp, #-394]	; 0xfffffe76
   1032c:	e1a02003 	mov	r2, r3
   10330:	e55b318b 	ldrb	r3, [fp, #-395]	; 0xfffffe75
   10334:	e1a00003 	mov	r0, r3
   10338:	e55b318c 	ldrb	r3, [fp, #-396]	; 0xfffffe74
   1033c:	e58d3000 	str	r3, [sp]
   10340:	e1a03000 	mov	r3, r0
   10344:	e59f0534 	ldr	r0, [pc, #1332]	; 10880 <run+0x2c98>
   10348:	e08f0000 	add	r0, pc, r0
   1034c:	eb001208 	bl	14b74 <tfp_printf>
   10350:	e55b3189 	ldrb	r3, [fp, #-393]	; 0xfffffe77
   10354:	e1a02003 	mov	r2, r3
   10358:	e59f3504 	ldr	r3, [pc, #1284]	; 10864 <run+0x2c7c>
   1035c:	e7943003 	ldr	r3, [r4, r3]
   10360:	e7932102 	ldr	r2, [r3, r2, lsl #2]
   10364:	e55b318a 	ldrb	r3, [fp, #-394]	; 0xfffffe76
   10368:	e1a01003 	mov	r1, r3
   1036c:	e59f34f4 	ldr	r3, [pc, #1268]	; 10868 <run+0x2c80>
   10370:	e7943003 	ldr	r3, [r4, r3]
   10374:	e7933101 	ldr	r3, [r3, r1, lsl #2]
   10378:	e1a01003 	mov	r1, r3
   1037c:	e1a00002 	mov	r0, r2
   10380:	ebfff5f0 	bl	db48 <subtractMod2_32b>
   10384:	e1a02000 	mov	r2, r0
   10388:	e55b318b 	ldrb	r3, [fp, #-395]	; 0xfffffe75
   1038c:	e1a01003 	mov	r1, r3
   10390:	e59f34d4 	ldr	r3, [pc, #1236]	; 1086c <run+0x2c84>
   10394:	e7943003 	ldr	r3, [r4, r3]
   10398:	e7933101 	ldr	r3, [r3, r1, lsl #2]
   1039c:	e1a01003 	mov	r1, r3
   103a0:	e1a00002 	mov	r0, r2
   103a4:	ebfff5db 	bl	db18 <sumMod2_32b>
   103a8:	e1a02000 	mov	r2, r0
   103ac:	e55b318c 	ldrb	r3, [fp, #-396]	; 0xfffffe74
   103b0:	e1a01003 	mov	r1, r3
   103b4:	e59f34b4 	ldr	r3, [pc, #1204]	; 10870 <run+0x2c88>
   103b8:	e7943003 	ldr	r3, [r4, r3]
   103bc:	e7933101 	ldr	r3, [r3, r1, lsl #2]
   103c0:	e0233002 	eor	r3, r3, r2
   103c4:	e50b3050 	str	r3, [fp, #-80]	; 0xffffffb0
   103c8:	e59b3008 	ldr	r3, [fp, #8]
   103cc:	e3530000 	cmp	r3, #0
   103d0:	0a0000b2 	beq	106a0 <run+0x2ab8>
   103d4:	e55b3189 	ldrb	r3, [fp, #-393]	; 0xfffffe77
   103d8:	e1a06003 	mov	r6, r3
   103dc:	e55b3189 	ldrb	r3, [fp, #-393]	; 0xfffffe77
   103e0:	e1a02003 	mov	r2, r3
   103e4:	e59f3478 	ldr	r3, [pc, #1144]	; 10864 <run+0x2c7c>
   103e8:	e7943003 	ldr	r3, [r4, r3]
   103ec:	e7930102 	ldr	r0, [r3, r2, lsl #2]
   103f0:	e55b318a 	ldrb	r3, [fp, #-394]	; 0xfffffe76
   103f4:	e1a07003 	mov	r7, r3
   103f8:	e55b318a 	ldrb	r3, [fp, #-394]	; 0xfffffe76
   103fc:	e1a02003 	mov	r2, r3
   10400:	e59f3460 	ldr	r3, [pc, #1120]	; 10868 <run+0x2c80>
   10404:	e7943003 	ldr	r3, [r4, r3]
   10408:	e7933102 	ldr	r3, [r3, r2, lsl #2]
   1040c:	e55b218b 	ldrb	r2, [fp, #-395]	; 0xfffffe75
   10410:	e1a0c002 	mov	ip, r2
   10414:	e55b218b 	ldrb	r2, [fp, #-395]	; 0xfffffe75
   10418:	e1a01002 	mov	r1, r2
   1041c:	e59f2448 	ldr	r2, [pc, #1096]	; 1086c <run+0x2c84>
   10420:	e7942002 	ldr	r2, [r4, r2]
   10424:	e7922101 	ldr	r2, [r2, r1, lsl #2]
   10428:	e55b118c 	ldrb	r1, [fp, #-396]	; 0xfffffe74
   1042c:	e1a0e001 	mov	lr, r1
   10430:	e55b118c 	ldrb	r1, [fp, #-396]	; 0xfffffe74
   10434:	e1a05001 	mov	r5, r1
   10438:	e59f1430 	ldr	r1, [pc, #1072]	; 10870 <run+0x2c88>
   1043c:	e7941001 	ldr	r1, [r4, r1]
   10440:	e7911105 	ldr	r1, [r1, r5, lsl #2]
   10444:	e58d1010 	str	r1, [sp, #16]
   10448:	e58de00c 	str	lr, [sp, #12]
   1044c:	e58d2008 	str	r2, [sp, #8]
   10450:	e58dc004 	str	ip, [sp, #4]
   10454:	e58d3000 	str	r3, [sp]
   10458:	e1a03007 	mov	r3, r7
   1045c:	e1a02000 	mov	r2, r0
   10460:	e1a01006 	mov	r1, r6
   10464:	e59f0418 	ldr	r0, [pc, #1048]	; 10884 <run+0x2c9c>
   10468:	e08f0000 	add	r0, pc, r0
   1046c:	eb0011c0 	bl	14b74 <tfp_printf>
   10470:	e51b1050 	ldr	r1, [fp, #-80]	; 0xffffffb0
   10474:	e59f340c 	ldr	r3, [pc, #1036]	; 10888 <run+0x2ca0>
   10478:	e08f3003 	add	r3, pc, r3
   1047c:	e1a00003 	mov	r0, r3
   10480:	eb0011bb 	bl	14b74 <tfp_printf>
   10484:	ea000085 	b	106a0 <run+0x2ab8>
   10488:	e51b304c 	ldr	r3, [fp, #-76]	; 0xffffffb4
   1048c:	e1a03103 	lsl	r3, r3, #2
   10490:	e2433014 	sub	r3, r3, #20
   10494:	e083300b 	add	r3, r3, fp
   10498:	e5133174 	ldr	r3, [r3, #-372]	; 0xfffffe8c
   1049c:	e1a01003 	mov	r1, r3
   104a0:	e51b0058 	ldr	r0, [fp, #-88]	; 0xffffffa8
   104a4:	ebfff5a7 	bl	db48 <subtractMod2_32b>
   104a8:	e1a02000 	mov	r2, r0
   104ac:	e55b3059 	ldrb	r3, [fp, #-89]	; 0xffffffa7
   104b0:	e1a01003 	mov	r1, r3
   104b4:	e1a00002 	mov	r0, r2
   104b8:	ebfff5b9 	bl	dba4 <cyclicShift>
   104bc:	e50b0060 	str	r0, [fp, #-96]	; 0xffffffa0
   104c0:	e59b3008 	ldr	r3, [fp, #8]
   104c4:	e3530000 	cmp	r3, #0
   104c8:	0a00000c 	beq	10500 <run+0x2918>
   104cc:	e51b304c 	ldr	r3, [fp, #-76]	; 0xffffffb4
   104d0:	e1a03103 	lsl	r3, r3, #2
   104d4:	e2433014 	sub	r3, r3, #20
   104d8:	e083300b 	add	r3, r3, fp
   104dc:	e5132174 	ldr	r2, [r3, #-372]	; 0xfffffe8c
   104e0:	e55b1059 	ldrb	r1, [fp, #-89]	; 0xffffffa7
   104e4:	e51b3060 	ldr	r3, [fp, #-96]	; 0xffffffa0
   104e8:	e58d3000 	str	r3, [sp]
   104ec:	e1a03001 	mov	r3, r1
   104f0:	e51b1058 	ldr	r1, [fp, #-88]	; 0xffffffa8
   104f4:	e59f0390 	ldr	r0, [pc, #912]	; 1088c <run+0x2ca4>
   104f8:	e08f0000 	add	r0, pc, r0
   104fc:	eb00119c 	bl	14b74 <tfp_printf>
   10500:	e24b3f62 	sub	r3, fp, #392	; 0x188
   10504:	e2433003 	sub	r3, r3, #3
   10508:	e24b2f62 	sub	r2, fp, #392	; 0x188
   1050c:	e2422002 	sub	r2, r2, #2
   10510:	e24b1f62 	sub	r1, fp, #392	; 0x188
   10514:	e2411001 	sub	r1, r1, #1
   10518:	e24b0f63 	sub	r0, fp, #396	; 0x18c
   1051c:	e58d0000 	str	r0, [sp]
   10520:	e51b0060 	ldr	r0, [fp, #-96]	; 0xffffffa0
   10524:	ebfff54d 	bl	da60 <splitI>
   10528:	e59b3008 	ldr	r3, [fp, #8]
   1052c:	e3530000 	cmp	r3, #0
   10530:	0a00000b 	beq	10564 <run+0x297c>
   10534:	e55b3189 	ldrb	r3, [fp, #-393]	; 0xfffffe77
   10538:	e1a01003 	mov	r1, r3
   1053c:	e55b318a 	ldrb	r3, [fp, #-394]	; 0xfffffe76
   10540:	e1a02003 	mov	r2, r3
   10544:	e55b318b 	ldrb	r3, [fp, #-395]	; 0xfffffe75
   10548:	e1a00003 	mov	r0, r3
   1054c:	e55b318c 	ldrb	r3, [fp, #-396]	; 0xfffffe74
   10550:	e58d3000 	str	r3, [sp]
   10554:	e1a03000 	mov	r3, r0
   10558:	e59f0330 	ldr	r0, [pc, #816]	; 10890 <run+0x2ca8>
   1055c:	e08f0000 	add	r0, pc, r0
   10560:	eb001183 	bl	14b74 <tfp_printf>
   10564:	e55b3189 	ldrb	r3, [fp, #-393]	; 0xfffffe77
   10568:	e1a02003 	mov	r2, r3
   1056c:	e59f32f0 	ldr	r3, [pc, #752]	; 10864 <run+0x2c7c>
   10570:	e7943003 	ldr	r3, [r4, r3]
   10574:	e7932102 	ldr	r2, [r3, r2, lsl #2]
   10578:	e55b318a 	ldrb	r3, [fp, #-394]	; 0xfffffe76
   1057c:	e1a01003 	mov	r1, r3
   10580:	e59f32e0 	ldr	r3, [pc, #736]	; 10868 <run+0x2c80>
   10584:	e7943003 	ldr	r3, [r4, r3]
   10588:	e7933101 	ldr	r3, [r3, r1, lsl #2]
   1058c:	e1a01003 	mov	r1, r3
   10590:	e1a00002 	mov	r0, r2
   10594:	ebfff55f 	bl	db18 <sumMod2_32b>
   10598:	e1a02000 	mov	r2, r0
   1059c:	e55b318b 	ldrb	r3, [fp, #-395]	; 0xfffffe75
   105a0:	e1a01003 	mov	r1, r3
   105a4:	e59f32c0 	ldr	r3, [pc, #704]	; 1086c <run+0x2c84>
   105a8:	e7943003 	ldr	r3, [r4, r3]
   105ac:	e7933101 	ldr	r3, [r3, r1, lsl #2]
   105b0:	e0222003 	eor	r2, r2, r3
   105b4:	e55b318c 	ldrb	r3, [fp, #-396]	; 0xfffffe74
   105b8:	e1a01003 	mov	r1, r3
   105bc:	e59f32ac 	ldr	r3, [pc, #684]	; 10870 <run+0x2c88>
   105c0:	e7943003 	ldr	r3, [r4, r3]
   105c4:	e7933101 	ldr	r3, [r3, r1, lsl #2]
   105c8:	e1a01003 	mov	r1, r3
   105cc:	e1a00002 	mov	r0, r2
   105d0:	ebfff55c 	bl	db48 <subtractMod2_32b>
   105d4:	e50b0050 	str	r0, [fp, #-80]	; 0xffffffb0
   105d8:	e59b3008 	ldr	r3, [fp, #8]
   105dc:	e3530000 	cmp	r3, #0
   105e0:	0a000030 	beq	106a8 <run+0x2ac0>
   105e4:	e55b3189 	ldrb	r3, [fp, #-393]	; 0xfffffe77
   105e8:	e1a06003 	mov	r6, r3
   105ec:	e55b3189 	ldrb	r3, [fp, #-393]	; 0xfffffe77
   105f0:	e1a02003 	mov	r2, r3
   105f4:	e59f3268 	ldr	r3, [pc, #616]	; 10864 <run+0x2c7c>
   105f8:	e7943003 	ldr	r3, [r4, r3]
   105fc:	e7930102 	ldr	r0, [r3, r2, lsl #2]
   10600:	e55b318a 	ldrb	r3, [fp, #-394]	; 0xfffffe76
   10604:	e1a07003 	mov	r7, r3
   10608:	e55b318a 	ldrb	r3, [fp, #-394]	; 0xfffffe76
   1060c:	e1a02003 	mov	r2, r3
   10610:	e59f3250 	ldr	r3, [pc, #592]	; 10868 <run+0x2c80>
   10614:	e7943003 	ldr	r3, [r4, r3]
   10618:	e7933102 	ldr	r3, [r3, r2, lsl #2]
   1061c:	e55b218b 	ldrb	r2, [fp, #-395]	; 0xfffffe75
   10620:	e1a0c002 	mov	ip, r2
   10624:	e55b218b 	ldrb	r2, [fp, #-395]	; 0xfffffe75
   10628:	e1a01002 	mov	r1, r2
   1062c:	e59f2238 	ldr	r2, [pc, #568]	; 1086c <run+0x2c84>
   10630:	e7942002 	ldr	r2, [r4, r2]
   10634:	e7922101 	ldr	r2, [r2, r1, lsl #2]
   10638:	e55b118c 	ldrb	r1, [fp, #-396]	; 0xfffffe74
   1063c:	e1a0e001 	mov	lr, r1
   10640:	e55b118c 	ldrb	r1, [fp, #-396]	; 0xfffffe74
   10644:	e1a05001 	mov	r5, r1
   10648:	e59f1220 	ldr	r1, [pc, #544]	; 10870 <run+0x2c88>
   1064c:	e7941001 	ldr	r1, [r4, r1]
   10650:	e7911105 	ldr	r1, [r1, r5, lsl #2]
   10654:	e58d1010 	str	r1, [sp, #16]
   10658:	e58de00c 	str	lr, [sp, #12]
   1065c:	e58d2008 	str	r2, [sp, #8]
   10660:	e58dc004 	str	ip, [sp, #4]
   10664:	e58d3000 	str	r3, [sp]
   10668:	e1a03007 	mov	r3, r7
   1066c:	e1a02000 	mov	r2, r0
   10670:	e1a01006 	mov	r1, r6
   10674:	e59f0218 	ldr	r0, [pc, #536]	; 10894 <run+0x2cac>
   10678:	e08f0000 	add	r0, pc, r0
   1067c:	eb00113c 	bl	14b74 <tfp_printf>
   10680:	e51b1050 	ldr	r1, [fp, #-80]	; 0xffffffb0
   10684:	e59f320c 	ldr	r3, [pc, #524]	; 10898 <run+0x2cb0>
   10688:	e08f3003 	add	r3, pc, r3
   1068c:	e1a00003 	mov	r0, r3
   10690:	eb001137 	bl	14b74 <tfp_printf>
   10694:	ea000003 	b	106a8 <run+0x2ac0>
   10698:	e320f000 	nop	{0}
   1069c:	ea000002 	b	106ac <run+0x2ac4>
   106a0:	e320f000 	nop	{0}
   106a4:	ea000000 	b	106ac <run+0x2ac4>
   106a8:	e320f000 	nop	{0}
   106ac:	e51b304c 	ldr	r3, [fp, #-76]	; 0xffffffb4
   106b0:	e2831001 	add	r1, r3, #1
   106b4:	e51b304c 	ldr	r3, [fp, #-76]	; 0xffffffb4
   106b8:	e1a03103 	lsl	r3, r3, #2
   106bc:	e2433014 	sub	r3, r3, #20
   106c0:	e083300b 	add	r3, r3, fp
   106c4:	e5132174 	ldr	r2, [r3, #-372]	; 0xfffffe8c
   106c8:	e1a03101 	lsl	r3, r1, #2
   106cc:	e2433014 	sub	r3, r3, #20
   106d0:	e083300b 	add	r3, r3, fp
   106d4:	e5032130 	str	r2, [r3, #-304]	; 0xfffffed0
   106d8:	e51b304c 	ldr	r3, [fp, #-76]	; 0xffffffb4
   106dc:	e1a03103 	lsl	r3, r3, #2
   106e0:	e2433014 	sub	r3, r3, #20
   106e4:	e083300b 	add	r3, r3, fp
   106e8:	e5131130 	ldr	r1, [r3, #-304]	; 0xfffffed0
   106ec:	e51b304c 	ldr	r3, [fp, #-76]	; 0xffffffb4
   106f0:	e2833001 	add	r3, r3, #1
   106f4:	e51b2050 	ldr	r2, [fp, #-80]	; 0xffffffb0
   106f8:	e0222001 	eor	r2, r2, r1
   106fc:	e1a03103 	lsl	r3, r3, #2
   10700:	e2433014 	sub	r3, r3, #20
   10704:	e083300b 	add	r3, r3, fp
   10708:	e5032174 	str	r2, [r3, #-372]	; 0xfffffe8c
   1070c:	e59b3008 	ldr	r3, [fp, #8]
   10710:	e3530000 	cmp	r3, #0
   10714:	0a000025 	beq	107b0 <run+0x2bc8>
   10718:	e51b104c 	ldr	r1, [fp, #-76]	; 0xffffffb4
   1071c:	e59f3178 	ldr	r3, [pc, #376]	; 1089c <run+0x2cb4>
   10720:	e08f3003 	add	r3, pc, r3
   10724:	e1a00003 	mov	r0, r3
   10728:	eb001111 	bl	14b74 <tfp_printf>
   1072c:	e51b304c 	ldr	r3, [fp, #-76]	; 0xffffffb4
   10730:	e2831001 	add	r1, r3, #1
   10734:	e51b304c 	ldr	r3, [fp, #-76]	; 0xffffffb4
   10738:	e2833001 	add	r3, r3, #1
   1073c:	e1a03103 	lsl	r3, r3, #2
   10740:	e2433014 	sub	r3, r3, #20
   10744:	e083300b 	add	r3, r3, fp
   10748:	e5133130 	ldr	r3, [r3, #-304]	; 0xfffffed0
   1074c:	e51b204c 	ldr	r2, [fp, #-76]	; 0xffffffb4
   10750:	e59f0148 	ldr	r0, [pc, #328]	; 108a0 <run+0x2cb8>
   10754:	e08f0000 	add	r0, pc, r0
   10758:	eb001105 	bl	14b74 <tfp_printf>
   1075c:	e51b304c 	ldr	r3, [fp, #-76]	; 0xffffffb4
   10760:	e2831001 	add	r1, r3, #1
   10764:	e51b304c 	ldr	r3, [fp, #-76]	; 0xffffffb4
   10768:	e1a03103 	lsl	r3, r3, #2
   1076c:	e2433014 	sub	r3, r3, #20
   10770:	e083300b 	add	r3, r3, fp
   10774:	e5132130 	ldr	r2, [r3, #-304]	; 0xfffffed0
   10778:	e51b304c 	ldr	r3, [fp, #-76]	; 0xffffffb4
   1077c:	e2833001 	add	r3, r3, #1
   10780:	e1a03103 	lsl	r3, r3, #2
   10784:	e2433014 	sub	r3, r3, #20
   10788:	e083300b 	add	r3, r3, fp
   1078c:	e5133174 	ldr	r3, [r3, #-372]	; 0xfffffe8c
   10790:	e58d3004 	str	r3, [sp, #4]
   10794:	e51b3050 	ldr	r3, [fp, #-80]	; 0xffffffb0
   10798:	e58d3000 	str	r3, [sp]
   1079c:	e1a03002 	mov	r3, r2
   107a0:	e51b204c 	ldr	r2, [fp, #-76]	; 0xffffffb4
   107a4:	e59f00f8 	ldr	r0, [pc, #248]	; 108a4 <run+0x2cbc>
   107a8:	e08f0000 	add	r0, pc, r0
   107ac:	eb0010f0 	bl	14b74 <tfp_printf>
   107b0:	e51b304c 	ldr	r3, [fp, #-76]	; 0xffffffb4
   107b4:	e2833001 	add	r3, r3, #1
   107b8:	e50b304c 	str	r3, [fp, #-76]	; 0xffffffb4
   107bc:	e51b304c 	ldr	r3, [fp, #-76]	; 0xffffffb4
   107c0:	e353000f 	cmp	r3, #15
   107c4:	dafffdd3 	ble	ff18 <run+0x2330>
   107c8:	e51b3148 	ldr	r3, [fp, #-328]	; 0xfffffeb8
   107cc:	e50b319c 	str	r3, [fp, #-412]	; 0xfffffe64
   107d0:	e51b3104 	ldr	r3, [fp, #-260]	; 0xfffffefc
   107d4:	e50b3198 	str	r3, [fp, #-408]	; 0xfffffe68
   107d8:	e59b3008 	ldr	r3, [fp, #8]
   107dc:	e3530000 	cmp	r3, #0
   107e0:	0a00000a 	beq	10810 <run+0x2c28>
   107e4:	e59f30bc 	ldr	r3, [pc, #188]	; 108a8 <run+0x2cc0>
   107e8:	e08f3003 	add	r3, pc, r3
   107ec:	e1a00003 	mov	r0, r3
   107f0:	eb0010df 	bl	14b74 <tfp_printf>
   107f4:	e51b319c 	ldr	r3, [fp, #-412]	; 0xfffffe64
   107f8:	e51b2198 	ldr	r2, [fp, #-408]	; 0xfffffe68
   107fc:	e1a01003 	mov	r1, r3
   10800:	e59f30a4 	ldr	r3, [pc, #164]	; 108ac <run+0x2cc4>
   10804:	e08f3003 	add	r3, pc, r3
   10808:	e1a00003 	mov	r0, r3
   1080c:	eb0010d8 	bl	14b74 <tfp_printf>
   10810:	e51b3190 	ldr	r3, [fp, #-400]	; 0xfffffe70
   10814:	e1a02003 	mov	r2, r3
   10818:	e24b3f67 	sub	r3, fp, #412	; 0x19c
   1081c:	e8930003 	ldm	r3, {r0, r1}
   10820:	e8820003 	stm	r2, {r0, r1}
   10824:	e51b0190 	ldr	r0, [fp, #-400]	; 0xfffffe70
   10828:	e24bd014 	sub	sp, fp, #20
   1082c:	e8bd88f0 	pop	{r4, r5, r6, r7, fp, pc}
   10830:	0002ab2c 	.word	0x0002ab2c
   10834:	0002ab04 	.word	0x0002ab04
   10838:	0002ab10 	.word	0x0002ab10
   1083c:	0002aaf8 	.word	0x0002aaf8
   10840:	0000a58c 	.word	0x0000a58c
   10844:	0000a518 	.word	0x0000a518
   10848:	0000a30c 	.word	0x0000a30c
   1084c:	0000a524 	.word	0x0000a524
   10850:	0000a4b8 	.word	0x0000a4b8
   10854:	0000a480 	.word	0x0000a480
   10858:	0000a478 	.word	0x0000a478
   1085c:	0000a3bc 	.word	0x0000a3bc
   10860:	0000a398 	.word	0x0000a398
   10864:	0002ab0c 	.word	0x0002ab0c
   10868:	0002ab24 	.word	0x0002ab24
   1086c:	0002aaf4 	.word	0x0002aaf4
   10870:	0002ab18 	.word	0x0002ab18
   10874:	0000a29c 	.word	0x0000a29c
   10878:	0000a2d4 	.word	0x0000a2d4
   1087c:	0000a274 	.word	0x0000a274
   10880:	0000a190 	.word	0x0000a190
   10884:	0000a090 	.word	0x0000a090
   10888:	0000a0c8 	.word	0x0000a0c8
   1088c:	0000a094 	.word	0x0000a094
   10890:	00009f7c 	.word	0x00009f7c
   10894:	00009e80 	.word	0x00009e80
   10898:	00009eb8 	.word	0x00009eb8
   1089c:	00009eb0 	.word	0x00009eb0
   108a0:	00009e90 	.word	0x00009e90
   108a4:	00009e54 	.word	0x00009e54
   108a8:	00009e40 	.word	0x00009e40
   108ac:	00009e3c 	.word	0x00009e3c

000108b0 <encrypt>:
   108b0:	e92d4800 	push	{fp, lr}
   108b4:	e28db004 	add	fp, sp, #4
   108b8:	e24dd018 	sub	sp, sp, #24
   108bc:	e50b0008 	str	r0, [fp, #-8]
   108c0:	e50b100c 	str	r1, [fp, #-12]
   108c4:	e24b1014 	sub	r1, fp, #20
   108c8:	e881000c 	stm	r1, {r2, r3}
   108cc:	e51b0008 	ldr	r0, [fp, #-8]
   108d0:	e59b3004 	ldr	r3, [fp, #4]
   108d4:	e58d3004 	str	r3, [sp, #4]
   108d8:	e3a03000 	mov	r3, #0
   108dc:	e58d3000 	str	r3, [sp]
   108e0:	e24b3014 	sub	r3, fp, #20
   108e4:	e893000c 	ldm	r3, {r2, r3}
   108e8:	e51b100c 	ldr	r1, [fp, #-12]
   108ec:	ebfff4bd 	bl	dbe8 <run>
   108f0:	e51b0008 	ldr	r0, [fp, #-8]
   108f4:	e24bd004 	sub	sp, fp, #4
   108f8:	e8bd8800 	pop	{fp, pc}

000108fc <blockFromBytes>:
   108fc:	e52db004 	push	{fp}		; (str fp, [sp, #-4]!)
   10900:	e28db000 	add	fp, sp, #0
   10904:	e24dd01c 	sub	sp, sp, #28
   10908:	e50b0018 	str	r0, [fp, #-24]	; 0xffffffe8
   1090c:	e50b101c 	str	r1, [fp, #-28]	; 0xffffffe4
   10910:	e3a03000 	mov	r3, #0
   10914:	e50b3010 	str	r3, [fp, #-16]
   10918:	e3a03000 	mov	r3, #0
   1091c:	e50b300c 	str	r3, [fp, #-12]
   10920:	e3a03000 	mov	r3, #0
   10924:	e50b3008 	str	r3, [fp, #-8]
   10928:	ea000016 	b	10988 <blockFromBytes+0x8c>
   1092c:	e51b3008 	ldr	r3, [fp, #-8]
   10930:	e3530003 	cmp	r3, #3
   10934:	ca000008 	bgt	1095c <blockFromBytes+0x60>
   10938:	e51b3010 	ldr	r3, [fp, #-16]
   1093c:	e1a03403 	lsl	r3, r3, #8
   10940:	e51b2008 	ldr	r2, [fp, #-8]
   10944:	e51b101c 	ldr	r1, [fp, #-28]	; 0xffffffe4
   10948:	e0812002 	add	r2, r1, r2
   1094c:	e5d22000 	ldrb	r2, [r2]
   10950:	e1833002 	orr	r3, r3, r2
   10954:	e50b3010 	str	r3, [fp, #-16]
   10958:	ea000007 	b	1097c <blockFromBytes+0x80>
   1095c:	e51b300c 	ldr	r3, [fp, #-12]
   10960:	e1a03403 	lsl	r3, r3, #8
   10964:	e51b2008 	ldr	r2, [fp, #-8]
   10968:	e51b101c 	ldr	r1, [fp, #-28]	; 0xffffffe4
   1096c:	e0812002 	add	r2, r1, r2
   10970:	e5d22000 	ldrb	r2, [r2]
   10974:	e1833002 	orr	r3, r3, r2
   10978:	e50b300c 	str	r3, [fp, #-12]
   1097c:	e51b3008 	ldr	r3, [fp, #-8]
   10980:	e2833001 	add	r3, r3, #1
   10984:	e50b3008 	str	r3, [fp, #-8]
   10988:	e51b3008 	ldr	r3, [fp, #-8]
   1098c:	e3530007 	cmp	r3, #7
   10990:	daffffe5 	ble	1092c <blockFromBytes+0x30>
   10994:	e51b3018 	ldr	r3, [fp, #-24]	; 0xffffffe8
   10998:	e1a02003 	mov	r2, r3
   1099c:	e24b3010 	sub	r3, fp, #16
   109a0:	e8930003 	ldm	r3, {r0, r1}
   109a4:	e8820003 	stm	r2, {r0, r1}
   109a8:	e51b0018 	ldr	r0, [fp, #-24]	; 0xffffffe8
   109ac:	e28bd000 	add	sp, fp, #0
   109b0:	e49db004 	pop	{fp}		; (ldr fp, [sp], #4)
   109b4:	e12fff1e 	bx	lr

000109b8 <print_heap_debug>:
   109b8:	e92d4800 	push	{fp, lr}
   109bc:	e28db004 	add	fp, sp, #4
   109c0:	e24dd010 	sub	sp, sp, #16
   109c4:	e59f30dc 	ldr	r3, [pc, #220]	; 10aa8 <print_heap_debug+0xf0>
   109c8:	e08f3003 	add	r3, pc, r3
   109cc:	e5d33000 	ldrb	r3, [r3]
   109d0:	e3530000 	cmp	r3, #0
   109d4:	1a000004 	bne	109ec <print_heap_debug+0x34>
   109d8:	e59f30cc 	ldr	r3, [pc, #204]	; 10aac <print_heap_debug+0xf4>
   109dc:	e08f3003 	add	r3, pc, r3
   109e0:	e1a00003 	mov	r0, r3
   109e4:	eb001062 	bl	14b74 <tfp_printf>
   109e8:	ea00002c 	b	10aa0 <print_heap_debug+0xe8>
   109ec:	e59f30bc 	ldr	r3, [pc, #188]	; 10ab0 <print_heap_debug+0xf8>
   109f0:	e08f3003 	add	r3, pc, r3
   109f4:	e5933000 	ldr	r3, [r3]
   109f8:	e50b3008 	str	r3, [fp, #-8]
   109fc:	e3a03000 	mov	r3, #0
   10a00:	e50b300c 	str	r3, [fp, #-12]
   10a04:	e3a03000 	mov	r3, #0
   10a08:	e50b3010 	str	r3, [fp, #-16]
   10a0c:	e3a03000 	mov	r3, #0
   10a10:	e50b3014 	str	r3, [fp, #-20]	; 0xffffffec
   10a14:	ea00001e 	b	10a94 <print_heap_debug+0xdc>
   10a18:	e51b3008 	ldr	r3, [fp, #-8]
   10a1c:	e5d33004 	ldrb	r3, [r3, #4]
   10a20:	e3530000 	cmp	r3, #0
   10a24:	0a00000c 	beq	10a5c <print_heap_debug+0xa4>
   10a28:	e51b3008 	ldr	r3, [fp, #-8]
   10a2c:	e5933000 	ldr	r3, [r3]
   10a30:	e51b200c 	ldr	r2, [fp, #-12]
   10a34:	e0823003 	add	r3, r2, r3
   10a38:	e50b300c 	str	r3, [fp, #-12]
   10a3c:	e51b3008 	ldr	r3, [fp, #-8]
   10a40:	e5933000 	ldr	r3, [r3]
   10a44:	e51b2010 	ldr	r2, [fp, #-16]
   10a48:	e1520003 	cmp	r2, r3
   10a4c:	2a000002 	bcs	10a5c <print_heap_debug+0xa4>
   10a50:	e51b3008 	ldr	r3, [fp, #-8]
   10a54:	e5933000 	ldr	r3, [r3]
   10a58:	e50b3010 	str	r3, [fp, #-16]
   10a5c:	e51b3008 	ldr	r3, [fp, #-8]
   10a60:	e5933008 	ldr	r3, [r3, #8]
   10a64:	e50b3008 	str	r3, [fp, #-8]
   10a68:	e51b3014 	ldr	r3, [fp, #-20]	; 0xffffffec
   10a6c:	e2833001 	add	r3, r3, #1
   10a70:	e50b3014 	str	r3, [fp, #-20]	; 0xffffffec
   10a74:	e51b3014 	ldr	r3, [fp, #-20]	; 0xffffffec
   10a78:	e3530ffa 	cmp	r3, #1000	; 0x3e8
   10a7c:	da000004 	ble	10a94 <print_heap_debug+0xdc>
   10a80:	e59f302c 	ldr	r3, [pc, #44]	; 10ab4 <print_heap_debug+0xfc>
   10a84:	e08f3003 	add	r3, pc, r3
   10a88:	e1a00003 	mov	r0, r3
   10a8c:	eb001038 	bl	14b74 <tfp_printf>
   10a90:	ea000002 	b	10aa0 <print_heap_debug+0xe8>
   10a94:	e51b3008 	ldr	r3, [fp, #-8]
   10a98:	e3530000 	cmp	r3, #0
   10a9c:	1affffdd 	bne	10a18 <print_heap_debug+0x60>
   10aa0:	e24bd004 	sub	sp, fp, #4
   10aa4:	e8bd8800 	pop	{fp, pc}
   10aa8:	00038654 	.word	0x00038654
   10aac:	00009c7c 	.word	0x00009c7c
   10ab0:	00038614 	.word	0x00038614
   10ab4:	00009bec 	.word	0x00009bec

00010ab8 <malloc>:
   10ab8:	e92d4800 	push	{fp, lr}
   10abc:	e28db004 	add	fp, sp, #4
   10ac0:	e24dd018 	sub	sp, sp, #24
   10ac4:	e50b0018 	str	r0, [fp, #-24]	; 0xffffffe8
   10ac8:	e59f312c 	ldr	r3, [pc, #300]	; 10bfc <malloc+0x144>
   10acc:	e08f3003 	add	r3, pc, r3
   10ad0:	e5d33000 	ldrb	r3, [r3]
   10ad4:	e3530000 	cmp	r3, #0
   10ad8:	1a000000 	bne	10ae0 <malloc+0x28>
   10adc:	ebffdd4a 	bl	800c <init_heap>
   10ae0:	e51b3018 	ldr	r3, [fp, #-24]	; 0xffffffe8
   10ae4:	e3530000 	cmp	r3, #0
   10ae8:	1a000001 	bne	10af4 <malloc+0x3c>
   10aec:	e3a03000 	mov	r3, #0
   10af0:	ea00003e 	b	10bf0 <malloc+0x138>
   10af4:	e51b3018 	ldr	r3, [fp, #-24]	; 0xffffffe8
   10af8:	e283301b 	add	r3, r3, #27
   10afc:	e3c3300f 	bic	r3, r3, #15
   10b00:	e50b300c 	str	r3, [fp, #-12]
   10b04:	e59f30f4 	ldr	r3, [pc, #244]	; 10c00 <malloc+0x148>
   10b08:	e08f3003 	add	r3, pc, r3
   10b0c:	e5933000 	ldr	r3, [r3]
   10b10:	e50b3008 	str	r3, [fp, #-8]
   10b14:	ea000030 	b	10bdc <malloc+0x124>
   10b18:	e51b3008 	ldr	r3, [fp, #-8]
   10b1c:	e5d33004 	ldrb	r3, [r3, #4]
   10b20:	e3530000 	cmp	r3, #0
   10b24:	0a000029 	beq	10bd0 <malloc+0x118>
   10b28:	e51b3008 	ldr	r3, [fp, #-8]
   10b2c:	e5933000 	ldr	r3, [r3]
   10b30:	e51b200c 	ldr	r2, [fp, #-12]
   10b34:	e1520003 	cmp	r2, r3
   10b38:	8a000024 	bhi	10bd0 <malloc+0x118>
   10b3c:	e51b3008 	ldr	r3, [fp, #-8]
   10b40:	e5932000 	ldr	r2, [r3]
   10b44:	e51b300c 	ldr	r3, [fp, #-12]
   10b48:	e283301c 	add	r3, r3, #28
   10b4c:	e1520003 	cmp	r2, r3
   10b50:	3a000016 	bcc	10bb0 <malloc+0xf8>
   10b54:	e51b2008 	ldr	r2, [fp, #-8]
   10b58:	e51b300c 	ldr	r3, [fp, #-12]
   10b5c:	e0823003 	add	r3, r2, r3
   10b60:	e50b3010 	str	r3, [fp, #-16]
   10b64:	e51b3008 	ldr	r3, [fp, #-8]
   10b68:	e5932000 	ldr	r2, [r3]
   10b6c:	e51b300c 	ldr	r3, [fp, #-12]
   10b70:	e0422003 	sub	r2, r2, r3
   10b74:	e51b3010 	ldr	r3, [fp, #-16]
   10b78:	e5832000 	str	r2, [r3]
   10b7c:	e51b3010 	ldr	r3, [fp, #-16]
   10b80:	e3a02001 	mov	r2, #1
   10b84:	e5c32004 	strb	r2, [r3, #4]
   10b88:	e51b3008 	ldr	r3, [fp, #-8]
   10b8c:	e5932008 	ldr	r2, [r3, #8]
   10b90:	e51b3010 	ldr	r3, [fp, #-16]
   10b94:	e5832008 	str	r2, [r3, #8]
   10b98:	e51b3008 	ldr	r3, [fp, #-8]
   10b9c:	e51b200c 	ldr	r2, [fp, #-12]
   10ba0:	e5832000 	str	r2, [r3]
   10ba4:	e51b3008 	ldr	r3, [fp, #-8]
   10ba8:	e51b2010 	ldr	r2, [fp, #-16]
   10bac:	e5832008 	str	r2, [r3, #8]
   10bb0:	e51b3008 	ldr	r3, [fp, #-8]
   10bb4:	e3a02000 	mov	r2, #0
   10bb8:	e5c32004 	strb	r2, [r3, #4]
   10bbc:	e51b3008 	ldr	r3, [fp, #-8]
   10bc0:	e283300c 	add	r3, r3, #12
   10bc4:	e50b3014 	str	r3, [fp, #-20]	; 0xffffffec
   10bc8:	e51b3014 	ldr	r3, [fp, #-20]	; 0xffffffec
   10bcc:	ea000007 	b	10bf0 <malloc+0x138>
   10bd0:	e51b3008 	ldr	r3, [fp, #-8]
   10bd4:	e5933008 	ldr	r3, [r3, #8]
   10bd8:	e50b3008 	str	r3, [fp, #-8]
   10bdc:	e51b3008 	ldr	r3, [fp, #-8]
   10be0:	e3530000 	cmp	r3, #0
   10be4:	1affffcb 	bne	10b18 <malloc+0x60>
   10be8:	ebffff72 	bl	109b8 <print_heap_debug>
   10bec:	e3a03000 	mov	r3, #0
   10bf0:	e1a00003 	mov	r0, r3
   10bf4:	e24bd004 	sub	sp, fp, #4
   10bf8:	e8bd8800 	pop	{fp, pc}
   10bfc:	00038550 	.word	0x00038550
   10c00:	000384fc 	.word	0x000384fc

00010c04 <free>:
   10c04:	e52db004 	push	{fp}		; (str fp, [sp, #-4]!)
   10c08:	e28db000 	add	fp, sp, #0
   10c0c:	e24dd01c 	sub	sp, sp, #28
   10c10:	e50b0018 	str	r0, [fp, #-24]	; 0xffffffe8
   10c14:	e59f31ac 	ldr	r3, [pc, #428]	; 10dc8 <free+0x1c4>
   10c18:	e08f3003 	add	r3, pc, r3
   10c1c:	e51b2018 	ldr	r2, [fp, #-24]	; 0xffffffe8
   10c20:	e3520000 	cmp	r2, #0
   10c24:	0a000061 	beq	10db0 <free+0x1ac>
   10c28:	e51b2018 	ldr	r2, [fp, #-24]	; 0xffffffe8
   10c2c:	e242200c 	sub	r2, r2, #12
   10c30:	e50b200c 	str	r2, [fp, #-12]
   10c34:	e59f2190 	ldr	r2, [pc, #400]	; 10dcc <free+0x1c8>
   10c38:	e08f2002 	add	r2, pc, r2
   10c3c:	e5922000 	ldr	r2, [r2]
   10c40:	e51b100c 	ldr	r1, [fp, #-12]
   10c44:	e1510002 	cmp	r1, r2
   10c48:	3a00005a 	bcc	10db8 <free+0x1b4>
   10c4c:	e59f217c 	ldr	r2, [pc, #380]	; 10dd0 <free+0x1cc>
   10c50:	e08f2002 	add	r2, pc, r2
   10c54:	e5922000 	ldr	r2, [r2]
   10c58:	e59f1174 	ldr	r1, [pc, #372]	; 10dd4 <free+0x1d0>
   10c5c:	e7931001 	ldr	r1, [r3, r1]
   10c60:	e1a00001 	mov	r0, r1
   10c64:	e59f116c 	ldr	r1, [pc, #364]	; 10dd8 <free+0x1d4>
   10c68:	e7933001 	ldr	r3, [r3, r1]
   10c6c:	e0403003 	sub	r3, r0, r3
   10c70:	e0823003 	add	r3, r2, r3
   10c74:	e51b200c 	ldr	r2, [fp, #-12]
   10c78:	e1520003 	cmp	r2, r3
   10c7c:	2a00004d 	bcs	10db8 <free+0x1b4>
   10c80:	e51b300c 	ldr	r3, [fp, #-12]
   10c84:	e3a02001 	mov	r2, #1
   10c88:	e5c32004 	strb	r2, [r3, #4]
   10c8c:	e51b300c 	ldr	r3, [fp, #-12]
   10c90:	e5933008 	ldr	r3, [r3, #8]
   10c94:	e3530000 	cmp	r3, #0
   10c98:	0a000019 	beq	10d04 <free+0x100>
   10c9c:	e51b300c 	ldr	r3, [fp, #-12]
   10ca0:	e5933008 	ldr	r3, [r3, #8]
   10ca4:	e5d33004 	ldrb	r3, [r3, #4]
   10ca8:	e3530000 	cmp	r3, #0
   10cac:	0a000014 	beq	10d04 <free+0x100>
   10cb0:	e51b300c 	ldr	r3, [fp, #-12]
   10cb4:	e5933000 	ldr	r3, [r3]
   10cb8:	e51b200c 	ldr	r2, [fp, #-12]
   10cbc:	e0822003 	add	r2, r2, r3
   10cc0:	e51b300c 	ldr	r3, [fp, #-12]
   10cc4:	e5933008 	ldr	r3, [r3, #8]
   10cc8:	e1520003 	cmp	r2, r3
   10ccc:	1a00000c 	bne	10d04 <free+0x100>
   10cd0:	e51b300c 	ldr	r3, [fp, #-12]
   10cd4:	e5932000 	ldr	r2, [r3]
   10cd8:	e51b300c 	ldr	r3, [fp, #-12]
   10cdc:	e5933008 	ldr	r3, [r3, #8]
   10ce0:	e5933000 	ldr	r3, [r3]
   10ce4:	e0822003 	add	r2, r2, r3
   10ce8:	e51b300c 	ldr	r3, [fp, #-12]
   10cec:	e5832000 	str	r2, [r3]
   10cf0:	e51b300c 	ldr	r3, [fp, #-12]
   10cf4:	e5933008 	ldr	r3, [r3, #8]
   10cf8:	e5932008 	ldr	r2, [r3, #8]
   10cfc:	e51b300c 	ldr	r3, [fp, #-12]
   10d00:	e5832008 	str	r2, [r3, #8]
   10d04:	e3a03000 	mov	r3, #0
   10d08:	e50b3010 	str	r3, [fp, #-16]
   10d0c:	e59f30c8 	ldr	r3, [pc, #200]	; 10ddc <free+0x1d8>
   10d10:	e08f3003 	add	r3, pc, r3
   10d14:	e5933000 	ldr	r3, [r3]
   10d18:	e50b3008 	str	r3, [fp, #-8]
   10d1c:	ea00001b 	b	10d90 <free+0x18c>
   10d20:	e51b3008 	ldr	r3, [fp, #-8]
   10d24:	e5d33004 	ldrb	r3, [r3, #4]
   10d28:	e3530000 	cmp	r3, #0
   10d2c:	0a000012 	beq	10d7c <free+0x178>
   10d30:	e51b3008 	ldr	r3, [fp, #-8]
   10d34:	e5933000 	ldr	r3, [r3]
   10d38:	e51b2008 	ldr	r2, [fp, #-8]
   10d3c:	e0823003 	add	r3, r2, r3
   10d40:	e51b200c 	ldr	r2, [fp, #-12]
   10d44:	e1520003 	cmp	r2, r3
   10d48:	1a00000b 	bne	10d7c <free+0x178>
   10d4c:	e51b3008 	ldr	r3, [fp, #-8]
   10d50:	e5932000 	ldr	r2, [r3]
   10d54:	e51b300c 	ldr	r3, [fp, #-12]
   10d58:	e5933000 	ldr	r3, [r3]
   10d5c:	e0822003 	add	r2, r2, r3
   10d60:	e51b3008 	ldr	r3, [fp, #-8]
   10d64:	e5832000 	str	r2, [r3]
   10d68:	e51b300c 	ldr	r3, [fp, #-12]
   10d6c:	e5932008 	ldr	r2, [r3, #8]
   10d70:	e51b3008 	ldr	r3, [fp, #-8]
   10d74:	e5832008 	str	r2, [r3, #8]
   10d78:	ea00000f 	b	10dbc <free+0x1b8>
   10d7c:	e51b3008 	ldr	r3, [fp, #-8]
   10d80:	e50b3010 	str	r3, [fp, #-16]
   10d84:	e51b3008 	ldr	r3, [fp, #-8]
   10d88:	e5933008 	ldr	r3, [r3, #8]
   10d8c:	e50b3008 	str	r3, [fp, #-8]
   10d90:	e51b3008 	ldr	r3, [fp, #-8]
   10d94:	e3530000 	cmp	r3, #0
   10d98:	0a000007 	beq	10dbc <free+0x1b8>
   10d9c:	e51b2008 	ldr	r2, [fp, #-8]
   10da0:	e51b300c 	ldr	r3, [fp, #-12]
   10da4:	e1520003 	cmp	r2, r3
   10da8:	1affffdc 	bne	10d20 <free+0x11c>
   10dac:	ea000002 	b	10dbc <free+0x1b8>
   10db0:	e320f000 	nop	{0}
   10db4:	ea000000 	b	10dbc <free+0x1b8>
   10db8:	e320f000 	nop	{0}
   10dbc:	e28bd000 	add	sp, fp, #0
   10dc0:	e49db004 	pop	{fp}		; (ldr fp, [sp], #4)
   10dc4:	e12fff1e 	bx	lr
   10dc8:	0000cc80 	.word	0x0000cc80
   10dcc:	0000cc60 	.word	0x0000cc60
   10dd0:	0000cc48 	.word	0x0000cc48
   10dd4:	0002ab1c 	.word	0x0002ab1c
   10dd8:	0002ab28 	.word	0x0002ab28
   10ddc:	000382f4 	.word	0x000382f4

00010de0 <xmalloc>:
   10de0:	e92d4800 	push	{fp, lr}
   10de4:	e28db004 	add	fp, sp, #4
   10de8:	e24dd010 	sub	sp, sp, #16
   10dec:	e50b0010 	str	r0, [fp, #-16]
   10df0:	e51b3010 	ldr	r3, [fp, #-16]
   10df4:	e3530000 	cmp	r3, #0
   10df8:	1a000001 	bne	10e04 <xmalloc+0x24>
   10dfc:	e3a03001 	mov	r3, #1
   10e00:	e50b3010 	str	r3, [fp, #-16]
   10e04:	e51b0010 	ldr	r0, [fp, #-16]
   10e08:	ebffff2a 	bl	10ab8 <malloc>
   10e0c:	e50b0008 	str	r0, [fp, #-8]
   10e10:	e51b3008 	ldr	r3, [fp, #-8]
   10e14:	e3530000 	cmp	r3, #0
   10e18:	1a000007 	bne	10e3c <xmalloc+0x5c>
   10e1c:	e51b1010 	ldr	r1, [fp, #-16]
   10e20:	e59f3034 	ldr	r3, [pc, #52]	; 10e5c <xmalloc+0x7c>
   10e24:	e08f3003 	add	r3, pc, r3
   10e28:	e1a00003 	mov	r0, r3
   10e2c:	eb000f50 	bl	14b74 <tfp_printf>
   10e30:	ebfffee0 	bl	109b8 <print_heap_debug>
   10e34:	e3a03000 	mov	r3, #0
   10e38:	ea000004 	b	10e50 <xmalloc+0x70>
   10e3c:	e51b2010 	ldr	r2, [fp, #-16]
   10e40:	e3a01000 	mov	r1, #0
   10e44:	e51b0008 	ldr	r0, [fp, #-8]
   10e48:	eb000081 	bl	11054 <memset>
   10e4c:	e51b3008 	ldr	r3, [fp, #-8]
   10e50:	e1a00003 	mov	r0, r3
   10e54:	e24bd004 	sub	sp, fp, #4
   10e58:	e8bd8800 	pop	{fp, pc}
   10e5c:	0000987c 	.word	0x0000987c

00010e60 <xmalloc_clear>:
   10e60:	e92d4800 	push	{fp, lr}
   10e64:	e28db004 	add	fp, sp, #4
   10e68:	e24dd010 	sub	sp, sp, #16
   10e6c:	e50b0010 	str	r0, [fp, #-16]
   10e70:	e51b0010 	ldr	r0, [fp, #-16]
   10e74:	ebffff0f 	bl	10ab8 <malloc>
   10e78:	e50b0008 	str	r0, [fp, #-8]
   10e7c:	e51b3008 	ldr	r3, [fp, #-8]
   10e80:	e3530000 	cmp	r3, #0
   10e84:	0a000004 	beq	10e9c <xmalloc_clear+0x3c>
   10e88:	e51b2010 	ldr	r2, [fp, #-16]
   10e8c:	e3a01000 	mov	r1, #0
   10e90:	e51b0008 	ldr	r0, [fp, #-8]
   10e94:	eb00006e 	bl	11054 <memset>
   10e98:	ea000008 	b	10ec0 <xmalloc_clear+0x60>
   10e9c:	e51b3010 	ldr	r3, [fp, #-16]
   10ea0:	e3530000 	cmp	r3, #0
   10ea4:	0a000005 	beq	10ec0 <xmalloc_clear+0x60>
   10ea8:	e51b1010 	ldr	r1, [fp, #-16]
   10eac:	e59f301c 	ldr	r3, [pc, #28]	; 10ed0 <xmalloc_clear+0x70>
   10eb0:	e08f3003 	add	r3, pc, r3
   10eb4:	e1a00003 	mov	r0, r3
   10eb8:	eb000f2d 	bl	14b74 <tfp_printf>
   10ebc:	ebfffebd 	bl	109b8 <print_heap_debug>
   10ec0:	e51b3008 	ldr	r3, [fp, #-8]
   10ec4:	e1a00003 	mov	r0, r3
   10ec8:	e24bd004 	sub	sp, fp, #4
   10ecc:	e8bd8800 	pop	{fp, pc}
   10ed0:	00009818 	.word	0x00009818

00010ed4 <xcalloc>:
   10ed4:	e92d4800 	push	{fp, lr}
   10ed8:	e28db004 	add	fp, sp, #4
   10edc:	e24dd010 	sub	sp, sp, #16
   10ee0:	e50b0010 	str	r0, [fp, #-16]
   10ee4:	e50b1014 	str	r1, [fp, #-20]	; 0xffffffec
   10ee8:	e51b3010 	ldr	r3, [fp, #-16]
   10eec:	e3530000 	cmp	r3, #0
   10ef0:	0a000007 	beq	10f14 <xcalloc+0x40>
   10ef4:	e3e02000 	mvn	r2, #0
   10ef8:	e51b3010 	ldr	r3, [fp, #-16]
   10efc:	e733f312 	udiv	r3, r2, r3
   10f00:	e51b2014 	ldr	r2, [fp, #-20]	; 0xffffffec
   10f04:	e1520003 	cmp	r2, r3
   10f08:	9a000001 	bls	10f14 <xcalloc+0x40>
   10f0c:	e3a03000 	mov	r3, #0
   10f10:	ea00000e 	b	10f50 <xcalloc+0x7c>
   10f14:	e51b3010 	ldr	r3, [fp, #-16]
   10f18:	e51b2014 	ldr	r2, [fp, #-20]	; 0xffffffec
   10f1c:	e0030392 	mul	r3, r2, r3
   10f20:	e50b3008 	str	r3, [fp, #-8]
   10f24:	e51b0008 	ldr	r0, [fp, #-8]
   10f28:	ebfffee2 	bl	10ab8 <malloc>
   10f2c:	e50b000c 	str	r0, [fp, #-12]
   10f30:	e51b300c 	ldr	r3, [fp, #-12]
   10f34:	e3530000 	cmp	r3, #0
   10f38:	0a000003 	beq	10f4c <xcalloc+0x78>
   10f3c:	e51b2008 	ldr	r2, [fp, #-8]
   10f40:	e3a01000 	mov	r1, #0
   10f44:	e51b000c 	ldr	r0, [fp, #-12]
   10f48:	eb000041 	bl	11054 <memset>
   10f4c:	e51b300c 	ldr	r3, [fp, #-12]
   10f50:	e1a00003 	mov	r0, r3
   10f54:	e24bd004 	sub	sp, fp, #4
   10f58:	e8bd8800 	pop	{fp, pc}

00010f5c <xfree>:
   10f5c:	e92d4800 	push	{fp, lr}
   10f60:	e28db004 	add	fp, sp, #4
   10f64:	e24dd008 	sub	sp, sp, #8
   10f68:	e50b0008 	str	r0, [fp, #-8]
   10f6c:	e51b3008 	ldr	r3, [fp, #-8]
   10f70:	e3530000 	cmp	r3, #0
   10f74:	0a000001 	beq	10f80 <xfree+0x24>
   10f78:	e51b0008 	ldr	r0, [fp, #-8]
   10f7c:	ebffff20 	bl	10c04 <free>
   10f80:	e320f000 	nop	{0}
   10f84:	e24bd004 	sub	sp, fp, #4
   10f88:	e8bd8800 	pop	{fp, pc}

00010f8c <xrealloc>:
   10f8c:	e92d4800 	push	{fp, lr}
   10f90:	e28db004 	add	fp, sp, #4
   10f94:	e24dd018 	sub	sp, sp, #24
   10f98:	e50b0018 	str	r0, [fp, #-24]	; 0xffffffe8
   10f9c:	e50b101c 	str	r1, [fp, #-28]	; 0xffffffe4
   10fa0:	e51b3018 	ldr	r3, [fp, #-24]	; 0xffffffe8
   10fa4:	e3530000 	cmp	r3, #0
   10fa8:	1a000003 	bne	10fbc <xrealloc+0x30>
   10fac:	e51b001c 	ldr	r0, [fp, #-28]	; 0xffffffe4
   10fb0:	ebfffec0 	bl	10ab8 <malloc>
   10fb4:	e1a03000 	mov	r3, r0
   10fb8:	ea000022 	b	11048 <xrealloc+0xbc>
   10fbc:	e51b301c 	ldr	r3, [fp, #-28]	; 0xffffffe4
   10fc0:	e3530000 	cmp	r3, #0
   10fc4:	1a000003 	bne	10fd8 <xrealloc+0x4c>
   10fc8:	e51b0018 	ldr	r0, [fp, #-24]	; 0xffffffe8
   10fcc:	ebffff0c 	bl	10c04 <free>
   10fd0:	e3a03000 	mov	r3, #0
   10fd4:	ea00001b 	b	11048 <xrealloc+0xbc>
   10fd8:	e51b3018 	ldr	r3, [fp, #-24]	; 0xffffffe8
   10fdc:	e243300c 	sub	r3, r3, #12
   10fe0:	e50b3008 	str	r3, [fp, #-8]
   10fe4:	e51b3008 	ldr	r3, [fp, #-8]
   10fe8:	e5933000 	ldr	r3, [r3]
   10fec:	e243300c 	sub	r3, r3, #12
   10ff0:	e50b300c 	str	r3, [fp, #-12]
   10ff4:	e51b201c 	ldr	r2, [fp, #-28]	; 0xffffffe4
   10ff8:	e51b300c 	ldr	r3, [fp, #-12]
   10ffc:	e1520003 	cmp	r2, r3
   11000:	8a000001 	bhi	1100c <xrealloc+0x80>
   11004:	e51b3018 	ldr	r3, [fp, #-24]	; 0xffffffe8
   11008:	ea00000e 	b	11048 <xrealloc+0xbc>
   1100c:	e51b001c 	ldr	r0, [fp, #-28]	; 0xffffffe4
   11010:	ebfffea8 	bl	10ab8 <malloc>
   11014:	e50b0010 	str	r0, [fp, #-16]
   11018:	e51b3010 	ldr	r3, [fp, #-16]
   1101c:	e3530000 	cmp	r3, #0
   11020:	1a000001 	bne	1102c <xrealloc+0xa0>
   11024:	e3a03000 	mov	r3, #0
   11028:	ea000006 	b	11048 <xrealloc+0xbc>
   1102c:	e51b200c 	ldr	r2, [fp, #-12]
   11030:	e51b1018 	ldr	r1, [fp, #-24]	; 0xffffffe8
   11034:	e51b0010 	ldr	r0, [fp, #-16]
   11038:	eb00001e 	bl	110b8 <memcpy>
   1103c:	e51b0018 	ldr	r0, [fp, #-24]	; 0xffffffe8
   11040:	ebfffeef 	bl	10c04 <free>
   11044:	e51b3010 	ldr	r3, [fp, #-16]
   11048:	e1a00003 	mov	r0, r3
   1104c:	e24bd004 	sub	sp, fp, #4
   11050:	e8bd8800 	pop	{fp, pc}

00011054 <memset>:
   11054:	e52db004 	push	{fp}		; (str fp, [sp, #-4]!)
   11058:	e28db000 	add	fp, sp, #0
   1105c:	e24dd01c 	sub	sp, sp, #28
   11060:	e50b0010 	str	r0, [fp, #-16]
   11064:	e50b1014 	str	r1, [fp, #-20]	; 0xffffffec
   11068:	e50b2018 	str	r2, [fp, #-24]	; 0xffffffe8
   1106c:	e51b3010 	ldr	r3, [fp, #-16]
   11070:	e50b3008 	str	r3, [fp, #-8]
   11074:	ea000005 	b	11090 <memset+0x3c>
   11078:	e51b3008 	ldr	r3, [fp, #-8]
   1107c:	e2832001 	add	r2, r3, #1
   11080:	e50b2008 	str	r2, [fp, #-8]
   11084:	e51b2014 	ldr	r2, [fp, #-20]	; 0xffffffec
   11088:	e6ef2072 	uxtb	r2, r2
   1108c:	e5c32000 	strb	r2, [r3]
   11090:	e51b3018 	ldr	r3, [fp, #-24]	; 0xffffffe8
   11094:	e2432001 	sub	r2, r3, #1
   11098:	e50b2018 	str	r2, [fp, #-24]	; 0xffffffe8
   1109c:	e3530000 	cmp	r3, #0
   110a0:	1afffff4 	bne	11078 <memset+0x24>
   110a4:	e51b3010 	ldr	r3, [fp, #-16]
   110a8:	e1a00003 	mov	r0, r3
   110ac:	e28bd000 	add	sp, fp, #0
   110b0:	e49db004 	pop	{fp}		; (ldr fp, [sp], #4)
   110b4:	e12fff1e 	bx	lr

000110b8 <memcpy>:
   110b8:	e52db004 	push	{fp}		; (str fp, [sp, #-4]!)
   110bc:	e28db000 	add	fp, sp, #0
   110c0:	e24dd01c 	sub	sp, sp, #28
   110c4:	e50b0010 	str	r0, [fp, #-16]
   110c8:	e50b1014 	str	r1, [fp, #-20]	; 0xffffffec
   110cc:	e50b2018 	str	r2, [fp, #-24]	; 0xffffffe8
   110d0:	e51b3010 	ldr	r3, [fp, #-16]
   110d4:	e50b3008 	str	r3, [fp, #-8]
   110d8:	e51b3014 	ldr	r3, [fp, #-20]	; 0xffffffec
   110dc:	e50b300c 	str	r3, [fp, #-12]
   110e0:	ea000007 	b	11104 <memcpy+0x4c>
   110e4:	e51b200c 	ldr	r2, [fp, #-12]
   110e8:	e2823001 	add	r3, r2, #1
   110ec:	e50b300c 	str	r3, [fp, #-12]
   110f0:	e51b3008 	ldr	r3, [fp, #-8]
   110f4:	e2831001 	add	r1, r3, #1
   110f8:	e50b1008 	str	r1, [fp, #-8]
   110fc:	e5d22000 	ldrb	r2, [r2]
   11100:	e5c32000 	strb	r2, [r3]
   11104:	e51b3018 	ldr	r3, [fp, #-24]	; 0xffffffe8
   11108:	e2432001 	sub	r2, r3, #1
   1110c:	e50b2018 	str	r2, [fp, #-24]	; 0xffffffe8
   11110:	e3530000 	cmp	r3, #0
   11114:	1afffff2 	bne	110e4 <memcpy+0x2c>
   11118:	e51b3010 	ldr	r3, [fp, #-16]
   1111c:	e1a00003 	mov	r0, r3
   11120:	e28bd000 	add	sp, fp, #0
   11124:	e49db004 	pop	{fp}		; (ldr fp, [sp], #4)
   11128:	e12fff1e 	bx	lr

0001112c <memmove>:
   1112c:	e52db004 	push	{fp}		; (str fp, [sp, #-4]!)
   11130:	e28db000 	add	fp, sp, #0
   11134:	e24dd01c 	sub	sp, sp, #28
   11138:	e50b0010 	str	r0, [fp, #-16]
   1113c:	e50b1014 	str	r1, [fp, #-20]	; 0xffffffec
   11140:	e50b2018 	str	r2, [fp, #-24]	; 0xffffffe8
   11144:	e51b3010 	ldr	r3, [fp, #-16]
   11148:	e50b3008 	str	r3, [fp, #-8]
   1114c:	e51b3014 	ldr	r3, [fp, #-20]	; 0xffffffec
   11150:	e50b300c 	str	r3, [fp, #-12]
   11154:	e51b2008 	ldr	r2, [fp, #-8]
   11158:	e51b300c 	ldr	r3, [fp, #-12]
   1115c:	e1520003 	cmp	r2, r3
   11160:	9a000026 	bls	11200 <memmove+0xd4>
   11164:	e51b200c 	ldr	r2, [fp, #-12]
   11168:	e51b3018 	ldr	r3, [fp, #-24]	; 0xffffffe8
   1116c:	e0823003 	add	r3, r2, r3
   11170:	e51b2008 	ldr	r2, [fp, #-8]
   11174:	e1520003 	cmp	r2, r3
   11178:	2a000020 	bcs	11200 <memmove+0xd4>
   1117c:	e51b2008 	ldr	r2, [fp, #-8]
   11180:	e51b3018 	ldr	r3, [fp, #-24]	; 0xffffffe8
   11184:	e0823003 	add	r3, r2, r3
   11188:	e50b3008 	str	r3, [fp, #-8]
   1118c:	e51b200c 	ldr	r2, [fp, #-12]
   11190:	e51b3018 	ldr	r3, [fp, #-24]	; 0xffffffe8
   11194:	e0823003 	add	r3, r2, r3
   11198:	e50b300c 	str	r3, [fp, #-12]
   1119c:	ea000009 	b	111c8 <memmove+0x9c>
   111a0:	e51b300c 	ldr	r3, [fp, #-12]
   111a4:	e2433001 	sub	r3, r3, #1
   111a8:	e50b300c 	str	r3, [fp, #-12]
   111ac:	e51b3008 	ldr	r3, [fp, #-8]
   111b0:	e2433001 	sub	r3, r3, #1
   111b4:	e50b3008 	str	r3, [fp, #-8]
   111b8:	e51b300c 	ldr	r3, [fp, #-12]
   111bc:	e5d32000 	ldrb	r2, [r3]
   111c0:	e51b3008 	ldr	r3, [fp, #-8]
   111c4:	e5c32000 	strb	r2, [r3]
   111c8:	e51b3018 	ldr	r3, [fp, #-24]	; 0xffffffe8
   111cc:	e2432001 	sub	r2, r3, #1
   111d0:	e50b2018 	str	r2, [fp, #-24]	; 0xffffffe8
   111d4:	e3530000 	cmp	r3, #0
   111d8:	1afffff0 	bne	111a0 <memmove+0x74>
   111dc:	ea00000c 	b	11214 <memmove+0xe8>
   111e0:	e51b200c 	ldr	r2, [fp, #-12]
   111e4:	e2823001 	add	r3, r2, #1
   111e8:	e50b300c 	str	r3, [fp, #-12]
   111ec:	e51b3008 	ldr	r3, [fp, #-8]
   111f0:	e2831001 	add	r1, r3, #1
   111f4:	e50b1008 	str	r1, [fp, #-8]
   111f8:	e5d22000 	ldrb	r2, [r2]
   111fc:	e5c32000 	strb	r2, [r3]
   11200:	e51b3018 	ldr	r3, [fp, #-24]	; 0xffffffe8
   11204:	e2432001 	sub	r2, r3, #1
   11208:	e50b2018 	str	r2, [fp, #-24]	; 0xffffffe8
   1120c:	e3530000 	cmp	r3, #0
   11210:	1afffff2 	bne	111e0 <memmove+0xb4>
   11214:	e51b3010 	ldr	r3, [fp, #-16]
   11218:	e1a00003 	mov	r0, r3
   1121c:	e28bd000 	add	sp, fp, #0
   11220:	e49db004 	pop	{fp}		; (ldr fp, [sp], #4)
   11224:	e12fff1e 	bx	lr

00011228 <wipememory>:
   11228:	e52db004 	push	{fp}		; (str fp, [sp, #-4]!)
   1122c:	e28db000 	add	fp, sp, #0
   11230:	e24dd014 	sub	sp, sp, #20
   11234:	e50b0010 	str	r0, [fp, #-16]
   11238:	e50b1014 	str	r1, [fp, #-20]	; 0xffffffec
   1123c:	e51b3010 	ldr	r3, [fp, #-16]
   11240:	e50b3008 	str	r3, [fp, #-8]
   11244:	ea000004 	b	1125c <wipememory+0x34>
   11248:	e51b3008 	ldr	r3, [fp, #-8]
   1124c:	e2832001 	add	r2, r3, #1
   11250:	e50b2008 	str	r2, [fp, #-8]
   11254:	e3a02000 	mov	r2, #0
   11258:	e5c32000 	strb	r2, [r3]
   1125c:	e51b3014 	ldr	r3, [fp, #-20]	; 0xffffffec
   11260:	e2432001 	sub	r2, r3, #1
   11264:	e50b2014 	str	r2, [fp, #-20]	; 0xffffffec
   11268:	e3530000 	cmp	r3, #0
   1126c:	1afffff5 	bne	11248 <wipememory+0x20>
   11270:	e320f000 	nop	{0}
   11274:	e320f000 	nop	{0}
   11278:	e28bd000 	add	sp, fp, #0
   1127c:	e49db004 	pop	{fp}		; (ldr fp, [sp], #4)
   11280:	e12fff1e 	bx	lr

00011284 <strcpy>:
   11284:	e52db004 	push	{fp}		; (str fp, [sp, #-4]!)
   11288:	e28db000 	add	fp, sp, #0
   1128c:	e24dd00c 	sub	sp, sp, #12
   11290:	e50b0008 	str	r0, [fp, #-8]
   11294:	e50b100c 	str	r1, [fp, #-12]
   11298:	e320f000 	nop	{0}
   1129c:	e51b200c 	ldr	r2, [fp, #-12]
   112a0:	e2823001 	add	r3, r2, #1
   112a4:	e50b300c 	str	r3, [fp, #-12]
   112a8:	e51b3008 	ldr	r3, [fp, #-8]
   112ac:	e2831001 	add	r1, r3, #1
   112b0:	e50b1008 	str	r1, [fp, #-8]
   112b4:	e5d22000 	ldrb	r2, [r2]
   112b8:	e5c32000 	strb	r2, [r3]
   112bc:	e5d33000 	ldrb	r3, [r3]
   112c0:	e3530000 	cmp	r3, #0
   112c4:	1afffff4 	bne	1129c <strcpy+0x18>
   112c8:	e320f000 	nop	{0}
   112cc:	e320f000 	nop	{0}
   112d0:	e28bd000 	add	sp, fp, #0
   112d4:	e49db004 	pop	{fp}		; (ldr fp, [sp], #4)
   112d8:	e12fff1e 	bx	lr

000112dc <xtrycalloc>:
   112dc:	e92d4800 	push	{fp, lr}
   112e0:	e28db004 	add	fp, sp, #4
   112e4:	e24dd010 	sub	sp, sp, #16
   112e8:	e50b0010 	str	r0, [fp, #-16]
   112ec:	e50b1014 	str	r1, [fp, #-20]	; 0xffffffec
   112f0:	e51b3010 	ldr	r3, [fp, #-16]
   112f4:	e3530000 	cmp	r3, #0
   112f8:	0a00000c 	beq	11330 <xtrycalloc+0x54>
   112fc:	e51b3014 	ldr	r3, [fp, #-20]	; 0xffffffec
   11300:	e3530000 	cmp	r3, #0
   11304:	0a000009 	beq	11330 <xtrycalloc+0x54>
   11308:	e51b3010 	ldr	r3, [fp, #-16]
   1130c:	e51b2014 	ldr	r2, [fp, #-20]	; 0xffffffec
   11310:	e0020392 	mul	r2, r2, r3
   11314:	e51b3010 	ldr	r3, [fp, #-16]
   11318:	e733f312 	udiv	r3, r2, r3
   1131c:	e51b2014 	ldr	r2, [fp, #-20]	; 0xffffffec
   11320:	e1520003 	cmp	r2, r3
   11324:	0a000001 	beq	11330 <xtrycalloc+0x54>
   11328:	e3a03000 	mov	r3, #0
   1132c:	ea00000e 	b	1136c <xtrycalloc+0x90>
   11330:	e51b3010 	ldr	r3, [fp, #-16]
   11334:	e51b2014 	ldr	r2, [fp, #-20]	; 0xffffffec
   11338:	e0030392 	mul	r3, r2, r3
   1133c:	e50b3008 	str	r3, [fp, #-8]
   11340:	e51b0008 	ldr	r0, [fp, #-8]
   11344:	ebfffddb 	bl	10ab8 <malloc>
   11348:	e50b000c 	str	r0, [fp, #-12]
   1134c:	e51b300c 	ldr	r3, [fp, #-12]
   11350:	e3530000 	cmp	r3, #0
   11354:	0a000003 	beq	11368 <xtrycalloc+0x8c>
   11358:	e51b2008 	ldr	r2, [fp, #-8]
   1135c:	e3a01000 	mov	r1, #0
   11360:	e51b000c 	ldr	r0, [fp, #-12]
   11364:	ebffff3a 	bl	11054 <memset>
   11368:	e51b300c 	ldr	r3, [fp, #-12]
   1136c:	e1a00003 	mov	r0, r3
   11370:	e24bd004 	sub	sp, fp, #4
   11374:	e8bd8800 	pop	{fp, pc}

00011378 <open>:
   11378:	e92d000e 	push	{r1, r2, r3}
   1137c:	e92d4800 	push	{fp, lr}
   11380:	e28db004 	add	fp, sp, #4
   11384:	e24dd00c 	sub	sp, sp, #12
   11388:	e50b000c 	str	r0, [fp, #-12]
   1138c:	e59f3060 	ldr	r3, [pc, #96]	; 113f4 <open+0x7c>
   11390:	e08f3003 	add	r3, pc, r3
   11394:	e1a01003 	mov	r1, r3
   11398:	e51b000c 	ldr	r0, [fp, #-12]
   1139c:	eb00002f 	bl	11460 <strcmp>
   113a0:	e1a03000 	mov	r3, r0
   113a4:	e3530000 	cmp	r3, #0
   113a8:	1a000001 	bne	113b4 <open+0x3c>
   113ac:	e3a03001 	mov	r3, #1
   113b0:	ea00000a 	b	113e0 <open+0x68>
   113b4:	e59f303c 	ldr	r3, [pc, #60]	; 113f8 <open+0x80>
   113b8:	e08f3003 	add	r3, pc, r3
   113bc:	e1a01003 	mov	r1, r3
   113c0:	e51b000c 	ldr	r0, [fp, #-12]
   113c4:	eb000025 	bl	11460 <strcmp>
   113c8:	e1a03000 	mov	r3, r0
   113cc:	e3530000 	cmp	r3, #0
   113d0:	1a000001 	bne	113dc <open+0x64>
   113d4:	e3a03000 	mov	r3, #0
   113d8:	ea000000 	b	113e0 <open+0x68>
   113dc:	e3e03000 	mvn	r3, #0
   113e0:	e1a00003 	mov	r0, r3
   113e4:	e24bd004 	sub	sp, fp, #4
   113e8:	e8bd4800 	pop	{fp, lr}
   113ec:	e28dd00c 	add	sp, sp, #12
   113f0:	e12fff1e 	bx	lr
   113f4:	00009364 	.word	0x00009364
   113f8:	00009344 	.word	0x00009344

000113fc <strchr>:
   113fc:	e52db004 	push	{fp}		; (str fp, [sp, #-4]!)
   11400:	e28db000 	add	fp, sp, #0
   11404:	e24dd00c 	sub	sp, sp, #12
   11408:	e50b0008 	str	r0, [fp, #-8]
   1140c:	e50b100c 	str	r1, [fp, #-12]
   11410:	ea000007 	b	11434 <strchr+0x38>
   11414:	e51b3008 	ldr	r3, [fp, #-8]
   11418:	e2832001 	add	r2, r3, #1
   1141c:	e50b2008 	str	r2, [fp, #-8]
   11420:	e5d33000 	ldrb	r3, [r3]
   11424:	e3530000 	cmp	r3, #0
   11428:	1a000001 	bne	11434 <strchr+0x38>
   1142c:	e3a03000 	mov	r3, #0
   11430:	ea000006 	b	11450 <strchr+0x54>
   11434:	e51b3008 	ldr	r3, [fp, #-8]
   11438:	e5d32000 	ldrb	r2, [r3]
   1143c:	e51b300c 	ldr	r3, [fp, #-12]
   11440:	e6ef3073 	uxtb	r3, r3
   11444:	e1520003 	cmp	r2, r3
   11448:	1afffff1 	bne	11414 <strchr+0x18>
   1144c:	e51b3008 	ldr	r3, [fp, #-8]
   11450:	e1a00003 	mov	r0, r3
   11454:	e28bd000 	add	sp, fp, #0
   11458:	e49db004 	pop	{fp}		; (ldr fp, [sp], #4)
   1145c:	e12fff1e 	bx	lr

00011460 <strcmp>:
   11460:	e52db004 	push	{fp}		; (str fp, [sp, #-4]!)
   11464:	e28db000 	add	fp, sp, #0
   11468:	e24dd00c 	sub	sp, sp, #12
   1146c:	e50b0008 	str	r0, [fp, #-8]
   11470:	e50b100c 	str	r1, [fp, #-12]
   11474:	ea000005 	b	11490 <strcmp+0x30>
   11478:	e51b3008 	ldr	r3, [fp, #-8]
   1147c:	e2833001 	add	r3, r3, #1
   11480:	e50b3008 	str	r3, [fp, #-8]
   11484:	e51b300c 	ldr	r3, [fp, #-12]
   11488:	e2833001 	add	r3, r3, #1
   1148c:	e50b300c 	str	r3, [fp, #-12]
   11490:	e51b3008 	ldr	r3, [fp, #-8]
   11494:	e5d33000 	ldrb	r3, [r3]
   11498:	e3530000 	cmp	r3, #0
   1149c:	0a000005 	beq	114b8 <strcmp+0x58>
   114a0:	e51b3008 	ldr	r3, [fp, #-8]
   114a4:	e5d32000 	ldrb	r2, [r3]
   114a8:	e51b300c 	ldr	r3, [fp, #-12]
   114ac:	e5d33000 	ldrb	r3, [r3]
   114b0:	e1520003 	cmp	r2, r3
   114b4:	0affffef 	beq	11478 <strcmp+0x18>
   114b8:	e51b3008 	ldr	r3, [fp, #-8]
   114bc:	e5d33000 	ldrb	r3, [r3]
   114c0:	e1a02003 	mov	r2, r3
   114c4:	e51b300c 	ldr	r3, [fp, #-12]
   114c8:	e5d33000 	ldrb	r3, [r3]
   114cc:	e0423003 	sub	r3, r2, r3
   114d0:	e1a00003 	mov	r0, r3
   114d4:	e28bd000 	add	sp, fp, #0
   114d8:	e49db004 	pop	{fp}		; (ldr fp, [sp], #4)
   114dc:	e12fff1e 	bx	lr

000114e0 <strdup>:
   114e0:	e92d4800 	push	{fp, lr}
   114e4:	e28db004 	add	fp, sp, #4
   114e8:	e24dd010 	sub	sp, sp, #16
   114ec:	e50b0010 	str	r0, [fp, #-16]
   114f0:	e51b0010 	ldr	r0, [fp, #-16]
   114f4:	eb00186c 	bl	176ac <strlen>
   114f8:	e1a03000 	mov	r3, r0
   114fc:	e2833001 	add	r3, r3, #1
   11500:	e50b3008 	str	r3, [fp, #-8]
   11504:	e51b0008 	ldr	r0, [fp, #-8]
   11508:	ebfffd6a 	bl	10ab8 <malloc>
   1150c:	e50b000c 	str	r0, [fp, #-12]
   11510:	e51b300c 	ldr	r3, [fp, #-12]
   11514:	e3530000 	cmp	r3, #0
   11518:	0a000003 	beq	1152c <strdup+0x4c>
   1151c:	e51b2008 	ldr	r2, [fp, #-8]
   11520:	e51b1010 	ldr	r1, [fp, #-16]
   11524:	e51b000c 	ldr	r0, [fp, #-12]
   11528:	ebfffee2 	bl	110b8 <memcpy>
   1152c:	e51b300c 	ldr	r3, [fp, #-12]
   11530:	e1a00003 	mov	r0, r3
   11534:	e24bd004 	sub	sp, fp, #4
   11538:	e8bd8800 	pop	{fp, pc}

0001153c <xstrdup>:
   1153c:	e92d4800 	push	{fp, lr}
   11540:	e28db004 	add	fp, sp, #4
   11544:	e24dd010 	sub	sp, sp, #16
   11548:	e50b0010 	str	r0, [fp, #-16]
   1154c:	e51b0010 	ldr	r0, [fp, #-16]
   11550:	ebffffe2 	bl	114e0 <strdup>
   11554:	e50b0008 	str	r0, [fp, #-8]
   11558:	e51b3008 	ldr	r3, [fp, #-8]
   1155c:	e3530000 	cmp	r3, #0
   11560:	1a000000 	bne	11568 <xstrdup+0x2c>
   11564:	eafffffe 	b	11564 <xstrdup+0x28>
   11568:	e51b3008 	ldr	r3, [fp, #-8]
   1156c:	e1a00003 	mov	r0, r3
   11570:	e24bd004 	sub	sp, fp, #4
   11574:	e8bd8800 	pop	{fp, pc}

00011578 <gpg_err_make>:
   11578:	e52db004 	push	{fp}		; (str fp, [sp, #-4]!)
   1157c:	e28db000 	add	fp, sp, #0
   11580:	e24dd00c 	sub	sp, sp, #12
   11584:	e1a03000 	mov	r3, r0
   11588:	e50b100c 	str	r1, [fp, #-12]
   1158c:	e54b3005 	strb	r3, [fp, #-5]
   11590:	e51b300c 	ldr	r3, [fp, #-12]
   11594:	e3530000 	cmp	r3, #0
   11598:	0a000006 	beq	115b8 <gpg_err_make+0x40>
   1159c:	e55b3005 	ldrb	r3, [fp, #-5]
   115a0:	e1a03c03 	lsl	r3, r3, #24
   115a4:	e203247f 	and	r2, r3, #2130706432	; 0x7f000000
   115a8:	e51b300c 	ldr	r3, [fp, #-12]
   115ac:	e6ff3073 	uxth	r3, r3
   115b0:	e1823003 	orr	r3, r2, r3
   115b4:	ea000000 	b	115bc <gpg_err_make+0x44>
   115b8:	e3a03000 	mov	r3, #0
   115bc:	e1a00003 	mov	r0, r3
   115c0:	e28bd000 	add	sp, fp, #0
   115c4:	e49db004 	pop	{fp}		; (ldr fp, [sp], #4)
   115c8:	e12fff1e 	bx	lr

000115cc <gpg_error>:
   115cc:	e92d4800 	push	{fp, lr}
   115d0:	e28db004 	add	fp, sp, #4
   115d4:	e24dd008 	sub	sp, sp, #8
   115d8:	e50b0008 	str	r0, [fp, #-8]
   115dc:	e51b1008 	ldr	r1, [fp, #-8]
   115e0:	e3a00002 	mov	r0, #2
   115e4:	ebffffe3 	bl	11578 <gpg_err_make>
   115e8:	e1a03000 	mov	r3, r0
   115ec:	e1a00003 	mov	r0, r3
   115f0:	e24bd004 	sub	sp, fp, #4
   115f4:	e8bd8800 	pop	{fp, pc}

000115f8 <gpg_err_code>:
   115f8:	e52db004 	push	{fp}		; (str fp, [sp, #-4]!)
   115fc:	e28db000 	add	fp, sp, #0
   11600:	e24dd00c 	sub	sp, sp, #12
   11604:	e50b0008 	str	r0, [fp, #-8]
   11608:	e51b3008 	ldr	r3, [fp, #-8]
   1160c:	e6ff3073 	uxth	r3, r3
   11610:	e1a00003 	mov	r0, r3
   11614:	e28bd000 	add	sp, fp, #0
   11618:	e49db004 	pop	{fp}		; (ldr fp, [sp], #4)
   1161c:	e12fff1e 	bx	lr

00011620 <buf32_to_ulong>:
   11620:	e52db004 	push	{fp}		; (str fp, [sp, #-4]!)
   11624:	e28db000 	add	fp, sp, #0
   11628:	e24dd014 	sub	sp, sp, #20
   1162c:	e50b0010 	str	r0, [fp, #-16]
   11630:	e51b3010 	ldr	r3, [fp, #-16]
   11634:	e50b3008 	str	r3, [fp, #-8]
   11638:	e51b3008 	ldr	r3, [fp, #-8]
   1163c:	e5d33000 	ldrb	r3, [r3]
   11640:	e1a03c03 	lsl	r3, r3, #24
   11644:	e51b2008 	ldr	r2, [fp, #-8]
   11648:	e2822001 	add	r2, r2, #1
   1164c:	e5d22000 	ldrb	r2, [r2]
   11650:	e1a02802 	lsl	r2, r2, #16
   11654:	e1833002 	orr	r3, r3, r2
   11658:	e51b2008 	ldr	r2, [fp, #-8]
   1165c:	e2822002 	add	r2, r2, #2
   11660:	e5d22000 	ldrb	r2, [r2]
   11664:	e1a02402 	lsl	r2, r2, #8
   11668:	e1833002 	orr	r3, r3, r2
   1166c:	e51b2008 	ldr	r2, [fp, #-8]
   11670:	e2822003 	add	r2, r2, #3
   11674:	e5d22000 	ldrb	r2, [r2]
   11678:	e1833002 	orr	r3, r3, r2
   1167c:	e1a00003 	mov	r0, r3
   11680:	e28bd000 	add	sp, fp, #0
   11684:	e49db004 	pop	{fp}		; (ldr fp, [sp], #4)
   11688:	e12fff1e 	bx	lr

0001168c <read_32>:
   1168c:	e92d4800 	push	{fp, lr}
   11690:	e28db004 	add	fp, sp, #4
   11694:	e24dd010 	sub	sp, sp, #16
   11698:	e50b0010 	str	r0, [fp, #-16]
   1169c:	e51b3010 	ldr	r3, [fp, #-16]
   116a0:	e5933010 	ldr	r3, [r3, #16]
   116a4:	e3530000 	cmp	r3, #0
   116a8:	1a000005 	bne	116c4 <read_32+0x38>
   116ac:	e51b3010 	ldr	r3, [fp, #-16]
   116b0:	e5932018 	ldr	r2, [r3, #24]
   116b4:	e51b3010 	ldr	r3, [fp, #-16]
   116b8:	e593301c 	ldr	r3, [r3, #28]
   116bc:	e1520003 	cmp	r2, r3
   116c0:	3a000004 	bcc	116d8 <read_32+0x4c>
   116c4:	e51b0010 	ldr	r0, [fp, #-16]
   116c8:	ebffe496 	bl	a928 <iobuf_readbyte>
   116cc:	e1a03000 	mov	r3, r0
   116d0:	e1a03c03 	lsl	r3, r3, #24
   116d4:	ea00000e 	b	11714 <read_32+0x88>
   116d8:	e51b3010 	ldr	r3, [fp, #-16]
   116dc:	e5933008 	ldr	r3, [r3, #8]
   116e0:	e2832001 	add	r2, r3, #1
   116e4:	e51b3010 	ldr	r3, [fp, #-16]
   116e8:	e5832008 	str	r2, [r3, #8]
   116ec:	e51b3010 	ldr	r3, [fp, #-16]
   116f0:	e5932020 	ldr	r2, [r3, #32]
   116f4:	e51b3010 	ldr	r3, [fp, #-16]
   116f8:	e5933018 	ldr	r3, [r3, #24]
   116fc:	e2830001 	add	r0, r3, #1
   11700:	e51b1010 	ldr	r1, [fp, #-16]
   11704:	e5810018 	str	r0, [r1, #24]
   11708:	e0823003 	add	r3, r2, r3
   1170c:	e5d33000 	ldrb	r3, [r3]
   11710:	e1a03c03 	lsl	r3, r3, #24
   11714:	e50b3008 	str	r3, [fp, #-8]
   11718:	e51b3010 	ldr	r3, [fp, #-16]
   1171c:	e5933010 	ldr	r3, [r3, #16]
   11720:	e3530000 	cmp	r3, #0
   11724:	1a000005 	bne	11740 <read_32+0xb4>
   11728:	e51b3010 	ldr	r3, [fp, #-16]
   1172c:	e5932018 	ldr	r2, [r3, #24]
   11730:	e51b3010 	ldr	r3, [fp, #-16]
   11734:	e593301c 	ldr	r3, [r3, #28]
   11738:	e1520003 	cmp	r2, r3
   1173c:	3a000005 	bcc	11758 <read_32+0xcc>
   11740:	e51b0010 	ldr	r0, [fp, #-16]
   11744:	ebffe477 	bl	a928 <iobuf_readbyte>
   11748:	e1a03000 	mov	r3, r0
   1174c:	e1a03803 	lsl	r3, r3, #16
   11750:	e20338ff 	and	r3, r3, #16711680	; 0xff0000
   11754:	ea00000e 	b	11794 <read_32+0x108>
   11758:	e51b3010 	ldr	r3, [fp, #-16]
   1175c:	e5933008 	ldr	r3, [r3, #8]
   11760:	e2832001 	add	r2, r3, #1
   11764:	e51b3010 	ldr	r3, [fp, #-16]
   11768:	e5832008 	str	r2, [r3, #8]
   1176c:	e51b3010 	ldr	r3, [fp, #-16]
   11770:	e5932020 	ldr	r2, [r3, #32]
   11774:	e51b3010 	ldr	r3, [fp, #-16]
   11778:	e5933018 	ldr	r3, [r3, #24]
   1177c:	e2830001 	add	r0, r3, #1
   11780:	e51b1010 	ldr	r1, [fp, #-16]
   11784:	e5810018 	str	r0, [r1, #24]
   11788:	e0823003 	add	r3, r2, r3
   1178c:	e5d33000 	ldrb	r3, [r3]
   11790:	e1a03803 	lsl	r3, r3, #16
   11794:	e1a02003 	mov	r2, r3
   11798:	e51b3008 	ldr	r3, [fp, #-8]
   1179c:	e1833002 	orr	r3, r3, r2
   117a0:	e50b3008 	str	r3, [fp, #-8]
   117a4:	e51b3010 	ldr	r3, [fp, #-16]
   117a8:	e5933010 	ldr	r3, [r3, #16]
   117ac:	e3530000 	cmp	r3, #0
   117b0:	1a000005 	bne	117cc <read_32+0x140>
   117b4:	e51b3010 	ldr	r3, [fp, #-16]
   117b8:	e5932018 	ldr	r2, [r3, #24]
   117bc:	e51b3010 	ldr	r3, [fp, #-16]
   117c0:	e593301c 	ldr	r3, [r3, #28]
   117c4:	e1520003 	cmp	r2, r3
   117c8:	3a000005 	bcc	117e4 <read_32+0x158>
   117cc:	e51b0010 	ldr	r0, [fp, #-16]
   117d0:	ebffe454 	bl	a928 <iobuf_readbyte>
   117d4:	e1a03000 	mov	r3, r0
   117d8:	e1a03403 	lsl	r3, r3, #8
   117dc:	e2033cff 	and	r3, r3, #65280	; 0xff00
   117e0:	ea00000e 	b	11820 <read_32+0x194>
   117e4:	e51b3010 	ldr	r3, [fp, #-16]
   117e8:	e5933008 	ldr	r3, [r3, #8]
   117ec:	e2832001 	add	r2, r3, #1
   117f0:	e51b3010 	ldr	r3, [fp, #-16]
   117f4:	e5832008 	str	r2, [r3, #8]
   117f8:	e51b3010 	ldr	r3, [fp, #-16]
   117fc:	e5932020 	ldr	r2, [r3, #32]
   11800:	e51b3010 	ldr	r3, [fp, #-16]
   11804:	e5933018 	ldr	r3, [r3, #24]
   11808:	e2830001 	add	r0, r3, #1
   1180c:	e51b1010 	ldr	r1, [fp, #-16]
   11810:	e5810018 	str	r0, [r1, #24]
   11814:	e0823003 	add	r3, r2, r3
   11818:	e5d33000 	ldrb	r3, [r3]
   1181c:	e1a03403 	lsl	r3, r3, #8
   11820:	e1a02003 	mov	r2, r3
   11824:	e51b3008 	ldr	r3, [fp, #-8]
   11828:	e1833002 	orr	r3, r3, r2
   1182c:	e50b3008 	str	r3, [fp, #-8]
   11830:	e51b3010 	ldr	r3, [fp, #-16]
   11834:	e5933010 	ldr	r3, [r3, #16]
   11838:	e3530000 	cmp	r3, #0
   1183c:	1a000005 	bne	11858 <read_32+0x1cc>
   11840:	e51b3010 	ldr	r3, [fp, #-16]
   11844:	e5932018 	ldr	r2, [r3, #24]
   11848:	e51b3010 	ldr	r3, [fp, #-16]
   1184c:	e593301c 	ldr	r3, [r3, #28]
   11850:	e1520003 	cmp	r2, r3
   11854:	3a000004 	bcc	1186c <read_32+0x1e0>
   11858:	e51b0010 	ldr	r0, [fp, #-16]
   1185c:	ebffe431 	bl	a928 <iobuf_readbyte>
   11860:	e1a03000 	mov	r3, r0
   11864:	e6ef3073 	uxtb	r3, r3
   11868:	ea00000d 	b	118a4 <read_32+0x218>
   1186c:	e51b3010 	ldr	r3, [fp, #-16]
   11870:	e5933008 	ldr	r3, [r3, #8]
   11874:	e2832001 	add	r2, r3, #1
   11878:	e51b3010 	ldr	r3, [fp, #-16]
   1187c:	e5832008 	str	r2, [r3, #8]
   11880:	e51b3010 	ldr	r3, [fp, #-16]
   11884:	e5932020 	ldr	r2, [r3, #32]
   11888:	e51b3010 	ldr	r3, [fp, #-16]
   1188c:	e5933018 	ldr	r3, [r3, #24]
   11890:	e2830001 	add	r0, r3, #1
   11894:	e51b1010 	ldr	r1, [fp, #-16]
   11898:	e5810018 	str	r0, [r1, #24]
   1189c:	e0823003 	add	r3, r2, r3
   118a0:	e5d33000 	ldrb	r3, [r3]
   118a4:	e1a02003 	mov	r2, r3
   118a8:	e51b3008 	ldr	r3, [fp, #-8]
   118ac:	e1833002 	orr	r3, r3, r2
   118b0:	e50b3008 	str	r3, [fp, #-8]
   118b4:	e51b3008 	ldr	r3, [fp, #-8]
   118b8:	e1a00003 	mov	r0, r3
   118bc:	e24bd004 	sub	sp, fp, #4
   118c0:	e8bd8800 	pop	{fp, pc}

000118c4 <dbg_parse_packet>:
   118c4:	e92d4800 	push	{fp, lr}
   118c8:	e28db004 	add	fp, sp, #4
   118cc:	e24dd030 	sub	sp, sp, #48	; 0x30
   118d0:	e50b0010 	str	r0, [fp, #-16]
   118d4:	e50b1014 	str	r1, [fp, #-20]	; 0xffffffec
   118d8:	e50b2018 	str	r2, [fp, #-24]	; 0xffffffe8
   118dc:	e50b301c 	str	r3, [fp, #-28]	; 0xffffffe4
   118e0:	e51b301c 	ldr	r3, [fp, #-28]	; 0xffffffe4
   118e4:	e58d3014 	str	r3, [sp, #20]
   118e8:	e51b3018 	ldr	r3, [fp, #-24]	; 0xffffffe8
   118ec:	e58d3010 	str	r3, [sp, #16]
   118f0:	e59f305c 	ldr	r3, [pc, #92]	; 11954 <dbg_parse_packet+0x90>
   118f4:	e08f3003 	add	r3, pc, r3
   118f8:	e58d300c 	str	r3, [sp, #12]
   118fc:	e3a03000 	mov	r3, #0
   11900:	e58d3008 	str	r3, [sp, #8]
   11904:	e3a03000 	mov	r3, #0
   11908:	e58d3004 	str	r3, [sp, #4]
   1190c:	e24b300c 	sub	r3, fp, #12
   11910:	e58d3000 	str	r3, [sp]
   11914:	e3a03000 	mov	r3, #0
   11918:	e3a02000 	mov	r2, #0
   1191c:	e51b1014 	ldr	r1, [fp, #-20]	; 0xffffffec
   11920:	e51b0010 	ldr	r0, [fp, #-16]
   11924:	eb00000b 	bl	11958 <parse>
   11928:	e50b0008 	str	r0, [fp, #-8]
   1192c:	e51b300c 	ldr	r3, [fp, #-12]
   11930:	e3530000 	cmp	r3, #0
   11934:	0a000002 	beq	11944 <dbg_parse_packet+0x80>
   11938:	e51b3008 	ldr	r3, [fp, #-8]
   1193c:	e3530000 	cmp	r3, #0
   11940:	0affffe6 	beq	118e0 <dbg_parse_packet+0x1c>
   11944:	e51b3008 	ldr	r3, [fp, #-8]
   11948:	e1a00003 	mov	r0, r3
   1194c:	e24bd004 	sub	sp, fp, #4
   11950:	e8bd8800 	pop	{fp, pc}
   11954:	00008e10 	.word	0x00008e10

00011958 <parse>:
   11958:	e92d4800 	push	{fp, lr}
   1195c:	e28db004 	add	fp, sp, #4
   11960:	e24dd058 	sub	sp, sp, #88	; 0x58
   11964:	e50b0048 	str	r0, [fp, #-72]	; 0xffffffb8
   11968:	e50b104c 	str	r1, [fp, #-76]	; 0xffffffb4
   1196c:	e50b2050 	str	r2, [fp, #-80]	; 0xffffffb0
   11970:	e50b3054 	str	r3, [fp, #-84]	; 0xffffffac
   11974:	e3a03000 	mov	r3, #0
   11978:	e50b3008 	str	r3, [fp, #-8]
   1197c:	e3a03000 	mov	r3, #0
   11980:	e50b3024 	str	r3, [fp, #-36]	; 0xffffffdc
   11984:	e3a03000 	mov	r3, #0
   11988:	e50b301c 	str	r3, [fp, #-28]	; 0xffffffe4
   1198c:	e51b3050 	ldr	r3, [fp, #-80]	; 0xffffffb0
   11990:	e3530002 	cmp	r3, #2
   11994:	03a03001 	moveq	r3, #1
   11998:	13a03000 	movne	r3, #0
   1199c:	e6ef3073 	uxtb	r3, r3
   119a0:	e50b3028 	str	r3, [fp, #-40]	; 0xffffffd8
   119a4:	e59b3004 	ldr	r3, [fp, #4]
   119a8:	e3a02000 	mov	r2, #0
   119ac:	e5832000 	str	r2, [r3]
   119b0:	e51b3048 	ldr	r3, [fp, #-72]	; 0xffffffb8
   119b4:	e5933000 	ldr	r3, [r3]
   119b8:	e50b302c 	str	r3, [fp, #-44]	; 0xffffffd4
   119bc:	e51b3054 	ldr	r3, [fp, #-84]	; 0xffffffac
   119c0:	e3530000 	cmp	r3, #0
   119c4:	1a000004 	bne	119dc <parse+0x84>
   119c8:	e59f3acc 	ldr	r3, [pc, #2764]	; 1249c <parse+0xb44>
   119cc:	e08f3003 	add	r3, pc, r3
   119d0:	e5933000 	ldr	r3, [r3]
   119d4:	e3530000 	cmp	r3, #0
   119d8:	0a00000f 	beq	11a1c <parse+0xc4>
   119dc:	e51b002c 	ldr	r0, [fp, #-44]	; 0xffffffd4
   119e0:	ebffe558 	bl	af48 <iobuf_tell>
   119e4:	e50b0030 	str	r0, [fp, #-48]	; 0xffffffd0
   119e8:	e51b3030 	ldr	r3, [fp, #-48]	; 0xffffffd0
   119ec:	e1a01003 	mov	r1, r3
   119f0:	e59f3aa8 	ldr	r3, [pc, #2728]	; 124a0 <parse+0xb48>
   119f4:	e08f3003 	add	r3, pc, r3
   119f8:	e1a00003 	mov	r0, r3
   119fc:	eb000c5c 	bl	14b74 <tfp_printf>
   11a00:	e51b3054 	ldr	r3, [fp, #-84]	; 0xffffffac
   11a04:	e3530000 	cmp	r3, #0
   11a08:	0a000005 	beq	11a24 <parse+0xcc>
   11a0c:	e51b3054 	ldr	r3, [fp, #-84]	; 0xffffffac
   11a10:	e51b2030 	ldr	r2, [fp, #-48]	; 0xffffffd0
   11a14:	e5832000 	str	r2, [r3]
   11a18:	ea000001 	b	11a24 <parse+0xcc>
   11a1c:	e3a03000 	mov	r3, #0
   11a20:	e50b3030 	str	r3, [fp, #-48]	; 0xffffffd0
   11a24:	e51b302c 	ldr	r3, [fp, #-44]	; 0xffffffd4
   11a28:	e5933010 	ldr	r3, [r3, #16]
   11a2c:	e3530000 	cmp	r3, #0
   11a30:	1a000005 	bne	11a4c <parse+0xf4>
   11a34:	e51b302c 	ldr	r3, [fp, #-44]	; 0xffffffd4
   11a38:	e5932018 	ldr	r2, [r3, #24]
   11a3c:	e51b302c 	ldr	r3, [fp, #-44]	; 0xffffffd4
   11a40:	e593301c 	ldr	r3, [r3, #28]
   11a44:	e1520003 	cmp	r2, r3
   11a48:	3a000003 	bcc	11a5c <parse+0x104>
   11a4c:	e51b002c 	ldr	r0, [fp, #-44]	; 0xffffffd4
   11a50:	ebffe3b4 	bl	a928 <iobuf_readbyte>
   11a54:	e1a03000 	mov	r3, r0
   11a58:	ea00000d 	b	11a94 <parse+0x13c>
   11a5c:	e51b302c 	ldr	r3, [fp, #-44]	; 0xffffffd4
   11a60:	e5933008 	ldr	r3, [r3, #8]
   11a64:	e2832001 	add	r2, r3, #1
   11a68:	e51b302c 	ldr	r3, [fp, #-44]	; 0xffffffd4
   11a6c:	e5832008 	str	r2, [r3, #8]
   11a70:	e51b302c 	ldr	r3, [fp, #-44]	; 0xffffffd4
   11a74:	e5932020 	ldr	r2, [r3, #32]
   11a78:	e51b302c 	ldr	r3, [fp, #-44]	; 0xffffffd4
   11a7c:	e5933018 	ldr	r3, [r3, #24]
   11a80:	e2830001 	add	r0, r3, #1
   11a84:	e51b102c 	ldr	r1, [fp, #-44]	; 0xffffffd4
   11a88:	e5810018 	str	r0, [r1, #24]
   11a8c:	e0823003 	add	r3, r2, r3
   11a90:	e5d33000 	ldrb	r3, [r3]
   11a94:	e50b3034 	str	r3, [fp, #-52]	; 0xffffffcc
   11a98:	e51b3034 	ldr	r3, [fp, #-52]	; 0xffffffcc
   11a9c:	e3730001 	cmn	r3, #1
   11aa0:	1a000002 	bne	11ab0 <parse+0x158>
   11aa4:	e3e03000 	mvn	r3, #0
   11aa8:	e50b3008 	str	r3, [fp, #-8]
   11aac:	ea000265 	b	12448 <parse+0xaf0>
   11ab0:	e3a03000 	mov	r3, #0
   11ab4:	e50b3018 	str	r3, [fp, #-24]	; 0xffffffe8
   11ab8:	e51b3018 	ldr	r3, [fp, #-24]	; 0xffffffe8
   11abc:	e2832001 	add	r2, r3, #1
   11ac0:	e50b2018 	str	r2, [fp, #-24]	; 0xffffffe8
   11ac4:	e51b2034 	ldr	r2, [fp, #-52]	; 0xffffffcc
   11ac8:	e6ef2072 	uxtb	r2, r2
   11acc:	e2433004 	sub	r3, r3, #4
   11ad0:	e083300b 	add	r3, r3, fp
   11ad4:	e543203c 	strb	r2, [r3, #-60]	; 0xffffffc4
   11ad8:	e51b3034 	ldr	r3, [fp, #-52]	; 0xffffffcc
   11adc:	e2033080 	and	r3, r3, #128	; 0x80
   11ae0:	e3530000 	cmp	r3, #0
   11ae4:	1a00000c 	bne	11b1c <parse+0x1c4>
   11ae8:	e51b2034 	ldr	r2, [fp, #-52]	; 0xffffffcc
   11aec:	e59f39b0 	ldr	r3, [pc, #2480]	; 124a4 <parse+0xb4c>
   11af0:	e08f3003 	add	r3, pc, r3
   11af4:	e1a01003 	mov	r1, r3
   11af8:	e59f39a8 	ldr	r3, [pc, #2472]	; 124a8 <parse+0xb50>
   11afc:	e08f3003 	add	r3, pc, r3
   11b00:	e1a00003 	mov	r0, r3
   11b04:	eb000c1a 	bl	14b74 <tfp_printf>
   11b08:	e3a0000e 	mov	r0, #14
   11b0c:	ebfffeae 	bl	115cc <gpg_error>
   11b10:	e1a03000 	mov	r3, r0
   11b14:	e50b3008 	str	r3, [fp, #-8]
   11b18:	ea00024a 	b	12448 <parse+0xaf0>
   11b1c:	e3a03000 	mov	r3, #0
   11b20:	e50b3014 	str	r3, [fp, #-20]	; 0xffffffec
   11b24:	e51b3034 	ldr	r3, [fp, #-52]	; 0xffffffcc
   11b28:	e2033040 	and	r3, r3, #64	; 0x40
   11b2c:	e3530000 	cmp	r3, #0
   11b30:	13a03001 	movne	r3, #1
   11b34:	03a03000 	moveq	r3, #0
   11b38:	e6ef3073 	uxtb	r3, r3
   11b3c:	e50b3024 	str	r3, [fp, #-36]	; 0xffffffdc
   11b40:	e51b3024 	ldr	r3, [fp, #-36]	; 0xffffffdc
   11b44:	e3530000 	cmp	r3, #0
   11b48:	0a0000f3 	beq	11f1c <parse+0x5c4>
   11b4c:	e51b3034 	ldr	r3, [fp, #-52]	; 0xffffffcc
   11b50:	e203303f 	and	r3, r3, #63	; 0x3f
   11b54:	e50b300c 	str	r3, [fp, #-12]
   11b58:	e51b302c 	ldr	r3, [fp, #-44]	; 0xffffffd4
   11b5c:	e5933010 	ldr	r3, [r3, #16]
   11b60:	e3530000 	cmp	r3, #0
   11b64:	1a000005 	bne	11b80 <parse+0x228>
   11b68:	e51b302c 	ldr	r3, [fp, #-44]	; 0xffffffd4
   11b6c:	e5932018 	ldr	r2, [r3, #24]
   11b70:	e51b302c 	ldr	r3, [fp, #-44]	; 0xffffffd4
   11b74:	e593301c 	ldr	r3, [r3, #28]
   11b78:	e1520003 	cmp	r2, r3
   11b7c:	3a000003 	bcc	11b90 <parse+0x238>
   11b80:	e51b002c 	ldr	r0, [fp, #-44]	; 0xffffffd4
   11b84:	ebffe367 	bl	a928 <iobuf_readbyte>
   11b88:	e1a03000 	mov	r3, r0
   11b8c:	ea00000d 	b	11bc8 <parse+0x270>
   11b90:	e51b302c 	ldr	r3, [fp, #-44]	; 0xffffffd4
   11b94:	e5933008 	ldr	r3, [r3, #8]
   11b98:	e2832001 	add	r2, r3, #1
   11b9c:	e51b302c 	ldr	r3, [fp, #-44]	; 0xffffffd4
   11ba0:	e5832008 	str	r2, [r3, #8]
   11ba4:	e51b302c 	ldr	r3, [fp, #-44]	; 0xffffffd4
   11ba8:	e5932020 	ldr	r2, [r3, #32]
   11bac:	e51b302c 	ldr	r3, [fp, #-44]	; 0xffffffd4
   11bb0:	e5933018 	ldr	r3, [r3, #24]
   11bb4:	e2830001 	add	r0, r3, #1
   11bb8:	e51b102c 	ldr	r1, [fp, #-44]	; 0xffffffd4
   11bbc:	e5810018 	str	r0, [r1, #24]
   11bc0:	e0823003 	add	r3, r2, r3
   11bc4:	e5d33000 	ldrb	r3, [r3]
   11bc8:	e50b3038 	str	r3, [fp, #-56]	; 0xffffffc8
   11bcc:	e51b3038 	ldr	r3, [fp, #-56]	; 0xffffffc8
   11bd0:	e3730001 	cmn	r3, #1
   11bd4:	1a00000b 	bne	11c08 <parse+0x2b0>
   11bd8:	e59f38cc 	ldr	r3, [pc, #2252]	; 124ac <parse+0xb54>
   11bdc:	e08f3003 	add	r3, pc, r3
   11be0:	e1a01003 	mov	r1, r3
   11be4:	e59f38c4 	ldr	r3, [pc, #2244]	; 124b0 <parse+0xb58>
   11be8:	e08f3003 	add	r3, pc, r3
   11bec:	e1a00003 	mov	r0, r3
   11bf0:	eb000bdf 	bl	14b74 <tfp_printf>
   11bf4:	e3a0000e 	mov	r0, #14
   11bf8:	ebfffe73 	bl	115cc <gpg_error>
   11bfc:	e1a03000 	mov	r3, r0
   11c00:	e50b3008 	str	r3, [fp, #-8]
   11c04:	ea00020f 	b	12448 <parse+0xaf0>
   11c08:	e51b3018 	ldr	r3, [fp, #-24]	; 0xffffffe8
   11c0c:	e2832001 	add	r2, r3, #1
   11c10:	e50b2018 	str	r2, [fp, #-24]	; 0xffffffe8
   11c14:	e51b2038 	ldr	r2, [fp, #-56]	; 0xffffffc8
   11c18:	e6ef2072 	uxtb	r2, r2
   11c1c:	e2433004 	sub	r3, r3, #4
   11c20:	e083300b 	add	r3, r3, fp
   11c24:	e543203c 	strb	r2, [r3, #-60]	; 0xffffffc4
   11c28:	e51b3038 	ldr	r3, [fp, #-56]	; 0xffffffc8
   11c2c:	e35300bf 	cmp	r3, #191	; 0xbf
   11c30:	ca000002 	bgt	11c40 <parse+0x2e8>
   11c34:	e51b3038 	ldr	r3, [fp, #-56]	; 0xffffffc8
   11c38:	e50b3014 	str	r3, [fp, #-20]	; 0xffffffec
   11c3c:	ea000126 	b	120dc <parse+0x784>
   11c40:	e51b3038 	ldr	r3, [fp, #-56]	; 0xffffffc8
   11c44:	e35300df 	cmp	r3, #223	; 0xdf
   11c48:	ca00003d 	bgt	11d44 <parse+0x3ec>
   11c4c:	e51b3038 	ldr	r3, [fp, #-56]	; 0xffffffc8
   11c50:	e24330c0 	sub	r3, r3, #192	; 0xc0
   11c54:	e1a03403 	lsl	r3, r3, #8
   11c58:	e50b3014 	str	r3, [fp, #-20]	; 0xffffffec
   11c5c:	e51b302c 	ldr	r3, [fp, #-44]	; 0xffffffd4
   11c60:	e5933010 	ldr	r3, [r3, #16]
   11c64:	e3530000 	cmp	r3, #0
   11c68:	1a000005 	bne	11c84 <parse+0x32c>
   11c6c:	e51b302c 	ldr	r3, [fp, #-44]	; 0xffffffd4
   11c70:	e5932018 	ldr	r2, [r3, #24]
   11c74:	e51b302c 	ldr	r3, [fp, #-44]	; 0xffffffd4
   11c78:	e593301c 	ldr	r3, [r3, #28]
   11c7c:	e1520003 	cmp	r2, r3
   11c80:	3a000003 	bcc	11c94 <parse+0x33c>
   11c84:	e51b002c 	ldr	r0, [fp, #-44]	; 0xffffffd4
   11c88:	ebffe326 	bl	a928 <iobuf_readbyte>
   11c8c:	e1a03000 	mov	r3, r0
   11c90:	ea00000d 	b	11ccc <parse+0x374>
   11c94:	e51b302c 	ldr	r3, [fp, #-44]	; 0xffffffd4
   11c98:	e5933008 	ldr	r3, [r3, #8]
   11c9c:	e2832001 	add	r2, r3, #1
   11ca0:	e51b302c 	ldr	r3, [fp, #-44]	; 0xffffffd4
   11ca4:	e5832008 	str	r2, [r3, #8]
   11ca8:	e51b302c 	ldr	r3, [fp, #-44]	; 0xffffffd4
   11cac:	e5932020 	ldr	r2, [r3, #32]
   11cb0:	e51b302c 	ldr	r3, [fp, #-44]	; 0xffffffd4
   11cb4:	e5933018 	ldr	r3, [r3, #24]
   11cb8:	e2830001 	add	r0, r3, #1
   11cbc:	e51b102c 	ldr	r1, [fp, #-44]	; 0xffffffd4
   11cc0:	e5810018 	str	r0, [r1, #24]
   11cc4:	e0823003 	add	r3, r2, r3
   11cc8:	e5d33000 	ldrb	r3, [r3]
   11ccc:	e50b3038 	str	r3, [fp, #-56]	; 0xffffffc8
   11cd0:	e51b3038 	ldr	r3, [fp, #-56]	; 0xffffffc8
   11cd4:	e3730001 	cmn	r3, #1
   11cd8:	1a00000b 	bne	11d0c <parse+0x3b4>
   11cdc:	e59f37d0 	ldr	r3, [pc, #2000]	; 124b4 <parse+0xb5c>
   11ce0:	e08f3003 	add	r3, pc, r3
   11ce4:	e1a01003 	mov	r1, r3
   11ce8:	e59f37c8 	ldr	r3, [pc, #1992]	; 124b8 <parse+0xb60>
   11cec:	e08f3003 	add	r3, pc, r3
   11cf0:	e1a00003 	mov	r0, r3
   11cf4:	eb000b9e 	bl	14b74 <tfp_printf>
   11cf8:	e3a0000e 	mov	r0, #14
   11cfc:	ebfffe32 	bl	115cc <gpg_error>
   11d00:	e1a03000 	mov	r3, r0
   11d04:	e50b3008 	str	r3, [fp, #-8]
   11d08:	ea0001ce 	b	12448 <parse+0xaf0>
   11d0c:	e51b3018 	ldr	r3, [fp, #-24]	; 0xffffffe8
   11d10:	e2832001 	add	r2, r3, #1
   11d14:	e50b2018 	str	r2, [fp, #-24]	; 0xffffffe8
   11d18:	e51b2038 	ldr	r2, [fp, #-56]	; 0xffffffc8
   11d1c:	e6ef2072 	uxtb	r2, r2
   11d20:	e2433004 	sub	r3, r3, #4
   11d24:	e083300b 	add	r3, r3, fp
   11d28:	e543203c 	strb	r2, [r3, #-60]	; 0xffffffc4
   11d2c:	e51b2038 	ldr	r2, [fp, #-56]	; 0xffffffc8
   11d30:	e51b3014 	ldr	r3, [fp, #-20]	; 0xffffffec
   11d34:	e0823003 	add	r3, r2, r3
   11d38:	e28330c0 	add	r3, r3, #192	; 0xc0
   11d3c:	e50b3014 	str	r3, [fp, #-20]	; 0xffffffec
   11d40:	ea0000e5 	b	120dc <parse+0x784>
   11d44:	e51b3038 	ldr	r3, [fp, #-56]	; 0xffffffc8
   11d48:	e35300ff 	cmp	r3, #255	; 0xff
   11d4c:	1a000049 	bne	11e78 <parse+0x520>
   11d50:	e3a03000 	mov	r3, #0
   11d54:	e50b3020 	str	r3, [fp, #-32]	; 0xffffffe0
   11d58:	ea00003e 	b	11e58 <parse+0x500>
   11d5c:	e51b302c 	ldr	r3, [fp, #-44]	; 0xffffffd4
   11d60:	e5933010 	ldr	r3, [r3, #16]
   11d64:	e3530000 	cmp	r3, #0
   11d68:	1a000005 	bne	11d84 <parse+0x42c>
   11d6c:	e51b302c 	ldr	r3, [fp, #-44]	; 0xffffffd4
   11d70:	e5932018 	ldr	r2, [r3, #24]
   11d74:	e51b302c 	ldr	r3, [fp, #-44]	; 0xffffffd4
   11d78:	e593301c 	ldr	r3, [r3, #28]
   11d7c:	e1520003 	cmp	r2, r3
   11d80:	3a000003 	bcc	11d94 <parse+0x43c>
   11d84:	e51b002c 	ldr	r0, [fp, #-44]	; 0xffffffd4
   11d88:	ebffe2e6 	bl	a928 <iobuf_readbyte>
   11d8c:	e1a03000 	mov	r3, r0
   11d90:	ea00000d 	b	11dcc <parse+0x474>
   11d94:	e51b302c 	ldr	r3, [fp, #-44]	; 0xffffffd4
   11d98:	e5933008 	ldr	r3, [r3, #8]
   11d9c:	e2832001 	add	r2, r3, #1
   11da0:	e51b302c 	ldr	r3, [fp, #-44]	; 0xffffffd4
   11da4:	e5832008 	str	r2, [r3, #8]
   11da8:	e51b302c 	ldr	r3, [fp, #-44]	; 0xffffffd4
   11dac:	e5932020 	ldr	r2, [r3, #32]
   11db0:	e51b302c 	ldr	r3, [fp, #-44]	; 0xffffffd4
   11db4:	e5933018 	ldr	r3, [r3, #24]
   11db8:	e2830001 	add	r0, r3, #1
   11dbc:	e51b102c 	ldr	r1, [fp, #-44]	; 0xffffffd4
   11dc0:	e5810018 	str	r0, [r1, #24]
   11dc4:	e0823003 	add	r3, r2, r3
   11dc8:	e5d33000 	ldrb	r3, [r3]
   11dcc:	e50b3038 	str	r3, [fp, #-56]	; 0xffffffc8
   11dd0:	e51b3038 	ldr	r3, [fp, #-56]	; 0xffffffc8
   11dd4:	e3730001 	cmn	r3, #1
   11dd8:	1a00000b 	bne	11e0c <parse+0x4b4>
   11ddc:	e59f36d8 	ldr	r3, [pc, #1752]	; 124bc <parse+0xb64>
   11de0:	e08f3003 	add	r3, pc, r3
   11de4:	e1a01003 	mov	r1, r3
   11de8:	e59f36d0 	ldr	r3, [pc, #1744]	; 124c0 <parse+0xb68>
   11dec:	e08f3003 	add	r3, pc, r3
   11df0:	e1a00003 	mov	r0, r3
   11df4:	eb000b5e 	bl	14b74 <tfp_printf>
   11df8:	e3a0000e 	mov	r0, #14
   11dfc:	ebfffdf2 	bl	115cc <gpg_error>
   11e00:	e1a03000 	mov	r3, r0
   11e04:	e50b3008 	str	r3, [fp, #-8]
   11e08:	ea00018e 	b	12448 <parse+0xaf0>
   11e0c:	e51b3018 	ldr	r3, [fp, #-24]	; 0xffffffe8
   11e10:	e2832001 	add	r2, r3, #1
   11e14:	e50b2018 	str	r2, [fp, #-24]	; 0xffffffe8
   11e18:	e51b2038 	ldr	r2, [fp, #-56]	; 0xffffffc8
   11e1c:	e6ef1072 	uxtb	r1, r2
   11e20:	e2432004 	sub	r2, r3, #4
   11e24:	e082200b 	add	r2, r2, fp
   11e28:	e542103c 	strb	r1, [r2, #-60]	; 0xffffffc4
   11e2c:	e2433004 	sub	r3, r3, #4
   11e30:	e083300b 	add	r3, r3, fp
   11e34:	e553103c 	ldrb	r1, [r3, #-60]	; 0xffffffc4
   11e38:	e24b2044 	sub	r2, fp, #68	; 0x44
   11e3c:	e51b3020 	ldr	r3, [fp, #-32]	; 0xffffffe0
   11e40:	e0823003 	add	r3, r2, r3
   11e44:	e1a02001 	mov	r2, r1
   11e48:	e5c32000 	strb	r2, [r3]
   11e4c:	e51b3020 	ldr	r3, [fp, #-32]	; 0xffffffe0
   11e50:	e2833001 	add	r3, r3, #1
   11e54:	e50b3020 	str	r3, [fp, #-32]	; 0xffffffe0
   11e58:	e51b3020 	ldr	r3, [fp, #-32]	; 0xffffffe0
   11e5c:	e3530003 	cmp	r3, #3
   11e60:	daffffbd 	ble	11d5c <parse+0x404>
   11e64:	e24b3044 	sub	r3, fp, #68	; 0x44
   11e68:	e1a00003 	mov	r0, r3
   11e6c:	ebfffdeb 	bl	11620 <buf32_to_ulong>
   11e70:	e50b0014 	str	r0, [fp, #-20]	; 0xffffffec
   11e74:	ea000098 	b	120dc <parse+0x784>
   11e78:	e51b300c 	ldr	r3, [fp, #-12]
   11e7c:	e2433008 	sub	r3, r3, #8
   11e80:	e353000c 	cmp	r3, #12
   11e84:	908ff103 	addls	pc, pc, r3, lsl #2
   11e88:	ea000016 	b	11ee8 <parse+0x590>
   11e8c:	ea00000b 	b	11ec0 <parse+0x568>
   11e90:	ea00000a 	b	11ec0 <parse+0x568>
   11e94:	ea000013 	b	11ee8 <parse+0x590>
   11e98:	ea000008 	b	11ec0 <parse+0x568>
   11e9c:	ea000011 	b	11ee8 <parse+0x590>
   11ea0:	ea000010 	b	11ee8 <parse+0x590>
   11ea4:	ea00000f 	b	11ee8 <parse+0x590>
   11ea8:	ea00000e 	b	11ee8 <parse+0x590>
   11eac:	ea00000d 	b	11ee8 <parse+0x590>
   11eb0:	ea00000c 	b	11ee8 <parse+0x590>
   11eb4:	ea000001 	b	11ec0 <parse+0x568>
   11eb8:	ea00000a 	b	11ee8 <parse+0x590>
   11ebc:	eaffffff 	b	11ec0 <parse+0x568>
   11ec0:	e51b3038 	ldr	r3, [fp, #-56]	; 0xffffffc8
   11ec4:	e6ef3073 	uxtb	r3, r3
   11ec8:	e1a01003 	mov	r1, r3
   11ecc:	e51b002c 	ldr	r0, [fp, #-44]	; 0xffffffd4
   11ed0:	ebffe429 	bl	af7c <iobuf_set_partial_body_length_mode>
   11ed4:	e3a03000 	mov	r3, #0
   11ed8:	e50b3014 	str	r3, [fp, #-20]	; 0xffffffec
   11edc:	e3a03001 	mov	r3, #1
   11ee0:	e50b301c 	str	r3, [fp, #-28]	; 0xffffffe4
   11ee4:	ea00007c 	b	120dc <parse+0x784>
   11ee8:	e51b200c 	ldr	r2, [fp, #-12]
   11eec:	e59f35d0 	ldr	r3, [pc, #1488]	; 124c4 <parse+0xb6c>
   11ef0:	e08f3003 	add	r3, pc, r3
   11ef4:	e1a01003 	mov	r1, r3
   11ef8:	e59f35c8 	ldr	r3, [pc, #1480]	; 124c8 <parse+0xb70>
   11efc:	e08f3003 	add	r3, pc, r3
   11f00:	e1a00003 	mov	r0, r3
   11f04:	eb000b1a 	bl	14b74 <tfp_printf>
   11f08:	e3a0000e 	mov	r0, #14
   11f0c:	ebfffdae 	bl	115cc <gpg_error>
   11f10:	e1a03000 	mov	r3, r0
   11f14:	e50b3008 	str	r3, [fp, #-8]
   11f18:	ea00014a 	b	12448 <parse+0xaf0>
   11f1c:	e51b3034 	ldr	r3, [fp, #-52]	; 0xffffffcc
   11f20:	e1a03143 	asr	r3, r3, #2
   11f24:	e203300f 	and	r3, r3, #15
   11f28:	e50b300c 	str	r3, [fp, #-12]
   11f2c:	e51b3034 	ldr	r3, [fp, #-52]	; 0xffffffcc
   11f30:	e2033003 	and	r3, r3, #3
   11f34:	e3530003 	cmp	r3, #3
   11f38:	0a000004 	beq	11f50 <parse+0x5f8>
   11f3c:	e51b3034 	ldr	r3, [fp, #-52]	; 0xffffffcc
   11f40:	e2033003 	and	r3, r3, #3
   11f44:	e3a02001 	mov	r2, #1
   11f48:	e1a03312 	lsl	r3, r2, r3
   11f4c:	ea000000 	b	11f54 <parse+0x5fc>
   11f50:	e3a03000 	mov	r3, #0
   11f54:	e50b3010 	str	r3, [fp, #-16]
   11f58:	e51b3010 	ldr	r3, [fp, #-16]
   11f5c:	e3530000 	cmp	r3, #0
   11f60:	1a00005a 	bne	120d0 <parse+0x778>
   11f64:	e3a03000 	mov	r3, #0
   11f68:	e50b3014 	str	r3, [fp, #-20]	; 0xffffffec
   11f6c:	e3a03001 	mov	r3, #1
   11f70:	e50b301c 	str	r3, [fp, #-28]	; 0xffffffe4
   11f74:	e51b300c 	ldr	r3, [fp, #-12]
   11f78:	e3530009 	cmp	r3, #9
   11f7c:	0a000056 	beq	120dc <parse+0x784>
   11f80:	e51b300c 	ldr	r3, [fp, #-12]
   11f84:	e353000b 	cmp	r3, #11
   11f88:	0a000053 	beq	120dc <parse+0x784>
   11f8c:	e51b300c 	ldr	r3, [fp, #-12]
   11f90:	e3530008 	cmp	r3, #8
   11f94:	0a000050 	beq	120dc <parse+0x784>
   11f98:	e51b200c 	ldr	r2, [fp, #-12]
   11f9c:	e59f3528 	ldr	r3, [pc, #1320]	; 124cc <parse+0xb74>
   11fa0:	e08f3003 	add	r3, pc, r3
   11fa4:	e1a01003 	mov	r1, r3
   11fa8:	e59f3520 	ldr	r3, [pc, #1312]	; 124d0 <parse+0xb78>
   11fac:	e08f3003 	add	r3, pc, r3
   11fb0:	e1a00003 	mov	r0, r3
   11fb4:	eb000aee 	bl	14b74 <tfp_printf>
   11fb8:	e3a0000e 	mov	r0, #14
   11fbc:	ebfffd82 	bl	115cc <gpg_error>
   11fc0:	e1a03000 	mov	r3, r0
   11fc4:	e50b3008 	str	r3, [fp, #-8]
   11fc8:	ea00011e 	b	12448 <parse+0xaf0>
   11fcc:	e51b3014 	ldr	r3, [fp, #-20]	; 0xffffffec
   11fd0:	e1a03403 	lsl	r3, r3, #8
   11fd4:	e50b3014 	str	r3, [fp, #-20]	; 0xffffffec
   11fd8:	e51b302c 	ldr	r3, [fp, #-44]	; 0xffffffd4
   11fdc:	e5933010 	ldr	r3, [r3, #16]
   11fe0:	e3530000 	cmp	r3, #0
   11fe4:	1a000005 	bne	12000 <parse+0x6a8>
   11fe8:	e51b302c 	ldr	r3, [fp, #-44]	; 0xffffffd4
   11fec:	e5932018 	ldr	r2, [r3, #24]
   11ff0:	e51b302c 	ldr	r3, [fp, #-44]	; 0xffffffd4
   11ff4:	e593301c 	ldr	r3, [r3, #28]
   11ff8:	e1520003 	cmp	r2, r3
   11ffc:	3a000003 	bcc	12010 <parse+0x6b8>
   12000:	e51b002c 	ldr	r0, [fp, #-44]	; 0xffffffd4
   12004:	ebffe247 	bl	a928 <iobuf_readbyte>
   12008:	e1a03000 	mov	r3, r0
   1200c:	ea00000d 	b	12048 <parse+0x6f0>
   12010:	e51b302c 	ldr	r3, [fp, #-44]	; 0xffffffd4
   12014:	e5933008 	ldr	r3, [r3, #8]
   12018:	e2832001 	add	r2, r3, #1
   1201c:	e51b302c 	ldr	r3, [fp, #-44]	; 0xffffffd4
   12020:	e5832008 	str	r2, [r3, #8]
   12024:	e51b302c 	ldr	r3, [fp, #-44]	; 0xffffffd4
   12028:	e5932020 	ldr	r2, [r3, #32]
   1202c:	e51b302c 	ldr	r3, [fp, #-44]	; 0xffffffd4
   12030:	e5933018 	ldr	r3, [r3, #24]
   12034:	e2830001 	add	r0, r3, #1
   12038:	e51b102c 	ldr	r1, [fp, #-44]	; 0xffffffd4
   1203c:	e5810018 	str	r0, [r1, #24]
   12040:	e0823003 	add	r3, r2, r3
   12044:	e5d33000 	ldrb	r3, [r3]
   12048:	e50b3038 	str	r3, [fp, #-56]	; 0xffffffc8
   1204c:	e51b3038 	ldr	r3, [fp, #-56]	; 0xffffffc8
   12050:	e3730001 	cmn	r3, #1
   12054:	1a00000b 	bne	12088 <parse+0x730>
   12058:	e59f3474 	ldr	r3, [pc, #1140]	; 124d4 <parse+0xb7c>
   1205c:	e08f3003 	add	r3, pc, r3
   12060:	e1a01003 	mov	r1, r3
   12064:	e59f346c 	ldr	r3, [pc, #1132]	; 124d8 <parse+0xb80>
   12068:	e08f3003 	add	r3, pc, r3
   1206c:	e1a00003 	mov	r0, r3
   12070:	eb000abf 	bl	14b74 <tfp_printf>
   12074:	e3a0000e 	mov	r0, #14
   12078:	ebfffd53 	bl	115cc <gpg_error>
   1207c:	e1a03000 	mov	r3, r0
   12080:	e50b3008 	str	r3, [fp, #-8]
   12084:	ea0000ef 	b	12448 <parse+0xaf0>
   12088:	e51b3018 	ldr	r3, [fp, #-24]	; 0xffffffe8
   1208c:	e2832001 	add	r2, r3, #1
   12090:	e50b2018 	str	r2, [fp, #-24]	; 0xffffffe8
   12094:	e51b2038 	ldr	r2, [fp, #-56]	; 0xffffffc8
   12098:	e6ef1072 	uxtb	r1, r2
   1209c:	e2432004 	sub	r2, r3, #4
   120a0:	e082200b 	add	r2, r2, fp
   120a4:	e542103c 	strb	r1, [r2, #-60]	; 0xffffffc4
   120a8:	e2433004 	sub	r3, r3, #4
   120ac:	e083300b 	add	r3, r3, fp
   120b0:	e553303c 	ldrb	r3, [r3, #-60]	; 0xffffffc4
   120b4:	e1a02003 	mov	r2, r3
   120b8:	e51b3014 	ldr	r3, [fp, #-20]	; 0xffffffec
   120bc:	e1833002 	orr	r3, r3, r2
   120c0:	e50b3014 	str	r3, [fp, #-20]	; 0xffffffec
   120c4:	e51b3010 	ldr	r3, [fp, #-16]
   120c8:	e2433001 	sub	r3, r3, #1
   120cc:	e50b3010 	str	r3, [fp, #-16]
   120d0:	e51b3010 	ldr	r3, [fp, #-16]
   120d4:	e3530000 	cmp	r3, #0
   120d8:	1affffbb 	bne	11fcc <parse+0x674>
   120dc:	e51b300c 	ldr	r3, [fp, #-12]
   120e0:	e353003f 	cmp	r3, #63	; 0x3f
   120e4:	1a00000b 	bne	12118 <parse+0x7c0>
   120e8:	e51b3014 	ldr	r3, [fp, #-20]	; 0xffffffec
   120ec:	e3730001 	cmn	r3, #1
   120f0:	1a000008 	bne	12118 <parse+0x7c0>
   120f4:	e59f33e0 	ldr	r3, [pc, #992]	; 124dc <parse+0xb84>
   120f8:	e08f3003 	add	r3, pc, r3
   120fc:	e1a01003 	mov	r1, r3
   12100:	e59f33d8 	ldr	r3, [pc, #984]	; 124e0 <parse+0xb88>
   12104:	e08f3003 	add	r3, pc, r3
   12108:	e1a00003 	mov	r0, r3
   1210c:	eb000a98 	bl	14b74 <tfp_printf>
   12110:	e3e03000 	mvn	r3, #0
   12114:	ea0000dd 	b	12490 <parse+0xb38>
   12118:	e59b3008 	ldr	r3, [fp, #8]
   1211c:	e3530000 	cmp	r3, #0
   12120:	0a000020 	beq	121a8 <parse+0x850>
   12124:	e51b300c 	ldr	r3, [fp, #-12]
   12128:	e3530000 	cmp	r3, #0
   1212c:	0a00001d 	beq	121a8 <parse+0x850>
   12130:	e51b301c 	ldr	r3, [fp, #-28]	; 0xffffffe4
   12134:	e3530000 	cmp	r3, #0
   12138:	0a000008 	beq	12160 <parse+0x808>
   1213c:	e59f33a0 	ldr	r3, [pc, #928]	; 124e4 <parse+0xb8c>
   12140:	e08f3003 	add	r3, pc, r3
   12144:	e1a00003 	mov	r0, r3
   12148:	eb000a89 	bl	14b74 <tfp_printf>
   1214c:	e3a0000e 	mov	r0, #14
   12150:	ebfffd1d 	bl	115cc <gpg_error>
   12154:	e1a03000 	mov	r3, r0
   12158:	e50b3008 	str	r3, [fp, #-8]
   1215c:	ea0000b9 	b	12448 <parse+0xaf0>
   12160:	e51b2018 	ldr	r2, [fp, #-24]	; 0xffffffe8
   12164:	e24b3040 	sub	r3, fp, #64	; 0x40
   12168:	e1a01003 	mov	r1, r3
   1216c:	e59b0008 	ldr	r0, [fp, #8]
   12170:	ebffe313 	bl	adc4 <iobuf_write>
   12174:	e50b0008 	str	r0, [fp, #-8]
   12178:	e51b3008 	ldr	r3, [fp, #-8]
   1217c:	e3530000 	cmp	r3, #0
   12180:	1a0000af 	bne	12444 <parse+0xaec>
   12184:	e51b301c 	ldr	r3, [fp, #-28]	; 0xffffffe4
   12188:	e58d3000 	str	r3, [sp]
   1218c:	e51b3014 	ldr	r3, [fp, #-20]	; 0xffffffec
   12190:	e51b200c 	ldr	r2, [fp, #-12]
   12194:	e59b1008 	ldr	r1, [fp, #8]
   12198:	e51b002c 	ldr	r0, [fp, #-44]	; 0xffffffd4
   1219c:	eb0000d5 	bl	124f8 <copy_packet>
   121a0:	e50b0008 	str	r0, [fp, #-8]
   121a4:	ea0000a6 	b	12444 <parse+0xaec>
   121a8:	e51b3028 	ldr	r3, [fp, #-40]	; 0xffffffd8
   121ac:	e3530000 	cmp	r3, #0
   121b0:	0a000002 	beq	121c0 <parse+0x868>
   121b4:	e51b300c 	ldr	r3, [fp, #-12]
   121b8:	e353000d 	cmp	r3, #13
   121bc:	0a00001e 	beq	1223c <parse+0x8e4>
   121c0:	e59b300c 	ldr	r3, [fp, #12]
   121c4:	e3530000 	cmp	r3, #0
   121c8:	1a000011 	bne	12214 <parse+0x8bc>
   121cc:	e51b300c 	ldr	r3, [fp, #-12]
   121d0:	e3530000 	cmp	r3, #0
   121d4:	0a00000e 	beq	12214 <parse+0x8bc>
   121d8:	e51b3050 	ldr	r3, [fp, #-80]	; 0xffffffb0
   121dc:	e3530000 	cmp	r3, #0
   121e0:	0a000015 	beq	1223c <parse+0x8e4>
   121e4:	e51b300c 	ldr	r3, [fp, #-12]
   121e8:	e353000e 	cmp	r3, #14
   121ec:	0a000012 	beq	1223c <parse+0x8e4>
   121f0:	e51b300c 	ldr	r3, [fp, #-12]
   121f4:	e3530006 	cmp	r3, #6
   121f8:	0a00000f 	beq	1223c <parse+0x8e4>
   121fc:	e51b300c 	ldr	r3, [fp, #-12]
   12200:	e3530007 	cmp	r3, #7
   12204:	0a00000c 	beq	1223c <parse+0x8e4>
   12208:	e51b300c 	ldr	r3, [fp, #-12]
   1220c:	e3530005 	cmp	r3, #5
   12210:	0a000009 	beq	1223c <parse+0x8e4>
   12214:	e51b201c 	ldr	r2, [fp, #-28]	; 0xffffffe4
   12218:	e51b1014 	ldr	r1, [fp, #-20]	; 0xffffffec
   1221c:	e51b002c 	ldr	r0, [fp, #-44]	; 0xffffffd4
   12220:	ebffe3a5 	bl	b0bc <iobuf_skip_rest>
   12224:	e59b3004 	ldr	r3, [fp, #4]
   12228:	e3a02001 	mov	r2, #1
   1222c:	e5832000 	str	r2, [r3]
   12230:	e3a03000 	mov	r3, #0
   12234:	e50b3008 	str	r3, [fp, #-8]
   12238:	ea000082 	b	12448 <parse+0xaf0>
   1223c:	e51b3048 	ldr	r3, [fp, #-72]	; 0xffffffb8
   12240:	e5933014 	ldr	r3, [r3, #20]
   12244:	e2832001 	add	r2, r3, #1
   12248:	e51b3048 	ldr	r3, [fp, #-72]	; 0xffffffb8
   1224c:	e5832014 	str	r2, [r3, #20]
   12250:	e51b300c 	ldr	r3, [fp, #-12]
   12254:	e6ef2073 	uxtb	r2, r3
   12258:	e51b304c 	ldr	r3, [fp, #-76]	; 0xffffffb4
   1225c:	e5c32000 	strb	r2, [r3]
   12260:	e3a03002 	mov	r3, #2
   12264:	e50b3008 	str	r3, [fp, #-8]
   12268:	e51b300c 	ldr	r3, [fp, #-12]
   1226c:	e353003f 	cmp	r3, #63	; 0x3f
   12270:	8a000004 	bhi	12288 <parse+0x930>
   12274:	e59f326c 	ldr	r3, [pc, #620]	; 124e8 <parse+0xb90>
   12278:	e08f3003 	add	r3, pc, r3
   1227c:	e51b200c 	ldr	r2, [fp, #-12]
   12280:	e7933102 	ldr	r3, [r3, r2, lsl #2]
   12284:	ea000001 	b	12290 <parse+0x938>
   12288:	e59f325c 	ldr	r3, [pc, #604]	; 124ec <parse+0xb94>
   1228c:	e08f3003 	add	r3, pc, r3
   12290:	e51b200c 	ldr	r2, [fp, #-12]
   12294:	e1a01003 	mov	r1, r3
   12298:	e59f3250 	ldr	r3, [pc, #592]	; 124f0 <parse+0xb98>
   1229c:	e08f3003 	add	r3, pc, r3
   122a0:	e1a00003 	mov	r0, r3
   122a4:	eb000a32 	bl	14b74 <tfp_printf>
   122a8:	e51b300c 	ldr	r3, [fp, #-12]
   122ac:	e2433003 	sub	r3, r3, #3
   122b0:	e3530010 	cmp	r3, #16
   122b4:	908ff103 	addls	pc, pc, r3, lsl #2
   122b8:	ea00003c 	b	123b0 <parse+0xa58>
   122bc:	ea00000f 	b	12300 <parse+0x9a8>
   122c0:	ea00003a 	b	123b0 <parse+0xa58>
   122c4:	ea000039 	b	123b0 <parse+0xa58>
   122c8:	ea000038 	b	123b0 <parse+0xa58>
   122cc:	ea000037 	b	123b0 <parse+0xa58>
   122d0:	ea000036 	b	123b0 <parse+0xa58>
   122d4:	ea00001b 	b	12348 <parse+0x9f0>
   122d8:	ea00002e 	b	12398 <parse+0xa40>
   122dc:	ea00000e 	b	1231c <parse+0x9c4>
   122e0:	ea000032 	b	123b0 <parse+0xa58>
   122e4:	ea000031 	b	123b0 <parse+0xa58>
   122e8:	ea000030 	b	123b0 <parse+0xa58>
   122ec:	ea00002f 	b	123b0 <parse+0xa58>
   122f0:	ea00002e 	b	123b0 <parse+0xa58>
   122f4:	ea00002d 	b	123b0 <parse+0xa58>
   122f8:	ea000012 	b	12348 <parse+0x9f0>
   122fc:	ea00001c 	b	12374 <parse+0xa1c>
   12300:	e51b304c 	ldr	r3, [fp, #-76]	; 0xffffffb4
   12304:	e51b2014 	ldr	r2, [fp, #-20]	; 0xffffffec
   12308:	e51b100c 	ldr	r1, [fp, #-12]
   1230c:	e51b002c 	ldr	r0, [fp, #-44]	; 0xffffffd4
   12310:	eb00018e 	bl	12950 <parse_symkeyenc>
   12314:	e50b0008 	str	r0, [fp, #-8]
   12318:	ea000025 	b	123b4 <parse+0xa5c>
   1231c:	e51b301c 	ldr	r3, [fp, #-28]	; 0xffffffe4
   12320:	e58d3004 	str	r3, [sp, #4]
   12324:	e51b3024 	ldr	r3, [fp, #-36]	; 0xffffffdc
   12328:	e58d3000 	str	r3, [sp]
   1232c:	e51b304c 	ldr	r3, [fp, #-76]	; 0xffffffb4
   12330:	e51b2014 	ldr	r2, [fp, #-20]	; 0xffffffec
   12334:	e51b100c 	ldr	r1, [fp, #-12]
   12338:	e51b002c 	ldr	r0, [fp, #-44]	; 0xffffffd4
   1233c:	eb0003f1 	bl	13308 <parse_plaintext>
   12340:	e50b0008 	str	r0, [fp, #-8]
   12344:	ea00001a 	b	123b4 <parse+0xa5c>
   12348:	e51b301c 	ldr	r3, [fp, #-28]	; 0xffffffe4
   1234c:	e58d3004 	str	r3, [sp, #4]
   12350:	e51b3024 	ldr	r3, [fp, #-36]	; 0xffffffdc
   12354:	e58d3000 	str	r3, [sp]
   12358:	e51b304c 	ldr	r3, [fp, #-76]	; 0xffffffb4
   1235c:	e51b2014 	ldr	r2, [fp, #-20]	; 0xffffffec
   12360:	e51b100c 	ldr	r1, [fp, #-12]
   12364:	e51b002c 	ldr	r0, [fp, #-44]	; 0xffffffd4
   12368:	eb000564 	bl	13900 <parse_encrypted>
   1236c:	e50b0008 	str	r0, [fp, #-8]
   12370:	ea00000f 	b	123b4 <parse+0xa5c>
   12374:	e51b3024 	ldr	r3, [fp, #-36]	; 0xffffffdc
   12378:	e58d3000 	str	r3, [sp]
   1237c:	e51b304c 	ldr	r3, [fp, #-76]	; 0xffffffb4
   12380:	e51b2014 	ldr	r2, [fp, #-20]	; 0xffffffec
   12384:	e51b100c 	ldr	r1, [fp, #-12]
   12388:	e51b002c 	ldr	r0, [fp, #-44]	; 0xffffffd4
   1238c:	eb00064d 	bl	13cc8 <parse_mdc>
   12390:	e50b0008 	str	r0, [fp, #-8]
   12394:	ea000006 	b	123b4 <parse+0xa5c>
   12398:	e51b2014 	ldr	r2, [fp, #-20]	; 0xffffffec
   1239c:	e51b100c 	ldr	r1, [fp, #-12]
   123a0:	e51b002c 	ldr	r0, [fp, #-44]	; 0xffffffd4
   123a4:	eb0000bc 	bl	1269c <parse_marker>
   123a8:	e50b0008 	str	r0, [fp, #-8]
   123ac:	ea000000 	b	123b4 <parse+0xa5c>
   123b0:	e320f000 	nop	{0}
   123b4:	e51b1048 	ldr	r1, [fp, #-72]	; 0xffffffb8
   123b8:	e3a00000 	mov	r0, #0
   123bc:	ebffe842 	bl	c4cc <free_packet>
   123c0:	e51b3008 	ldr	r3, [fp, #-8]
   123c4:	e3530000 	cmp	r3, #0
   123c8:	1a000013 	bne	1241c <parse+0xac4>
   123cc:	e51b300c 	ldr	r3, [fp, #-12]
   123d0:	e3530006 	cmp	r3, #6
   123d4:	0a00000b 	beq	12408 <parse+0xab0>
   123d8:	e51b300c 	ldr	r3, [fp, #-12]
   123dc:	e3530005 	cmp	r3, #5
   123e0:	0a000008 	beq	12408 <parse+0xab0>
   123e4:	e51b300c 	ldr	r3, [fp, #-12]
   123e8:	e353000d 	cmp	r3, #13
   123ec:	0a000005 	beq	12408 <parse+0xab0>
   123f0:	e51b300c 	ldr	r3, [fp, #-12]
   123f4:	e3530011 	cmp	r3, #17
   123f8:	0a000002 	beq	12408 <parse+0xab0>
   123fc:	e51b300c 	ldr	r3, [fp, #-12]
   12400:	e3530002 	cmp	r3, #2
   12404:	1a000004 	bne	1241c <parse+0xac4>
   12408:	e51b3048 	ldr	r3, [fp, #-72]	; 0xffffffb8
   1240c:	e51b204c 	ldr	r2, [fp, #-76]	; 0xffffffb4
   12410:	e2833004 	add	r3, r3, #4
   12414:	e8920003 	ldm	r2, {r0, r1}
   12418:	e8830003 	stm	r3, {r0, r1}
   1241c:	e51b1018 	ldr	r1, [fp, #-24]	; 0xffffffe8
   12420:	e59f30cc 	ldr	r3, [pc, #204]	; 124f4 <parse+0xb9c>
   12424:	e08f3003 	add	r3, pc, r3
   12428:	e1a00003 	mov	r0, r3
   1242c:	eb0009d0 	bl	14b74 <tfp_printf>
   12430:	e24b3040 	sub	r3, fp, #64	; 0x40
   12434:	e51b1018 	ldr	r1, [fp, #-24]	; 0xffffffe8
   12438:	e1a00003 	mov	r0, r3
   1243c:	ebffe466 	bl	b5dc <log_hexdump>
   12440:	ea000000 	b	12448 <parse+0xaf0>
   12444:	e320f000 	nop	{0}
   12448:	e51b3008 	ldr	r3, [fp, #-8]
   1244c:	e3530000 	cmp	r3, #0
   12450:	1a000005 	bne	1246c <parse+0xb14>
   12454:	e51b302c 	ldr	r3, [fp, #-44]	; 0xffffffd4
   12458:	e5933028 	ldr	r3, [r3, #40]	; 0x28
   1245c:	e3530000 	cmp	r3, #0
   12460:	0a000001 	beq	1246c <parse+0xb14>
   12464:	e3a03022 	mov	r3, #34	; 0x22
   12468:	e50b3008 	str	r3, [fp, #-8]
   1246c:	e51b3008 	ldr	r3, [fp, #-8]
   12470:	e3730001 	cmn	r3, #1
   12474:	0a000004 	beq	1248c <parse+0xb34>
   12478:	e51b3008 	ldr	r3, [fp, #-8]
   1247c:	e1a00003 	mov	r0, r3
   12480:	ebfffc5c 	bl	115f8 <gpg_err_code>
   12484:	e1a03000 	mov	r3, r0
   12488:	ea000000 	b	12490 <parse+0xb38>
   1248c:	e3e03000 	mvn	r3, #0
   12490:	e1a00003 	mov	r0, r3
   12494:	e24bd004 	sub	sp, fp, #4
   12498:	e8bd8800 	pop	{fp, pc}
   1249c:	0003763c 	.word	0x0003763c
   124a0:	00008d60 	.word	0x00008d60
   124a4:	00008c74 	.word	0x00008c74
   124a8:	00008c78 	.word	0x00008c78
   124ac:	00008b88 	.word	0x00008b88
   124b0:	00008bac 	.word	0x00008bac
   124b4:	00008a84 	.word	0x00008a84
   124b8:	00008ac8 	.word	0x00008ac8
   124bc:	00008984 	.word	0x00008984
   124c0:	000089e8 	.word	0x000089e8
   124c4:	00008874 	.word	0x00008874
   124c8:	000088f4 	.word	0x000088f4
   124cc:	000087c4 	.word	0x000087c4
   124d0:	00008874 	.word	0x00008874
   124d4:	00008708 	.word	0x00008708
   124d8:	000087f0 	.word	0x000087f0
   124dc:	0000866c 	.word	0x0000866c
   124e0:	00008768 	.word	0x00008768
   124e4:	0000874c 	.word	0x0000874c
   124e8:	0000b624 	.word	0x0000b624
   124ec:	00008630 	.word	0x00008630
   124f0:	00008628 	.word	0x00008628
   124f4:	000084c4 	.word	0x000084c4

000124f8 <copy_packet>:
   124f8:	e92d4800 	push	{fp, lr}
   124fc:	e28db004 	add	fp, sp, #4
   12500:	e24dd080 	sub	sp, sp, #128	; 0x80
   12504:	e50b0078 	str	r0, [fp, #-120]	; 0xffffff88
   12508:	e50b107c 	str	r1, [fp, #-124]	; 0xffffff84
   1250c:	e50b2080 	str	r2, [fp, #-128]	; 0xffffff80
   12510:	e50b3084 	str	r3, [fp, #-132]	; 0xffffff7c
   12514:	e59b3004 	ldr	r3, [fp, #4]
   12518:	e3530000 	cmp	r3, #0
   1251c:	0a000015 	beq	12578 <copy_packet+0x80>
   12520:	ea00000a 	b	12550 <copy_packet+0x58>
   12524:	e51b2008 	ldr	r2, [fp, #-8]
   12528:	e24b3070 	sub	r3, fp, #112	; 0x70
   1252c:	e1a01003 	mov	r1, r3
   12530:	e51b007c 	ldr	r0, [fp, #-124]	; 0xffffff84
   12534:	ebffe222 	bl	adc4 <iobuf_write>
   12538:	e50b000c 	str	r0, [fp, #-12]
   1253c:	e51b300c 	ldr	r3, [fp, #-12]
   12540:	e3530000 	cmp	r3, #0
   12544:	0a000001 	beq	12550 <copy_packet+0x58>
   12548:	e51b300c 	ldr	r3, [fp, #-12]
   1254c:	ea00004e 	b	1268c <copy_packet+0x194>
   12550:	e24b3070 	sub	r3, fp, #112	; 0x70
   12554:	e3a02064 	mov	r2, #100	; 0x64
   12558:	e1a01003 	mov	r1, r3
   1255c:	e51b0078 	ldr	r0, [fp, #-120]	; 0xffffff88
   12560:	ebffe132 	bl	aa30 <iobuf_read>
   12564:	e50b0008 	str	r0, [fp, #-8]
   12568:	e51b3008 	ldr	r3, [fp, #-8]
   1256c:	e3730001 	cmn	r3, #1
   12570:	1affffeb 	bne	12524 <copy_packet+0x2c>
   12574:	ea000043 	b	12688 <copy_packet+0x190>
   12578:	e51b3084 	ldr	r3, [fp, #-132]	; 0xffffff7c
   1257c:	e3530000 	cmp	r3, #0
   12580:	1a00003d 	bne	1267c <copy_packet+0x184>
   12584:	e51b3080 	ldr	r3, [fp, #-128]	; 0xffffff80
   12588:	e3530008 	cmp	r3, #8
   1258c:	1a00003a 	bne	1267c <copy_packet+0x184>
   12590:	e59f3100 	ldr	r3, [pc, #256]	; 12698 <copy_packet+0x1a0>
   12594:	e08f3003 	add	r3, pc, r3
   12598:	e1a00003 	mov	r0, r3
   1259c:	eb000974 	bl	14b74 <tfp_printf>
   125a0:	ea00000a 	b	125d0 <copy_packet+0xd8>
   125a4:	e51b2008 	ldr	r2, [fp, #-8]
   125a8:	e24b3070 	sub	r3, fp, #112	; 0x70
   125ac:	e1a01003 	mov	r1, r3
   125b0:	e51b007c 	ldr	r0, [fp, #-124]	; 0xffffff84
   125b4:	ebffe202 	bl	adc4 <iobuf_write>
   125b8:	e50b000c 	str	r0, [fp, #-12]
   125bc:	e51b300c 	ldr	r3, [fp, #-12]
   125c0:	e3530000 	cmp	r3, #0
   125c4:	0a000001 	beq	125d0 <copy_packet+0xd8>
   125c8:	e51b300c 	ldr	r3, [fp, #-12]
   125cc:	ea00002e 	b	1268c <copy_packet+0x194>
   125d0:	e24b3070 	sub	r3, fp, #112	; 0x70
   125d4:	e3a02064 	mov	r2, #100	; 0x64
   125d8:	e1a01003 	mov	r1, r3
   125dc:	e51b0078 	ldr	r0, [fp, #-120]	; 0xffffff88
   125e0:	ebffe112 	bl	aa30 <iobuf_read>
   125e4:	e50b0008 	str	r0, [fp, #-8]
   125e8:	e51b3008 	ldr	r3, [fp, #-8]
   125ec:	e3730001 	cmn	r3, #1
   125f0:	1affffeb 	bne	125a4 <copy_packet+0xac>
   125f4:	ea000023 	b	12688 <copy_packet+0x190>
   125f8:	e51b3084 	ldr	r3, [fp, #-132]	; 0xffffff7c
   125fc:	e3530064 	cmp	r3, #100	; 0x64
   12600:	31a03003 	movcc	r3, r3
   12604:	23a03064 	movcs	r3, #100	; 0x64
   12608:	e50b3008 	str	r3, [fp, #-8]
   1260c:	e51b2008 	ldr	r2, [fp, #-8]
   12610:	e24b3070 	sub	r3, fp, #112	; 0x70
   12614:	e1a01003 	mov	r1, r3
   12618:	e51b0078 	ldr	r0, [fp, #-120]	; 0xffffff88
   1261c:	ebffe103 	bl	aa30 <iobuf_read>
   12620:	e50b0008 	str	r0, [fp, #-8]
   12624:	e51b3008 	ldr	r3, [fp, #-8]
   12628:	e3730001 	cmn	r3, #1
   1262c:	1a000003 	bne	12640 <copy_packet+0x148>
   12630:	e3030fff 	movw	r0, #16383	; 0x3fff
   12634:	ebfffbe4 	bl	115cc <gpg_error>
   12638:	e1a03000 	mov	r3, r0
   1263c:	ea000012 	b	1268c <copy_packet+0x194>
   12640:	e51b2008 	ldr	r2, [fp, #-8]
   12644:	e24b3070 	sub	r3, fp, #112	; 0x70
   12648:	e1a01003 	mov	r1, r3
   1264c:	e51b007c 	ldr	r0, [fp, #-124]	; 0xffffff84
   12650:	ebffe1db 	bl	adc4 <iobuf_write>
   12654:	e50b000c 	str	r0, [fp, #-12]
   12658:	e51b300c 	ldr	r3, [fp, #-12]
   1265c:	e3530000 	cmp	r3, #0
   12660:	0a000001 	beq	1266c <copy_packet+0x174>
   12664:	e51b300c 	ldr	r3, [fp, #-12]
   12668:	ea000007 	b	1268c <copy_packet+0x194>
   1266c:	e51b3008 	ldr	r3, [fp, #-8]
   12670:	e51b2084 	ldr	r2, [fp, #-132]	; 0xffffff7c
   12674:	e0423003 	sub	r3, r2, r3
   12678:	e50b3084 	str	r3, [fp, #-132]	; 0xffffff7c
   1267c:	e51b3084 	ldr	r3, [fp, #-132]	; 0xffffff7c
   12680:	e3530000 	cmp	r3, #0
   12684:	1affffdb 	bne	125f8 <copy_packet+0x100>
   12688:	e3a03000 	mov	r3, #0
   1268c:	e1a00003 	mov	r0, r3
   12690:	e24bd004 	sub	sp, fp, #4
   12694:	e8bd8800 	pop	{fp, pc}
   12698:	00008370 	.word	0x00008370

0001269c <parse_marker>:
   1269c:	e92d4800 	push	{fp, lr}
   126a0:	e28db004 	add	fp, sp, #4
   126a4:	e24dd010 	sub	sp, sp, #16
   126a8:	e50b0008 	str	r0, [fp, #-8]
   126ac:	e50b100c 	str	r1, [fp, #-12]
   126b0:	e50b2010 	str	r2, [fp, #-16]
   126b4:	e51b3010 	ldr	r3, [fp, #-16]
   126b8:	e3530003 	cmp	r3, #3
   126bc:	1a000088 	bne	128e4 <parse_marker+0x248>
   126c0:	e51b3008 	ldr	r3, [fp, #-8]
   126c4:	e5933010 	ldr	r3, [r3, #16]
   126c8:	e3530000 	cmp	r3, #0
   126cc:	1a000005 	bne	126e8 <parse_marker+0x4c>
   126d0:	e51b3008 	ldr	r3, [fp, #-8]
   126d4:	e5932018 	ldr	r2, [r3, #24]
   126d8:	e51b3008 	ldr	r3, [fp, #-8]
   126dc:	e593301c 	ldr	r3, [r3, #28]
   126e0:	e1520003 	cmp	r2, r3
   126e4:	3a000007 	bcc	12708 <parse_marker+0x6c>
   126e8:	e51b0008 	ldr	r0, [fp, #-8]
   126ec:	ebffe08d 	bl	a928 <iobuf_readbyte>
   126f0:	e1a03000 	mov	r3, r0
   126f4:	e3530050 	cmp	r3, #80	; 0x50
   126f8:	13a03001 	movne	r3, #1
   126fc:	03a03000 	moveq	r3, #0
   12700:	e6ef3073 	uxtb	r3, r3
   12704:	ea000011 	b	12750 <parse_marker+0xb4>
   12708:	e51b3008 	ldr	r3, [fp, #-8]
   1270c:	e5933008 	ldr	r3, [r3, #8]
   12710:	e2832001 	add	r2, r3, #1
   12714:	e51b3008 	ldr	r3, [fp, #-8]
   12718:	e5832008 	str	r2, [r3, #8]
   1271c:	e51b3008 	ldr	r3, [fp, #-8]
   12720:	e5932020 	ldr	r2, [r3, #32]
   12724:	e51b3008 	ldr	r3, [fp, #-8]
   12728:	e5933018 	ldr	r3, [r3, #24]
   1272c:	e2830001 	add	r0, r3, #1
   12730:	e51b1008 	ldr	r1, [fp, #-8]
   12734:	e5810018 	str	r0, [r1, #24]
   12738:	e0823003 	add	r3, r2, r3
   1273c:	e5d33000 	ldrb	r3, [r3]
   12740:	e3530050 	cmp	r3, #80	; 0x50
   12744:	13a03001 	movne	r3, #1
   12748:	03a03000 	moveq	r3, #0
   1274c:	e6ef3073 	uxtb	r3, r3
   12750:	e3530000 	cmp	r3, #0
   12754:	0a000003 	beq	12768 <parse_marker+0xcc>
   12758:	e51b3010 	ldr	r3, [fp, #-16]
   1275c:	e2433001 	sub	r3, r3, #1
   12760:	e50b3010 	str	r3, [fp, #-16]
   12764:	ea00005f 	b	128e8 <parse_marker+0x24c>
   12768:	e51b3008 	ldr	r3, [fp, #-8]
   1276c:	e5933010 	ldr	r3, [r3, #16]
   12770:	e3530000 	cmp	r3, #0
   12774:	1a000005 	bne	12790 <parse_marker+0xf4>
   12778:	e51b3008 	ldr	r3, [fp, #-8]
   1277c:	e5932018 	ldr	r2, [r3, #24]
   12780:	e51b3008 	ldr	r3, [fp, #-8]
   12784:	e593301c 	ldr	r3, [r3, #28]
   12788:	e1520003 	cmp	r2, r3
   1278c:	3a000007 	bcc	127b0 <parse_marker+0x114>
   12790:	e51b0008 	ldr	r0, [fp, #-8]
   12794:	ebffe063 	bl	a928 <iobuf_readbyte>
   12798:	e1a03000 	mov	r3, r0
   1279c:	e3530047 	cmp	r3, #71	; 0x47
   127a0:	13a03001 	movne	r3, #1
   127a4:	03a03000 	moveq	r3, #0
   127a8:	e6ef3073 	uxtb	r3, r3
   127ac:	ea000011 	b	127f8 <parse_marker+0x15c>
   127b0:	e51b3008 	ldr	r3, [fp, #-8]
   127b4:	e5933008 	ldr	r3, [r3, #8]
   127b8:	e2832001 	add	r2, r3, #1
   127bc:	e51b3008 	ldr	r3, [fp, #-8]
   127c0:	e5832008 	str	r2, [r3, #8]
   127c4:	e51b3008 	ldr	r3, [fp, #-8]
   127c8:	e5932020 	ldr	r2, [r3, #32]
   127cc:	e51b3008 	ldr	r3, [fp, #-8]
   127d0:	e5933018 	ldr	r3, [r3, #24]
   127d4:	e2830001 	add	r0, r3, #1
   127d8:	e51b1008 	ldr	r1, [fp, #-8]
   127dc:	e5810018 	str	r0, [r1, #24]
   127e0:	e0823003 	add	r3, r2, r3
   127e4:	e5d33000 	ldrb	r3, [r3]
   127e8:	e3530047 	cmp	r3, #71	; 0x47
   127ec:	13a03001 	movne	r3, #1
   127f0:	03a03000 	moveq	r3, #0
   127f4:	e6ef3073 	uxtb	r3, r3
   127f8:	e3530000 	cmp	r3, #0
   127fc:	0a000003 	beq	12810 <parse_marker+0x174>
   12800:	e51b3010 	ldr	r3, [fp, #-16]
   12804:	e2433001 	sub	r3, r3, #1
   12808:	e50b3010 	str	r3, [fp, #-16]
   1280c:	ea000035 	b	128e8 <parse_marker+0x24c>
   12810:	e51b3008 	ldr	r3, [fp, #-8]
   12814:	e5933010 	ldr	r3, [r3, #16]
   12818:	e3530000 	cmp	r3, #0
   1281c:	1a000005 	bne	12838 <parse_marker+0x19c>
   12820:	e51b3008 	ldr	r3, [fp, #-8]
   12824:	e5932018 	ldr	r2, [r3, #24]
   12828:	e51b3008 	ldr	r3, [fp, #-8]
   1282c:	e593301c 	ldr	r3, [r3, #28]
   12830:	e1520003 	cmp	r2, r3
   12834:	3a000007 	bcc	12858 <parse_marker+0x1bc>
   12838:	e51b0008 	ldr	r0, [fp, #-8]
   1283c:	ebffe039 	bl	a928 <iobuf_readbyte>
   12840:	e1a03000 	mov	r3, r0
   12844:	e3530050 	cmp	r3, #80	; 0x50
   12848:	13a03001 	movne	r3, #1
   1284c:	03a03000 	moveq	r3, #0
   12850:	e6ef3073 	uxtb	r3, r3
   12854:	ea000011 	b	128a0 <parse_marker+0x204>
   12858:	e51b3008 	ldr	r3, [fp, #-8]
   1285c:	e5933008 	ldr	r3, [r3, #8]
   12860:	e2832001 	add	r2, r3, #1
   12864:	e51b3008 	ldr	r3, [fp, #-8]
   12868:	e5832008 	str	r2, [r3, #8]
   1286c:	e51b3008 	ldr	r3, [fp, #-8]
   12870:	e5932020 	ldr	r2, [r3, #32]
   12874:	e51b3008 	ldr	r3, [fp, #-8]
   12878:	e5933018 	ldr	r3, [r3, #24]
   1287c:	e2830001 	add	r0, r3, #1
   12880:	e51b1008 	ldr	r1, [fp, #-8]
   12884:	e5810018 	str	r0, [r1, #24]
   12888:	e0823003 	add	r3, r2, r3
   1288c:	e5d33000 	ldrb	r3, [r3]
   12890:	e3530050 	cmp	r3, #80	; 0x50
   12894:	13a03001 	movne	r3, #1
   12898:	03a03000 	moveq	r3, #0
   1289c:	e6ef3073 	uxtb	r3, r3
   128a0:	e3530000 	cmp	r3, #0
   128a4:	0a000003 	beq	128b8 <parse_marker+0x21c>
   128a8:	e51b3010 	ldr	r3, [fp, #-16]
   128ac:	e2433001 	sub	r3, r3, #1
   128b0:	e50b3010 	str	r3, [fp, #-16]
   128b4:	ea00000b 	b	128e8 <parse_marker+0x24c>
   128b8:	e59f307c 	ldr	r3, [pc, #124]	; 1293c <parse_marker+0x2a0>
   128bc:	e08f3003 	add	r3, pc, r3
   128c0:	e5933000 	ldr	r3, [r3]
   128c4:	e3530000 	cmp	r3, #0
   128c8:	0a000003 	beq	128dc <parse_marker+0x240>
   128cc:	e59f306c 	ldr	r3, [pc, #108]	; 12940 <parse_marker+0x2a4>
   128d0:	e08f3003 	add	r3, pc, r3
   128d4:	e1a00003 	mov	r0, r3
   128d8:	eb0008a5 	bl	14b74 <tfp_printf>
   128dc:	e3a03000 	mov	r3, #0
   128e0:	ea000012 	b	12930 <parse_marker+0x294>
   128e4:	e320f000 	nop	{0}
   128e8:	e59f3054 	ldr	r3, [pc, #84]	; 12944 <parse_marker+0x2a8>
   128ec:	e08f3003 	add	r3, pc, r3
   128f0:	e1a00003 	mov	r0, r3
   128f4:	eb00089e 	bl	14b74 <tfp_printf>
   128f8:	e59f3048 	ldr	r3, [pc, #72]	; 12948 <parse_marker+0x2ac>
   128fc:	e08f3003 	add	r3, pc, r3
   12900:	e5933000 	ldr	r3, [r3]
   12904:	e3530000 	cmp	r3, #0
   12908:	0a000003 	beq	1291c <parse_marker+0x280>
   1290c:	e59f3038 	ldr	r3, [pc, #56]	; 1294c <parse_marker+0x2b0>
   12910:	e08f3003 	add	r3, pc, r3
   12914:	e1a00003 	mov	r0, r3
   12918:	eb000895 	bl	14b74 <tfp_printf>
   1291c:	e3a02000 	mov	r2, #0
   12920:	e51b1010 	ldr	r1, [fp, #-16]
   12924:	e51b0008 	ldr	r0, [fp, #-8]
   12928:	ebffe1e3 	bl	b0bc <iobuf_skip_rest>
   1292c:	e3a0300e 	mov	r3, #14
   12930:	e1a00003 	mov	r0, r3
   12934:	e24bd004 	sub	sp, fp, #4
   12938:	e8bd8800 	pop	{fp, pc}
   1293c:	0003674c 	.word	0x0003674c
   12940:	000080a0 	.word	0x000080a0
   12944:	00008094 	.word	0x00008094
   12948:	0003670c 	.word	0x0003670c
   1294c:	00008060 	.word	0x00008060

00012950 <parse_symkeyenc>:
   12950:	e92d4800 	push	{fp, lr}
   12954:	e28db004 	add	fp, sp, #4
   12958:	e24dd040 	sub	sp, sp, #64	; 0x40
   1295c:	e50b0030 	str	r0, [fp, #-48]	; 0xffffffd0
   12960:	e50b1034 	str	r1, [fp, #-52]	; 0xffffffcc
   12964:	e50b2038 	str	r2, [fp, #-56]	; 0xffffffc8
   12968:	e50b303c 	str	r3, [fp, #-60]	; 0xffffffc4
   1296c:	e3a03000 	mov	r3, #0
   12970:	e50b3008 	str	r3, [fp, #-8]
   12974:	e51b3038 	ldr	r3, [fp, #-56]	; 0xffffffc8
   12978:	e3530003 	cmp	r3, #3
   1297c:	9a00022b 	bls	13230 <parse_symkeyenc+0x8e0>
   12980:	e51b3030 	ldr	r3, [fp, #-48]	; 0xffffffd0
   12984:	e5933010 	ldr	r3, [r3, #16]
   12988:	e3530000 	cmp	r3, #0
   1298c:	1a000005 	bne	129a8 <parse_symkeyenc+0x58>
   12990:	e51b3030 	ldr	r3, [fp, #-48]	; 0xffffffd0
   12994:	e5932018 	ldr	r2, [r3, #24]
   12998:	e51b3030 	ldr	r3, [fp, #-48]	; 0xffffffd0
   1299c:	e593301c 	ldr	r3, [r3, #28]
   129a0:	e1520003 	cmp	r2, r3
   129a4:	3a000004 	bcc	129bc <parse_symkeyenc+0x6c>
   129a8:	e51b0030 	ldr	r0, [fp, #-48]	; 0xffffffd0
   129ac:	ebffdfdd 	bl	a928 <iobuf_readbyte>
   129b0:	e1a03000 	mov	r3, r0
   129b4:	e6ef3073 	uxtb	r3, r3
   129b8:	ea00000d 	b	129f4 <parse_symkeyenc+0xa4>
   129bc:	e51b3030 	ldr	r3, [fp, #-48]	; 0xffffffd0
   129c0:	e5933008 	ldr	r3, [r3, #8]
   129c4:	e2832001 	add	r2, r3, #1
   129c8:	e51b3030 	ldr	r3, [fp, #-48]	; 0xffffffd0
   129cc:	e5832008 	str	r2, [r3, #8]
   129d0:	e51b3030 	ldr	r3, [fp, #-48]	; 0xffffffd0
   129d4:	e5932020 	ldr	r2, [r3, #32]
   129d8:	e51b3030 	ldr	r3, [fp, #-48]	; 0xffffffd0
   129dc:	e5933018 	ldr	r3, [r3, #24]
   129e0:	e2830001 	add	r0, r3, #1
   129e4:	e51b1030 	ldr	r1, [fp, #-48]	; 0xffffffd0
   129e8:	e5810018 	str	r0, [r1, #24]
   129ec:	e0823003 	add	r3, r2, r3
   129f0:	e5d33000 	ldrb	r3, [r3]
   129f4:	e50b3018 	str	r3, [fp, #-24]	; 0xffffffe8
   129f8:	e51b3038 	ldr	r3, [fp, #-56]	; 0xffffffc8
   129fc:	e2433001 	sub	r3, r3, #1
   12a00:	e50b3038 	str	r3, [fp, #-56]	; 0xffffffc8
   12a04:	e51b3018 	ldr	r3, [fp, #-24]	; 0xffffffe8
   12a08:	e3530004 	cmp	r3, #4
   12a0c:	0a00001a 	beq	12a7c <parse_symkeyenc+0x12c>
   12a10:	e51b3018 	ldr	r3, [fp, #-24]	; 0xffffffe8
   12a14:	e3530005 	cmp	r3, #5
   12a18:	0a000017 	beq	12a7c <parse_symkeyenc+0x12c>
   12a1c:	e51b2018 	ldr	r2, [fp, #-24]	; 0xffffffe8
   12a20:	e51b1034 	ldr	r1, [fp, #-52]	; 0xffffffcc
   12a24:	e59f3878 	ldr	r3, [pc, #2168]	; 132a4 <parse_symkeyenc+0x954>
   12a28:	e08f3003 	add	r3, pc, r3
   12a2c:	e1a00003 	mov	r0, r3
   12a30:	eb00084f 	bl	14b74 <tfp_printf>
   12a34:	e59f386c 	ldr	r3, [pc, #2156]	; 132a8 <parse_symkeyenc+0x958>
   12a38:	e08f3003 	add	r3, pc, r3
   12a3c:	e5933000 	ldr	r3, [r3]
   12a40:	e3530000 	cmp	r3, #0
   12a44:	0a000007 	beq	12a68 <parse_symkeyenc+0x118>
   12a48:	e59f385c 	ldr	r3, [pc, #2140]	; 132ac <parse_symkeyenc+0x95c>
   12a4c:	e08f3003 	add	r3, pc, r3
   12a50:	e5933000 	ldr	r3, [r3]
   12a54:	e59f2854 	ldr	r2, [pc, #2132]	; 132b0 <parse_symkeyenc+0x960>
   12a58:	e08f2002 	add	r2, pc, r2
   12a5c:	e1a01002 	mov	r1, r2
   12a60:	e1a00003 	mov	r0, r3
   12a64:	eb000842 	bl	14b74 <tfp_printf>
   12a68:	e3a0000e 	mov	r0, #14
   12a6c:	ebfffad6 	bl	115cc <gpg_error>
   12a70:	e1a03000 	mov	r3, r0
   12a74:	e50b3008 	str	r3, [fp, #-8]
   12a78:	ea0001e6 	b	13218 <parse_symkeyenc+0x8c8>
   12a7c:	e51b3038 	ldr	r3, [fp, #-56]	; 0xffffffc8
   12a80:	e35300c8 	cmp	r3, #200	; 0xc8
   12a84:	9a000016 	bls	12ae4 <parse_symkeyenc+0x194>
   12a88:	e51b1034 	ldr	r1, [fp, #-52]	; 0xffffffcc
   12a8c:	e59f3820 	ldr	r3, [pc, #2080]	; 132b4 <parse_symkeyenc+0x964>
   12a90:	e08f3003 	add	r3, pc, r3
   12a94:	e1a00003 	mov	r0, r3
   12a98:	eb000835 	bl	14b74 <tfp_printf>
   12a9c:	e59f3814 	ldr	r3, [pc, #2068]	; 132b8 <parse_symkeyenc+0x968>
   12aa0:	e08f3003 	add	r3, pc, r3
   12aa4:	e5933000 	ldr	r3, [r3]
   12aa8:	e3530000 	cmp	r3, #0
   12aac:	0a000007 	beq	12ad0 <parse_symkeyenc+0x180>
   12ab0:	e59f3804 	ldr	r3, [pc, #2052]	; 132bc <parse_symkeyenc+0x96c>
   12ab4:	e08f3003 	add	r3, pc, r3
   12ab8:	e5933000 	ldr	r3, [r3]
   12abc:	e59f27fc 	ldr	r2, [pc, #2044]	; 132c0 <parse_symkeyenc+0x970>
   12ac0:	e08f2002 	add	r2, pc, r2
   12ac4:	e1a01002 	mov	r1, r2
   12ac8:	e1a00003 	mov	r0, r3
   12acc:	eb000828 	bl	14b74 <tfp_printf>
   12ad0:	e3a0000e 	mov	r0, #14
   12ad4:	ebfffabc 	bl	115cc <gpg_error>
   12ad8:	e1a03000 	mov	r3, r0
   12adc:	e50b3008 	str	r3, [fp, #-8]
   12ae0:	ea0001cc 	b	13218 <parse_symkeyenc+0x8c8>
   12ae4:	e51b3030 	ldr	r3, [fp, #-48]	; 0xffffffd0
   12ae8:	e5933010 	ldr	r3, [r3, #16]
   12aec:	e3530000 	cmp	r3, #0
   12af0:	1a000005 	bne	12b0c <parse_symkeyenc+0x1bc>
   12af4:	e51b3030 	ldr	r3, [fp, #-48]	; 0xffffffd0
   12af8:	e5932018 	ldr	r2, [r3, #24]
   12afc:	e51b3030 	ldr	r3, [fp, #-48]	; 0xffffffd0
   12b00:	e593301c 	ldr	r3, [r3, #28]
   12b04:	e1520003 	cmp	r2, r3
   12b08:	3a000004 	bcc	12b20 <parse_symkeyenc+0x1d0>
   12b0c:	e51b0030 	ldr	r0, [fp, #-48]	; 0xffffffd0
   12b10:	ebffdf84 	bl	a928 <iobuf_readbyte>
   12b14:	e1a03000 	mov	r3, r0
   12b18:	e6ef3073 	uxtb	r3, r3
   12b1c:	ea00000d 	b	12b58 <parse_symkeyenc+0x208>
   12b20:	e51b3030 	ldr	r3, [fp, #-48]	; 0xffffffd0
   12b24:	e5933008 	ldr	r3, [r3, #8]
   12b28:	e2832001 	add	r2, r3, #1
   12b2c:	e51b3030 	ldr	r3, [fp, #-48]	; 0xffffffd0
   12b30:	e5832008 	str	r2, [r3, #8]
   12b34:	e51b3030 	ldr	r3, [fp, #-48]	; 0xffffffd0
   12b38:	e5932020 	ldr	r2, [r3, #32]
   12b3c:	e51b3030 	ldr	r3, [fp, #-48]	; 0xffffffd0
   12b40:	e5933018 	ldr	r3, [r3, #24]
   12b44:	e2830001 	add	r0, r3, #1
   12b48:	e51b1030 	ldr	r1, [fp, #-48]	; 0xffffffd0
   12b4c:	e5810018 	str	r0, [r1, #24]
   12b50:	e0823003 	add	r3, r2, r3
   12b54:	e5d33000 	ldrb	r3, [r3]
   12b58:	e50b301c 	str	r3, [fp, #-28]	; 0xffffffe4
   12b5c:	e51b3038 	ldr	r3, [fp, #-56]	; 0xffffffc8
   12b60:	e2433001 	sub	r3, r3, #1
   12b64:	e50b3038 	str	r3, [fp, #-56]	; 0xffffffc8
   12b68:	e51b3018 	ldr	r3, [fp, #-24]	; 0xffffffe8
   12b6c:	e3530005 	cmp	r3, #5
   12b70:	1a000021 	bne	12bfc <parse_symkeyenc+0x2ac>
   12b74:	e51b3030 	ldr	r3, [fp, #-48]	; 0xffffffd0
   12b78:	e5933010 	ldr	r3, [r3, #16]
   12b7c:	e3530000 	cmp	r3, #0
   12b80:	1a000005 	bne	12b9c <parse_symkeyenc+0x24c>
   12b84:	e51b3030 	ldr	r3, [fp, #-48]	; 0xffffffd0
   12b88:	e5932018 	ldr	r2, [r3, #24]
   12b8c:	e51b3030 	ldr	r3, [fp, #-48]	; 0xffffffd0
   12b90:	e593301c 	ldr	r3, [r3, #28]
   12b94:	e1520003 	cmp	r2, r3
   12b98:	3a000004 	bcc	12bb0 <parse_symkeyenc+0x260>
   12b9c:	e51b0030 	ldr	r0, [fp, #-48]	; 0xffffffd0
   12ba0:	ebffdf60 	bl	a928 <iobuf_readbyte>
   12ba4:	e1a03000 	mov	r3, r0
   12ba8:	e6ef3073 	uxtb	r3, r3
   12bac:	ea00000d 	b	12be8 <parse_symkeyenc+0x298>
   12bb0:	e51b3030 	ldr	r3, [fp, #-48]	; 0xffffffd0
   12bb4:	e5933008 	ldr	r3, [r3, #8]
   12bb8:	e2832001 	add	r2, r3, #1
   12bbc:	e51b3030 	ldr	r3, [fp, #-48]	; 0xffffffd0
   12bc0:	e5832008 	str	r2, [r3, #8]
   12bc4:	e51b3030 	ldr	r3, [fp, #-48]	; 0xffffffd0
   12bc8:	e5932020 	ldr	r2, [r3, #32]
   12bcc:	e51b3030 	ldr	r3, [fp, #-48]	; 0xffffffd0
   12bd0:	e5933018 	ldr	r3, [r3, #24]
   12bd4:	e2830001 	add	r0, r3, #1
   12bd8:	e51b1030 	ldr	r1, [fp, #-48]	; 0xffffffd0
   12bdc:	e5810018 	str	r0, [r1, #24]
   12be0:	e0823003 	add	r3, r2, r3
   12be4:	e5d33000 	ldrb	r3, [r3]
   12be8:	e50b3010 	str	r3, [fp, #-16]
   12bec:	e51b3038 	ldr	r3, [fp, #-56]	; 0xffffffc8
   12bf0:	e2433001 	sub	r3, r3, #1
   12bf4:	e50b3038 	str	r3, [fp, #-56]	; 0xffffffc8
   12bf8:	ea000001 	b	12c04 <parse_symkeyenc+0x2b4>
   12bfc:	e3a03000 	mov	r3, #0
   12c00:	e50b3010 	str	r3, [fp, #-16]
   12c04:	e51b3038 	ldr	r3, [fp, #-56]	; 0xffffffc8
   12c08:	e3530001 	cmp	r3, #1
   12c0c:	9a000189 	bls	13238 <parse_symkeyenc+0x8e8>
   12c10:	e51b3030 	ldr	r3, [fp, #-48]	; 0xffffffd0
   12c14:	e5933010 	ldr	r3, [r3, #16]
   12c18:	e3530000 	cmp	r3, #0
   12c1c:	1a000005 	bne	12c38 <parse_symkeyenc+0x2e8>
   12c20:	e51b3030 	ldr	r3, [fp, #-48]	; 0xffffffd0
   12c24:	e5932018 	ldr	r2, [r3, #24]
   12c28:	e51b3030 	ldr	r3, [fp, #-48]	; 0xffffffd0
   12c2c:	e593301c 	ldr	r3, [r3, #28]
   12c30:	e1520003 	cmp	r2, r3
   12c34:	3a000004 	bcc	12c4c <parse_symkeyenc+0x2fc>
   12c38:	e51b0030 	ldr	r0, [fp, #-48]	; 0xffffffd0
   12c3c:	ebffdf39 	bl	a928 <iobuf_readbyte>
   12c40:	e1a03000 	mov	r3, r0
   12c44:	e6ef3073 	uxtb	r3, r3
   12c48:	ea00000d 	b	12c84 <parse_symkeyenc+0x334>
   12c4c:	e51b3030 	ldr	r3, [fp, #-48]	; 0xffffffd0
   12c50:	e5933008 	ldr	r3, [r3, #8]
   12c54:	e2832001 	add	r2, r3, #1
   12c58:	e51b3030 	ldr	r3, [fp, #-48]	; 0xffffffd0
   12c5c:	e5832008 	str	r2, [r3, #8]
   12c60:	e51b3030 	ldr	r3, [fp, #-48]	; 0xffffffd0
   12c64:	e5932020 	ldr	r2, [r3, #32]
   12c68:	e51b3030 	ldr	r3, [fp, #-48]	; 0xffffffd0
   12c6c:	e5933018 	ldr	r3, [r3, #24]
   12c70:	e2830001 	add	r0, r3, #1
   12c74:	e51b1030 	ldr	r1, [fp, #-48]	; 0xffffffd0
   12c78:	e5810018 	str	r0, [r1, #24]
   12c7c:	e0823003 	add	r3, r2, r3
   12c80:	e5d33000 	ldrb	r3, [r3]
   12c84:	e50b3020 	str	r3, [fp, #-32]	; 0xffffffe0
   12c88:	e51b3038 	ldr	r3, [fp, #-56]	; 0xffffffc8
   12c8c:	e2433001 	sub	r3, r3, #1
   12c90:	e50b3038 	str	r3, [fp, #-56]	; 0xffffffc8
   12c94:	e51b3030 	ldr	r3, [fp, #-48]	; 0xffffffd0
   12c98:	e5933010 	ldr	r3, [r3, #16]
   12c9c:	e3530000 	cmp	r3, #0
   12ca0:	1a000005 	bne	12cbc <parse_symkeyenc+0x36c>
   12ca4:	e51b3030 	ldr	r3, [fp, #-48]	; 0xffffffd0
   12ca8:	e5932018 	ldr	r2, [r3, #24]
   12cac:	e51b3030 	ldr	r3, [fp, #-48]	; 0xffffffd0
   12cb0:	e593301c 	ldr	r3, [r3, #28]
   12cb4:	e1520003 	cmp	r2, r3
   12cb8:	3a000004 	bcc	12cd0 <parse_symkeyenc+0x380>
   12cbc:	e51b0030 	ldr	r0, [fp, #-48]	; 0xffffffd0
   12cc0:	ebffdf18 	bl	a928 <iobuf_readbyte>
   12cc4:	e1a03000 	mov	r3, r0
   12cc8:	e6ef3073 	uxtb	r3, r3
   12ccc:	ea00000d 	b	12d08 <parse_symkeyenc+0x3b8>
   12cd0:	e51b3030 	ldr	r3, [fp, #-48]	; 0xffffffd0
   12cd4:	e5933008 	ldr	r3, [r3, #8]
   12cd8:	e2832001 	add	r2, r3, #1
   12cdc:	e51b3030 	ldr	r3, [fp, #-48]	; 0xffffffd0
   12ce0:	e5832008 	str	r2, [r3, #8]
   12ce4:	e51b3030 	ldr	r3, [fp, #-48]	; 0xffffffd0
   12ce8:	e5932020 	ldr	r2, [r3, #32]
   12cec:	e51b3030 	ldr	r3, [fp, #-48]	; 0xffffffd0
   12cf0:	e5933018 	ldr	r3, [r3, #24]
   12cf4:	e2830001 	add	r0, r3, #1
   12cf8:	e51b1030 	ldr	r1, [fp, #-48]	; 0xffffffd0
   12cfc:	e5810018 	str	r0, [r1, #24]
   12d00:	e0823003 	add	r3, r2, r3
   12d04:	e5d33000 	ldrb	r3, [r3]
   12d08:	e50b3024 	str	r3, [fp, #-36]	; 0xffffffdc
   12d0c:	e51b3038 	ldr	r3, [fp, #-56]	; 0xffffffc8
   12d10:	e2433001 	sub	r3, r3, #1
   12d14:	e50b3038 	str	r3, [fp, #-56]	; 0xffffffc8
   12d18:	e51b3020 	ldr	r3, [fp, #-32]	; 0xffffffe0
   12d1c:	e3530003 	cmp	r3, #3
   12d20:	0a00000f 	beq	12d64 <parse_symkeyenc+0x414>
   12d24:	e51b3020 	ldr	r3, [fp, #-32]	; 0xffffffe0
   12d28:	e3530003 	cmp	r3, #3
   12d2c:	ca00000f 	bgt	12d70 <parse_symkeyenc+0x420>
   12d30:	e51b3020 	ldr	r3, [fp, #-32]	; 0xffffffe0
   12d34:	e3530000 	cmp	r3, #0
   12d38:	0a000003 	beq	12d4c <parse_symkeyenc+0x3fc>
   12d3c:	e51b3020 	ldr	r3, [fp, #-32]	; 0xffffffe0
   12d40:	e3530001 	cmp	r3, #1
   12d44:	0a000003 	beq	12d58 <parse_symkeyenc+0x408>
   12d48:	ea000008 	b	12d70 <parse_symkeyenc+0x420>
   12d4c:	e3a03000 	mov	r3, #0
   12d50:	e50b3014 	str	r3, [fp, #-20]	; 0xffffffec
   12d54:	ea000018 	b	12dbc <parse_symkeyenc+0x46c>
   12d58:	e3a03008 	mov	r3, #8
   12d5c:	e50b3014 	str	r3, [fp, #-20]	; 0xffffffec
   12d60:	ea000015 	b	12dbc <parse_symkeyenc+0x46c>
   12d64:	e3a03009 	mov	r3, #9
   12d68:	e50b3014 	str	r3, [fp, #-20]	; 0xffffffec
   12d6c:	ea000012 	b	12dbc <parse_symkeyenc+0x46c>
   12d70:	e51b1020 	ldr	r1, [fp, #-32]	; 0xffffffe0
   12d74:	e59f3548 	ldr	r3, [pc, #1352]	; 132c4 <parse_symkeyenc+0x974>
   12d78:	e08f3003 	add	r3, pc, r3
   12d7c:	e1a00003 	mov	r0, r3
   12d80:	eb00077b 	bl	14b74 <tfp_printf>
   12d84:	e59f353c 	ldr	r3, [pc, #1340]	; 132c8 <parse_symkeyenc+0x978>
   12d88:	e08f3003 	add	r3, pc, r3
   12d8c:	e5933000 	ldr	r3, [r3]
   12d90:	e3530000 	cmp	r3, #0
   12d94:	0a00011c 	beq	1320c <parse_symkeyenc+0x8bc>
   12d98:	e59f352c 	ldr	r3, [pc, #1324]	; 132cc <parse_symkeyenc+0x97c>
   12d9c:	e08f3003 	add	r3, pc, r3
   12da0:	e5933000 	ldr	r3, [r3]
   12da4:	e59f2524 	ldr	r2, [pc, #1316]	; 132d0 <parse_symkeyenc+0x980>
   12da8:	e08f2002 	add	r2, pc, r2
   12dac:	e1a01002 	mov	r1, r2
   12db0:	e1a00003 	mov	r0, r3
   12db4:	eb00076e 	bl	14b74 <tfp_printf>
   12db8:	ea000113 	b	1320c <parse_symkeyenc+0x8bc>
   12dbc:	e51b3014 	ldr	r3, [fp, #-20]	; 0xffffffec
   12dc0:	e51b2038 	ldr	r2, [fp, #-56]	; 0xffffffc8
   12dc4:	e1520003 	cmp	r2, r3
   12dc8:	2a000016 	bcs	12e28 <parse_symkeyenc+0x4d8>
   12dcc:	e51b1020 	ldr	r1, [fp, #-32]	; 0xffffffe0
   12dd0:	e59f34fc 	ldr	r3, [pc, #1276]	; 132d4 <parse_symkeyenc+0x984>
   12dd4:	e08f3003 	add	r3, pc, r3
   12dd8:	e1a00003 	mov	r0, r3
   12ddc:	eb000764 	bl	14b74 <tfp_printf>
   12de0:	e59f34f0 	ldr	r3, [pc, #1264]	; 132d8 <parse_symkeyenc+0x988>
   12de4:	e08f3003 	add	r3, pc, r3
   12de8:	e5933000 	ldr	r3, [r3]
   12dec:	e3530000 	cmp	r3, #0
   12df0:	0a000007 	beq	12e14 <parse_symkeyenc+0x4c4>
   12df4:	e59f34e0 	ldr	r3, [pc, #1248]	; 132dc <parse_symkeyenc+0x98c>
   12df8:	e08f3003 	add	r3, pc, r3
   12dfc:	e5933000 	ldr	r3, [r3]
   12e00:	e59f24d8 	ldr	r2, [pc, #1240]	; 132e0 <parse_symkeyenc+0x990>
   12e04:	e08f2002 	add	r2, pc, r2
   12e08:	e1a01002 	mov	r1, r2
   12e0c:	e1a00003 	mov	r0, r3
   12e10:	eb000757 	bl	14b74 <tfp_printf>
   12e14:	e3a0000e 	mov	r0, #14
   12e18:	ebfff9eb 	bl	115cc <gpg_error>
   12e1c:	e1a03000 	mov	r3, r0
   12e20:	e50b3008 	str	r3, [fp, #-8]
   12e24:	ea0000fb 	b	13218 <parse_symkeyenc+0x8c8>
   12e28:	e51b3014 	ldr	r3, [fp, #-20]	; 0xffffffec
   12e2c:	e51b2038 	ldr	r2, [fp, #-56]	; 0xffffffc8
   12e30:	e0423003 	sub	r3, r2, r3
   12e34:	e50b3028 	str	r3, [fp, #-40]	; 0xffffffd8
   12e38:	e51b3028 	ldr	r3, [fp, #-40]	; 0xffffffd8
   12e3c:	e283301b 	add	r3, r3, #27
   12e40:	e1a00003 	mov	r0, r3
   12e44:	ebfff805 	bl	10e60 <xmalloc_clear>
   12e48:	e1a02000 	mov	r2, r0
   12e4c:	e51b303c 	ldr	r3, [fp, #-60]	; 0xffffffc4
   12e50:	e5832004 	str	r2, [r3, #4]
   12e54:	e51b303c 	ldr	r3, [fp, #-60]	; 0xffffffc4
   12e58:	e5933004 	ldr	r3, [r3, #4]
   12e5c:	e50b302c 	str	r3, [fp, #-44]	; 0xffffffd4
   12e60:	e51b3018 	ldr	r3, [fp, #-24]	; 0xffffffe8
   12e64:	e6ef2073 	uxtb	r2, r3
   12e68:	e51b302c 	ldr	r3, [fp, #-44]	; 0xffffffd4
   12e6c:	e5c32000 	strb	r2, [r3]
   12e70:	e51b301c 	ldr	r3, [fp, #-28]	; 0xffffffe4
   12e74:	e6ef2073 	uxtb	r2, r3
   12e78:	e51b302c 	ldr	r3, [fp, #-44]	; 0xffffffd4
   12e7c:	e5c32001 	strb	r2, [r3, #1]
   12e80:	e51b3010 	ldr	r3, [fp, #-16]
   12e84:	e6ef2073 	uxtb	r2, r3
   12e88:	e51b302c 	ldr	r3, [fp, #-44]	; 0xffffffd4
   12e8c:	e5c32002 	strb	r2, [r3, #2]
   12e90:	e51b302c 	ldr	r3, [fp, #-44]	; 0xffffffd4
   12e94:	e51b2020 	ldr	r2, [fp, #-32]	; 0xffffffe0
   12e98:	e5832004 	str	r2, [r3, #4]
   12e9c:	e51b3024 	ldr	r3, [fp, #-36]	; 0xffffffdc
   12ea0:	e6ef2073 	uxtb	r2, r3
   12ea4:	e51b302c 	ldr	r3, [fp, #-44]	; 0xffffffd4
   12ea8:	e5c32008 	strb	r2, [r3, #8]
   12eac:	e51b3020 	ldr	r3, [fp, #-32]	; 0xffffffe0
   12eb0:	e3530001 	cmp	r3, #1
   12eb4:	0a000002 	beq	12ec4 <parse_symkeyenc+0x574>
   12eb8:	e51b3020 	ldr	r3, [fp, #-32]	; 0xffffffe0
   12ebc:	e3530003 	cmp	r3, #3
   12ec0:	1a000030 	bne	12f88 <parse_symkeyenc+0x638>
   12ec4:	e3a03000 	mov	r3, #0
   12ec8:	e50b300c 	str	r3, [fp, #-12]
   12ecc:	ea000027 	b	12f70 <parse_symkeyenc+0x620>
   12ed0:	e51b3030 	ldr	r3, [fp, #-48]	; 0xffffffd0
   12ed4:	e5933010 	ldr	r3, [r3, #16]
   12ed8:	e3530000 	cmp	r3, #0
   12edc:	1a000005 	bne	12ef8 <parse_symkeyenc+0x5a8>
   12ee0:	e51b3030 	ldr	r3, [fp, #-48]	; 0xffffffd0
   12ee4:	e5932018 	ldr	r2, [r3, #24]
   12ee8:	e51b3030 	ldr	r3, [fp, #-48]	; 0xffffffd0
   12eec:	e593301c 	ldr	r3, [r3, #28]
   12ef0:	e1520003 	cmp	r2, r3
   12ef4:	3a000004 	bcc	12f0c <parse_symkeyenc+0x5bc>
   12ef8:	e51b0030 	ldr	r0, [fp, #-48]	; 0xffffffd0
   12efc:	ebffde89 	bl	a928 <iobuf_readbyte>
   12f00:	e1a03000 	mov	r3, r0
   12f04:	e6ef3073 	uxtb	r3, r3
   12f08:	ea00000d 	b	12f44 <parse_symkeyenc+0x5f4>
   12f0c:	e51b3030 	ldr	r3, [fp, #-48]	; 0xffffffd0
   12f10:	e5933008 	ldr	r3, [r3, #8]
   12f14:	e2832001 	add	r2, r3, #1
   12f18:	e51b3030 	ldr	r3, [fp, #-48]	; 0xffffffd0
   12f1c:	e5832008 	str	r2, [r3, #8]
   12f20:	e51b3030 	ldr	r3, [fp, #-48]	; 0xffffffd0
   12f24:	e5932020 	ldr	r2, [r3, #32]
   12f28:	e51b3030 	ldr	r3, [fp, #-48]	; 0xffffffd0
   12f2c:	e5933018 	ldr	r3, [r3, #24]
   12f30:	e2830001 	add	r0, r3, #1
   12f34:	e51b1030 	ldr	r1, [fp, #-48]	; 0xffffffd0
   12f38:	e5810018 	str	r0, [r1, #24]
   12f3c:	e0823003 	add	r3, r2, r3
   12f40:	e5d33000 	ldrb	r3, [r3]
   12f44:	e51b102c 	ldr	r1, [fp, #-44]	; 0xffffffd4
   12f48:	e51b200c 	ldr	r2, [fp, #-12]
   12f4c:	e0812002 	add	r2, r1, r2
   12f50:	e2822009 	add	r2, r2, #9
   12f54:	e5c23000 	strb	r3, [r2]
   12f58:	e51b300c 	ldr	r3, [fp, #-12]
   12f5c:	e2833001 	add	r3, r3, #1
   12f60:	e50b300c 	str	r3, [fp, #-12]
   12f64:	e51b3038 	ldr	r3, [fp, #-56]	; 0xffffffc8
   12f68:	e2433001 	sub	r3, r3, #1
   12f6c:	e50b3038 	str	r3, [fp, #-56]	; 0xffffffc8
   12f70:	e51b300c 	ldr	r3, [fp, #-12]
   12f74:	e3530007 	cmp	r3, #7
   12f78:	ca000002 	bgt	12f88 <parse_symkeyenc+0x638>
   12f7c:	e51b3038 	ldr	r3, [fp, #-56]	; 0xffffffc8
   12f80:	e3530000 	cmp	r3, #0
   12f84:	1affffd1 	bne	12ed0 <parse_symkeyenc+0x580>
   12f88:	e51b3020 	ldr	r3, [fp, #-32]	; 0xffffffe0
   12f8c:	e3530003 	cmp	r3, #3
   12f90:	1a000021 	bne	1301c <parse_symkeyenc+0x6cc>
   12f94:	e51b3030 	ldr	r3, [fp, #-48]	; 0xffffffd0
   12f98:	e5933010 	ldr	r3, [r3, #16]
   12f9c:	e3530000 	cmp	r3, #0
   12fa0:	1a000005 	bne	12fbc <parse_symkeyenc+0x66c>
   12fa4:	e51b3030 	ldr	r3, [fp, #-48]	; 0xffffffd0
   12fa8:	e5932018 	ldr	r2, [r3, #24]
   12fac:	e51b3030 	ldr	r3, [fp, #-48]	; 0xffffffd0
   12fb0:	e593301c 	ldr	r3, [r3, #28]
   12fb4:	e1520003 	cmp	r2, r3
   12fb8:	3a000004 	bcc	12fd0 <parse_symkeyenc+0x680>
   12fbc:	e51b0030 	ldr	r0, [fp, #-48]	; 0xffffffd0
   12fc0:	ebffde58 	bl	a928 <iobuf_readbyte>
   12fc4:	e1a03000 	mov	r3, r0
   12fc8:	e6ef3073 	uxtb	r3, r3
   12fcc:	ea00000d 	b	13008 <parse_symkeyenc+0x6b8>
   12fd0:	e51b3030 	ldr	r3, [fp, #-48]	; 0xffffffd0
   12fd4:	e5933008 	ldr	r3, [r3, #8]
   12fd8:	e2832001 	add	r2, r3, #1
   12fdc:	e51b3030 	ldr	r3, [fp, #-48]	; 0xffffffd0
   12fe0:	e5832008 	str	r2, [r3, #8]
   12fe4:	e51b3030 	ldr	r3, [fp, #-48]	; 0xffffffd0
   12fe8:	e5932020 	ldr	r2, [r3, #32]
   12fec:	e51b3030 	ldr	r3, [fp, #-48]	; 0xffffffd0
   12ff0:	e5933018 	ldr	r3, [r3, #24]
   12ff4:	e2830001 	add	r0, r3, #1
   12ff8:	e51b1030 	ldr	r1, [fp, #-48]	; 0xffffffd0
   12ffc:	e5810018 	str	r0, [r1, #24]
   13000:	e0823003 	add	r3, r2, r3
   13004:	e5d33000 	ldrb	r3, [r3]
   13008:	e51b202c 	ldr	r2, [fp, #-44]	; 0xffffffd4
   1300c:	e5823014 	str	r3, [r2, #20]
   13010:	e51b3038 	ldr	r3, [fp, #-56]	; 0xffffffc8
   13014:	e2433001 	sub	r3, r3, #1
   13018:	e50b3038 	str	r3, [fp, #-56]	; 0xffffffc8
   1301c:	e51b3028 	ldr	r3, [fp, #-40]	; 0xffffffd8
   13020:	e6ef2073 	uxtb	r2, r3
   13024:	e51b302c 	ldr	r3, [fp, #-44]	; 0xffffffd4
   13028:	e5c32018 	strb	r2, [r3, #24]
   1302c:	e51b302c 	ldr	r3, [fp, #-44]	; 0xffffffd4
   13030:	e5d33018 	ldrb	r3, [r3, #24]
   13034:	e3530000 	cmp	r3, #0
   13038:	0a00003b 	beq	1312c <parse_symkeyenc+0x7dc>
   1303c:	e3a03000 	mov	r3, #0
   13040:	e50b300c 	str	r3, [fp, #-12]
   13044:	ea000027 	b	130e8 <parse_symkeyenc+0x798>
   13048:	e51b3030 	ldr	r3, [fp, #-48]	; 0xffffffd0
   1304c:	e5933010 	ldr	r3, [r3, #16]
   13050:	e3530000 	cmp	r3, #0
   13054:	1a000005 	bne	13070 <parse_symkeyenc+0x720>
   13058:	e51b3030 	ldr	r3, [fp, #-48]	; 0xffffffd0
   1305c:	e5932018 	ldr	r2, [r3, #24]
   13060:	e51b3030 	ldr	r3, [fp, #-48]	; 0xffffffd0
   13064:	e593301c 	ldr	r3, [r3, #28]
   13068:	e1520003 	cmp	r2, r3
   1306c:	3a000004 	bcc	13084 <parse_symkeyenc+0x734>
   13070:	e51b0030 	ldr	r0, [fp, #-48]	; 0xffffffd0
   13074:	ebffde2b 	bl	a928 <iobuf_readbyte>
   13078:	e1a03000 	mov	r3, r0
   1307c:	e6ef3073 	uxtb	r3, r3
   13080:	ea00000d 	b	130bc <parse_symkeyenc+0x76c>
   13084:	e51b3030 	ldr	r3, [fp, #-48]	; 0xffffffd0
   13088:	e5933008 	ldr	r3, [r3, #8]
   1308c:	e2832001 	add	r2, r3, #1
   13090:	e51b3030 	ldr	r3, [fp, #-48]	; 0xffffffd0
   13094:	e5832008 	str	r2, [r3, #8]
   13098:	e51b3030 	ldr	r3, [fp, #-48]	; 0xffffffd0
   1309c:	e5932020 	ldr	r2, [r3, #32]
   130a0:	e51b3030 	ldr	r3, [fp, #-48]	; 0xffffffd0
   130a4:	e5933018 	ldr	r3, [r3, #24]
   130a8:	e2830001 	add	r0, r3, #1
   130ac:	e51b1030 	ldr	r1, [fp, #-48]	; 0xffffffd0
   130b0:	e5810018 	str	r0, [r1, #24]
   130b4:	e0823003 	add	r3, r2, r3
   130b8:	e5d33000 	ldrb	r3, [r3]
   130bc:	e51b102c 	ldr	r1, [fp, #-44]	; 0xffffffd4
   130c0:	e51b200c 	ldr	r2, [fp, #-12]
   130c4:	e0812002 	add	r2, r1, r2
   130c8:	e2822019 	add	r2, r2, #25
   130cc:	e5c23000 	strb	r3, [r2]
   130d0:	e51b300c 	ldr	r3, [fp, #-12]
   130d4:	e2833001 	add	r3, r3, #1
   130d8:	e50b300c 	str	r3, [fp, #-12]
   130dc:	e51b3038 	ldr	r3, [fp, #-56]	; 0xffffffc8
   130e0:	e2433001 	sub	r3, r3, #1
   130e4:	e50b3038 	str	r3, [fp, #-56]	; 0xffffffc8
   130e8:	e51b200c 	ldr	r2, [fp, #-12]
   130ec:	e51b3028 	ldr	r3, [fp, #-40]	; 0xffffffd8
   130f0:	e1520003 	cmp	r2, r3
   130f4:	aa000002 	bge	13104 <parse_symkeyenc+0x7b4>
   130f8:	e51b3038 	ldr	r3, [fp, #-56]	; 0xffffffc8
   130fc:	e3530000 	cmp	r3, #0
   13100:	1affffd0 	bne	13048 <parse_symkeyenc+0x6f8>
   13104:	e51b3020 	ldr	r3, [fp, #-32]	; 0xffffffe0
   13108:	e3530001 	cmp	r3, #1
   1310c:	0a000006 	beq	1312c <parse_symkeyenc+0x7dc>
   13110:	e51b3020 	ldr	r3, [fp, #-32]	; 0xffffffe0
   13114:	e3530003 	cmp	r3, #3
   13118:	0a000003 	beq	1312c <parse_symkeyenc+0x7dc>
   1311c:	e59f31c0 	ldr	r3, [pc, #448]	; 132e4 <parse_symkeyenc+0x994>
   13120:	e08f3003 	add	r3, pc, r3
   13124:	e1a00003 	mov	r0, r3
   13128:	eb000691 	bl	14b74 <tfp_printf>
   1312c:	e51b3024 	ldr	r3, [fp, #-36]	; 0xffffffdc
   13130:	e58d3004 	str	r3, [sp, #4]
   13134:	e51b3020 	ldr	r3, [fp, #-32]	; 0xffffffe0
   13138:	e58d3000 	str	r3, [sp]
   1313c:	e51b3010 	ldr	r3, [fp, #-16]
   13140:	e51b201c 	ldr	r2, [fp, #-28]	; 0xffffffe4
   13144:	e51b1018 	ldr	r1, [fp, #-24]	; 0xffffffe8
   13148:	e59f0198 	ldr	r0, [pc, #408]	; 132e8 <parse_symkeyenc+0x998>
   1314c:	e08f0000 	add	r0, pc, r0
   13150:	eb000687 	bl	14b74 <tfp_printf>
   13154:	e51b3028 	ldr	r3, [fp, #-40]	; 0xffffffd8
   13158:	e3530000 	cmp	r3, #0
   1315c:	0a000010 	beq	131a4 <parse_symkeyenc+0x854>
   13160:	e51b3010 	ldr	r3, [fp, #-16]
   13164:	e3530000 	cmp	r3, #0
   13168:	0a000005 	beq	13184 <parse_symkeyenc+0x834>
   1316c:	e51b1028 	ldr	r1, [fp, #-40]	; 0xffffffd8
   13170:	e59f3174 	ldr	r3, [pc, #372]	; 132ec <parse_symkeyenc+0x99c>
   13174:	e08f3003 	add	r3, pc, r3
   13178:	e1a00003 	mov	r0, r3
   1317c:	eb00067c 	bl	14b74 <tfp_printf>
   13180:	ea000007 	b	131a4 <parse_symkeyenc+0x854>
   13184:	e51b3028 	ldr	r3, [fp, #-40]	; 0xffffffd8
   13188:	e2433001 	sub	r3, r3, #1
   1318c:	e1a03183 	lsl	r3, r3, #3
   13190:	e1a01003 	mov	r1, r3
   13194:	e59f3154 	ldr	r3, [pc, #340]	; 132f0 <parse_symkeyenc+0x9a0>
   13198:	e08f3003 	add	r3, pc, r3
   1319c:	e1a00003 	mov	r0, r3
   131a0:	eb000673 	bl	14b74 <tfp_printf>
   131a4:	e51b3020 	ldr	r3, [fp, #-32]	; 0xffffffe0
   131a8:	e3530001 	cmp	r3, #1
   131ac:	0a000002 	beq	131bc <parse_symkeyenc+0x86c>
   131b0:	e51b3020 	ldr	r3, [fp, #-32]	; 0xffffffe0
   131b4:	e3530003 	cmp	r3, #3
   131b8:	1a000015 	bne	13214 <parse_symkeyenc+0x8c4>
   131bc:	e51b3020 	ldr	r3, [fp, #-32]	; 0xffffffe0
   131c0:	e3530003 	cmp	r3, #3
   131c4:	1a000012 	bne	13214 <parse_symkeyenc+0x8c4>
   131c8:	e51b302c 	ldr	r3, [fp, #-44]	; 0xffffffd4
   131cc:	e5933014 	ldr	r3, [r3, #20]
   131d0:	e203300f 	and	r3, r3, #15
   131d4:	e2832010 	add	r2, r3, #16
   131d8:	e51b302c 	ldr	r3, [fp, #-44]	; 0xffffffd4
   131dc:	e5933014 	ldr	r3, [r3, #20]
   131e0:	e1a03223 	lsr	r3, r3, #4
   131e4:	e2833006 	add	r3, r3, #6
   131e8:	e1a01312 	lsl	r1, r2, r3
   131ec:	e51b302c 	ldr	r3, [fp, #-44]	; 0xffffffd4
   131f0:	e5933014 	ldr	r3, [r3, #20]
   131f4:	e1a02003 	mov	r2, r3
   131f8:	e59f30f4 	ldr	r3, [pc, #244]	; 132f4 <parse_symkeyenc+0x9a4>
   131fc:	e08f3003 	add	r3, pc, r3
   13200:	e1a00003 	mov	r0, r3
   13204:	eb00065a 	bl	14b74 <tfp_printf>
   13208:	ea000002 	b	13218 <parse_symkeyenc+0x8c8>
   1320c:	e320f000 	nop	{0}
   13210:	ea000000 	b	13218 <parse_symkeyenc+0x8c8>
   13214:	e320f000 	nop	{0}
   13218:	e3a02000 	mov	r2, #0
   1321c:	e51b1038 	ldr	r1, [fp, #-56]	; 0xffffffc8
   13220:	e51b0030 	ldr	r0, [fp, #-48]	; 0xffffffd0
   13224:	ebffdfa4 	bl	b0bc <iobuf_skip_rest>
   13228:	e51b3008 	ldr	r3, [fp, #-8]
   1322c:	ea000019 	b	13298 <parse_symkeyenc+0x948>
   13230:	e320f000 	nop	{0}
   13234:	ea000000 	b	1323c <parse_symkeyenc+0x8ec>
   13238:	e320f000 	nop	{0}
   1323c:	e51b1034 	ldr	r1, [fp, #-52]	; 0xffffffcc
   13240:	e59f30b0 	ldr	r3, [pc, #176]	; 132f8 <parse_symkeyenc+0x9a8>
   13244:	e08f3003 	add	r3, pc, r3
   13248:	e1a00003 	mov	r0, r3
   1324c:	eb000648 	bl	14b74 <tfp_printf>
   13250:	e59f30a4 	ldr	r3, [pc, #164]	; 132fc <parse_symkeyenc+0x9ac>
   13254:	e08f3003 	add	r3, pc, r3
   13258:	e5933000 	ldr	r3, [r3]
   1325c:	e3530000 	cmp	r3, #0
   13260:	0a000007 	beq	13284 <parse_symkeyenc+0x934>
   13264:	e59f3094 	ldr	r3, [pc, #148]	; 13300 <parse_symkeyenc+0x9b0>
   13268:	e08f3003 	add	r3, pc, r3
   1326c:	e5933000 	ldr	r3, [r3]
   13270:	e59f208c 	ldr	r2, [pc, #140]	; 13304 <parse_symkeyenc+0x9b4>
   13274:	e08f2002 	add	r2, pc, r2
   13278:	e1a01002 	mov	r1, r2
   1327c:	e1a00003 	mov	r0, r3
   13280:	eb00063b 	bl	14b74 <tfp_printf>
   13284:	e3a0000e 	mov	r0, #14
   13288:	ebfff8cf 	bl	115cc <gpg_error>
   1328c:	e1a03000 	mov	r3, r0
   13290:	e50b3008 	str	r3, [fp, #-8]
   13294:	eaffffdf 	b	13218 <parse_symkeyenc+0x8c8>
   13298:	e1a00003 	mov	r0, r3
   1329c:	e24bd004 	sub	sp, fp, #4
   132a0:	e8bd8800 	pop	{fp, pc}
   132a4:	00007f70 	.word	0x00007f70
   132a8:	000365d0 	.word	0x000365d0
   132ac:	000365c0 	.word	0x000365c0
   132b0:	00007f64 	.word	0x00007f64
   132b4:	00007f54 	.word	0x00007f54
   132b8:	00036568 	.word	0x00036568
   132bc:	00036558 	.word	0x00036558
   132c0:	00007f3c 	.word	0x00007f3c
   132c4:	00007ca8 	.word	0x00007ca8
   132c8:	00036280 	.word	0x00036280
   132cc:	00036270 	.word	0x00036270
   132d0:	00007c90 	.word	0x00007c90
   132d4:	00007c8c 	.word	0x00007c8c
   132d8:	00036224 	.word	0x00036224
   132dc:	00036214 	.word	0x00036214
   132e0:	00007c7c 	.word	0x00007c7c
   132e4:	00007984 	.word	0x00007984
   132e8:	0000799c 	.word	0x0000799c
   132ec:	000079b8 	.word	0x000079b8
   132f0:	000079b0 	.word	0x000079b0
   132f4:	00007960 	.word	0x00007960
   132f8:	0000792c 	.word	0x0000792c
   132fc:	00035db4 	.word	0x00035db4
   13300:	00035da4 	.word	0x00035da4
   13304:	0000780c 	.word	0x0000780c

00013308 <parse_plaintext>:
   13308:	e92d4800 	push	{fp, lr}
   1330c:	e28db004 	add	fp, sp, #4
   13310:	e24dd038 	sub	sp, sp, #56	; 0x38
   13314:	e50b0028 	str	r0, [fp, #-40]	; 0xffffffd8
   13318:	e50b102c 	str	r1, [fp, #-44]	; 0xffffffd4
   1331c:	e50b2030 	str	r2, [fp, #-48]	; 0xffffffd0
   13320:	e50b3034 	str	r3, [fp, #-52]	; 0xffffffcc
   13324:	e3a03000 	mov	r3, #0
   13328:	e50b3008 	str	r3, [fp, #-8]
   1332c:	e59b3008 	ldr	r3, [fp, #8]
   13330:	e3530000 	cmp	r3, #0
   13334:	1a000016 	bne	13394 <parse_plaintext+0x8c>
   13338:	e51b3030 	ldr	r3, [fp, #-48]	; 0xffffffd0
   1333c:	e3530005 	cmp	r3, #5
   13340:	8a000013 	bhi	13394 <parse_plaintext+0x8c>
   13344:	e51b2030 	ldr	r2, [fp, #-48]	; 0xffffffd0
   13348:	e51b102c 	ldr	r1, [fp, #-44]	; 0xffffffd4
   1334c:	e59f3570 	ldr	r3, [pc, #1392]	; 138c4 <parse_plaintext+0x5bc>
   13350:	e08f3003 	add	r3, pc, r3
   13354:	e1a00003 	mov	r0, r3
   13358:	eb000605 	bl	14b74 <tfp_printf>
   1335c:	e59f3564 	ldr	r3, [pc, #1380]	; 138c8 <parse_plaintext+0x5c0>
   13360:	e08f3003 	add	r3, pc, r3
   13364:	e5933000 	ldr	r3, [r3]
   13368:	e3530000 	cmp	r3, #0
   1336c:	0a000003 	beq	13380 <parse_plaintext+0x78>
   13370:	e59f3554 	ldr	r3, [pc, #1364]	; 138cc <parse_plaintext+0x5c4>
   13374:	e08f3003 	add	r3, pc, r3
   13378:	e1a00003 	mov	r0, r3
   1337c:	eb0005fc 	bl	14b74 <tfp_printf>
   13380:	e3a0000e 	mov	r0, #14
   13384:	ebfff890 	bl	115cc <gpg_error>
   13388:	e1a03000 	mov	r3, r0
   1338c:	e50b3008 	str	r3, [fp, #-8]
   13390:	ea000147 	b	138b4 <parse_plaintext+0x5ac>
   13394:	e51b3028 	ldr	r3, [fp, #-40]	; 0xffffffd8
   13398:	e5933010 	ldr	r3, [r3, #16]
   1339c:	e3530000 	cmp	r3, #0
   133a0:	1a000005 	bne	133bc <parse_plaintext+0xb4>
   133a4:	e51b3028 	ldr	r3, [fp, #-40]	; 0xffffffd8
   133a8:	e5932018 	ldr	r2, [r3, #24]
   133ac:	e51b3028 	ldr	r3, [fp, #-40]	; 0xffffffd8
   133b0:	e593301c 	ldr	r3, [r3, #28]
   133b4:	e1520003 	cmp	r2, r3
   133b8:	3a000004 	bcc	133d0 <parse_plaintext+0xc8>
   133bc:	e51b0028 	ldr	r0, [fp, #-40]	; 0xffffffd8
   133c0:	ebffdd58 	bl	a928 <iobuf_readbyte>
   133c4:	e1a03000 	mov	r3, r0
   133c8:	e6ef3073 	uxtb	r3, r3
   133cc:	ea00000d 	b	13408 <parse_plaintext+0x100>
   133d0:	e51b3028 	ldr	r3, [fp, #-40]	; 0xffffffd8
   133d4:	e5933008 	ldr	r3, [r3, #8]
   133d8:	e2832001 	add	r2, r3, #1
   133dc:	e51b3028 	ldr	r3, [fp, #-40]	; 0xffffffd8
   133e0:	e5832008 	str	r2, [r3, #8]
   133e4:	e51b3028 	ldr	r3, [fp, #-40]	; 0xffffffd8
   133e8:	e5932020 	ldr	r2, [r3, #32]
   133ec:	e51b3028 	ldr	r3, [fp, #-40]	; 0xffffffd8
   133f0:	e5933018 	ldr	r3, [r3, #24]
   133f4:	e2830001 	add	r0, r3, #1
   133f8:	e51b1028 	ldr	r1, [fp, #-40]	; 0xffffffd8
   133fc:	e5810018 	str	r0, [r1, #24]
   13400:	e0823003 	add	r3, r2, r3
   13404:	e5d33000 	ldrb	r3, [r3]
   13408:	e50b3014 	str	r3, [fp, #-20]	; 0xffffffec
   1340c:	e51b3030 	ldr	r3, [fp, #-48]	; 0xffffffd0
   13410:	e3530000 	cmp	r3, #0
   13414:	0a000002 	beq	13424 <parse_plaintext+0x11c>
   13418:	e51b3030 	ldr	r3, [fp, #-48]	; 0xffffffd0
   1341c:	e2433001 	sub	r3, r3, #1
   13420:	e50b3030 	str	r3, [fp, #-48]	; 0xffffffd0
   13424:	e51b3028 	ldr	r3, [fp, #-40]	; 0xffffffd8
   13428:	e5933010 	ldr	r3, [r3, #16]
   1342c:	e3530000 	cmp	r3, #0
   13430:	1a000005 	bne	1344c <parse_plaintext+0x144>
   13434:	e51b3028 	ldr	r3, [fp, #-40]	; 0xffffffd8
   13438:	e5932018 	ldr	r2, [r3, #24]
   1343c:	e51b3028 	ldr	r3, [fp, #-40]	; 0xffffffd8
   13440:	e593301c 	ldr	r3, [r3, #28]
   13444:	e1520003 	cmp	r2, r3
   13448:	3a000004 	bcc	13460 <parse_plaintext+0x158>
   1344c:	e51b0028 	ldr	r0, [fp, #-40]	; 0xffffffd8
   13450:	ebffdd34 	bl	a928 <iobuf_readbyte>
   13454:	e1a03000 	mov	r3, r0
   13458:	e6ef3073 	uxtb	r3, r3
   1345c:	ea00000d 	b	13498 <parse_plaintext+0x190>
   13460:	e51b3028 	ldr	r3, [fp, #-40]	; 0xffffffd8
   13464:	e5933008 	ldr	r3, [r3, #8]
   13468:	e2832001 	add	r2, r3, #1
   1346c:	e51b3028 	ldr	r3, [fp, #-40]	; 0xffffffd8
   13470:	e5832008 	str	r2, [r3, #8]
   13474:	e51b3028 	ldr	r3, [fp, #-40]	; 0xffffffd8
   13478:	e5932020 	ldr	r2, [r3, #32]
   1347c:	e51b3028 	ldr	r3, [fp, #-40]	; 0xffffffd8
   13480:	e5933018 	ldr	r3, [r3, #24]
   13484:	e2830001 	add	r0, r3, #1
   13488:	e51b1028 	ldr	r1, [fp, #-40]	; 0xffffffd8
   1348c:	e5810018 	str	r0, [r1, #24]
   13490:	e0823003 	add	r3, r2, r3
   13494:	e5d33000 	ldrb	r3, [r3]
   13498:	e50b3018 	str	r3, [fp, #-24]	; 0xffffffe8
   1349c:	e51b3030 	ldr	r3, [fp, #-48]	; 0xffffffd0
   134a0:	e3530000 	cmp	r3, #0
   134a4:	0a000002 	beq	134b4 <parse_plaintext+0x1ac>
   134a8:	e51b3030 	ldr	r3, [fp, #-48]	; 0xffffffd0
   134ac:	e2433001 	sub	r3, r3, #1
   134b0:	e50b3030 	str	r3, [fp, #-48]	; 0xffffffd0
   134b4:	e51b3018 	ldr	r3, [fp, #-24]	; 0xffffffe8
   134b8:	e283301b 	add	r3, r3, #27
   134bc:	e1a00003 	mov	r0, r3
   134c0:	ebfff646 	bl	10de0 <xmalloc>
   134c4:	e1a02000 	mov	r2, r0
   134c8:	e51b3034 	ldr	r3, [fp, #-52]	; 0xffffffcc
   134cc:	e5832004 	str	r2, [r3, #4]
   134d0:	e51b3034 	ldr	r3, [fp, #-52]	; 0xffffffcc
   134d4:	e5933004 	ldr	r3, [r3, #4]
   134d8:	e50b301c 	str	r3, [fp, #-28]	; 0xffffffe4
   134dc:	e59b3004 	ldr	r3, [fp, #4]
   134e0:	e6ef2073 	uxtb	r2, r3
   134e4:	e51b301c 	ldr	r3, [fp, #-28]	; 0xffffffe4
   134e8:	e5c32008 	strb	r2, [r3, #8]
   134ec:	e51b301c 	ldr	r3, [fp, #-28]	; 0xffffffe4
   134f0:	e51b2014 	ldr	r2, [fp, #-20]	; 0xffffffec
   134f4:	e583200c 	str	r2, [r3, #12]
   134f8:	e51b301c 	ldr	r3, [fp, #-28]	; 0xffffffe4
   134fc:	e51b2018 	ldr	r2, [fp, #-24]	; 0xffffffe8
   13500:	e5832014 	str	r2, [r3, #20]
   13504:	e59b3008 	ldr	r3, [fp, #8]
   13508:	e6ef2073 	uxtb	r2, r3
   1350c:	e51b301c 	ldr	r3, [fp, #-28]	; 0xffffffe4
   13510:	e5c32009 	strb	r2, [r3, #9]
   13514:	e51b3030 	ldr	r3, [fp, #-48]	; 0xffffffd0
   13518:	e3530000 	cmp	r3, #0
   1351c:	0a000032 	beq	135ec <parse_plaintext+0x2e4>
   13520:	e3a03000 	mov	r3, #0
   13524:	e50b3010 	str	r3, [fp, #-16]
   13528:	ea000027 	b	135cc <parse_plaintext+0x2c4>
   1352c:	e51b3028 	ldr	r3, [fp, #-40]	; 0xffffffd8
   13530:	e5933010 	ldr	r3, [r3, #16]
   13534:	e3530000 	cmp	r3, #0
   13538:	1a000005 	bne	13554 <parse_plaintext+0x24c>
   1353c:	e51b3028 	ldr	r3, [fp, #-40]	; 0xffffffd8
   13540:	e5932018 	ldr	r2, [r3, #24]
   13544:	e51b3028 	ldr	r3, [fp, #-40]	; 0xffffffd8
   13548:	e593301c 	ldr	r3, [r3, #28]
   1354c:	e1520003 	cmp	r2, r3
   13550:	3a000004 	bcc	13568 <parse_plaintext+0x260>
   13554:	e51b0028 	ldr	r0, [fp, #-40]	; 0xffffffd8
   13558:	ebffdcf2 	bl	a928 <iobuf_readbyte>
   1355c:	e1a03000 	mov	r3, r0
   13560:	e6ef3073 	uxtb	r3, r3
   13564:	ea00000d 	b	135a0 <parse_plaintext+0x298>
   13568:	e51b3028 	ldr	r3, [fp, #-40]	; 0xffffffd8
   1356c:	e5933008 	ldr	r3, [r3, #8]
   13570:	e2832001 	add	r2, r3, #1
   13574:	e51b3028 	ldr	r3, [fp, #-40]	; 0xffffffd8
   13578:	e5832008 	str	r2, [r3, #8]
   1357c:	e51b3028 	ldr	r3, [fp, #-40]	; 0xffffffd8
   13580:	e5932020 	ldr	r2, [r3, #32]
   13584:	e51b3028 	ldr	r3, [fp, #-40]	; 0xffffffd8
   13588:	e5933018 	ldr	r3, [r3, #24]
   1358c:	e2830001 	add	r0, r3, #1
   13590:	e51b1028 	ldr	r1, [fp, #-40]	; 0xffffffd8
   13594:	e5810018 	str	r0, [r1, #24]
   13598:	e0823003 	add	r3, r2, r3
   1359c:	e5d33000 	ldrb	r3, [r3]
   135a0:	e51b101c 	ldr	r1, [fp, #-28]	; 0xffffffe4
   135a4:	e51b2010 	ldr	r2, [fp, #-16]
   135a8:	e0812002 	add	r2, r1, r2
   135ac:	e2822018 	add	r2, r2, #24
   135b0:	e5c23000 	strb	r3, [r2]
   135b4:	e51b3030 	ldr	r3, [fp, #-48]	; 0xffffffd0
   135b8:	e2433001 	sub	r3, r3, #1
   135bc:	e50b3030 	str	r3, [fp, #-48]	; 0xffffffd0
   135c0:	e51b3010 	ldr	r3, [fp, #-16]
   135c4:	e2833001 	add	r3, r3, #1
   135c8:	e50b3010 	str	r3, [fp, #-16]
   135cc:	e51b3030 	ldr	r3, [fp, #-48]	; 0xffffffd0
   135d0:	e3530004 	cmp	r3, #4
   135d4:	9a000042 	bls	136e4 <parse_plaintext+0x3dc>
   135d8:	e51b2010 	ldr	r2, [fp, #-16]
   135dc:	e51b3018 	ldr	r3, [fp, #-24]	; 0xffffffe8
   135e0:	e1520003 	cmp	r2, r3
   135e4:	baffffd0 	blt	1352c <parse_plaintext+0x224>
   135e8:	ea00003d 	b	136e4 <parse_plaintext+0x3dc>
   135ec:	e3a03000 	mov	r3, #0
   135f0:	e50b3010 	str	r3, [fp, #-16]
   135f4:	ea00002a 	b	136a4 <parse_plaintext+0x39c>
   135f8:	e51b3028 	ldr	r3, [fp, #-40]	; 0xffffffd8
   135fc:	e5933010 	ldr	r3, [r3, #16]
   13600:	e3530000 	cmp	r3, #0
   13604:	1a000005 	bne	13620 <parse_plaintext+0x318>
   13608:	e51b3028 	ldr	r3, [fp, #-40]	; 0xffffffd8
   1360c:	e5932018 	ldr	r2, [r3, #24]
   13610:	e51b3028 	ldr	r3, [fp, #-40]	; 0xffffffd8
   13614:	e593301c 	ldr	r3, [r3, #28]
   13618:	e1520003 	cmp	r2, r3
   1361c:	3a000003 	bcc	13630 <parse_plaintext+0x328>
   13620:	e51b0028 	ldr	r0, [fp, #-40]	; 0xffffffd8
   13624:	ebffdcbf 	bl	a928 <iobuf_readbyte>
   13628:	e1a03000 	mov	r3, r0
   1362c:	ea00000d 	b	13668 <parse_plaintext+0x360>
   13630:	e51b3028 	ldr	r3, [fp, #-40]	; 0xffffffd8
   13634:	e5933008 	ldr	r3, [r3, #8]
   13638:	e2832001 	add	r2, r3, #1
   1363c:	e51b3028 	ldr	r3, [fp, #-40]	; 0xffffffd8
   13640:	e5832008 	str	r2, [r3, #8]
   13644:	e51b3028 	ldr	r3, [fp, #-40]	; 0xffffffd8
   13648:	e5932020 	ldr	r2, [r3, #32]
   1364c:	e51b3028 	ldr	r3, [fp, #-40]	; 0xffffffd8
   13650:	e5933018 	ldr	r3, [r3, #24]
   13654:	e2830001 	add	r0, r3, #1
   13658:	e51b1028 	ldr	r1, [fp, #-40]	; 0xffffffd8
   1365c:	e5810018 	str	r0, [r1, #24]
   13660:	e0823003 	add	r3, r2, r3
   13664:	e5d33000 	ldrb	r3, [r3]
   13668:	e50b3020 	str	r3, [fp, #-32]	; 0xffffffe0
   1366c:	e51b3020 	ldr	r3, [fp, #-32]	; 0xffffffe0
   13670:	e3730001 	cmn	r3, #1
   13674:	0a00000f 	beq	136b8 <parse_plaintext+0x3b0>
   13678:	e51b3020 	ldr	r3, [fp, #-32]	; 0xffffffe0
   1367c:	e6ef1073 	uxtb	r1, r3
   13680:	e51b201c 	ldr	r2, [fp, #-28]	; 0xffffffe4
   13684:	e51b3010 	ldr	r3, [fp, #-16]
   13688:	e0823003 	add	r3, r2, r3
   1368c:	e2833018 	add	r3, r3, #24
   13690:	e1a02001 	mov	r2, r1
   13694:	e5c32000 	strb	r2, [r3]
   13698:	e51b3010 	ldr	r3, [fp, #-16]
   1369c:	e2833001 	add	r3, r3, #1
   136a0:	e50b3010 	str	r3, [fp, #-16]
   136a4:	e51b2010 	ldr	r2, [fp, #-16]
   136a8:	e51b3018 	ldr	r3, [fp, #-24]	; 0xffffffe8
   136ac:	e1520003 	cmp	r2, r3
   136b0:	baffffd0 	blt	135f8 <parse_plaintext+0x2f0>
   136b4:	ea00000a 	b	136e4 <parse_plaintext+0x3dc>
   136b8:	e320f000 	nop	{0}
   136bc:	ea000008 	b	136e4 <parse_plaintext+0x3dc>
   136c0:	e51b201c 	ldr	r2, [fp, #-28]	; 0xffffffe4
   136c4:	e51b3010 	ldr	r3, [fp, #-16]
   136c8:	e0823003 	add	r3, r2, r3
   136cc:	e2833018 	add	r3, r3, #24
   136d0:	e3a02000 	mov	r2, #0
   136d4:	e5c32000 	strb	r2, [r3]
   136d8:	e51b3010 	ldr	r3, [fp, #-16]
   136dc:	e2833001 	add	r3, r3, #1
   136e0:	e50b3010 	str	r3, [fp, #-16]
   136e4:	e51b2010 	ldr	r2, [fp, #-16]
   136e8:	e51b3018 	ldr	r3, [fp, #-24]	; 0xffffffe8
   136ec:	e1520003 	cmp	r2, r3
   136f0:	bafffff2 	blt	136c0 <parse_plaintext+0x3b8>
   136f4:	e51b0028 	ldr	r0, [fp, #-40]	; 0xffffffd8
   136f8:	ebfff7e3 	bl	1168c <read_32>
   136fc:	e1a02000 	mov	r2, r0
   13700:	e51b301c 	ldr	r3, [fp, #-28]	; 0xffffffe4
   13704:	e5832010 	str	r2, [r3, #16]
   13708:	e51b3030 	ldr	r3, [fp, #-48]	; 0xffffffd0
   1370c:	e3530000 	cmp	r3, #0
   13710:	0a000002 	beq	13720 <parse_plaintext+0x418>
   13714:	e51b3030 	ldr	r3, [fp, #-48]	; 0xffffffd0
   13718:	e2433004 	sub	r3, r3, #4
   1371c:	e50b3030 	str	r3, [fp, #-48]	; 0xffffffd0
   13720:	e51b301c 	ldr	r3, [fp, #-28]	; 0xffffffe4
   13724:	e51b2030 	ldr	r2, [fp, #-48]	; 0xffffffd0
   13728:	e5832000 	str	r2, [r3]
   1372c:	e51b301c 	ldr	r3, [fp, #-28]	; 0xffffffe4
   13730:	e51b2028 	ldr	r2, [fp, #-40]	; 0xffffffd8
   13734:	e5832004 	str	r2, [r3, #4]
   13738:	e59f3190 	ldr	r3, [pc, #400]	; 138d0 <parse_plaintext+0x5c8>
   1373c:	e08f3003 	add	r3, pc, r3
   13740:	e5933000 	ldr	r3, [r3]
   13744:	e3530000 	cmp	r3, #0
   13748:	0a000058 	beq	138b0 <parse_plaintext+0x5a8>
   1374c:	e59f3180 	ldr	r3, [pc, #384]	; 138d4 <parse_plaintext+0x5cc>
   13750:	e08f3003 	add	r3, pc, r3
   13754:	e5930000 	ldr	r0, [r3]
   13758:	e51b3014 	ldr	r3, [fp, #-20]	; 0xffffffec
   1375c:	e353001f 	cmp	r3, #31
   13760:	da000004 	ble	13778 <parse_plaintext+0x470>
   13764:	e51b3014 	ldr	r3, [fp, #-20]	; 0xffffffec
   13768:	e3530079 	cmp	r3, #121	; 0x79
   1376c:	ca000001 	bgt	13778 <parse_plaintext+0x470>
   13770:	e51b2014 	ldr	r2, [fp, #-20]	; 0xffffffec
   13774:	ea000000 	b	1377c <parse_plaintext+0x474>
   13778:	e3a0203f 	mov	r2, #63	; 0x3f
   1377c:	e51b301c 	ldr	r3, [fp, #-28]	; 0xffffffe4
   13780:	e5933010 	ldr	r3, [r3, #16]
   13784:	e58d3000 	str	r3, [sp]
   13788:	e51b3014 	ldr	r3, [fp, #-20]	; 0xffffffec
   1378c:	e59f1144 	ldr	r1, [pc, #324]	; 138d8 <parse_plaintext+0x5d0>
   13790:	e08f1001 	add	r1, pc, r1
   13794:	eb0004f6 	bl	14b74 <tfp_printf>
   13798:	e51b301c 	ldr	r3, [fp, #-28]	; 0xffffffe4
   1379c:	e2833018 	add	r3, r3, #24
   137a0:	e50b300c 	str	r3, [fp, #-12]
   137a4:	e3a03000 	mov	r3, #0
   137a8:	e50b3010 	str	r3, [fp, #-16]
   137ac:	ea00001c 	b	13824 <parse_plaintext+0x51c>
   137b0:	e51b300c 	ldr	r3, [fp, #-12]
   137b4:	e5d33000 	ldrb	r3, [r3]
   137b8:	e353001f 	cmp	r3, #31
   137bc:	9a000008 	bls	137e4 <parse_plaintext+0x4dc>
   137c0:	e51b300c 	ldr	r3, [fp, #-12]
   137c4:	e5d33000 	ldrb	r3, [r3]
   137c8:	e353007a 	cmp	r3, #122	; 0x7a
   137cc:	8a000004 	bhi	137e4 <parse_plaintext+0x4dc>
   137d0:	e59f3104 	ldr	r3, [pc, #260]	; 138dc <parse_plaintext+0x5d4>
   137d4:	e08f3003 	add	r3, pc, r3
   137d8:	e1a00003 	mov	r0, r3
   137dc:	eb0004e4 	bl	14b74 <tfp_printf>
   137e0:	ea000009 	b	1380c <parse_plaintext+0x504>
   137e4:	e59f30f4 	ldr	r3, [pc, #244]	; 138e0 <parse_plaintext+0x5d8>
   137e8:	e08f3003 	add	r3, pc, r3
   137ec:	e5930000 	ldr	r0, [r3]
   137f0:	e51b300c 	ldr	r3, [fp, #-12]
   137f4:	e5d33000 	ldrb	r3, [r3]
   137f8:	e1a02003 	mov	r2, r3
   137fc:	e59f30e0 	ldr	r3, [pc, #224]	; 138e4 <parse_plaintext+0x5dc>
   13800:	e08f3003 	add	r3, pc, r3
   13804:	e1a01003 	mov	r1, r3
   13808:	eb0004d9 	bl	14b74 <tfp_printf>
   1380c:	e51b300c 	ldr	r3, [fp, #-12]
   13810:	e2833001 	add	r3, r3, #1
   13814:	e50b300c 	str	r3, [fp, #-12]
   13818:	e51b3010 	ldr	r3, [fp, #-16]
   1381c:	e2833001 	add	r3, r3, #1
   13820:	e50b3010 	str	r3, [fp, #-16]
   13824:	e51b2010 	ldr	r2, [fp, #-16]
   13828:	e51b3018 	ldr	r3, [fp, #-24]	; 0xffffffe8
   1382c:	e1520003 	cmp	r2, r3
   13830:	baffffde 	blt	137b0 <parse_plaintext+0x4a8>
   13834:	e59f30ac 	ldr	r3, [pc, #172]	; 138e8 <parse_plaintext+0x5e0>
   13838:	e08f3003 	add	r3, pc, r3
   1383c:	e5933000 	ldr	r3, [r3]
   13840:	e59f20a4 	ldr	r2, [pc, #164]	; 138ec <parse_plaintext+0x5e4>
   13844:	e08f2002 	add	r2, pc, r2
   13848:	e1a01002 	mov	r1, r2
   1384c:	e1a00003 	mov	r0, r3
   13850:	eb0004c7 	bl	14b74 <tfp_printf>
   13854:	e59b3008 	ldr	r3, [fp, #8]
   13858:	e3530000 	cmp	r3, #0
   1385c:	0a000008 	beq	13884 <parse_plaintext+0x57c>
   13860:	e59f3088 	ldr	r3, [pc, #136]	; 138f0 <parse_plaintext+0x5e8>
   13864:	e08f3003 	add	r3, pc, r3
   13868:	e5933000 	ldr	r3, [r3]
   1386c:	e59f2080 	ldr	r2, [pc, #128]	; 138f4 <parse_plaintext+0x5ec>
   13870:	e08f2002 	add	r2, pc, r2
   13874:	e1a01002 	mov	r1, r2
   13878:	e1a00003 	mov	r0, r3
   1387c:	eb0004bc 	bl	14b74 <tfp_printf>
   13880:	ea00000b 	b	138b4 <parse_plaintext+0x5ac>
   13884:	e59f306c 	ldr	r3, [pc, #108]	; 138f8 <parse_plaintext+0x5f0>
   13888:	e08f3003 	add	r3, pc, r3
   1388c:	e5930000 	ldr	r0, [r3]
   13890:	e51b301c 	ldr	r3, [fp, #-28]	; 0xffffffe4
   13894:	e5933000 	ldr	r3, [r3]
   13898:	e1a02003 	mov	r2, r3
   1389c:	e59f3058 	ldr	r3, [pc, #88]	; 138fc <parse_plaintext+0x5f4>
   138a0:	e08f3003 	add	r3, pc, r3
   138a4:	e1a01003 	mov	r1, r3
   138a8:	eb0004b1 	bl	14b74 <tfp_printf>
   138ac:	ea000000 	b	138b4 <parse_plaintext+0x5ac>
   138b0:	e320f000 	nop	{0}
   138b4:	e51b3008 	ldr	r3, [fp, #-8]
   138b8:	e1a00003 	mov	r0, r3
   138bc:	e24bd004 	sub	sp, fp, #4
   138c0:	e8bd8800 	pop	{fp, pc}
   138c4:	000078e4 	.word	0x000078e4
   138c8:	00035ca8 	.word	0x00035ca8
   138cc:	000075fc 	.word	0x000075fc
   138d0:	000358cc 	.word	0x000358cc
   138d4:	000358bc 	.word	0x000358bc
   138d8:	000074c0 	.word	0x000074c0
   138dc:	0000719c 	.word	0x0000719c
   138e0:	00035824 	.word	0x00035824
   138e4:	0000748c 	.word	0x0000748c
   138e8:	000357d4 	.word	0x000357d4
   138ec:	00007450 	.word	0x00007450
   138f0:	000357a8 	.word	0x000357a8
   138f4:	00007434 	.word	0x00007434
   138f8:	00035784 	.word	0x00035784
   138fc:	00007414 	.word	0x00007414

00013900 <parse_encrypted>:
   13900:	e92d4800 	push	{fp, lr}
   13904:	e28db004 	add	fp, sp, #4
   13908:	e24dd020 	sub	sp, sp, #32
   1390c:	e50b0018 	str	r0, [fp, #-24]	; 0xffffffe8
   13910:	e50b101c 	str	r1, [fp, #-28]	; 0xffffffe4
   13914:	e50b2020 	str	r2, [fp, #-32]	; 0xffffffe0
   13918:	e50b3024 	str	r3, [fp, #-36]	; 0xffffffdc
   1391c:	e59f3358 	ldr	r3, [pc, #856]	; 13c7c <parse_encrypted+0x37c>
   13920:	e08f3003 	add	r3, pc, r3
   13924:	e1a00003 	mov	r0, r3
   13928:	eb000491 	bl	14b74 <tfp_printf>
   1392c:	e3a03000 	mov	r3, #0
   13930:	e50b3008 	str	r3, [fp, #-8]
   13934:	e51b3020 	ldr	r3, [fp, #-32]	; 0xffffffe0
   13938:	e50b300c 	str	r3, [fp, #-12]
   1393c:	e3a00014 	mov	r0, #20
   13940:	ebfff526 	bl	10de0 <xmalloc>
   13944:	e1a02000 	mov	r2, r0
   13948:	e51b3024 	ldr	r3, [fp, #-36]	; 0xffffffdc
   1394c:	e5832004 	str	r2, [r3, #4]
   13950:	e51b3024 	ldr	r3, [fp, #-36]	; 0xffffffdc
   13954:	e5933004 	ldr	r3, [r3, #4]
   13958:	e50b3010 	str	r3, [fp, #-16]
   1395c:	e51b3010 	ldr	r3, [fp, #-16]
   13960:	e3a02000 	mov	r2, #0
   13964:	e5832004 	str	r2, [r3, #4]
   13968:	e51b3010 	ldr	r3, [fp, #-16]
   1396c:	e3a02000 	mov	r2, #0
   13970:	e5832010 	str	r2, [r3, #16]
   13974:	e59b3004 	ldr	r3, [fp, #4]
   13978:	e6ef2073 	uxtb	r2, r3
   1397c:	e51b3010 	ldr	r3, [fp, #-16]
   13980:	e5c32008 	strb	r2, [r3, #8]
   13984:	e59b3008 	ldr	r3, [fp, #8]
   13988:	e6ef2073 	uxtb	r2, r3
   1398c:	e51b3010 	ldr	r3, [fp, #-16]
   13990:	e5c32009 	strb	r2, [r3, #9]
   13994:	e51b3010 	ldr	r3, [fp, #-16]
   13998:	e3a02000 	mov	r2, #0
   1399c:	e5c3200b 	strb	r2, [r3, #11]
   139a0:	e51b3010 	ldr	r3, [fp, #-16]
   139a4:	e3a02000 	mov	r2, #0
   139a8:	e5c3200c 	strb	r2, [r3, #12]
   139ac:	e51b3010 	ldr	r3, [fp, #-16]
   139b0:	e3a02000 	mov	r2, #0
   139b4:	e5c3200d 	strb	r2, [r3, #13]
   139b8:	e51b301c 	ldr	r3, [fp, #-28]	; 0xffffffe4
   139bc:	e3530012 	cmp	r3, #18
   139c0:	1a00003d 	bne	13abc <parse_encrypted+0x1bc>
   139c4:	e51b3018 	ldr	r3, [fp, #-24]	; 0xffffffe8
   139c8:	e5933010 	ldr	r3, [r3, #16]
   139cc:	e3530000 	cmp	r3, #0
   139d0:	1a000005 	bne	139ec <parse_encrypted+0xec>
   139d4:	e51b3018 	ldr	r3, [fp, #-24]	; 0xffffffe8
   139d8:	e5932018 	ldr	r2, [r3, #24]
   139dc:	e51b3018 	ldr	r3, [fp, #-24]	; 0xffffffe8
   139e0:	e593301c 	ldr	r3, [r3, #28]
   139e4:	e1520003 	cmp	r2, r3
   139e8:	3a000004 	bcc	13a00 <parse_encrypted+0x100>
   139ec:	e51b0018 	ldr	r0, [fp, #-24]	; 0xffffffe8
   139f0:	ebffdbcc 	bl	a928 <iobuf_readbyte>
   139f4:	e1a03000 	mov	r3, r0
   139f8:	e6ef3073 	uxtb	r3, r3
   139fc:	ea00000d 	b	13a38 <parse_encrypted+0x138>
   13a00:	e51b3018 	ldr	r3, [fp, #-24]	; 0xffffffe8
   13a04:	e5933008 	ldr	r3, [r3, #8]
   13a08:	e2832001 	add	r2, r3, #1
   13a0c:	e51b3018 	ldr	r3, [fp, #-24]	; 0xffffffe8
   13a10:	e5832008 	str	r2, [r3, #8]
   13a14:	e51b3018 	ldr	r3, [fp, #-24]	; 0xffffffe8
   13a18:	e5932020 	ldr	r2, [r3, #32]
   13a1c:	e51b3018 	ldr	r3, [fp, #-24]	; 0xffffffe8
   13a20:	e5933018 	ldr	r3, [r3, #24]
   13a24:	e2830001 	add	r0, r3, #1
   13a28:	e51b1018 	ldr	r1, [fp, #-24]	; 0xffffffe8
   13a2c:	e5810018 	str	r0, [r1, #24]
   13a30:	e0823003 	add	r3, r2, r3
   13a34:	e5d33000 	ldrb	r3, [r3]
   13a38:	e50b3014 	str	r3, [fp, #-20]	; 0xffffffec
   13a3c:	e51b300c 	ldr	r3, [fp, #-12]
   13a40:	e3530000 	cmp	r3, #0
   13a44:	0a000002 	beq	13a54 <parse_encrypted+0x154>
   13a48:	e51b3020 	ldr	r3, [fp, #-32]	; 0xffffffe0
   13a4c:	e2433001 	sub	r3, r3, #1
   13a50:	e50b3020 	str	r3, [fp, #-32]	; 0xffffffe0
   13a54:	e51b3014 	ldr	r3, [fp, #-20]	; 0xffffffec
   13a58:	e3530001 	cmp	r3, #1
   13a5c:	0a000012 	beq	13aac <parse_encrypted+0x1ac>
   13a60:	e51b1014 	ldr	r1, [fp, #-20]	; 0xffffffec
   13a64:	e59f3214 	ldr	r3, [pc, #532]	; 13c80 <parse_encrypted+0x380>
   13a68:	e08f3003 	add	r3, pc, r3
   13a6c:	e1a00003 	mov	r0, r3
   13a70:	eb00043f 	bl	14b74 <tfp_printf>
   13a74:	e59f3208 	ldr	r3, [pc, #520]	; 13c84 <parse_encrypted+0x384>
   13a78:	e08f3003 	add	r3, pc, r3
   13a7c:	e5933000 	ldr	r3, [r3]
   13a80:	e3530000 	cmp	r3, #0
   13a84:	0a000003 	beq	13a98 <parse_encrypted+0x198>
   13a88:	e59f31f8 	ldr	r3, [pc, #504]	; 13c88 <parse_encrypted+0x388>
   13a8c:	e08f3003 	add	r3, pc, r3
   13a90:	e1a00003 	mov	r0, r3
   13a94:	eb000436 	bl	14b74 <tfp_printf>
   13a98:	e3a0000e 	mov	r0, #14
   13a9c:	ebfff6ca 	bl	115cc <gpg_error>
   13aa0:	e1a03000 	mov	r3, r0
   13aa4:	e50b3008 	str	r3, [fp, #-8]
   13aa8:	ea00006f 	b	13c6c <parse_encrypted+0x36c>
   13aac:	e51b3010 	ldr	r3, [fp, #-16]
   13ab0:	e3a02002 	mov	r2, #2
   13ab4:	e5c3200a 	strb	r2, [r3, #10]
   13ab8:	ea000002 	b	13ac8 <parse_encrypted+0x1c8>
   13abc:	e51b3010 	ldr	r3, [fp, #-16]
   13ac0:	e3a02000 	mov	r2, #0
   13ac4:	e5c3200a 	strb	r2, [r3, #10]
   13ac8:	e51b300c 	ldr	r3, [fp, #-12]
   13acc:	e3530000 	cmp	r3, #0
   13ad0:	0a000017 	beq	13b34 <parse_encrypted+0x234>
   13ad4:	e51b3020 	ldr	r3, [fp, #-32]	; 0xffffffe0
   13ad8:	e3530009 	cmp	r3, #9
   13adc:	8a000014 	bhi	13b34 <parse_encrypted+0x234>
   13ae0:	e51b101c 	ldr	r1, [fp, #-28]	; 0xffffffe4
   13ae4:	e59f31a0 	ldr	r3, [pc, #416]	; 13c8c <parse_encrypted+0x38c>
   13ae8:	e08f3003 	add	r3, pc, r3
   13aec:	e1a00003 	mov	r0, r3
   13af0:	eb00041f 	bl	14b74 <tfp_printf>
   13af4:	e59f3194 	ldr	r3, [pc, #404]	; 13c90 <parse_encrypted+0x390>
   13af8:	e08f3003 	add	r3, pc, r3
   13afc:	e5933000 	ldr	r3, [r3]
   13b00:	e3530000 	cmp	r3, #0
   13b04:	0a000003 	beq	13b18 <parse_encrypted+0x218>
   13b08:	e59f3184 	ldr	r3, [pc, #388]	; 13c94 <parse_encrypted+0x394>
   13b0c:	e08f3003 	add	r3, pc, r3
   13b10:	e1a00003 	mov	r0, r3
   13b14:	eb000416 	bl	14b74 <tfp_printf>
   13b18:	e3a0300e 	mov	r3, #14
   13b1c:	e50b3008 	str	r3, [fp, #-8]
   13b20:	e59b2008 	ldr	r2, [fp, #8]
   13b24:	e51b1020 	ldr	r1, [fp, #-32]	; 0xffffffe0
   13b28:	e51b0018 	ldr	r0, [fp, #-24]	; 0xffffffe8
   13b2c:	ebffdd62 	bl	b0bc <iobuf_skip_rest>
   13b30:	ea00004d 	b	13c6c <parse_encrypted+0x36c>
   13b34:	e51b3010 	ldr	r3, [fp, #-16]
   13b38:	e51b2020 	ldr	r2, [fp, #-32]	; 0xffffffe0
   13b3c:	e5832000 	str	r2, [r3]
   13b40:	e51b3010 	ldr	r3, [fp, #-16]
   13b44:	e5933000 	ldr	r3, [r3]
   13b48:	e1a01003 	mov	r1, r3
   13b4c:	e59f3144 	ldr	r3, [pc, #324]	; 13c98 <parse_encrypted+0x398>
   13b50:	e08f3003 	add	r3, pc, r3
   13b54:	e1a00003 	mov	r0, r3
   13b58:	eb000405 	bl	14b74 <tfp_printf>
   13b5c:	e51b3010 	ldr	r3, [fp, #-16]
   13b60:	e5933000 	ldr	r3, [r3]
   13b64:	e3530000 	cmp	r3, #0
   13b68:	0a000006 	beq	13b88 <parse_encrypted+0x288>
   13b6c:	e51b3010 	ldr	r3, [fp, #-16]
   13b70:	e5933000 	ldr	r3, [r3]
   13b74:	e1a01003 	mov	r1, r3
   13b78:	e59f311c 	ldr	r3, [pc, #284]	; 13c9c <parse_encrypted+0x39c>
   13b7c:	e08f3003 	add	r3, pc, r3
   13b80:	e1a00003 	mov	r0, r3
   13b84:	eb0003fa 	bl	14b74 <tfp_printf>
   13b88:	e59f3110 	ldr	r3, [pc, #272]	; 13ca0 <parse_encrypted+0x3a0>
   13b8c:	e08f3003 	add	r3, pc, r3
   13b90:	e5933000 	ldr	r3, [r3]
   13b94:	e3530000 	cmp	r3, #0
   13b98:	0a000021 	beq	13c24 <parse_encrypted+0x324>
   13b9c:	e51b300c 	ldr	r3, [fp, #-12]
   13ba0:	e3530000 	cmp	r3, #0
   13ba4:	0a000008 	beq	13bcc <parse_encrypted+0x2cc>
   13ba8:	e59f30f4 	ldr	r3, [pc, #244]	; 13ca4 <parse_encrypted+0x3a4>
   13bac:	e08f3003 	add	r3, pc, r3
   13bb0:	e5933000 	ldr	r3, [r3]
   13bb4:	e51b200c 	ldr	r2, [fp, #-12]
   13bb8:	e59f10e8 	ldr	r1, [pc, #232]	; 13ca8 <parse_encrypted+0x3a8>
   13bbc:	e08f1001 	add	r1, pc, r1
   13bc0:	e1a00003 	mov	r0, r3
   13bc4:	eb0003ea 	bl	14b74 <tfp_printf>
   13bc8:	ea000007 	b	13bec <parse_encrypted+0x2ec>
   13bcc:	e59f30d8 	ldr	r3, [pc, #216]	; 13cac <parse_encrypted+0x3ac>
   13bd0:	e08f3003 	add	r3, pc, r3
   13bd4:	e5933000 	ldr	r3, [r3]
   13bd8:	e59f20d0 	ldr	r2, [pc, #208]	; 13cb0 <parse_encrypted+0x3b0>
   13bdc:	e08f2002 	add	r2, pc, r2
   13be0:	e1a01002 	mov	r1, r2
   13be4:	e1a00003 	mov	r0, r3
   13be8:	eb0003e1 	bl	14b74 <tfp_printf>
   13bec:	e51b3010 	ldr	r3, [fp, #-16]
   13bf0:	e5d3300a 	ldrb	r3, [r3, #10]
   13bf4:	e3530000 	cmp	r3, #0
   13bf8:	0a000009 	beq	13c24 <parse_encrypted+0x324>
   13bfc:	e59f30b0 	ldr	r3, [pc, #176]	; 13cb4 <parse_encrypted+0x3b4>
   13c00:	e08f3003 	add	r3, pc, r3
   13c04:	e5930000 	ldr	r0, [r3]
   13c08:	e51b3010 	ldr	r3, [fp, #-16]
   13c0c:	e5d3300a 	ldrb	r3, [r3, #10]
   13c10:	e1a02003 	mov	r2, r3
   13c14:	e59f309c 	ldr	r3, [pc, #156]	; 13cb8 <parse_encrypted+0x3b8>
   13c18:	e08f3003 	add	r3, pc, r3
   13c1c:	e1a01003 	mov	r1, r3
   13c20:	eb0003d3 	bl	14b74 <tfp_printf>
   13c24:	e51b1010 	ldr	r1, [fp, #-16]
   13c28:	e59f308c 	ldr	r3, [pc, #140]	; 13cbc <parse_encrypted+0x3bc>
   13c2c:	e08f3003 	add	r3, pc, r3
   13c30:	e1a00003 	mov	r0, r3
   13c34:	eb0003ce 	bl	14b74 <tfp_printf>
   13c38:	e51b1018 	ldr	r1, [fp, #-24]	; 0xffffffe8
   13c3c:	e59f307c 	ldr	r3, [pc, #124]	; 13cc0 <parse_encrypted+0x3c0>
   13c40:	e08f3003 	add	r3, pc, r3
   13c44:	e1a00003 	mov	r0, r3
   13c48:	eb0003c9 	bl	14b74 <tfp_printf>
   13c4c:	e51b3010 	ldr	r3, [fp, #-16]
   13c50:	e51b2018 	ldr	r2, [fp, #-24]	; 0xffffffe8
   13c54:	e5832010 	str	r2, [r3, #16]
   13c58:	e51b1008 	ldr	r1, [fp, #-8]
   13c5c:	e59f3060 	ldr	r3, [pc, #96]	; 13cc4 <parse_encrypted+0x3c4>
   13c60:	e08f3003 	add	r3, pc, r3
   13c64:	e1a00003 	mov	r0, r3
   13c68:	eb0003c1 	bl	14b74 <tfp_printf>
   13c6c:	e51b3008 	ldr	r3, [fp, #-8]
   13c70:	e1a00003 	mov	r0, r3
   13c74:	e24bd004 	sub	sp, fp, #4
   13c78:	e8bd8800 	pop	{fp, pc}
   13c7c:	000073c0 	.word	0x000073c0
   13c80:	0000728c 	.word	0x0000728c
   13c84:	00035590 	.word	0x00035590
   13c88:	00006ee4 	.word	0x00006ee4
   13c8c:	00007088 	.word	0x00007088
   13c90:	00035510 	.word	0x00035510
   13c94:	00006e64 	.word	0x00006e64
   13c98:	000071d4 	.word	0x000071d4
   13c9c:	000071a8 	.word	0x000071a8
   13ca0:	0003547c 	.word	0x0003547c
   13ca4:	00035460 	.word	0x00035460
   13ca8:	00007184 	.word	0x00007184
   13cac:	0003543c 	.word	0x0003543c
   13cb0:	0000718c 	.word	0x0000718c
   13cb4:	0003540c 	.word	0x0003540c
   13cb8:	0000717c 	.word	0x0000717c
   13cbc:	0000717c 	.word	0x0000717c
   13cc0:	0000718c 	.word	0x0000718c
   13cc4:	00007190 	.word	0x00007190

00013cc8 <parse_mdc>:
   13cc8:	e92d4800 	push	{fp, lr}
   13ccc:	e28db004 	add	fp, sp, #4
   13cd0:	e24dd020 	sub	sp, sp, #32
   13cd4:	e50b0018 	str	r0, [fp, #-24]	; 0xffffffe8
   13cd8:	e50b101c 	str	r1, [fp, #-28]	; 0xffffffe4
   13cdc:	e50b2020 	str	r2, [fp, #-32]	; 0xffffffe0
   13ce0:	e50b3024 	str	r3, [fp, #-36]	; 0xffffffdc
   13ce4:	e3a03000 	mov	r3, #0
   13ce8:	e50b3008 	str	r3, [fp, #-8]
   13cec:	e3a00014 	mov	r0, #20
   13cf0:	ebfff43a 	bl	10de0 <xmalloc>
   13cf4:	e1a02000 	mov	r2, r0
   13cf8:	e51b3024 	ldr	r3, [fp, #-36]	; 0xffffffdc
   13cfc:	e5832004 	str	r2, [r3, #4]
   13d00:	e51b3024 	ldr	r3, [fp, #-36]	; 0xffffffdc
   13d04:	e5933004 	ldr	r3, [r3, #4]
   13d08:	e50b3010 	str	r3, [fp, #-16]
   13d0c:	e59f3128 	ldr	r3, [pc, #296]	; 13e3c <parse_mdc+0x174>
   13d10:	e08f3003 	add	r3, pc, r3
   13d14:	e5933000 	ldr	r3, [r3]
   13d18:	e3530000 	cmp	r3, #0
   13d1c:	0a000007 	beq	13d40 <parse_mdc+0x78>
   13d20:	e59f3118 	ldr	r3, [pc, #280]	; 13e40 <parse_mdc+0x178>
   13d24:	e08f3003 	add	r3, pc, r3
   13d28:	e5933000 	ldr	r3, [r3]
   13d2c:	e51b2020 	ldr	r2, [fp, #-32]	; 0xffffffe0
   13d30:	e59f110c 	ldr	r1, [pc, #268]	; 13e44 <parse_mdc+0x17c>
   13d34:	e08f1001 	add	r1, pc, r1
   13d38:	e1a00003 	mov	r0, r3
   13d3c:	eb00038c 	bl	14b74 <tfp_printf>
   13d40:	e59b3004 	ldr	r3, [fp, #4]
   13d44:	e3530000 	cmp	r3, #0
   13d48:	0a000002 	beq	13d58 <parse_mdc+0x90>
   13d4c:	e51b3020 	ldr	r3, [fp, #-32]	; 0xffffffe0
   13d50:	e3530014 	cmp	r3, #20
   13d54:	0a000008 	beq	13d7c <parse_mdc+0xb4>
   13d58:	e59f30e8 	ldr	r3, [pc, #232]	; 13e48 <parse_mdc+0x180>
   13d5c:	e08f3003 	add	r3, pc, r3
   13d60:	e1a00003 	mov	r0, r3
   13d64:	eb000382 	bl	14b74 <tfp_printf>
   13d68:	e3a0000e 	mov	r0, #14
   13d6c:	ebfff616 	bl	115cc <gpg_error>
   13d70:	e1a03000 	mov	r3, r0
   13d74:	e50b3008 	str	r3, [fp, #-8]
   13d78:	ea00002b 	b	13e2c <parse_mdc+0x164>
   13d7c:	e51b3010 	ldr	r3, [fp, #-16]
   13d80:	e50b300c 	str	r3, [fp, #-12]
   13d84:	ea000024 	b	13e1c <parse_mdc+0x154>
   13d88:	e51b3018 	ldr	r3, [fp, #-24]	; 0xffffffe8
   13d8c:	e5933010 	ldr	r3, [r3, #16]
   13d90:	e3530000 	cmp	r3, #0
   13d94:	1a000005 	bne	13db0 <parse_mdc+0xe8>
   13d98:	e51b3018 	ldr	r3, [fp, #-24]	; 0xffffffe8
   13d9c:	e5932018 	ldr	r2, [r3, #24]
   13da0:	e51b3018 	ldr	r3, [fp, #-24]	; 0xffffffe8
   13da4:	e593301c 	ldr	r3, [r3, #28]
   13da8:	e1520003 	cmp	r2, r3
   13dac:	3a000004 	bcc	13dc4 <parse_mdc+0xfc>
   13db0:	e51b0018 	ldr	r0, [fp, #-24]	; 0xffffffe8
   13db4:	ebffdadb 	bl	a928 <iobuf_readbyte>
   13db8:	e1a03000 	mov	r3, r0
   13dbc:	e6ef3073 	uxtb	r3, r3
   13dc0:	ea00000d 	b	13dfc <parse_mdc+0x134>
   13dc4:	e51b3018 	ldr	r3, [fp, #-24]	; 0xffffffe8
   13dc8:	e5933008 	ldr	r3, [r3, #8]
   13dcc:	e2832001 	add	r2, r3, #1
   13dd0:	e51b3018 	ldr	r3, [fp, #-24]	; 0xffffffe8
   13dd4:	e5832008 	str	r2, [r3, #8]
   13dd8:	e51b3018 	ldr	r3, [fp, #-24]	; 0xffffffe8
   13ddc:	e5932020 	ldr	r2, [r3, #32]
   13de0:	e51b3018 	ldr	r3, [fp, #-24]	; 0xffffffe8
   13de4:	e5933018 	ldr	r3, [r3, #24]
   13de8:	e2830001 	add	r0, r3, #1
   13dec:	e51b1018 	ldr	r1, [fp, #-24]	; 0xffffffe8
   13df0:	e5810018 	str	r0, [r1, #24]
   13df4:	e0823003 	add	r3, r2, r3
   13df8:	e5d33000 	ldrb	r3, [r3]
   13dfc:	e51b200c 	ldr	r2, [fp, #-12]
   13e00:	e5c23000 	strb	r3, [r2]
   13e04:	e51b3020 	ldr	r3, [fp, #-32]	; 0xffffffe0
   13e08:	e2433001 	sub	r3, r3, #1
   13e0c:	e50b3020 	str	r3, [fp, #-32]	; 0xffffffe0
   13e10:	e51b300c 	ldr	r3, [fp, #-12]
   13e14:	e2833001 	add	r3, r3, #1
   13e18:	e50b300c 	str	r3, [fp, #-12]
   13e1c:	e51b3020 	ldr	r3, [fp, #-32]	; 0xffffffe0
   13e20:	e3530000 	cmp	r3, #0
   13e24:	1affffd7 	bne	13d88 <parse_mdc+0xc0>
   13e28:	e320f000 	nop	{0}
   13e2c:	e51b3008 	ldr	r3, [fp, #-8]
   13e30:	e1a00003 	mov	r0, r3
   13e34:	e24bd004 	sub	sp, fp, #4
   13e38:	e8bd8800 	pop	{fp, pc}
   13e3c:	000352f8 	.word	0x000352f8
   13e40:	000352e8 	.word	0x000352e8
   13e44:	000070e4 	.word	0x000070e4
   13e48:	000070d8 	.word	0x000070d8

00013e4c <size2a>:
   13e4c:	e52db004 	push	{fp}		; (str fp, [sp, #-4]!)
   13e50:	e28db000 	add	fp, sp, #0
   13e54:	e24dd01c 	sub	sp, sp, #28
   13e58:	e50b0018 	str	r0, [fp, #-24]	; 0xffffffe8
   13e5c:	e50b101c 	str	r1, [fp, #-28]	; 0xffffffe4
   13e60:	e3a03000 	mov	r3, #0
   13e64:	e50b3008 	str	r3, [fp, #-8]
   13e68:	e3a03001 	mov	r3, #1
   13e6c:	e50b300c 	str	r3, [fp, #-12]
   13e70:	ea000003 	b	13e84 <size2a+0x38>
   13e74:	e51b300c 	ldr	r3, [fp, #-12]
   13e78:	e3a0200a 	mov	r2, #10
   13e7c:	e0030392 	mul	r3, r2, r3
   13e80:	e50b300c 	str	r3, [fp, #-12]
   13e84:	e51b2018 	ldr	r2, [fp, #-24]	; 0xffffffe8
   13e88:	e51b300c 	ldr	r3, [fp, #-12]
   13e8c:	e733f312 	udiv	r3, r2, r3
   13e90:	e3530009 	cmp	r3, #9
   13e94:	8afffff6 	bhi	13e74 <size2a+0x28>
   13e98:	ea000024 	b	13f30 <size2a+0xe4>
   13e9c:	e51b2018 	ldr	r2, [fp, #-24]	; 0xffffffe8
   13ea0:	e51b300c 	ldr	r3, [fp, #-12]
   13ea4:	e733f312 	udiv	r3, r2, r3
   13ea8:	e50b3010 	str	r3, [fp, #-16]
   13eac:	e51b3018 	ldr	r3, [fp, #-24]	; 0xffffffe8
   13eb0:	e51b200c 	ldr	r2, [fp, #-12]
   13eb4:	e732f213 	udiv	r2, r3, r2
   13eb8:	e51b100c 	ldr	r1, [fp, #-12]
   13ebc:	e0020291 	mul	r2, r1, r2
   13ec0:	e0433002 	sub	r3, r3, r2
   13ec4:	e50b3018 	str	r3, [fp, #-24]	; 0xffffffe8
   13ec8:	e51b200c 	ldr	r2, [fp, #-12]
   13ecc:	e30c3ccd 	movw	r3, #52429	; 0xcccd
   13ed0:	e34c3ccc 	movt	r3, #52428	; 0xcccc
   13ed4:	e0832293 	umull	r2, r3, r3, r2
   13ed8:	e1a031a3 	lsr	r3, r3, #3
   13edc:	e50b300c 	str	r3, [fp, #-12]
   13ee0:	e51b3008 	ldr	r3, [fp, #-8]
   13ee4:	e3530000 	cmp	r3, #0
   13ee8:	1a000005 	bne	13f04 <size2a+0xb8>
   13eec:	e51b3010 	ldr	r3, [fp, #-16]
   13ef0:	e3530000 	cmp	r3, #0
   13ef4:	ca000002 	bgt	13f04 <size2a+0xb8>
   13ef8:	e51b300c 	ldr	r3, [fp, #-12]
   13efc:	e3530000 	cmp	r3, #0
   13f00:	1a00000a 	bne	13f30 <size2a+0xe4>
   13f04:	e51b3010 	ldr	r3, [fp, #-16]
   13f08:	e6ef2073 	uxtb	r2, r3
   13f0c:	e51b301c 	ldr	r3, [fp, #-28]	; 0xffffffe4
   13f10:	e2831001 	add	r1, r3, #1
   13f14:	e50b101c 	str	r1, [fp, #-28]	; 0xffffffe4
   13f18:	e2822030 	add	r2, r2, #48	; 0x30
   13f1c:	e6ef2072 	uxtb	r2, r2
   13f20:	e5c32000 	strb	r2, [r3]
   13f24:	e51b3008 	ldr	r3, [fp, #-8]
   13f28:	e2833001 	add	r3, r3, #1
   13f2c:	e50b3008 	str	r3, [fp, #-8]
   13f30:	e51b300c 	ldr	r3, [fp, #-12]
   13f34:	e3530000 	cmp	r3, #0
   13f38:	1affffd7 	bne	13e9c <size2a+0x50>
   13f3c:	e51b301c 	ldr	r3, [fp, #-28]	; 0xffffffe4
   13f40:	e3a02000 	mov	r2, #0
   13f44:	e5c32000 	strb	r2, [r3]
   13f48:	e320f000 	nop	{0}
   13f4c:	e28bd000 	add	sp, fp, #0
   13f50:	e49db004 	pop	{fp}		; (ldr fp, [sp], #4)
   13f54:	e12fff1e 	bx	lr

00013f58 <uli2a>:
   13f58:	e52db004 	push	{fp}		; (str fp, [sp, #-4]!)
   13f5c:	e28db000 	add	fp, sp, #0
   13f60:	e24dd024 	sub	sp, sp, #36	; 0x24
   13f64:	e50b0018 	str	r0, [fp, #-24]	; 0xffffffe8
   13f68:	e50b101c 	str	r1, [fp, #-28]	; 0xffffffe4
   13f6c:	e50b2020 	str	r2, [fp, #-32]	; 0xffffffe0
   13f70:	e50b3024 	str	r3, [fp, #-36]	; 0xffffffdc
   13f74:	e3a03000 	mov	r3, #0
   13f78:	e50b3008 	str	r3, [fp, #-8]
   13f7c:	e3a03001 	mov	r3, #1
   13f80:	e50b300c 	str	r3, [fp, #-12]
   13f84:	ea000003 	b	13f98 <uli2a+0x40>
   13f88:	e51b300c 	ldr	r3, [fp, #-12]
   13f8c:	e51b201c 	ldr	r2, [fp, #-28]	; 0xffffffe4
   13f90:	e0030392 	mul	r3, r2, r3
   13f94:	e50b300c 	str	r3, [fp, #-12]
   13f98:	e51b2018 	ldr	r2, [fp, #-24]	; 0xffffffe8
   13f9c:	e51b300c 	ldr	r3, [fp, #-12]
   13fa0:	e733f312 	udiv	r3, r2, r3
   13fa4:	e51b201c 	ldr	r2, [fp, #-28]	; 0xffffffe4
   13fa8:	e1520003 	cmp	r2, r3
   13fac:	9afffff5 	bls	13f88 <uli2a+0x30>
   13fb0:	ea00002d 	b	1406c <uli2a+0x114>
   13fb4:	e51b2018 	ldr	r2, [fp, #-24]	; 0xffffffe8
   13fb8:	e51b300c 	ldr	r3, [fp, #-12]
   13fbc:	e733f312 	udiv	r3, r2, r3
   13fc0:	e50b3010 	str	r3, [fp, #-16]
   13fc4:	e51b3018 	ldr	r3, [fp, #-24]	; 0xffffffe8
   13fc8:	e51b200c 	ldr	r2, [fp, #-12]
   13fcc:	e732f213 	udiv	r2, r3, r2
   13fd0:	e51b100c 	ldr	r1, [fp, #-12]
   13fd4:	e0020291 	mul	r2, r1, r2
   13fd8:	e0433002 	sub	r3, r3, r2
   13fdc:	e50b3018 	str	r3, [fp, #-24]	; 0xffffffe8
   13fe0:	e51b200c 	ldr	r2, [fp, #-12]
   13fe4:	e51b301c 	ldr	r3, [fp, #-28]	; 0xffffffe4
   13fe8:	e733f312 	udiv	r3, r2, r3
   13fec:	e50b300c 	str	r3, [fp, #-12]
   13ff0:	e51b3008 	ldr	r3, [fp, #-8]
   13ff4:	e3530000 	cmp	r3, #0
   13ff8:	1a000005 	bne	14014 <uli2a+0xbc>
   13ffc:	e51b3010 	ldr	r3, [fp, #-16]
   14000:	e3530000 	cmp	r3, #0
   14004:	ca000002 	bgt	14014 <uli2a+0xbc>
   14008:	e51b300c 	ldr	r3, [fp, #-12]
   1400c:	e3530000 	cmp	r3, #0
   14010:	1a000015 	bne	1406c <uli2a+0x114>
   14014:	e51b3010 	ldr	r3, [fp, #-16]
   14018:	e3530009 	cmp	r3, #9
   1401c:	da000006 	ble	1403c <uli2a+0xe4>
   14020:	e51b3020 	ldr	r3, [fp, #-32]	; 0xffffffe0
   14024:	e3530000 	cmp	r3, #0
   14028:	0a000001 	beq	14034 <uli2a+0xdc>
   1402c:	e3a03037 	mov	r3, #55	; 0x37
   14030:	ea000002 	b	14040 <uli2a+0xe8>
   14034:	e3a03057 	mov	r3, #87	; 0x57
   14038:	ea000000 	b	14040 <uli2a+0xe8>
   1403c:	e3a03030 	mov	r3, #48	; 0x30
   14040:	e51b2010 	ldr	r2, [fp, #-16]
   14044:	e6ef1072 	uxtb	r1, r2
   14048:	e51b2024 	ldr	r2, [fp, #-36]	; 0xffffffdc
   1404c:	e2820001 	add	r0, r2, #1
   14050:	e50b0024 	str	r0, [fp, #-36]	; 0xffffffdc
   14054:	e0833001 	add	r3, r3, r1
   14058:	e6ef3073 	uxtb	r3, r3
   1405c:	e5c23000 	strb	r3, [r2]
   14060:	e51b3008 	ldr	r3, [fp, #-8]
   14064:	e2833001 	add	r3, r3, #1
   14068:	e50b3008 	str	r3, [fp, #-8]
   1406c:	e51b300c 	ldr	r3, [fp, #-12]
   14070:	e3530000 	cmp	r3, #0
   14074:	1affffce 	bne	13fb4 <uli2a+0x5c>
   14078:	e51b3024 	ldr	r3, [fp, #-36]	; 0xffffffdc
   1407c:	e3a02000 	mov	r2, #0
   14080:	e5c32000 	strb	r2, [r3]
   14084:	e320f000 	nop	{0}
   14088:	e28bd000 	add	sp, fp, #0
   1408c:	e49db004 	pop	{fp}		; (ldr fp, [sp], #4)
   14090:	e12fff1e 	bx	lr

00014094 <li2a>:
   14094:	e92d4800 	push	{fp, lr}
   14098:	e28db004 	add	fp, sp, #4
   1409c:	e24dd008 	sub	sp, sp, #8
   140a0:	e50b0008 	str	r0, [fp, #-8]
   140a4:	e50b100c 	str	r1, [fp, #-12]
   140a8:	e51b3008 	ldr	r3, [fp, #-8]
   140ac:	e3530000 	cmp	r3, #0
   140b0:	aa000007 	bge	140d4 <li2a+0x40>
   140b4:	e51b3008 	ldr	r3, [fp, #-8]
   140b8:	e2633000 	rsb	r3, r3, #0
   140bc:	e50b3008 	str	r3, [fp, #-8]
   140c0:	e51b300c 	ldr	r3, [fp, #-12]
   140c4:	e2832001 	add	r2, r3, #1
   140c8:	e50b200c 	str	r2, [fp, #-12]
   140cc:	e3a0202d 	mov	r2, #45	; 0x2d
   140d0:	e5c32000 	strb	r2, [r3]
   140d4:	e51b0008 	ldr	r0, [fp, #-8]
   140d8:	e51b300c 	ldr	r3, [fp, #-12]
   140dc:	e3a02000 	mov	r2, #0
   140e0:	e3a0100a 	mov	r1, #10
   140e4:	ebffff9b 	bl	13f58 <uli2a>
   140e8:	e320f000 	nop	{0}
   140ec:	e24bd004 	sub	sp, fp, #4
   140f0:	e8bd8800 	pop	{fp, pc}

000140f4 <ui2a>:
   140f4:	e52db004 	push	{fp}		; (str fp, [sp, #-4]!)
   140f8:	e28db000 	add	fp, sp, #0
   140fc:	e24dd024 	sub	sp, sp, #36	; 0x24
   14100:	e50b0018 	str	r0, [fp, #-24]	; 0xffffffe8
   14104:	e50b101c 	str	r1, [fp, #-28]	; 0xffffffe4
   14108:	e50b2020 	str	r2, [fp, #-32]	; 0xffffffe0
   1410c:	e50b3024 	str	r3, [fp, #-36]	; 0xffffffdc
   14110:	e3a03000 	mov	r3, #0
   14114:	e50b3008 	str	r3, [fp, #-8]
   14118:	e3a03001 	mov	r3, #1
   1411c:	e50b300c 	str	r3, [fp, #-12]
   14120:	ea000003 	b	14134 <ui2a+0x40>
   14124:	e51b300c 	ldr	r3, [fp, #-12]
   14128:	e51b201c 	ldr	r2, [fp, #-28]	; 0xffffffe4
   1412c:	e0030392 	mul	r3, r2, r3
   14130:	e50b300c 	str	r3, [fp, #-12]
   14134:	e51b2018 	ldr	r2, [fp, #-24]	; 0xffffffe8
   14138:	e51b300c 	ldr	r3, [fp, #-12]
   1413c:	e733f312 	udiv	r3, r2, r3
   14140:	e51b201c 	ldr	r2, [fp, #-28]	; 0xffffffe4
   14144:	e1520003 	cmp	r2, r3
   14148:	9afffff5 	bls	14124 <ui2a+0x30>
   1414c:	ea00002d 	b	14208 <ui2a+0x114>
   14150:	e51b2018 	ldr	r2, [fp, #-24]	; 0xffffffe8
   14154:	e51b300c 	ldr	r3, [fp, #-12]
   14158:	e733f312 	udiv	r3, r2, r3
   1415c:	e50b3010 	str	r3, [fp, #-16]
   14160:	e51b3018 	ldr	r3, [fp, #-24]	; 0xffffffe8
   14164:	e51b200c 	ldr	r2, [fp, #-12]
   14168:	e732f213 	udiv	r2, r3, r2
   1416c:	e51b100c 	ldr	r1, [fp, #-12]
   14170:	e0020291 	mul	r2, r1, r2
   14174:	e0433002 	sub	r3, r3, r2
   14178:	e50b3018 	str	r3, [fp, #-24]	; 0xffffffe8
   1417c:	e51b200c 	ldr	r2, [fp, #-12]
   14180:	e51b301c 	ldr	r3, [fp, #-28]	; 0xffffffe4
   14184:	e733f312 	udiv	r3, r2, r3
   14188:	e50b300c 	str	r3, [fp, #-12]
   1418c:	e51b3008 	ldr	r3, [fp, #-8]
   14190:	e3530000 	cmp	r3, #0
   14194:	1a000005 	bne	141b0 <ui2a+0xbc>
   14198:	e51b3010 	ldr	r3, [fp, #-16]
   1419c:	e3530000 	cmp	r3, #0
   141a0:	ca000002 	bgt	141b0 <ui2a+0xbc>
   141a4:	e51b300c 	ldr	r3, [fp, #-12]
   141a8:	e3530000 	cmp	r3, #0
   141ac:	1a000015 	bne	14208 <ui2a+0x114>
   141b0:	e51b3010 	ldr	r3, [fp, #-16]
   141b4:	e3530009 	cmp	r3, #9
   141b8:	da000006 	ble	141d8 <ui2a+0xe4>
   141bc:	e51b3020 	ldr	r3, [fp, #-32]	; 0xffffffe0
   141c0:	e3530000 	cmp	r3, #0
   141c4:	0a000001 	beq	141d0 <ui2a+0xdc>
   141c8:	e3a03037 	mov	r3, #55	; 0x37
   141cc:	ea000002 	b	141dc <ui2a+0xe8>
   141d0:	e3a03057 	mov	r3, #87	; 0x57
   141d4:	ea000000 	b	141dc <ui2a+0xe8>
   141d8:	e3a03030 	mov	r3, #48	; 0x30
   141dc:	e51b2010 	ldr	r2, [fp, #-16]
   141e0:	e6ef1072 	uxtb	r1, r2
   141e4:	e51b2024 	ldr	r2, [fp, #-36]	; 0xffffffdc
   141e8:	e2820001 	add	r0, r2, #1
   141ec:	e50b0024 	str	r0, [fp, #-36]	; 0xffffffdc
   141f0:	e0833001 	add	r3, r3, r1
   141f4:	e6ef3073 	uxtb	r3, r3
   141f8:	e5c23000 	strb	r3, [r2]
   141fc:	e51b3008 	ldr	r3, [fp, #-8]
   14200:	e2833001 	add	r3, r3, #1
   14204:	e50b3008 	str	r3, [fp, #-8]
   14208:	e51b300c 	ldr	r3, [fp, #-12]
   1420c:	e3530000 	cmp	r3, #0
   14210:	1affffce 	bne	14150 <ui2a+0x5c>
   14214:	e51b3024 	ldr	r3, [fp, #-36]	; 0xffffffdc
   14218:	e3a02000 	mov	r2, #0
   1421c:	e5c32000 	strb	r2, [r3]
   14220:	e320f000 	nop	{0}
   14224:	e28bd000 	add	sp, fp, #0
   14228:	e49db004 	pop	{fp}		; (ldr fp, [sp], #4)
   1422c:	e12fff1e 	bx	lr

00014230 <i2a>:
   14230:	e92d4800 	push	{fp, lr}
   14234:	e28db004 	add	fp, sp, #4
   14238:	e24dd008 	sub	sp, sp, #8
   1423c:	e50b0008 	str	r0, [fp, #-8]
   14240:	e50b100c 	str	r1, [fp, #-12]
   14244:	e51b3008 	ldr	r3, [fp, #-8]
   14248:	e3530000 	cmp	r3, #0
   1424c:	aa000007 	bge	14270 <i2a+0x40>
   14250:	e51b3008 	ldr	r3, [fp, #-8]
   14254:	e2633000 	rsb	r3, r3, #0
   14258:	e50b3008 	str	r3, [fp, #-8]
   1425c:	e51b300c 	ldr	r3, [fp, #-12]
   14260:	e2832001 	add	r2, r3, #1
   14264:	e50b200c 	str	r2, [fp, #-12]
   14268:	e3a0202d 	mov	r2, #45	; 0x2d
   1426c:	e5c32000 	strb	r2, [r3]
   14270:	e51b0008 	ldr	r0, [fp, #-8]
   14274:	e51b300c 	ldr	r3, [fp, #-12]
   14278:	e3a02000 	mov	r2, #0
   1427c:	e3a0100a 	mov	r1, #10
   14280:	ebffff9b 	bl	140f4 <ui2a>
   14284:	e320f000 	nop	{0}
   14288:	e24bd004 	sub	sp, fp, #4
   1428c:	e8bd8800 	pop	{fp, pc}

00014290 <a2d>:
   14290:	e52db004 	push	{fp}		; (str fp, [sp, #-4]!)
   14294:	e28db000 	add	fp, sp, #0
   14298:	e24dd00c 	sub	sp, sp, #12
   1429c:	e1a03000 	mov	r3, r0
   142a0:	e54b3005 	strb	r3, [fp, #-5]
   142a4:	e55b3005 	ldrb	r3, [fp, #-5]
   142a8:	e353002f 	cmp	r3, #47	; 0x2f
   142ac:	9a000005 	bls	142c8 <a2d+0x38>
   142b0:	e55b3005 	ldrb	r3, [fp, #-5]
   142b4:	e3530039 	cmp	r3, #57	; 0x39
   142b8:	8a000002 	bhi	142c8 <a2d+0x38>
   142bc:	e55b3005 	ldrb	r3, [fp, #-5]
   142c0:	e2433030 	sub	r3, r3, #48	; 0x30
   142c4:	ea000012 	b	14314 <a2d+0x84>
   142c8:	e55b3005 	ldrb	r3, [fp, #-5]
   142cc:	e3530060 	cmp	r3, #96	; 0x60
   142d0:	9a000005 	bls	142ec <a2d+0x5c>
   142d4:	e55b3005 	ldrb	r3, [fp, #-5]
   142d8:	e3530066 	cmp	r3, #102	; 0x66
   142dc:	8a000002 	bhi	142ec <a2d+0x5c>
   142e0:	e55b3005 	ldrb	r3, [fp, #-5]
   142e4:	e2433057 	sub	r3, r3, #87	; 0x57
   142e8:	ea000009 	b	14314 <a2d+0x84>
   142ec:	e55b3005 	ldrb	r3, [fp, #-5]
   142f0:	e3530040 	cmp	r3, #64	; 0x40
   142f4:	9a000005 	bls	14310 <a2d+0x80>
   142f8:	e55b3005 	ldrb	r3, [fp, #-5]
   142fc:	e3530046 	cmp	r3, #70	; 0x46
   14300:	8a000002 	bhi	14310 <a2d+0x80>
   14304:	e55b3005 	ldrb	r3, [fp, #-5]
   14308:	e2433037 	sub	r3, r3, #55	; 0x37
   1430c:	ea000000 	b	14314 <a2d+0x84>
   14310:	e3e03000 	mvn	r3, #0
   14314:	e1a00003 	mov	r0, r3
   14318:	e28bd000 	add	sp, fp, #0
   1431c:	e49db004 	pop	{fp}		; (ldr fp, [sp], #4)
   14320:	e12fff1e 	bx	lr

00014324 <a2i>:
   14324:	e92d4800 	push	{fp, lr}
   14328:	e28db004 	add	fp, sp, #4
   1432c:	e24dd020 	sub	sp, sp, #32
   14330:	e50b101c 	str	r1, [fp, #-28]	; 0xffffffe4
   14334:	e50b2020 	str	r2, [fp, #-32]	; 0xffffffe0
   14338:	e50b3024 	str	r3, [fp, #-36]	; 0xffffffdc
   1433c:	e1a03000 	mov	r3, r0
   14340:	e54b3015 	strb	r3, [fp, #-21]	; 0xffffffeb
   14344:	e51b301c 	ldr	r3, [fp, #-28]	; 0xffffffe4
   14348:	e5933000 	ldr	r3, [r3]
   1434c:	e50b3008 	str	r3, [fp, #-8]
   14350:	e3a03000 	mov	r3, #0
   14354:	e50b300c 	str	r3, [fp, #-12]
   14358:	ea00000e 	b	14398 <a2i+0x74>
   1435c:	e51b2010 	ldr	r2, [fp, #-16]
   14360:	e51b3020 	ldr	r3, [fp, #-32]	; 0xffffffe0
   14364:	e1520003 	cmp	r2, r3
   14368:	ca000012 	bgt	143b8 <a2i+0x94>
   1436c:	e51b300c 	ldr	r3, [fp, #-12]
   14370:	e51b2020 	ldr	r2, [fp, #-32]	; 0xffffffe0
   14374:	e0030392 	mul	r3, r2, r3
   14378:	e51b2010 	ldr	r2, [fp, #-16]
   1437c:	e0823003 	add	r3, r2, r3
   14380:	e50b300c 	str	r3, [fp, #-12]
   14384:	e51b3008 	ldr	r3, [fp, #-8]
   14388:	e2832001 	add	r2, r3, #1
   1438c:	e50b2008 	str	r2, [fp, #-8]
   14390:	e5d33000 	ldrb	r3, [r3]
   14394:	e54b3015 	strb	r3, [fp, #-21]	; 0xffffffeb
   14398:	e55b3015 	ldrb	r3, [fp, #-21]	; 0xffffffeb
   1439c:	e1a00003 	mov	r0, r3
   143a0:	ebffffba 	bl	14290 <a2d>
   143a4:	e50b0010 	str	r0, [fp, #-16]
   143a8:	e51b3010 	ldr	r3, [fp, #-16]
   143ac:	e3530000 	cmp	r3, #0
   143b0:	aaffffe9 	bge	1435c <a2i+0x38>
   143b4:	ea000000 	b	143bc <a2i+0x98>
   143b8:	e320f000 	nop	{0}
   143bc:	e51b301c 	ldr	r3, [fp, #-28]	; 0xffffffe4
   143c0:	e51b2008 	ldr	r2, [fp, #-8]
   143c4:	e5832000 	str	r2, [r3]
   143c8:	e51b3024 	ldr	r3, [fp, #-36]	; 0xffffffdc
   143cc:	e51b200c 	ldr	r2, [fp, #-12]
   143d0:	e5832000 	str	r2, [r3]
   143d4:	e55b3015 	ldrb	r3, [fp, #-21]	; 0xffffffeb
   143d8:	e1a00003 	mov	r0, r3
   143dc:	e24bd004 	sub	sp, fp, #4
   143e0:	e8bd8800 	pop	{fp, pc}

000143e4 <ptr2a>:
   143e4:	e92d4800 	push	{fp, lr}
   143e8:	e28db004 	add	fp, sp, #4
   143ec:	e24dd010 	sub	sp, sp, #16
   143f0:	e50b0010 	str	r0, [fp, #-16]
   143f4:	e50b1014 	str	r1, [fp, #-20]	; 0xffffffec
   143f8:	e51b3010 	ldr	r3, [fp, #-16]
   143fc:	e50b3008 	str	r3, [fp, #-8]
   14400:	e51b3014 	ldr	r3, [fp, #-20]	; 0xffffffec
   14404:	e3a02001 	mov	r2, #1
   14408:	e3a01010 	mov	r1, #16
   1440c:	e51b0008 	ldr	r0, [fp, #-8]
   14410:	ebffff37 	bl	140f4 <ui2a>
   14414:	e320f000 	nop	{0}
   14418:	e24bd004 	sub	sp, fp, #4
   1441c:	e8bd8800 	pop	{fp, pc}

00014420 <putchw>:
   14420:	e92d4800 	push	{fp, lr}
   14424:	e28db004 	add	fp, sp, #4
   14428:	e24dd018 	sub	sp, sp, #24
   1442c:	e50b0010 	str	r0, [fp, #-16]
   14430:	e50b1014 	str	r1, [fp, #-20]	; 0xffffffec
   14434:	e50b2018 	str	r2, [fp, #-24]	; 0xffffffe8
   14438:	e54b3019 	strb	r3, [fp, #-25]	; 0xffffffe7
   1443c:	e55b3019 	ldrb	r3, [fp, #-25]	; 0xffffffe7
   14440:	e3530000 	cmp	r3, #0
   14444:	0a000001 	beq	14450 <putchw+0x30>
   14448:	e3a03030 	mov	r3, #48	; 0x30
   1444c:	ea000000 	b	14454 <putchw+0x34>
   14450:	e3a03020 	mov	r3, #32
   14454:	e54b3009 	strb	r3, [fp, #-9]
   14458:	e59b3004 	ldr	r3, [fp, #4]
   1445c:	e50b3008 	str	r3, [fp, #-8]
   14460:	ea000002 	b	14470 <putchw+0x50>
   14464:	e51b3018 	ldr	r3, [fp, #-24]	; 0xffffffe8
   14468:	e2433001 	sub	r3, r3, #1
   1446c:	e50b3018 	str	r3, [fp, #-24]	; 0xffffffe8
   14470:	e51b3008 	ldr	r3, [fp, #-8]
   14474:	e2832001 	add	r2, r3, #1
   14478:	e50b2008 	str	r2, [fp, #-8]
   1447c:	e5d33000 	ldrb	r3, [r3]
   14480:	e3530000 	cmp	r3, #0
   14484:	0a000008 	beq	144ac <putchw+0x8c>
   14488:	e51b3018 	ldr	r3, [fp, #-24]	; 0xffffffe8
   1448c:	e3530000 	cmp	r3, #0
   14490:	cafffff3 	bgt	14464 <putchw+0x44>
   14494:	ea000004 	b	144ac <putchw+0x8c>
   14498:	e55b2009 	ldrb	r2, [fp, #-9]
   1449c:	e51b3014 	ldr	r3, [fp, #-20]	; 0xffffffec
   144a0:	e1a01002 	mov	r1, r2
   144a4:	e51b0010 	ldr	r0, [fp, #-16]
   144a8:	e12fff33 	blx	r3
   144ac:	e51b3018 	ldr	r3, [fp, #-24]	; 0xffffffe8
   144b0:	e2432001 	sub	r2, r3, #1
   144b4:	e50b2018 	str	r2, [fp, #-24]	; 0xffffffe8
   144b8:	e3530000 	cmp	r3, #0
   144bc:	cafffff5 	bgt	14498 <putchw+0x78>
   144c0:	ea000004 	b	144d8 <putchw+0xb8>
   144c4:	e55b200a 	ldrb	r2, [fp, #-10]
   144c8:	e51b3014 	ldr	r3, [fp, #-20]	; 0xffffffec
   144cc:	e1a01002 	mov	r1, r2
   144d0:	e51b0010 	ldr	r0, [fp, #-16]
   144d4:	e12fff33 	blx	r3
   144d8:	e59b3004 	ldr	r3, [fp, #4]
   144dc:	e2832001 	add	r2, r3, #1
   144e0:	e58b2004 	str	r2, [fp, #4]
   144e4:	e5d33000 	ldrb	r3, [r3]
   144e8:	e54b300a 	strb	r3, [fp, #-10]
   144ec:	e55b300a 	ldrb	r3, [fp, #-10]
   144f0:	e3530000 	cmp	r3, #0
   144f4:	1afffff2 	bne	144c4 <putchw+0xa4>
   144f8:	e320f000 	nop	{0}
   144fc:	e320f000 	nop	{0}
   14500:	e24bd004 	sub	sp, fp, #4
   14504:	e8bd8800 	pop	{fp, pc}

00014508 <size_t2a>:
   14508:	e52db004 	push	{fp}		; (str fp, [sp, #-4]!)
   1450c:	e28db000 	add	fp, sp, #0
   14510:	e24dd024 	sub	sp, sp, #36	; 0x24
   14514:	e50b0018 	str	r0, [fp, #-24]	; 0xffffffe8
   14518:	e50b101c 	str	r1, [fp, #-28]	; 0xffffffe4
   1451c:	e50b2020 	str	r2, [fp, #-32]	; 0xffffffe0
   14520:	e50b3024 	str	r3, [fp, #-36]	; 0xffffffdc
   14524:	e3a03000 	mov	r3, #0
   14528:	e50b3008 	str	r3, [fp, #-8]
   1452c:	e3a03001 	mov	r3, #1
   14530:	e50b300c 	str	r3, [fp, #-12]
   14534:	ea000003 	b	14548 <size_t2a+0x40>
   14538:	e51b300c 	ldr	r3, [fp, #-12]
   1453c:	e51b201c 	ldr	r2, [fp, #-28]	; 0xffffffe4
   14540:	e0030392 	mul	r3, r2, r3
   14544:	e50b300c 	str	r3, [fp, #-12]
   14548:	e51b2018 	ldr	r2, [fp, #-24]	; 0xffffffe8
   1454c:	e51b300c 	ldr	r3, [fp, #-12]
   14550:	e733f312 	udiv	r3, r2, r3
   14554:	e51b201c 	ldr	r2, [fp, #-28]	; 0xffffffe4
   14558:	e1520003 	cmp	r2, r3
   1455c:	9afffff5 	bls	14538 <size_t2a+0x30>
   14560:	ea00002d 	b	1461c <size_t2a+0x114>
   14564:	e51b2018 	ldr	r2, [fp, #-24]	; 0xffffffe8
   14568:	e51b300c 	ldr	r3, [fp, #-12]
   1456c:	e733f312 	udiv	r3, r2, r3
   14570:	e50b3010 	str	r3, [fp, #-16]
   14574:	e51b3018 	ldr	r3, [fp, #-24]	; 0xffffffe8
   14578:	e51b200c 	ldr	r2, [fp, #-12]
   1457c:	e732f213 	udiv	r2, r3, r2
   14580:	e51b100c 	ldr	r1, [fp, #-12]
   14584:	e0020291 	mul	r2, r1, r2
   14588:	e0433002 	sub	r3, r3, r2
   1458c:	e50b3018 	str	r3, [fp, #-24]	; 0xffffffe8
   14590:	e51b200c 	ldr	r2, [fp, #-12]
   14594:	e51b301c 	ldr	r3, [fp, #-28]	; 0xffffffe4
   14598:	e733f312 	udiv	r3, r2, r3
   1459c:	e50b300c 	str	r3, [fp, #-12]
   145a0:	e51b3008 	ldr	r3, [fp, #-8]
   145a4:	e3530000 	cmp	r3, #0
   145a8:	1a000005 	bne	145c4 <size_t2a+0xbc>
   145ac:	e51b3010 	ldr	r3, [fp, #-16]
   145b0:	e3530000 	cmp	r3, #0
   145b4:	ca000002 	bgt	145c4 <size_t2a+0xbc>
   145b8:	e51b300c 	ldr	r3, [fp, #-12]
   145bc:	e3530000 	cmp	r3, #0
   145c0:	1a000015 	bne	1461c <size_t2a+0x114>
   145c4:	e51b3010 	ldr	r3, [fp, #-16]
   145c8:	e3530009 	cmp	r3, #9
   145cc:	da000006 	ble	145ec <size_t2a+0xe4>
   145d0:	e51b3020 	ldr	r3, [fp, #-32]	; 0xffffffe0
   145d4:	e3530000 	cmp	r3, #0
   145d8:	0a000001 	beq	145e4 <size_t2a+0xdc>
   145dc:	e3a03037 	mov	r3, #55	; 0x37
   145e0:	ea000002 	b	145f0 <size_t2a+0xe8>
   145e4:	e3a03057 	mov	r3, #87	; 0x57
   145e8:	ea000000 	b	145f0 <size_t2a+0xe8>
   145ec:	e3a03030 	mov	r3, #48	; 0x30
   145f0:	e51b2010 	ldr	r2, [fp, #-16]
   145f4:	e6ef1072 	uxtb	r1, r2
   145f8:	e51b2024 	ldr	r2, [fp, #-36]	; 0xffffffdc
   145fc:	e2820001 	add	r0, r2, #1
   14600:	e50b0024 	str	r0, [fp, #-36]	; 0xffffffdc
   14604:	e0833001 	add	r3, r3, r1
   14608:	e6ef3073 	uxtb	r3, r3
   1460c:	e5c23000 	strb	r3, [r2]
   14610:	e51b3008 	ldr	r3, [fp, #-8]
   14614:	e2833001 	add	r3, r3, #1
   14618:	e50b3008 	str	r3, [fp, #-8]
   1461c:	e51b300c 	ldr	r3, [fp, #-12]
   14620:	e3530000 	cmp	r3, #0
   14624:	1affffce 	bne	14564 <size_t2a+0x5c>
   14628:	e51b3024 	ldr	r3, [fp, #-36]	; 0xffffffdc
   1462c:	e3a02000 	mov	r2, #0
   14630:	e5c32000 	strb	r2, [r3]
   14634:	e320f000 	nop	{0}
   14638:	e28bd000 	add	sp, fp, #0
   1463c:	e49db004 	pop	{fp}		; (ldr fp, [sp], #4)
   14640:	e12fff1e 	bx	lr

00014644 <tfp_format>:
   14644:	e92d4800 	push	{fp, lr}
   14648:	e28db004 	add	fp, sp, #4
   1464c:	e24dd030 	sub	sp, sp, #48	; 0x30
   14650:	e50b0020 	str	r0, [fp, #-32]	; 0xffffffe0
   14654:	e50b1024 	str	r1, [fp, #-36]	; 0xffffffdc
   14658:	e50b2028 	str	r2, [fp, #-40]	; 0xffffffd8
   1465c:	e50b302c 	str	r3, [fp, #-44]	; 0xffffffd4
   14660:	ea000136 	b	14b40 <tfp_format+0x4fc>
   14664:	e55b3005 	ldrb	r3, [fp, #-5]
   14668:	e3530025 	cmp	r3, #37	; 0x25
   1466c:	0a000005 	beq	14688 <tfp_format+0x44>
   14670:	e55b2005 	ldrb	r2, [fp, #-5]
   14674:	e51b3024 	ldr	r3, [fp, #-36]	; 0xffffffdc
   14678:	e1a01002 	mov	r1, r2
   1467c:	e51b0020 	ldr	r0, [fp, #-32]	; 0xffffffe0
   14680:	e12fff33 	blx	r3
   14684:	ea00012d 	b	14b40 <tfp_format+0x4fc>
   14688:	e3a03000 	mov	r3, #0
   1468c:	e54b3006 	strb	r3, [fp, #-6]
   14690:	e3a03000 	mov	r3, #0
   14694:	e54b3007 	strb	r3, [fp, #-7]
   14698:	e3a03000 	mov	r3, #0
   1469c:	e54b3008 	strb	r3, [fp, #-8]
   146a0:	e3a03000 	mov	r3, #0
   146a4:	e50b3018 	str	r3, [fp, #-24]	; 0xffffffe8
   146a8:	e51b3028 	ldr	r3, [fp, #-40]	; 0xffffffd8
   146ac:	e2832001 	add	r2, r3, #1
   146b0:	e50b2028 	str	r2, [fp, #-40]	; 0xffffffd8
   146b4:	e5d33000 	ldrb	r3, [r3]
   146b8:	e54b3005 	strb	r3, [fp, #-5]
   146bc:	e55b3005 	ldrb	r3, [fp, #-5]
   146c0:	e3530030 	cmp	r3, #48	; 0x30
   146c4:	1a000006 	bne	146e4 <tfp_format+0xa0>
   146c8:	e51b3028 	ldr	r3, [fp, #-40]	; 0xffffffd8
   146cc:	e2832001 	add	r2, r3, #1
   146d0:	e50b2028 	str	r2, [fp, #-40]	; 0xffffffd8
   146d4:	e5d33000 	ldrb	r3, [r3]
   146d8:	e54b3005 	strb	r3, [fp, #-5]
   146dc:	e3a03001 	mov	r3, #1
   146e0:	e54b3006 	strb	r3, [fp, #-6]
   146e4:	e55b3005 	ldrb	r3, [fp, #-5]
   146e8:	e353002f 	cmp	r3, #47	; 0x2f
   146ec:	9a000009 	bls	14718 <tfp_format+0xd4>
   146f0:	e55b3005 	ldrb	r3, [fp, #-5]
   146f4:	e3530039 	cmp	r3, #57	; 0x39
   146f8:	8a000006 	bhi	14718 <tfp_format+0xd4>
   146fc:	e24b3018 	sub	r3, fp, #24
   14700:	e24b1028 	sub	r1, fp, #40	; 0x28
   14704:	e55b0005 	ldrb	r0, [fp, #-5]
   14708:	e3a0200a 	mov	r2, #10
   1470c:	ebffff04 	bl	14324 <a2i>
   14710:	e1a03000 	mov	r3, r0
   14714:	e54b3005 	strb	r3, [fp, #-5]
   14718:	e55b3005 	ldrb	r3, [fp, #-5]
   1471c:	e353006c 	cmp	r3, #108	; 0x6c
   14720:	1a000006 	bne	14740 <tfp_format+0xfc>
   14724:	e51b3028 	ldr	r3, [fp, #-40]	; 0xffffffd8
   14728:	e2832001 	add	r2, r3, #1
   1472c:	e50b2028 	str	r2, [fp, #-40]	; 0xffffffd8
   14730:	e5d33000 	ldrb	r3, [r3]
   14734:	e54b3005 	strb	r3, [fp, #-5]
   14738:	e3a03001 	mov	r3, #1
   1473c:	e54b3007 	strb	r3, [fp, #-7]
   14740:	e55b3005 	ldrb	r3, [fp, #-5]
   14744:	e353007a 	cmp	r3, #122	; 0x7a
   14748:	ca0000f9 	bgt	14b34 <tfp_format+0x4f0>
   1474c:	e3530058 	cmp	r3, #88	; 0x58
   14750:	aa000004 	bge	14768 <tfp_format+0x124>
   14754:	e3530000 	cmp	r3, #0
   14758:	0a000101 	beq	14b64 <tfp_format+0x520>
   1475c:	e3530025 	cmp	r3, #37	; 0x25
   14760:	0a0000ee 	beq	14b20 <tfp_format+0x4dc>
   14764:	ea0000f2 	b	14b34 <tfp_format+0x4f0>
   14768:	e2433058 	sub	r3, r3, #88	; 0x58
   1476c:	e3530022 	cmp	r3, #34	; 0x22
   14770:	908ff103 	addls	pc, pc, r3, lsl #2
   14774:	ea0000ee 	b	14b34 <tfp_format+0x4f0>
   14778:	ea00007c 	b	14970 <tfp_format+0x32c>
   1477c:	ea0000ec 	b	14b34 <tfp_format+0x4f0>
   14780:	ea0000eb 	b	14b34 <tfp_format+0x4f0>
   14784:	ea0000ea 	b	14b34 <tfp_format+0x4f0>
   14788:	ea0000e9 	b	14b34 <tfp_format+0x4f0>
   1478c:	ea0000e8 	b	14b34 <tfp_format+0x4f0>
   14790:	ea0000e7 	b	14b34 <tfp_format+0x4f0>
   14794:	ea0000e6 	b	14b34 <tfp_format+0x4f0>
   14798:	ea0000e5 	b	14b34 <tfp_format+0x4f0>
   1479c:	ea0000e4 	b	14b34 <tfp_format+0x4f0>
   147a0:	ea0000e3 	b	14b34 <tfp_format+0x4f0>
   147a4:	ea0000c7 	b	14ac8 <tfp_format+0x484>
   147a8:	ea0000a8 	b	14a50 <tfp_format+0x40c>
   147ac:	ea0000e0 	b	14b34 <tfp_format+0x4f0>
   147b0:	ea0000df 	b	14b34 <tfp_format+0x4f0>
   147b4:	ea0000de 	b	14b34 <tfp_format+0x4f0>
   147b8:	ea0000dd 	b	14b34 <tfp_format+0x4f0>
   147bc:	ea0000a3 	b	14a50 <tfp_format+0x40c>
   147c0:	ea0000db 	b	14b34 <tfp_format+0x4f0>
   147c4:	ea0000da 	b	14b34 <tfp_format+0x4f0>
   147c8:	ea0000d9 	b	14b34 <tfp_format+0x4f0>
   147cc:	ea0000d8 	b	14b34 <tfp_format+0x4f0>
   147d0:	ea0000d7 	b	14b34 <tfp_format+0x4f0>
   147d4:	ea0000d6 	b	14b34 <tfp_format+0x4f0>
   147d8:	ea000022 	b	14868 <tfp_format+0x224>
   147dc:	ea0000d4 	b	14b34 <tfp_format+0x4f0>
   147e0:	ea0000d3 	b	14b34 <tfp_format+0x4f0>
   147e4:	ea0000c1 	b	14af0 <tfp_format+0x4ac>
   147e8:	ea0000d1 	b	14b34 <tfp_format+0x4f0>
   147ec:	ea000036 	b	148cc <tfp_format+0x288>
   147f0:	ea0000cf 	b	14b34 <tfp_format+0x4f0>
   147f4:	ea0000ce 	b	14b34 <tfp_format+0x4f0>
   147f8:	ea00005c 	b	14970 <tfp_format+0x32c>
   147fc:	ea0000cc 	b	14b34 <tfp_format+0x4f0>
   14800:	eaffffff 	b	14804 <tfp_format+0x1c0>
   14804:	e51b3028 	ldr	r3, [fp, #-40]	; 0xffffffd8
   14808:	e2832001 	add	r2, r3, #1
   1480c:	e50b2028 	str	r2, [fp, #-40]	; 0xffffffd8
   14810:	e5d33000 	ldrb	r3, [r3]
   14814:	e54b3005 	strb	r3, [fp, #-5]
   14818:	e55b3005 	ldrb	r3, [fp, #-5]
   1481c:	e3530075 	cmp	r3, #117	; 0x75
   14820:	1a0000c5 	bne	14b3c <tfp_format+0x4f8>
   14824:	e51b302c 	ldr	r3, [fp, #-44]	; 0xffffffd4
   14828:	e2832004 	add	r2, r3, #4
   1482c:	e50b202c 	str	r2, [fp, #-44]	; 0xffffffd4
   14830:	e5933000 	ldr	r3, [r3]
   14834:	e24b2014 	sub	r2, fp, #20
   14838:	e1a01002 	mov	r1, r2
   1483c:	e1a00003 	mov	r0, r3
   14840:	ebfffd81 	bl	13e4c <size2a>
   14844:	e51b2018 	ldr	r2, [fp, #-24]	; 0xffffffe8
   14848:	e55b1006 	ldrb	r1, [fp, #-6]
   1484c:	e24b3014 	sub	r3, fp, #20
   14850:	e58d3000 	str	r3, [sp]
   14854:	e1a03001 	mov	r3, r1
   14858:	e51b1024 	ldr	r1, [fp, #-36]	; 0xffffffdc
   1485c:	e51b0020 	ldr	r0, [fp, #-32]	; 0xffffffe0
   14860:	ebfffeee 	bl	14420 <putchw>
   14864:	ea0000b4 	b	14b3c <tfp_format+0x4f8>
   14868:	e51b3024 	ldr	r3, [fp, #-36]	; 0xffffffdc
   1486c:	e3a01030 	mov	r1, #48	; 0x30
   14870:	e51b0020 	ldr	r0, [fp, #-32]	; 0xffffffe0
   14874:	e12fff33 	blx	r3
   14878:	e51b3024 	ldr	r3, [fp, #-36]	; 0xffffffdc
   1487c:	e3a01078 	mov	r1, #120	; 0x78
   14880:	e51b0020 	ldr	r0, [fp, #-32]	; 0xffffffe0
   14884:	e12fff33 	blx	r3
   14888:	e51b302c 	ldr	r3, [fp, #-44]	; 0xffffffd4
   1488c:	e2832004 	add	r2, r3, #4
   14890:	e50b202c 	str	r2, [fp, #-44]	; 0xffffffd4
   14894:	e5933000 	ldr	r3, [r3]
   14898:	e24b2014 	sub	r2, fp, #20
   1489c:	e1a01002 	mov	r1, r2
   148a0:	e1a00003 	mov	r0, r3
   148a4:	ebfffece 	bl	143e4 <ptr2a>
   148a8:	e51b2018 	ldr	r2, [fp, #-24]	; 0xffffffe8
   148ac:	e55b1006 	ldrb	r1, [fp, #-6]
   148b0:	e24b3014 	sub	r3, fp, #20
   148b4:	e58d3000 	str	r3, [sp]
   148b8:	e1a03001 	mov	r3, r1
   148bc:	e51b1024 	ldr	r1, [fp, #-36]	; 0xffffffdc
   148c0:	e51b0020 	ldr	r0, [fp, #-32]	; 0xffffffe0
   148c4:	ebfffed5 	bl	14420 <putchw>
   148c8:	ea00009c 	b	14b40 <tfp_format+0x4fc>
   148cc:	e55b3008 	ldrb	r3, [fp, #-8]
   148d0:	e3530000 	cmp	r3, #0
   148d4:	0a000008 	beq	148fc <tfp_format+0x2b8>
   148d8:	e51b302c 	ldr	r3, [fp, #-44]	; 0xffffffd4
   148dc:	e2832004 	add	r2, r3, #4
   148e0:	e50b202c 	str	r2, [fp, #-44]	; 0xffffffd4
   148e4:	e5930000 	ldr	r0, [r3]
   148e8:	e24b3014 	sub	r3, fp, #20
   148ec:	e3a02000 	mov	r2, #0
   148f0:	e3a0100a 	mov	r1, #10
   148f4:	ebffff03 	bl	14508 <size_t2a>
   148f8:	ea000013 	b	1494c <tfp_format+0x308>
   148fc:	e55b3007 	ldrb	r3, [fp, #-7]
   14900:	e3530000 	cmp	r3, #0
   14904:	0a000008 	beq	1492c <tfp_format+0x2e8>
   14908:	e51b302c 	ldr	r3, [fp, #-44]	; 0xffffffd4
   1490c:	e2832004 	add	r2, r3, #4
   14910:	e50b202c 	str	r2, [fp, #-44]	; 0xffffffd4
   14914:	e5930000 	ldr	r0, [r3]
   14918:	e24b3014 	sub	r3, fp, #20
   1491c:	e3a02000 	mov	r2, #0
   14920:	e3a0100a 	mov	r1, #10
   14924:	ebfffd8b 	bl	13f58 <uli2a>
   14928:	ea000007 	b	1494c <tfp_format+0x308>
   1492c:	e51b302c 	ldr	r3, [fp, #-44]	; 0xffffffd4
   14930:	e2832004 	add	r2, r3, #4
   14934:	e50b202c 	str	r2, [fp, #-44]	; 0xffffffd4
   14938:	e5930000 	ldr	r0, [r3]
   1493c:	e24b3014 	sub	r3, fp, #20
   14940:	e3a02000 	mov	r2, #0
   14944:	e3a0100a 	mov	r1, #10
   14948:	ebfffde9 	bl	140f4 <ui2a>
   1494c:	e51b2018 	ldr	r2, [fp, #-24]	; 0xffffffe8
   14950:	e55b1006 	ldrb	r1, [fp, #-6]
   14954:	e24b3014 	sub	r3, fp, #20
   14958:	e58d3000 	str	r3, [sp]
   1495c:	e1a03001 	mov	r3, r1
   14960:	e51b1024 	ldr	r1, [fp, #-36]	; 0xffffffdc
   14964:	e51b0020 	ldr	r0, [fp, #-32]	; 0xffffffe0
   14968:	ebfffeac 	bl	14420 <putchw>
   1496c:	ea000073 	b	14b40 <tfp_format+0x4fc>
   14970:	e55b3008 	ldrb	r3, [fp, #-8]
   14974:	e3530000 	cmp	r3, #0
   14978:	0a00000d 	beq	149b4 <tfp_format+0x370>
   1497c:	e51b302c 	ldr	r3, [fp, #-44]	; 0xffffffd4
   14980:	e2832004 	add	r2, r3, #4
   14984:	e50b202c 	str	r2, [fp, #-44]	; 0xffffffd4
   14988:	e5930000 	ldr	r0, [r3]
   1498c:	e55b3005 	ldrb	r3, [fp, #-5]
   14990:	e3530058 	cmp	r3, #88	; 0x58
   14994:	03a03001 	moveq	r3, #1
   14998:	13a03000 	movne	r3, #0
   1499c:	e6ef3073 	uxtb	r3, r3
   149a0:	e1a02003 	mov	r2, r3
   149a4:	e24b3014 	sub	r3, fp, #20
   149a8:	e3a01010 	mov	r1, #16
   149ac:	ebfffed5 	bl	14508 <size_t2a>
   149b0:	ea00001d 	b	14a2c <tfp_format+0x3e8>
   149b4:	e55b3007 	ldrb	r3, [fp, #-7]
   149b8:	e3530000 	cmp	r3, #0
   149bc:	0a00000d 	beq	149f8 <tfp_format+0x3b4>
   149c0:	e51b302c 	ldr	r3, [fp, #-44]	; 0xffffffd4
   149c4:	e2832004 	add	r2, r3, #4
   149c8:	e50b202c 	str	r2, [fp, #-44]	; 0xffffffd4
   149cc:	e5930000 	ldr	r0, [r3]
   149d0:	e55b3005 	ldrb	r3, [fp, #-5]
   149d4:	e3530058 	cmp	r3, #88	; 0x58
   149d8:	03a03001 	moveq	r3, #1
   149dc:	13a03000 	movne	r3, #0
   149e0:	e6ef3073 	uxtb	r3, r3
   149e4:	e1a02003 	mov	r2, r3
   149e8:	e24b3014 	sub	r3, fp, #20
   149ec:	e3a01010 	mov	r1, #16
   149f0:	ebfffd58 	bl	13f58 <uli2a>
   149f4:	ea00000c 	b	14a2c <tfp_format+0x3e8>
   149f8:	e51b302c 	ldr	r3, [fp, #-44]	; 0xffffffd4
   149fc:	e2832004 	add	r2, r3, #4
   14a00:	e50b202c 	str	r2, [fp, #-44]	; 0xffffffd4
   14a04:	e5930000 	ldr	r0, [r3]
   14a08:	e55b3005 	ldrb	r3, [fp, #-5]
   14a0c:	e3530058 	cmp	r3, #88	; 0x58
   14a10:	03a03001 	moveq	r3, #1
   14a14:	13a03000 	movne	r3, #0
   14a18:	e6ef3073 	uxtb	r3, r3
   14a1c:	e1a02003 	mov	r2, r3
   14a20:	e24b3014 	sub	r3, fp, #20
   14a24:	e3a01010 	mov	r1, #16
   14a28:	ebfffdb1 	bl	140f4 <ui2a>
   14a2c:	e51b2018 	ldr	r2, [fp, #-24]	; 0xffffffe8
   14a30:	e55b1006 	ldrb	r1, [fp, #-6]
   14a34:	e24b3014 	sub	r3, fp, #20
   14a38:	e58d3000 	str	r3, [sp]
   14a3c:	e1a03001 	mov	r3, r1
   14a40:	e51b1024 	ldr	r1, [fp, #-36]	; 0xffffffdc
   14a44:	e51b0020 	ldr	r0, [fp, #-32]	; 0xffffffe0
   14a48:	ebfffe74 	bl	14420 <putchw>
   14a4c:	ea00003b 	b	14b40 <tfp_format+0x4fc>
   14a50:	e55b3007 	ldrb	r3, [fp, #-7]
   14a54:	e3530000 	cmp	r3, #0
   14a58:	0a000009 	beq	14a84 <tfp_format+0x440>
   14a5c:	e51b302c 	ldr	r3, [fp, #-44]	; 0xffffffd4
   14a60:	e2832004 	add	r2, r3, #4
   14a64:	e50b202c 	str	r2, [fp, #-44]	; 0xffffffd4
   14a68:	e5933000 	ldr	r3, [r3]
   14a6c:	e1a02003 	mov	r2, r3
   14a70:	e24b3014 	sub	r3, fp, #20
   14a74:	e1a01003 	mov	r1, r3
   14a78:	e1a00002 	mov	r0, r2
   14a7c:	ebfffd84 	bl	14094 <li2a>
   14a80:	ea000007 	b	14aa4 <tfp_format+0x460>
   14a84:	e51b302c 	ldr	r3, [fp, #-44]	; 0xffffffd4
   14a88:	e2832004 	add	r2, r3, #4
   14a8c:	e50b202c 	str	r2, [fp, #-44]	; 0xffffffd4
   14a90:	e5933000 	ldr	r3, [r3]
   14a94:	e24b2014 	sub	r2, fp, #20
   14a98:	e1a01002 	mov	r1, r2
   14a9c:	e1a00003 	mov	r0, r3
   14aa0:	ebfffde2 	bl	14230 <i2a>
   14aa4:	e51b2018 	ldr	r2, [fp, #-24]	; 0xffffffe8
   14aa8:	e55b1006 	ldrb	r1, [fp, #-6]
   14aac:	e24b3014 	sub	r3, fp, #20
   14ab0:	e58d3000 	str	r3, [sp]
   14ab4:	e1a03001 	mov	r3, r1
   14ab8:	e51b1024 	ldr	r1, [fp, #-36]	; 0xffffffdc
   14abc:	e51b0020 	ldr	r0, [fp, #-32]	; 0xffffffe0
   14ac0:	ebfffe56 	bl	14420 <putchw>
   14ac4:	ea00001d 	b	14b40 <tfp_format+0x4fc>
   14ac8:	e51b302c 	ldr	r3, [fp, #-44]	; 0xffffffd4
   14acc:	e2832004 	add	r2, r3, #4
   14ad0:	e50b202c 	str	r2, [fp, #-44]	; 0xffffffd4
   14ad4:	e5933000 	ldr	r3, [r3]
   14ad8:	e6ef2073 	uxtb	r2, r3
   14adc:	e51b3024 	ldr	r3, [fp, #-36]	; 0xffffffdc
   14ae0:	e1a01002 	mov	r1, r2
   14ae4:	e51b0020 	ldr	r0, [fp, #-32]	; 0xffffffe0
   14ae8:	e12fff33 	blx	r3
   14aec:	ea000013 	b	14b40 <tfp_format+0x4fc>
   14af0:	e51b1018 	ldr	r1, [fp, #-24]	; 0xffffffe8
   14af4:	e51b302c 	ldr	r3, [fp, #-44]	; 0xffffffd4
   14af8:	e2832004 	add	r2, r3, #4
   14afc:	e50b202c 	str	r2, [fp, #-44]	; 0xffffffd4
   14b00:	e5933000 	ldr	r3, [r3]
   14b04:	e58d3000 	str	r3, [sp]
   14b08:	e3a03000 	mov	r3, #0
   14b0c:	e1a02001 	mov	r2, r1
   14b10:	e51b1024 	ldr	r1, [fp, #-36]	; 0xffffffdc
   14b14:	e51b0020 	ldr	r0, [fp, #-32]	; 0xffffffe0
   14b18:	ebfffe40 	bl	14420 <putchw>
   14b1c:	ea000007 	b	14b40 <tfp_format+0x4fc>
   14b20:	e55b2005 	ldrb	r2, [fp, #-5]
   14b24:	e51b3024 	ldr	r3, [fp, #-36]	; 0xffffffdc
   14b28:	e1a01002 	mov	r1, r2
   14b2c:	e51b0020 	ldr	r0, [fp, #-32]	; 0xffffffe0
   14b30:	e12fff33 	blx	r3
   14b34:	e320f000 	nop	{0}
   14b38:	ea000000 	b	14b40 <tfp_format+0x4fc>
   14b3c:	e320f000 	nop	{0}
   14b40:	e51b3028 	ldr	r3, [fp, #-40]	; 0xffffffd8
   14b44:	e2832001 	add	r2, r3, #1
   14b48:	e50b2028 	str	r2, [fp, #-40]	; 0xffffffd8
   14b4c:	e5d33000 	ldrb	r3, [r3]
   14b50:	e54b3005 	strb	r3, [fp, #-5]
   14b54:	e55b3005 	ldrb	r3, [fp, #-5]
   14b58:	e3530000 	cmp	r3, #0
   14b5c:	1afffec0 	bne	14664 <tfp_format+0x20>
   14b60:	ea000000 	b	14b68 <tfp_format+0x524>
   14b64:	e320f000 	nop	{0}
   14b68:	e320f000 	nop	{0}
   14b6c:	e24bd004 	sub	sp, fp, #4
   14b70:	e8bd8800 	pop	{fp, pc}

00014b74 <tfp_printf>:
   14b74:	e92d000f 	push	{r0, r1, r2, r3}
   14b78:	e92d4800 	push	{fp, lr}
   14b7c:	e28db004 	add	fp, sp, #4
   14b80:	e24dd008 	sub	sp, sp, #8
   14b84:	e28b3008 	add	r3, fp, #8
   14b88:	e50b3008 	str	r3, [fp, #-8]
   14b8c:	e59f3030 	ldr	r3, [pc, #48]	; 14bc4 <tfp_printf+0x50>
   14b90:	e08f3003 	add	r3, pc, r3
   14b94:	e5930000 	ldr	r0, [r3]
   14b98:	e59f3028 	ldr	r3, [pc, #40]	; 14bc8 <tfp_printf+0x54>
   14b9c:	e08f3003 	add	r3, pc, r3
   14ba0:	e5931000 	ldr	r1, [r3]
   14ba4:	e51b3008 	ldr	r3, [fp, #-8]
   14ba8:	e59b2004 	ldr	r2, [fp, #4]
   14bac:	ebfffea4 	bl	14644 <tfp_format>
   14bb0:	e320f000 	nop	{0}
   14bb4:	e24bd004 	sub	sp, fp, #4
   14bb8:	e8bd4800 	pop	{fp, lr}
   14bbc:	e28dd010 	add	sp, sp, #16
   14bc0:	e12fff1e 	bx	lr
   14bc4:	00034484 	.word	0x00034484
   14bc8:	00034474 	.word	0x00034474

00014bcc <putcp>:
   14bcc:	e52db004 	push	{fp}		; (str fp, [sp, #-4]!)
   14bd0:	e28db000 	add	fp, sp, #0
   14bd4:	e24dd00c 	sub	sp, sp, #12
   14bd8:	e50b0008 	str	r0, [fp, #-8]
   14bdc:	e1a03001 	mov	r3, r1
   14be0:	e54b3009 	strb	r3, [fp, #-9]
   14be4:	e51b3008 	ldr	r3, [fp, #-8]
   14be8:	e5933000 	ldr	r3, [r3]
   14bec:	e2831001 	add	r1, r3, #1
   14bf0:	e51b2008 	ldr	r2, [fp, #-8]
   14bf4:	e5821000 	str	r1, [r2]
   14bf8:	e55b2009 	ldrb	r2, [fp, #-9]
   14bfc:	e5c32000 	strb	r2, [r3]
   14c00:	e320f000 	nop	{0}
   14c04:	e28bd000 	add	sp, fp, #0
   14c08:	e49db004 	pop	{fp}		; (ldr fp, [sp], #4)
   14c0c:	e12fff1e 	bx	lr

00014c10 <tfp_sprintf>:
   14c10:	e92d000e 	push	{r1, r2, r3}
   14c14:	e92d4800 	push	{fp, lr}
   14c18:	e28db004 	add	fp, sp, #4
   14c1c:	e24dd014 	sub	sp, sp, #20
   14c20:	e50b0014 	str	r0, [fp, #-20]	; 0xffffffec
   14c24:	e28b3008 	add	r3, fp, #8
   14c28:	e50b300c 	str	r3, [fp, #-12]
   14c2c:	e24b0014 	sub	r0, fp, #20
   14c30:	e51b300c 	ldr	r3, [fp, #-12]
   14c34:	e59b2004 	ldr	r2, [fp, #4]
   14c38:	e59f1028 	ldr	r1, [pc, #40]	; 14c68 <tfp_sprintf+0x58>
   14c3c:	e08f1001 	add	r1, pc, r1
   14c40:	ebfffe7f 	bl	14644 <tfp_format>
   14c44:	e24b3014 	sub	r3, fp, #20
   14c48:	e3a01000 	mov	r1, #0
   14c4c:	e1a00003 	mov	r0, r3
   14c50:	ebffffdd 	bl	14bcc <putcp>
   14c54:	e320f000 	nop	{0}
   14c58:	e24bd004 	sub	sp, fp, #4
   14c5c:	e8bd4800 	pop	{fp, lr}
   14c60:	e28dd00c 	add	sp, sp, #12
   14c64:	e12fff1e 	bx	lr
   14c68:	ffffff88 	.word	0xffffff88

00014c6c <SHA1Transform>:
   14c6c:	e92d4800 	push	{fp, lr}
   14c70:	e28db004 	add	fp, sp, #4
   14c74:	e24dd060 	sub	sp, sp, #96	; 0x60
   14c78:	e50b0060 	str	r0, [fp, #-96]	; 0xffffffa0
   14c7c:	e50b1064 	str	r1, [fp, #-100]	; 0xffffff9c
   14c80:	e24b3058 	sub	r3, fp, #88	; 0x58
   14c84:	e3a02040 	mov	r2, #64	; 0x40
   14c88:	e51b1064 	ldr	r1, [fp, #-100]	; 0xffffff9c
   14c8c:	e1a00003 	mov	r0, r3
   14c90:	ebfff108 	bl	110b8 <memcpy>
   14c94:	e51b3060 	ldr	r3, [fp, #-96]	; 0xffffffa0
   14c98:	e5933000 	ldr	r3, [r3]
   14c9c:	e50b3008 	str	r3, [fp, #-8]
   14ca0:	e51b3060 	ldr	r3, [fp, #-96]	; 0xffffffa0
   14ca4:	e5933004 	ldr	r3, [r3, #4]
   14ca8:	e50b300c 	str	r3, [fp, #-12]
   14cac:	e51b3060 	ldr	r3, [fp, #-96]	; 0xffffffa0
   14cb0:	e5933008 	ldr	r3, [r3, #8]
   14cb4:	e50b3010 	str	r3, [fp, #-16]
   14cb8:	e51b3060 	ldr	r3, [fp, #-96]	; 0xffffffa0
   14cbc:	e593300c 	ldr	r3, [r3, #12]
   14cc0:	e50b3014 	str	r3, [fp, #-20]	; 0xffffffec
   14cc4:	e51b3060 	ldr	r3, [fp, #-96]	; 0xffffffa0
   14cc8:	e5933010 	ldr	r3, [r3, #16]
   14ccc:	e50b3018 	str	r3, [fp, #-24]	; 0xffffffe8
   14cd0:	e51b2010 	ldr	r2, [fp, #-16]
   14cd4:	e51b3014 	ldr	r3, [fp, #-20]	; 0xffffffec
   14cd8:	e0222003 	eor	r2, r2, r3
   14cdc:	e51b300c 	ldr	r3, [fp, #-12]
   14ce0:	e0022003 	and	r2, r2, r3
   14ce4:	e51b3014 	ldr	r3, [fp, #-20]	; 0xffffffec
   14ce8:	e0221003 	eor	r1, r2, r3
   14cec:	e51b3058 	ldr	r3, [fp, #-88]	; 0xffffffa8
   14cf0:	e1a03463 	ror	r3, r3, #8
   14cf4:	e3c328ff 	bic	r2, r3, #16711680	; 0xff0000
   14cf8:	e3c220ff 	bic	r2, r2, #255	; 0xff
   14cfc:	e51b3058 	ldr	r3, [fp, #-88]	; 0xffffffa8
   14d00:	e1a03c63 	ror	r3, r3, #24
   14d04:	e3c334ff 	bic	r3, r3, #-16777216	; 0xff000000
   14d08:	e3c33cff 	bic	r3, r3, #65280	; 0xff00
   14d0c:	e1823003 	orr	r3, r2, r3
   14d10:	e50b3058 	str	r3, [fp, #-88]	; 0xffffffa8
   14d14:	e51b3058 	ldr	r3, [fp, #-88]	; 0xffffffa8
   14d18:	e0812003 	add	r2, r1, r3
   14d1c:	e51b3008 	ldr	r3, [fp, #-8]
   14d20:	e1a03de3 	ror	r3, r3, #27
   14d24:	e0822003 	add	r2, r2, r3
   14d28:	e3073999 	movw	r3, #31129	; 0x7999
   14d2c:	e3453a82 	movt	r3, #23170	; 0x5a82
   14d30:	e0823003 	add	r3, r2, r3
   14d34:	e51b2018 	ldr	r2, [fp, #-24]	; 0xffffffe8
   14d38:	e0823003 	add	r3, r2, r3
   14d3c:	e50b3018 	str	r3, [fp, #-24]	; 0xffffffe8
   14d40:	e51b300c 	ldr	r3, [fp, #-12]
   14d44:	e1a03163 	ror	r3, r3, #2
   14d48:	e50b300c 	str	r3, [fp, #-12]
   14d4c:	e51b200c 	ldr	r2, [fp, #-12]
   14d50:	e51b3010 	ldr	r3, [fp, #-16]
   14d54:	e0222003 	eor	r2, r2, r3
   14d58:	e51b3008 	ldr	r3, [fp, #-8]
   14d5c:	e0022003 	and	r2, r2, r3
   14d60:	e51b3010 	ldr	r3, [fp, #-16]
   14d64:	e0221003 	eor	r1, r2, r3
   14d68:	e51b3054 	ldr	r3, [fp, #-84]	; 0xffffffac
   14d6c:	e1a03463 	ror	r3, r3, #8
   14d70:	e3c328ff 	bic	r2, r3, #16711680	; 0xff0000
   14d74:	e3c220ff 	bic	r2, r2, #255	; 0xff
   14d78:	e51b3054 	ldr	r3, [fp, #-84]	; 0xffffffac
   14d7c:	e1a03c63 	ror	r3, r3, #24
   14d80:	e3c334ff 	bic	r3, r3, #-16777216	; 0xff000000
   14d84:	e3c33cff 	bic	r3, r3, #65280	; 0xff00
   14d88:	e1823003 	orr	r3, r2, r3
   14d8c:	e50b3054 	str	r3, [fp, #-84]	; 0xffffffac
   14d90:	e51b3054 	ldr	r3, [fp, #-84]	; 0xffffffac
   14d94:	e0812003 	add	r2, r1, r3
   14d98:	e51b3018 	ldr	r3, [fp, #-24]	; 0xffffffe8
   14d9c:	e1a03de3 	ror	r3, r3, #27
   14da0:	e0822003 	add	r2, r2, r3
   14da4:	e3073999 	movw	r3, #31129	; 0x7999
   14da8:	e3453a82 	movt	r3, #23170	; 0x5a82
   14dac:	e0823003 	add	r3, r2, r3
   14db0:	e51b2014 	ldr	r2, [fp, #-20]	; 0xffffffec
   14db4:	e0823003 	add	r3, r2, r3
   14db8:	e50b3014 	str	r3, [fp, #-20]	; 0xffffffec
   14dbc:	e51b3008 	ldr	r3, [fp, #-8]
   14dc0:	e1a03163 	ror	r3, r3, #2
   14dc4:	e50b3008 	str	r3, [fp, #-8]
   14dc8:	e51b2008 	ldr	r2, [fp, #-8]
   14dcc:	e51b300c 	ldr	r3, [fp, #-12]
   14dd0:	e0222003 	eor	r2, r2, r3
   14dd4:	e51b3018 	ldr	r3, [fp, #-24]	; 0xffffffe8
   14dd8:	e0022003 	and	r2, r2, r3
   14ddc:	e51b300c 	ldr	r3, [fp, #-12]
   14de0:	e0221003 	eor	r1, r2, r3
   14de4:	e51b3050 	ldr	r3, [fp, #-80]	; 0xffffffb0
   14de8:	e1a03463 	ror	r3, r3, #8
   14dec:	e3c328ff 	bic	r2, r3, #16711680	; 0xff0000
   14df0:	e3c220ff 	bic	r2, r2, #255	; 0xff
   14df4:	e51b3050 	ldr	r3, [fp, #-80]	; 0xffffffb0
   14df8:	e1a03c63 	ror	r3, r3, #24
   14dfc:	e3c334ff 	bic	r3, r3, #-16777216	; 0xff000000
   14e00:	e3c33cff 	bic	r3, r3, #65280	; 0xff00
   14e04:	e1823003 	orr	r3, r2, r3
   14e08:	e50b3050 	str	r3, [fp, #-80]	; 0xffffffb0
   14e0c:	e51b3050 	ldr	r3, [fp, #-80]	; 0xffffffb0
   14e10:	e0812003 	add	r2, r1, r3
   14e14:	e51b3014 	ldr	r3, [fp, #-20]	; 0xffffffec
   14e18:	e1a03de3 	ror	r3, r3, #27
   14e1c:	e0822003 	add	r2, r2, r3
   14e20:	e3073999 	movw	r3, #31129	; 0x7999
   14e24:	e3453a82 	movt	r3, #23170	; 0x5a82
   14e28:	e0823003 	add	r3, r2, r3
   14e2c:	e51b2010 	ldr	r2, [fp, #-16]
   14e30:	e0823003 	add	r3, r2, r3
   14e34:	e50b3010 	str	r3, [fp, #-16]
   14e38:	e51b3018 	ldr	r3, [fp, #-24]	; 0xffffffe8
   14e3c:	e1a03163 	ror	r3, r3, #2
   14e40:	e50b3018 	str	r3, [fp, #-24]	; 0xffffffe8
   14e44:	e51b2018 	ldr	r2, [fp, #-24]	; 0xffffffe8
   14e48:	e51b3008 	ldr	r3, [fp, #-8]
   14e4c:	e0222003 	eor	r2, r2, r3
   14e50:	e51b3014 	ldr	r3, [fp, #-20]	; 0xffffffec
   14e54:	e0022003 	and	r2, r2, r3
   14e58:	e51b3008 	ldr	r3, [fp, #-8]
   14e5c:	e0221003 	eor	r1, r2, r3
   14e60:	e51b304c 	ldr	r3, [fp, #-76]	; 0xffffffb4
   14e64:	e1a03463 	ror	r3, r3, #8
   14e68:	e3c328ff 	bic	r2, r3, #16711680	; 0xff0000
   14e6c:	e3c220ff 	bic	r2, r2, #255	; 0xff
   14e70:	e51b304c 	ldr	r3, [fp, #-76]	; 0xffffffb4
   14e74:	e1a03c63 	ror	r3, r3, #24
   14e78:	e3c334ff 	bic	r3, r3, #-16777216	; 0xff000000
   14e7c:	e3c33cff 	bic	r3, r3, #65280	; 0xff00
   14e80:	e1823003 	orr	r3, r2, r3
   14e84:	e50b304c 	str	r3, [fp, #-76]	; 0xffffffb4
   14e88:	e51b304c 	ldr	r3, [fp, #-76]	; 0xffffffb4
   14e8c:	e0812003 	add	r2, r1, r3
   14e90:	e51b3010 	ldr	r3, [fp, #-16]
   14e94:	e1a03de3 	ror	r3, r3, #27
   14e98:	e0822003 	add	r2, r2, r3
   14e9c:	e3073999 	movw	r3, #31129	; 0x7999
   14ea0:	e3453a82 	movt	r3, #23170	; 0x5a82
   14ea4:	e0823003 	add	r3, r2, r3
   14ea8:	e51b200c 	ldr	r2, [fp, #-12]
   14eac:	e0823003 	add	r3, r2, r3
   14eb0:	e50b300c 	str	r3, [fp, #-12]
   14eb4:	e51b3014 	ldr	r3, [fp, #-20]	; 0xffffffec
   14eb8:	e1a03163 	ror	r3, r3, #2
   14ebc:	e50b3014 	str	r3, [fp, #-20]	; 0xffffffec
   14ec0:	e51b2014 	ldr	r2, [fp, #-20]	; 0xffffffec
   14ec4:	e51b3018 	ldr	r3, [fp, #-24]	; 0xffffffe8
   14ec8:	e0222003 	eor	r2, r2, r3
   14ecc:	e51b3010 	ldr	r3, [fp, #-16]
   14ed0:	e0022003 	and	r2, r2, r3
   14ed4:	e51b3018 	ldr	r3, [fp, #-24]	; 0xffffffe8
   14ed8:	e0221003 	eor	r1, r2, r3
   14edc:	e51b3048 	ldr	r3, [fp, #-72]	; 0xffffffb8
   14ee0:	e1a03463 	ror	r3, r3, #8
   14ee4:	e3c328ff 	bic	r2, r3, #16711680	; 0xff0000
   14ee8:	e3c220ff 	bic	r2, r2, #255	; 0xff
   14eec:	e51b3048 	ldr	r3, [fp, #-72]	; 0xffffffb8
   14ef0:	e1a03c63 	ror	r3, r3, #24
   14ef4:	e3c334ff 	bic	r3, r3, #-16777216	; 0xff000000
   14ef8:	e3c33cff 	bic	r3, r3, #65280	; 0xff00
   14efc:	e1823003 	orr	r3, r2, r3
   14f00:	e50b3048 	str	r3, [fp, #-72]	; 0xffffffb8
   14f04:	e51b3048 	ldr	r3, [fp, #-72]	; 0xffffffb8
   14f08:	e0812003 	add	r2, r1, r3
   14f0c:	e51b300c 	ldr	r3, [fp, #-12]
   14f10:	e1a03de3 	ror	r3, r3, #27
   14f14:	e0822003 	add	r2, r2, r3
   14f18:	e3073999 	movw	r3, #31129	; 0x7999
   14f1c:	e3453a82 	movt	r3, #23170	; 0x5a82
   14f20:	e0823003 	add	r3, r2, r3
   14f24:	e51b2008 	ldr	r2, [fp, #-8]
   14f28:	e0823003 	add	r3, r2, r3
   14f2c:	e50b3008 	str	r3, [fp, #-8]
   14f30:	e51b3010 	ldr	r3, [fp, #-16]
   14f34:	e1a03163 	ror	r3, r3, #2
   14f38:	e50b3010 	str	r3, [fp, #-16]
   14f3c:	e51b2010 	ldr	r2, [fp, #-16]
   14f40:	e51b3014 	ldr	r3, [fp, #-20]	; 0xffffffec
   14f44:	e0222003 	eor	r2, r2, r3
   14f48:	e51b300c 	ldr	r3, [fp, #-12]
   14f4c:	e0022003 	and	r2, r2, r3
   14f50:	e51b3014 	ldr	r3, [fp, #-20]	; 0xffffffec
   14f54:	e0221003 	eor	r1, r2, r3
   14f58:	e51b3044 	ldr	r3, [fp, #-68]	; 0xffffffbc
   14f5c:	e1a03463 	ror	r3, r3, #8
   14f60:	e3c328ff 	bic	r2, r3, #16711680	; 0xff0000
   14f64:	e3c220ff 	bic	r2, r2, #255	; 0xff
   14f68:	e51b3044 	ldr	r3, [fp, #-68]	; 0xffffffbc
   14f6c:	e1a03c63 	ror	r3, r3, #24
   14f70:	e3c334ff 	bic	r3, r3, #-16777216	; 0xff000000
   14f74:	e3c33cff 	bic	r3, r3, #65280	; 0xff00
   14f78:	e1823003 	orr	r3, r2, r3
   14f7c:	e50b3044 	str	r3, [fp, #-68]	; 0xffffffbc
   14f80:	e51b3044 	ldr	r3, [fp, #-68]	; 0xffffffbc
   14f84:	e0812003 	add	r2, r1, r3
   14f88:	e51b3008 	ldr	r3, [fp, #-8]
   14f8c:	e1a03de3 	ror	r3, r3, #27
   14f90:	e0822003 	add	r2, r2, r3
   14f94:	e3073999 	movw	r3, #31129	; 0x7999
   14f98:	e3453a82 	movt	r3, #23170	; 0x5a82
   14f9c:	e0823003 	add	r3, r2, r3
   14fa0:	e51b2018 	ldr	r2, [fp, #-24]	; 0xffffffe8
   14fa4:	e0823003 	add	r3, r2, r3
   14fa8:	e50b3018 	str	r3, [fp, #-24]	; 0xffffffe8
   14fac:	e51b300c 	ldr	r3, [fp, #-12]
   14fb0:	e1a03163 	ror	r3, r3, #2
   14fb4:	e50b300c 	str	r3, [fp, #-12]
   14fb8:	e51b200c 	ldr	r2, [fp, #-12]
   14fbc:	e51b3010 	ldr	r3, [fp, #-16]
   14fc0:	e0222003 	eor	r2, r2, r3
   14fc4:	e51b3008 	ldr	r3, [fp, #-8]
   14fc8:	e0022003 	and	r2, r2, r3
   14fcc:	e51b3010 	ldr	r3, [fp, #-16]
   14fd0:	e0221003 	eor	r1, r2, r3
   14fd4:	e51b3040 	ldr	r3, [fp, #-64]	; 0xffffffc0
   14fd8:	e1a03463 	ror	r3, r3, #8
   14fdc:	e3c328ff 	bic	r2, r3, #16711680	; 0xff0000
   14fe0:	e3c220ff 	bic	r2, r2, #255	; 0xff
   14fe4:	e51b3040 	ldr	r3, [fp, #-64]	; 0xffffffc0
   14fe8:	e1a03c63 	ror	r3, r3, #24
   14fec:	e3c334ff 	bic	r3, r3, #-16777216	; 0xff000000
   14ff0:	e3c33cff 	bic	r3, r3, #65280	; 0xff00
   14ff4:	e1823003 	orr	r3, r2, r3
   14ff8:	e50b3040 	str	r3, [fp, #-64]	; 0xffffffc0
   14ffc:	e51b3040 	ldr	r3, [fp, #-64]	; 0xffffffc0
   15000:	e0812003 	add	r2, r1, r3
   15004:	e51b3018 	ldr	r3, [fp, #-24]	; 0xffffffe8
   15008:	e1a03de3 	ror	r3, r3, #27
   1500c:	e0822003 	add	r2, r2, r3
   15010:	e3073999 	movw	r3, #31129	; 0x7999
   15014:	e3453a82 	movt	r3, #23170	; 0x5a82
   15018:	e0823003 	add	r3, r2, r3
   1501c:	e51b2014 	ldr	r2, [fp, #-20]	; 0xffffffec
   15020:	e0823003 	add	r3, r2, r3
   15024:	e50b3014 	str	r3, [fp, #-20]	; 0xffffffec
   15028:	e51b3008 	ldr	r3, [fp, #-8]
   1502c:	e1a03163 	ror	r3, r3, #2
   15030:	e50b3008 	str	r3, [fp, #-8]
   15034:	e51b2008 	ldr	r2, [fp, #-8]
   15038:	e51b300c 	ldr	r3, [fp, #-12]
   1503c:	e0222003 	eor	r2, r2, r3
   15040:	e51b3018 	ldr	r3, [fp, #-24]	; 0xffffffe8
   15044:	e0022003 	and	r2, r2, r3
   15048:	e51b300c 	ldr	r3, [fp, #-12]
   1504c:	e0221003 	eor	r1, r2, r3
   15050:	e51b303c 	ldr	r3, [fp, #-60]	; 0xffffffc4
   15054:	e1a03463 	ror	r3, r3, #8
   15058:	e3c328ff 	bic	r2, r3, #16711680	; 0xff0000
   1505c:	e3c220ff 	bic	r2, r2, #255	; 0xff
   15060:	e51b303c 	ldr	r3, [fp, #-60]	; 0xffffffc4
   15064:	e1a03c63 	ror	r3, r3, #24
   15068:	e3c334ff 	bic	r3, r3, #-16777216	; 0xff000000
   1506c:	e3c33cff 	bic	r3, r3, #65280	; 0xff00
   15070:	e1823003 	orr	r3, r2, r3
   15074:	e50b303c 	str	r3, [fp, #-60]	; 0xffffffc4
   15078:	e51b303c 	ldr	r3, [fp, #-60]	; 0xffffffc4
   1507c:	e0812003 	add	r2, r1, r3
   15080:	e51b3014 	ldr	r3, [fp, #-20]	; 0xffffffec
   15084:	e1a03de3 	ror	r3, r3, #27
   15088:	e0822003 	add	r2, r2, r3
   1508c:	e3073999 	movw	r3, #31129	; 0x7999
   15090:	e3453a82 	movt	r3, #23170	; 0x5a82
   15094:	e0823003 	add	r3, r2, r3
   15098:	e51b2010 	ldr	r2, [fp, #-16]
   1509c:	e0823003 	add	r3, r2, r3
   150a0:	e50b3010 	str	r3, [fp, #-16]
   150a4:	e51b3018 	ldr	r3, [fp, #-24]	; 0xffffffe8
   150a8:	e1a03163 	ror	r3, r3, #2
   150ac:	e50b3018 	str	r3, [fp, #-24]	; 0xffffffe8
   150b0:	e51b2018 	ldr	r2, [fp, #-24]	; 0xffffffe8
   150b4:	e51b3008 	ldr	r3, [fp, #-8]
   150b8:	e0222003 	eor	r2, r2, r3
   150bc:	e51b3014 	ldr	r3, [fp, #-20]	; 0xffffffec
   150c0:	e0022003 	and	r2, r2, r3
   150c4:	e51b3008 	ldr	r3, [fp, #-8]
   150c8:	e0221003 	eor	r1, r2, r3
   150cc:	e51b3038 	ldr	r3, [fp, #-56]	; 0xffffffc8
   150d0:	e1a03463 	ror	r3, r3, #8
   150d4:	e3c328ff 	bic	r2, r3, #16711680	; 0xff0000
   150d8:	e3c220ff 	bic	r2, r2, #255	; 0xff
   150dc:	e51b3038 	ldr	r3, [fp, #-56]	; 0xffffffc8
   150e0:	e1a03c63 	ror	r3, r3, #24
   150e4:	e3c334ff 	bic	r3, r3, #-16777216	; 0xff000000
   150e8:	e3c33cff 	bic	r3, r3, #65280	; 0xff00
   150ec:	e1823003 	orr	r3, r2, r3
   150f0:	e50b3038 	str	r3, [fp, #-56]	; 0xffffffc8
   150f4:	e51b3038 	ldr	r3, [fp, #-56]	; 0xffffffc8
   150f8:	e0812003 	add	r2, r1, r3
   150fc:	e51b3010 	ldr	r3, [fp, #-16]
   15100:	e1a03de3 	ror	r3, r3, #27
   15104:	e0822003 	add	r2, r2, r3
   15108:	e3073999 	movw	r3, #31129	; 0x7999
   1510c:	e3453a82 	movt	r3, #23170	; 0x5a82
   15110:	e0823003 	add	r3, r2, r3
   15114:	e51b200c 	ldr	r2, [fp, #-12]
   15118:	e0823003 	add	r3, r2, r3
   1511c:	e50b300c 	str	r3, [fp, #-12]
   15120:	e51b3014 	ldr	r3, [fp, #-20]	; 0xffffffec
   15124:	e1a03163 	ror	r3, r3, #2
   15128:	e50b3014 	str	r3, [fp, #-20]	; 0xffffffec
   1512c:	e51b2014 	ldr	r2, [fp, #-20]	; 0xffffffec
   15130:	e51b3018 	ldr	r3, [fp, #-24]	; 0xffffffe8
   15134:	e0222003 	eor	r2, r2, r3
   15138:	e51b3010 	ldr	r3, [fp, #-16]
   1513c:	e0022003 	and	r2, r2, r3
   15140:	e51b3018 	ldr	r3, [fp, #-24]	; 0xffffffe8
   15144:	e0221003 	eor	r1, r2, r3
   15148:	e51b3034 	ldr	r3, [fp, #-52]	; 0xffffffcc
   1514c:	e1a03463 	ror	r3, r3, #8
   15150:	e3c328ff 	bic	r2, r3, #16711680	; 0xff0000
   15154:	e3c220ff 	bic	r2, r2, #255	; 0xff
   15158:	e51b3034 	ldr	r3, [fp, #-52]	; 0xffffffcc
   1515c:	e1a03c63 	ror	r3, r3, #24
   15160:	e3c334ff 	bic	r3, r3, #-16777216	; 0xff000000
   15164:	e3c33cff 	bic	r3, r3, #65280	; 0xff00
   15168:	e1823003 	orr	r3, r2, r3
   1516c:	e50b3034 	str	r3, [fp, #-52]	; 0xffffffcc
   15170:	e51b3034 	ldr	r3, [fp, #-52]	; 0xffffffcc
   15174:	e0812003 	add	r2, r1, r3
   15178:	e51b300c 	ldr	r3, [fp, #-12]
   1517c:	e1a03de3 	ror	r3, r3, #27
   15180:	e0822003 	add	r2, r2, r3
   15184:	e3073999 	movw	r3, #31129	; 0x7999
   15188:	e3453a82 	movt	r3, #23170	; 0x5a82
   1518c:	e0823003 	add	r3, r2, r3
   15190:	e51b2008 	ldr	r2, [fp, #-8]
   15194:	e0823003 	add	r3, r2, r3
   15198:	e50b3008 	str	r3, [fp, #-8]
   1519c:	e51b3010 	ldr	r3, [fp, #-16]
   151a0:	e1a03163 	ror	r3, r3, #2
   151a4:	e50b3010 	str	r3, [fp, #-16]
   151a8:	e51b2010 	ldr	r2, [fp, #-16]
   151ac:	e51b3014 	ldr	r3, [fp, #-20]	; 0xffffffec
   151b0:	e0222003 	eor	r2, r2, r3
   151b4:	e51b300c 	ldr	r3, [fp, #-12]
   151b8:	e0022003 	and	r2, r2, r3
   151bc:	e51b3014 	ldr	r3, [fp, #-20]	; 0xffffffec
   151c0:	e0221003 	eor	r1, r2, r3
   151c4:	e51b3030 	ldr	r3, [fp, #-48]	; 0xffffffd0
   151c8:	e1a03463 	ror	r3, r3, #8
   151cc:	e3c328ff 	bic	r2, r3, #16711680	; 0xff0000
   151d0:	e3c220ff 	bic	r2, r2, #255	; 0xff
   151d4:	e51b3030 	ldr	r3, [fp, #-48]	; 0xffffffd0
   151d8:	e1a03c63 	ror	r3, r3, #24
   151dc:	e3c334ff 	bic	r3, r3, #-16777216	; 0xff000000
   151e0:	e3c33cff 	bic	r3, r3, #65280	; 0xff00
   151e4:	e1823003 	orr	r3, r2, r3
   151e8:	e50b3030 	str	r3, [fp, #-48]	; 0xffffffd0
   151ec:	e51b3030 	ldr	r3, [fp, #-48]	; 0xffffffd0
   151f0:	e0812003 	add	r2, r1, r3
   151f4:	e51b3008 	ldr	r3, [fp, #-8]
   151f8:	e1a03de3 	ror	r3, r3, #27
   151fc:	e0822003 	add	r2, r2, r3
   15200:	e3073999 	movw	r3, #31129	; 0x7999
   15204:	e3453a82 	movt	r3, #23170	; 0x5a82
   15208:	e0823003 	add	r3, r2, r3
   1520c:	e51b2018 	ldr	r2, [fp, #-24]	; 0xffffffe8
   15210:	e0823003 	add	r3, r2, r3
   15214:	e50b3018 	str	r3, [fp, #-24]	; 0xffffffe8
   15218:	e51b300c 	ldr	r3, [fp, #-12]
   1521c:	e1a03163 	ror	r3, r3, #2
   15220:	e50b300c 	str	r3, [fp, #-12]
   15224:	e51b200c 	ldr	r2, [fp, #-12]
   15228:	e51b3010 	ldr	r3, [fp, #-16]
   1522c:	e0222003 	eor	r2, r2, r3
   15230:	e51b3008 	ldr	r3, [fp, #-8]
   15234:	e0022003 	and	r2, r2, r3
   15238:	e51b3010 	ldr	r3, [fp, #-16]
   1523c:	e0221003 	eor	r1, r2, r3
   15240:	e51b302c 	ldr	r3, [fp, #-44]	; 0xffffffd4
   15244:	e1a03463 	ror	r3, r3, #8
   15248:	e3c328ff 	bic	r2, r3, #16711680	; 0xff0000
   1524c:	e3c220ff 	bic	r2, r2, #255	; 0xff
   15250:	e51b302c 	ldr	r3, [fp, #-44]	; 0xffffffd4
   15254:	e1a03c63 	ror	r3, r3, #24
   15258:	e3c334ff 	bic	r3, r3, #-16777216	; 0xff000000
   1525c:	e3c33cff 	bic	r3, r3, #65280	; 0xff00
   15260:	e1823003 	orr	r3, r2, r3
   15264:	e50b302c 	str	r3, [fp, #-44]	; 0xffffffd4
   15268:	e51b302c 	ldr	r3, [fp, #-44]	; 0xffffffd4
   1526c:	e0812003 	add	r2, r1, r3
   15270:	e51b3018 	ldr	r3, [fp, #-24]	; 0xffffffe8
   15274:	e1a03de3 	ror	r3, r3, #27
   15278:	e0822003 	add	r2, r2, r3
   1527c:	e3073999 	movw	r3, #31129	; 0x7999
   15280:	e3453a82 	movt	r3, #23170	; 0x5a82
   15284:	e0823003 	add	r3, r2, r3
   15288:	e51b2014 	ldr	r2, [fp, #-20]	; 0xffffffec
   1528c:	e0823003 	add	r3, r2, r3
   15290:	e50b3014 	str	r3, [fp, #-20]	; 0xffffffec
   15294:	e51b3008 	ldr	r3, [fp, #-8]
   15298:	e1a03163 	ror	r3, r3, #2
   1529c:	e50b3008 	str	r3, [fp, #-8]
   152a0:	e51b2008 	ldr	r2, [fp, #-8]
   152a4:	e51b300c 	ldr	r3, [fp, #-12]
   152a8:	e0222003 	eor	r2, r2, r3
   152ac:	e51b3018 	ldr	r3, [fp, #-24]	; 0xffffffe8
   152b0:	e0022003 	and	r2, r2, r3
   152b4:	e51b300c 	ldr	r3, [fp, #-12]
   152b8:	e0221003 	eor	r1, r2, r3
   152bc:	e51b3028 	ldr	r3, [fp, #-40]	; 0xffffffd8
   152c0:	e1a03463 	ror	r3, r3, #8
   152c4:	e3c328ff 	bic	r2, r3, #16711680	; 0xff0000
   152c8:	e3c220ff 	bic	r2, r2, #255	; 0xff
   152cc:	e51b3028 	ldr	r3, [fp, #-40]	; 0xffffffd8
   152d0:	e1a03c63 	ror	r3, r3, #24
   152d4:	e3c334ff 	bic	r3, r3, #-16777216	; 0xff000000
   152d8:	e3c33cff 	bic	r3, r3, #65280	; 0xff00
   152dc:	e1823003 	orr	r3, r2, r3
   152e0:	e50b3028 	str	r3, [fp, #-40]	; 0xffffffd8
   152e4:	e51b3028 	ldr	r3, [fp, #-40]	; 0xffffffd8
   152e8:	e0812003 	add	r2, r1, r3
   152ec:	e51b3014 	ldr	r3, [fp, #-20]	; 0xffffffec
   152f0:	e1a03de3 	ror	r3, r3, #27
   152f4:	e0822003 	add	r2, r2, r3
   152f8:	e3073999 	movw	r3, #31129	; 0x7999
   152fc:	e3453a82 	movt	r3, #23170	; 0x5a82
   15300:	e0823003 	add	r3, r2, r3
   15304:	e51b2010 	ldr	r2, [fp, #-16]
   15308:	e0823003 	add	r3, r2, r3
   1530c:	e50b3010 	str	r3, [fp, #-16]
   15310:	e51b3018 	ldr	r3, [fp, #-24]	; 0xffffffe8
   15314:	e1a03163 	ror	r3, r3, #2
   15318:	e50b3018 	str	r3, [fp, #-24]	; 0xffffffe8
   1531c:	e51b2018 	ldr	r2, [fp, #-24]	; 0xffffffe8
   15320:	e51b3008 	ldr	r3, [fp, #-8]
   15324:	e0222003 	eor	r2, r2, r3
   15328:	e51b3014 	ldr	r3, [fp, #-20]	; 0xffffffec
   1532c:	e0022003 	and	r2, r2, r3
   15330:	e51b3008 	ldr	r3, [fp, #-8]
   15334:	e0221003 	eor	r1, r2, r3
   15338:	e51b3024 	ldr	r3, [fp, #-36]	; 0xffffffdc
   1533c:	e1a03463 	ror	r3, r3, #8
   15340:	e3c328ff 	bic	r2, r3, #16711680	; 0xff0000
   15344:	e3c220ff 	bic	r2, r2, #255	; 0xff
   15348:	e51b3024 	ldr	r3, [fp, #-36]	; 0xffffffdc
   1534c:	e1a03c63 	ror	r3, r3, #24
   15350:	e3c334ff 	bic	r3, r3, #-16777216	; 0xff000000
   15354:	e3c33cff 	bic	r3, r3, #65280	; 0xff00
   15358:	e1823003 	orr	r3, r2, r3
   1535c:	e50b3024 	str	r3, [fp, #-36]	; 0xffffffdc
   15360:	e51b3024 	ldr	r3, [fp, #-36]	; 0xffffffdc
   15364:	e0812003 	add	r2, r1, r3
   15368:	e51b3010 	ldr	r3, [fp, #-16]
   1536c:	e1a03de3 	ror	r3, r3, #27
   15370:	e0822003 	add	r2, r2, r3
   15374:	e3073999 	movw	r3, #31129	; 0x7999
   15378:	e3453a82 	movt	r3, #23170	; 0x5a82
   1537c:	e0823003 	add	r3, r2, r3
   15380:	e51b200c 	ldr	r2, [fp, #-12]
   15384:	e0823003 	add	r3, r2, r3
   15388:	e50b300c 	str	r3, [fp, #-12]
   1538c:	e51b3014 	ldr	r3, [fp, #-20]	; 0xffffffec
   15390:	e1a03163 	ror	r3, r3, #2
   15394:	e50b3014 	str	r3, [fp, #-20]	; 0xffffffec
   15398:	e51b2014 	ldr	r2, [fp, #-20]	; 0xffffffec
   1539c:	e51b3018 	ldr	r3, [fp, #-24]	; 0xffffffe8
   153a0:	e0222003 	eor	r2, r2, r3
   153a4:	e51b3010 	ldr	r3, [fp, #-16]
   153a8:	e0022003 	and	r2, r2, r3
   153ac:	e51b3018 	ldr	r3, [fp, #-24]	; 0xffffffe8
   153b0:	e0221003 	eor	r1, r2, r3
   153b4:	e51b3020 	ldr	r3, [fp, #-32]	; 0xffffffe0
   153b8:	e1a03463 	ror	r3, r3, #8
   153bc:	e3c328ff 	bic	r2, r3, #16711680	; 0xff0000
   153c0:	e3c220ff 	bic	r2, r2, #255	; 0xff
   153c4:	e51b3020 	ldr	r3, [fp, #-32]	; 0xffffffe0
   153c8:	e1a03c63 	ror	r3, r3, #24
   153cc:	e3c334ff 	bic	r3, r3, #-16777216	; 0xff000000
   153d0:	e3c33cff 	bic	r3, r3, #65280	; 0xff00
   153d4:	e1823003 	orr	r3, r2, r3
   153d8:	e50b3020 	str	r3, [fp, #-32]	; 0xffffffe0
   153dc:	e51b3020 	ldr	r3, [fp, #-32]	; 0xffffffe0
   153e0:	e0812003 	add	r2, r1, r3
   153e4:	e51b300c 	ldr	r3, [fp, #-12]
   153e8:	e1a03de3 	ror	r3, r3, #27
   153ec:	e0822003 	add	r2, r2, r3
   153f0:	e3073999 	movw	r3, #31129	; 0x7999
   153f4:	e3453a82 	movt	r3, #23170	; 0x5a82
   153f8:	e0823003 	add	r3, r2, r3
   153fc:	e51b2008 	ldr	r2, [fp, #-8]
   15400:	e0823003 	add	r3, r2, r3
   15404:	e50b3008 	str	r3, [fp, #-8]
   15408:	e51b3010 	ldr	r3, [fp, #-16]
   1540c:	e1a03163 	ror	r3, r3, #2
   15410:	e50b3010 	str	r3, [fp, #-16]
   15414:	e51b2010 	ldr	r2, [fp, #-16]
   15418:	e51b3014 	ldr	r3, [fp, #-20]	; 0xffffffec
   1541c:	e0222003 	eor	r2, r2, r3
   15420:	e51b300c 	ldr	r3, [fp, #-12]
   15424:	e0022003 	and	r2, r2, r3
   15428:	e51b3014 	ldr	r3, [fp, #-20]	; 0xffffffec
   1542c:	e0221003 	eor	r1, r2, r3
   15430:	e51b301c 	ldr	r3, [fp, #-28]	; 0xffffffe4
   15434:	e1a03463 	ror	r3, r3, #8
   15438:	e3c328ff 	bic	r2, r3, #16711680	; 0xff0000
   1543c:	e3c220ff 	bic	r2, r2, #255	; 0xff
   15440:	e51b301c 	ldr	r3, [fp, #-28]	; 0xffffffe4
   15444:	e1a03c63 	ror	r3, r3, #24
   15448:	e3c334ff 	bic	r3, r3, #-16777216	; 0xff000000
   1544c:	e3c33cff 	bic	r3, r3, #65280	; 0xff00
   15450:	e1823003 	orr	r3, r2, r3
   15454:	e50b301c 	str	r3, [fp, #-28]	; 0xffffffe4
   15458:	e51b301c 	ldr	r3, [fp, #-28]	; 0xffffffe4
   1545c:	e0812003 	add	r2, r1, r3
   15460:	e51b3008 	ldr	r3, [fp, #-8]
   15464:	e1a03de3 	ror	r3, r3, #27
   15468:	e0822003 	add	r2, r2, r3
   1546c:	e3073999 	movw	r3, #31129	; 0x7999
   15470:	e3453a82 	movt	r3, #23170	; 0x5a82
   15474:	e0823003 	add	r3, r2, r3
   15478:	e51b2018 	ldr	r2, [fp, #-24]	; 0xffffffe8
   1547c:	e0823003 	add	r3, r2, r3
   15480:	e50b3018 	str	r3, [fp, #-24]	; 0xffffffe8
   15484:	e51b300c 	ldr	r3, [fp, #-12]
   15488:	e1a03163 	ror	r3, r3, #2
   1548c:	e50b300c 	str	r3, [fp, #-12]
   15490:	e51b200c 	ldr	r2, [fp, #-12]
   15494:	e51b3010 	ldr	r3, [fp, #-16]
   15498:	e0222003 	eor	r2, r2, r3
   1549c:	e51b3008 	ldr	r3, [fp, #-8]
   154a0:	e0022003 	and	r2, r2, r3
   154a4:	e51b3010 	ldr	r3, [fp, #-16]
   154a8:	e0222003 	eor	r2, r2, r3
   154ac:	e51b1024 	ldr	r1, [fp, #-36]	; 0xffffffdc
   154b0:	e51b3038 	ldr	r3, [fp, #-56]	; 0xffffffc8
   154b4:	e0211003 	eor	r1, r1, r3
   154b8:	e51b3050 	ldr	r3, [fp, #-80]	; 0xffffffb0
   154bc:	e0211003 	eor	r1, r1, r3
   154c0:	e51b3058 	ldr	r3, [fp, #-88]	; 0xffffffa8
   154c4:	e0233001 	eor	r3, r3, r1
   154c8:	e1a03fe3 	ror	r3, r3, #31
   154cc:	e50b3058 	str	r3, [fp, #-88]	; 0xffffffa8
   154d0:	e51b3058 	ldr	r3, [fp, #-88]	; 0xffffffa8
   154d4:	e0822003 	add	r2, r2, r3
   154d8:	e51b3018 	ldr	r3, [fp, #-24]	; 0xffffffe8
   154dc:	e1a03de3 	ror	r3, r3, #27
   154e0:	e0822003 	add	r2, r2, r3
   154e4:	e3073999 	movw	r3, #31129	; 0x7999
   154e8:	e3453a82 	movt	r3, #23170	; 0x5a82
   154ec:	e0823003 	add	r3, r2, r3
   154f0:	e51b2014 	ldr	r2, [fp, #-20]	; 0xffffffec
   154f4:	e0823003 	add	r3, r2, r3
   154f8:	e50b3014 	str	r3, [fp, #-20]	; 0xffffffec
   154fc:	e51b3008 	ldr	r3, [fp, #-8]
   15500:	e1a03163 	ror	r3, r3, #2
   15504:	e50b3008 	str	r3, [fp, #-8]
   15508:	e51b2008 	ldr	r2, [fp, #-8]
   1550c:	e51b300c 	ldr	r3, [fp, #-12]
   15510:	e0222003 	eor	r2, r2, r3
   15514:	e51b3018 	ldr	r3, [fp, #-24]	; 0xffffffe8
   15518:	e0022003 	and	r2, r2, r3
   1551c:	e51b300c 	ldr	r3, [fp, #-12]
   15520:	e0222003 	eor	r2, r2, r3
   15524:	e51b1020 	ldr	r1, [fp, #-32]	; 0xffffffe0
   15528:	e51b3034 	ldr	r3, [fp, #-52]	; 0xffffffcc
   1552c:	e0211003 	eor	r1, r1, r3
   15530:	e51b304c 	ldr	r3, [fp, #-76]	; 0xffffffb4
   15534:	e0211003 	eor	r1, r1, r3
   15538:	e51b3054 	ldr	r3, [fp, #-84]	; 0xffffffac
   1553c:	e0233001 	eor	r3, r3, r1
   15540:	e1a03fe3 	ror	r3, r3, #31
   15544:	e50b3054 	str	r3, [fp, #-84]	; 0xffffffac
   15548:	e51b3054 	ldr	r3, [fp, #-84]	; 0xffffffac
   1554c:	e0822003 	add	r2, r2, r3
   15550:	e51b3014 	ldr	r3, [fp, #-20]	; 0xffffffec
   15554:	e1a03de3 	ror	r3, r3, #27
   15558:	e0822003 	add	r2, r2, r3
   1555c:	e3073999 	movw	r3, #31129	; 0x7999
   15560:	e3453a82 	movt	r3, #23170	; 0x5a82
   15564:	e0823003 	add	r3, r2, r3
   15568:	e51b2010 	ldr	r2, [fp, #-16]
   1556c:	e0823003 	add	r3, r2, r3
   15570:	e50b3010 	str	r3, [fp, #-16]
   15574:	e51b3018 	ldr	r3, [fp, #-24]	; 0xffffffe8
   15578:	e1a03163 	ror	r3, r3, #2
   1557c:	e50b3018 	str	r3, [fp, #-24]	; 0xffffffe8
   15580:	e51b2018 	ldr	r2, [fp, #-24]	; 0xffffffe8
   15584:	e51b3008 	ldr	r3, [fp, #-8]
   15588:	e0222003 	eor	r2, r2, r3
   1558c:	e51b3014 	ldr	r3, [fp, #-20]	; 0xffffffec
   15590:	e0022003 	and	r2, r2, r3
   15594:	e51b3008 	ldr	r3, [fp, #-8]
   15598:	e0222003 	eor	r2, r2, r3
   1559c:	e51b101c 	ldr	r1, [fp, #-28]	; 0xffffffe4
   155a0:	e51b3030 	ldr	r3, [fp, #-48]	; 0xffffffd0
   155a4:	e0211003 	eor	r1, r1, r3
   155a8:	e51b3048 	ldr	r3, [fp, #-72]	; 0xffffffb8
   155ac:	e0211003 	eor	r1, r1, r3
   155b0:	e51b3050 	ldr	r3, [fp, #-80]	; 0xffffffb0
   155b4:	e0233001 	eor	r3, r3, r1
   155b8:	e1a03fe3 	ror	r3, r3, #31
   155bc:	e50b3050 	str	r3, [fp, #-80]	; 0xffffffb0
   155c0:	e51b3050 	ldr	r3, [fp, #-80]	; 0xffffffb0
   155c4:	e0822003 	add	r2, r2, r3
   155c8:	e51b3010 	ldr	r3, [fp, #-16]
   155cc:	e1a03de3 	ror	r3, r3, #27
   155d0:	e0822003 	add	r2, r2, r3
   155d4:	e3073999 	movw	r3, #31129	; 0x7999
   155d8:	e3453a82 	movt	r3, #23170	; 0x5a82
   155dc:	e0823003 	add	r3, r2, r3
   155e0:	e51b200c 	ldr	r2, [fp, #-12]
   155e4:	e0823003 	add	r3, r2, r3
   155e8:	e50b300c 	str	r3, [fp, #-12]
   155ec:	e51b3014 	ldr	r3, [fp, #-20]	; 0xffffffec
   155f0:	e1a03163 	ror	r3, r3, #2
   155f4:	e50b3014 	str	r3, [fp, #-20]	; 0xffffffec
   155f8:	e51b2014 	ldr	r2, [fp, #-20]	; 0xffffffec
   155fc:	e51b3018 	ldr	r3, [fp, #-24]	; 0xffffffe8
   15600:	e0222003 	eor	r2, r2, r3
   15604:	e51b3010 	ldr	r3, [fp, #-16]
   15608:	e0022003 	and	r2, r2, r3
   1560c:	e51b3018 	ldr	r3, [fp, #-24]	; 0xffffffe8
   15610:	e0222003 	eor	r2, r2, r3
   15614:	e51b1058 	ldr	r1, [fp, #-88]	; 0xffffffa8
   15618:	e51b302c 	ldr	r3, [fp, #-44]	; 0xffffffd4
   1561c:	e0211003 	eor	r1, r1, r3
   15620:	e51b3044 	ldr	r3, [fp, #-68]	; 0xffffffbc
   15624:	e0211003 	eor	r1, r1, r3
   15628:	e51b304c 	ldr	r3, [fp, #-76]	; 0xffffffb4
   1562c:	e0233001 	eor	r3, r3, r1
   15630:	e1a03fe3 	ror	r3, r3, #31
   15634:	e50b304c 	str	r3, [fp, #-76]	; 0xffffffb4
   15638:	e51b304c 	ldr	r3, [fp, #-76]	; 0xffffffb4
   1563c:	e0822003 	add	r2, r2, r3
   15640:	e51b300c 	ldr	r3, [fp, #-12]
   15644:	e1a03de3 	ror	r3, r3, #27
   15648:	e0822003 	add	r2, r2, r3
   1564c:	e3073999 	movw	r3, #31129	; 0x7999
   15650:	e3453a82 	movt	r3, #23170	; 0x5a82
   15654:	e0823003 	add	r3, r2, r3
   15658:	e51b2008 	ldr	r2, [fp, #-8]
   1565c:	e0823003 	add	r3, r2, r3
   15660:	e50b3008 	str	r3, [fp, #-8]
   15664:	e51b3010 	ldr	r3, [fp, #-16]
   15668:	e1a03163 	ror	r3, r3, #2
   1566c:	e50b3010 	str	r3, [fp, #-16]
   15670:	e51b200c 	ldr	r2, [fp, #-12]
   15674:	e51b3010 	ldr	r3, [fp, #-16]
   15678:	e0222003 	eor	r2, r2, r3
   1567c:	e51b3014 	ldr	r3, [fp, #-20]	; 0xffffffec
   15680:	e0222003 	eor	r2, r2, r3
   15684:	e51b1054 	ldr	r1, [fp, #-84]	; 0xffffffac
   15688:	e51b3028 	ldr	r3, [fp, #-40]	; 0xffffffd8
   1568c:	e0211003 	eor	r1, r1, r3
   15690:	e51b3040 	ldr	r3, [fp, #-64]	; 0xffffffc0
   15694:	e0211003 	eor	r1, r1, r3
   15698:	e51b3048 	ldr	r3, [fp, #-72]	; 0xffffffb8
   1569c:	e0233001 	eor	r3, r3, r1
   156a0:	e1a03fe3 	ror	r3, r3, #31
   156a4:	e50b3048 	str	r3, [fp, #-72]	; 0xffffffb8
   156a8:	e51b3048 	ldr	r3, [fp, #-72]	; 0xffffffb8
   156ac:	e0822003 	add	r2, r2, r3
   156b0:	e51b3008 	ldr	r3, [fp, #-8]
   156b4:	e1a03de3 	ror	r3, r3, #27
   156b8:	e0822003 	add	r2, r2, r3
   156bc:	e30e3ba1 	movw	r3, #60321	; 0xeba1
   156c0:	e3463ed9 	movt	r3, #28377	; 0x6ed9
   156c4:	e0823003 	add	r3, r2, r3
   156c8:	e51b2018 	ldr	r2, [fp, #-24]	; 0xffffffe8
   156cc:	e0823003 	add	r3, r2, r3
   156d0:	e50b3018 	str	r3, [fp, #-24]	; 0xffffffe8
   156d4:	e51b300c 	ldr	r3, [fp, #-12]
   156d8:	e1a03163 	ror	r3, r3, #2
   156dc:	e50b300c 	str	r3, [fp, #-12]
   156e0:	e51b2008 	ldr	r2, [fp, #-8]
   156e4:	e51b300c 	ldr	r3, [fp, #-12]
   156e8:	e0222003 	eor	r2, r2, r3
   156ec:	e51b3010 	ldr	r3, [fp, #-16]
   156f0:	e0222003 	eor	r2, r2, r3
   156f4:	e51b1050 	ldr	r1, [fp, #-80]	; 0xffffffb0
   156f8:	e51b3024 	ldr	r3, [fp, #-36]	; 0xffffffdc
   156fc:	e0211003 	eor	r1, r1, r3
   15700:	e51b303c 	ldr	r3, [fp, #-60]	; 0xffffffc4
   15704:	e0211003 	eor	r1, r1, r3
   15708:	e51b3044 	ldr	r3, [fp, #-68]	; 0xffffffbc
   1570c:	e0233001 	eor	r3, r3, r1
   15710:	e1a03fe3 	ror	r3, r3, #31
   15714:	e50b3044 	str	r3, [fp, #-68]	; 0xffffffbc
   15718:	e51b3044 	ldr	r3, [fp, #-68]	; 0xffffffbc
   1571c:	e0822003 	add	r2, r2, r3
   15720:	e51b3018 	ldr	r3, [fp, #-24]	; 0xffffffe8
   15724:	e1a03de3 	ror	r3, r3, #27
   15728:	e0822003 	add	r2, r2, r3
   1572c:	e30e3ba1 	movw	r3, #60321	; 0xeba1
   15730:	e3463ed9 	movt	r3, #28377	; 0x6ed9
   15734:	e0823003 	add	r3, r2, r3
   15738:	e51b2014 	ldr	r2, [fp, #-20]	; 0xffffffec
   1573c:	e0823003 	add	r3, r2, r3
   15740:	e50b3014 	str	r3, [fp, #-20]	; 0xffffffec
   15744:	e51b3008 	ldr	r3, [fp, #-8]
   15748:	e1a03163 	ror	r3, r3, #2
   1574c:	e50b3008 	str	r3, [fp, #-8]
   15750:	e51b2018 	ldr	r2, [fp, #-24]	; 0xffffffe8
   15754:	e51b3008 	ldr	r3, [fp, #-8]
   15758:	e0222003 	eor	r2, r2, r3
   1575c:	e51b300c 	ldr	r3, [fp, #-12]
   15760:	e0222003 	eor	r2, r2, r3
   15764:	e51b104c 	ldr	r1, [fp, #-76]	; 0xffffffb4
   15768:	e51b3020 	ldr	r3, [fp, #-32]	; 0xffffffe0
   1576c:	e0211003 	eor	r1, r1, r3
   15770:	e51b3038 	ldr	r3, [fp, #-56]	; 0xffffffc8
   15774:	e0211003 	eor	r1, r1, r3
   15778:	e51b3040 	ldr	r3, [fp, #-64]	; 0xffffffc0
   1577c:	e0233001 	eor	r3, r3, r1
   15780:	e1a03fe3 	ror	r3, r3, #31
   15784:	e50b3040 	str	r3, [fp, #-64]	; 0xffffffc0
   15788:	e51b3040 	ldr	r3, [fp, #-64]	; 0xffffffc0
   1578c:	e0822003 	add	r2, r2, r3
   15790:	e51b3014 	ldr	r3, [fp, #-20]	; 0xffffffec
   15794:	e1a03de3 	ror	r3, r3, #27
   15798:	e0822003 	add	r2, r2, r3
   1579c:	e30e3ba1 	movw	r3, #60321	; 0xeba1
   157a0:	e3463ed9 	movt	r3, #28377	; 0x6ed9
   157a4:	e0823003 	add	r3, r2, r3
   157a8:	e51b2010 	ldr	r2, [fp, #-16]
   157ac:	e0823003 	add	r3, r2, r3
   157b0:	e50b3010 	str	r3, [fp, #-16]
   157b4:	e51b3018 	ldr	r3, [fp, #-24]	; 0xffffffe8
   157b8:	e1a03163 	ror	r3, r3, #2
   157bc:	e50b3018 	str	r3, [fp, #-24]	; 0xffffffe8
   157c0:	e51b2014 	ldr	r2, [fp, #-20]	; 0xffffffec
   157c4:	e51b3018 	ldr	r3, [fp, #-24]	; 0xffffffe8
   157c8:	e0222003 	eor	r2, r2, r3
   157cc:	e51b3008 	ldr	r3, [fp, #-8]
   157d0:	e0222003 	eor	r2, r2, r3
   157d4:	e51b1048 	ldr	r1, [fp, #-72]	; 0xffffffb8
   157d8:	e51b301c 	ldr	r3, [fp, #-28]	; 0xffffffe4
   157dc:	e0211003 	eor	r1, r1, r3
   157e0:	e51b3034 	ldr	r3, [fp, #-52]	; 0xffffffcc
   157e4:	e0211003 	eor	r1, r1, r3
   157e8:	e51b303c 	ldr	r3, [fp, #-60]	; 0xffffffc4
   157ec:	e0233001 	eor	r3, r3, r1
   157f0:	e1a03fe3 	ror	r3, r3, #31
   157f4:	e50b303c 	str	r3, [fp, #-60]	; 0xffffffc4
   157f8:	e51b303c 	ldr	r3, [fp, #-60]	; 0xffffffc4
   157fc:	e0822003 	add	r2, r2, r3
   15800:	e51b3010 	ldr	r3, [fp, #-16]
   15804:	e1a03de3 	ror	r3, r3, #27
   15808:	e0822003 	add	r2, r2, r3
   1580c:	e30e3ba1 	movw	r3, #60321	; 0xeba1
   15810:	e3463ed9 	movt	r3, #28377	; 0x6ed9
   15814:	e0823003 	add	r3, r2, r3
   15818:	e51b200c 	ldr	r2, [fp, #-12]
   1581c:	e0823003 	add	r3, r2, r3
   15820:	e50b300c 	str	r3, [fp, #-12]
   15824:	e51b3014 	ldr	r3, [fp, #-20]	; 0xffffffec
   15828:	e1a03163 	ror	r3, r3, #2
   1582c:	e50b3014 	str	r3, [fp, #-20]	; 0xffffffec
   15830:	e51b2010 	ldr	r2, [fp, #-16]
   15834:	e51b3014 	ldr	r3, [fp, #-20]	; 0xffffffec
   15838:	e0222003 	eor	r2, r2, r3
   1583c:	e51b3018 	ldr	r3, [fp, #-24]	; 0xffffffe8
   15840:	e0222003 	eor	r2, r2, r3
   15844:	e51b1044 	ldr	r1, [fp, #-68]	; 0xffffffbc
   15848:	e51b3058 	ldr	r3, [fp, #-88]	; 0xffffffa8
   1584c:	e0211003 	eor	r1, r1, r3
   15850:	e51b3030 	ldr	r3, [fp, #-48]	; 0xffffffd0
   15854:	e0211003 	eor	r1, r1, r3
   15858:	e51b3038 	ldr	r3, [fp, #-56]	; 0xffffffc8
   1585c:	e0233001 	eor	r3, r3, r1
   15860:	e1a03fe3 	ror	r3, r3, #31
   15864:	e50b3038 	str	r3, [fp, #-56]	; 0xffffffc8
   15868:	e51b3038 	ldr	r3, [fp, #-56]	; 0xffffffc8
   1586c:	e0822003 	add	r2, r2, r3
   15870:	e51b300c 	ldr	r3, [fp, #-12]
   15874:	e1a03de3 	ror	r3, r3, #27
   15878:	e0822003 	add	r2, r2, r3
   1587c:	e30e3ba1 	movw	r3, #60321	; 0xeba1
   15880:	e3463ed9 	movt	r3, #28377	; 0x6ed9
   15884:	e0823003 	add	r3, r2, r3
   15888:	e51b2008 	ldr	r2, [fp, #-8]
   1588c:	e0823003 	add	r3, r2, r3
   15890:	e50b3008 	str	r3, [fp, #-8]
   15894:	e51b3010 	ldr	r3, [fp, #-16]
   15898:	e1a03163 	ror	r3, r3, #2
   1589c:	e50b3010 	str	r3, [fp, #-16]
   158a0:	e51b200c 	ldr	r2, [fp, #-12]
   158a4:	e51b3010 	ldr	r3, [fp, #-16]
   158a8:	e0222003 	eor	r2, r2, r3
   158ac:	e51b3014 	ldr	r3, [fp, #-20]	; 0xffffffec
   158b0:	e0222003 	eor	r2, r2, r3
   158b4:	e51b1040 	ldr	r1, [fp, #-64]	; 0xffffffc0
   158b8:	e51b3054 	ldr	r3, [fp, #-84]	; 0xffffffac
   158bc:	e0211003 	eor	r1, r1, r3
   158c0:	e51b302c 	ldr	r3, [fp, #-44]	; 0xffffffd4
   158c4:	e0211003 	eor	r1, r1, r3
   158c8:	e51b3034 	ldr	r3, [fp, #-52]	; 0xffffffcc
   158cc:	e0233001 	eor	r3, r3, r1
   158d0:	e1a03fe3 	ror	r3, r3, #31
   158d4:	e50b3034 	str	r3, [fp, #-52]	; 0xffffffcc
   158d8:	e51b3034 	ldr	r3, [fp, #-52]	; 0xffffffcc
   158dc:	e0822003 	add	r2, r2, r3
   158e0:	e51b3008 	ldr	r3, [fp, #-8]
   158e4:	e1a03de3 	ror	r3, r3, #27
   158e8:	e0822003 	add	r2, r2, r3
   158ec:	e30e3ba1 	movw	r3, #60321	; 0xeba1
   158f0:	e3463ed9 	movt	r3, #28377	; 0x6ed9
   158f4:	e0823003 	add	r3, r2, r3
   158f8:	e51b2018 	ldr	r2, [fp, #-24]	; 0xffffffe8
   158fc:	e0823003 	add	r3, r2, r3
   15900:	e50b3018 	str	r3, [fp, #-24]	; 0xffffffe8
   15904:	e51b300c 	ldr	r3, [fp, #-12]
   15908:	e1a03163 	ror	r3, r3, #2
   1590c:	e50b300c 	str	r3, [fp, #-12]
   15910:	e51b2008 	ldr	r2, [fp, #-8]
   15914:	e51b300c 	ldr	r3, [fp, #-12]
   15918:	e0222003 	eor	r2, r2, r3
   1591c:	e51b3010 	ldr	r3, [fp, #-16]
   15920:	e0222003 	eor	r2, r2, r3
   15924:	e51b103c 	ldr	r1, [fp, #-60]	; 0xffffffc4
   15928:	e51b3050 	ldr	r3, [fp, #-80]	; 0xffffffb0
   1592c:	e0211003 	eor	r1, r1, r3
   15930:	e51b3028 	ldr	r3, [fp, #-40]	; 0xffffffd8
   15934:	e0211003 	eor	r1, r1, r3
   15938:	e51b3030 	ldr	r3, [fp, #-48]	; 0xffffffd0
   1593c:	e0233001 	eor	r3, r3, r1
   15940:	e1a03fe3 	ror	r3, r3, #31
   15944:	e50b3030 	str	r3, [fp, #-48]	; 0xffffffd0
   15948:	e51b3030 	ldr	r3, [fp, #-48]	; 0xffffffd0
   1594c:	e0822003 	add	r2, r2, r3
   15950:	e51b3018 	ldr	r3, [fp, #-24]	; 0xffffffe8
   15954:	e1a03de3 	ror	r3, r3, #27
   15958:	e0822003 	add	r2, r2, r3
   1595c:	e30e3ba1 	movw	r3, #60321	; 0xeba1
   15960:	e3463ed9 	movt	r3, #28377	; 0x6ed9
   15964:	e0823003 	add	r3, r2, r3
   15968:	e51b2014 	ldr	r2, [fp, #-20]	; 0xffffffec
   1596c:	e0823003 	add	r3, r2, r3
   15970:	e50b3014 	str	r3, [fp, #-20]	; 0xffffffec
   15974:	e51b3008 	ldr	r3, [fp, #-8]
   15978:	e1a03163 	ror	r3, r3, #2
   1597c:	e50b3008 	str	r3, [fp, #-8]
   15980:	e51b2018 	ldr	r2, [fp, #-24]	; 0xffffffe8
   15984:	e51b3008 	ldr	r3, [fp, #-8]
   15988:	e0222003 	eor	r2, r2, r3
   1598c:	e51b300c 	ldr	r3, [fp, #-12]
   15990:	e0222003 	eor	r2, r2, r3
   15994:	e51b1038 	ldr	r1, [fp, #-56]	; 0xffffffc8
   15998:	e51b304c 	ldr	r3, [fp, #-76]	; 0xffffffb4
   1599c:	e0211003 	eor	r1, r1, r3
   159a0:	e51b3024 	ldr	r3, [fp, #-36]	; 0xffffffdc
   159a4:	e0211003 	eor	r1, r1, r3
   159a8:	e51b302c 	ldr	r3, [fp, #-44]	; 0xffffffd4
   159ac:	e0233001 	eor	r3, r3, r1
   159b0:	e1a03fe3 	ror	r3, r3, #31
   159b4:	e50b302c 	str	r3, [fp, #-44]	; 0xffffffd4
   159b8:	e51b302c 	ldr	r3, [fp, #-44]	; 0xffffffd4
   159bc:	e0822003 	add	r2, r2, r3
   159c0:	e51b3014 	ldr	r3, [fp, #-20]	; 0xffffffec
   159c4:	e1a03de3 	ror	r3, r3, #27
   159c8:	e0822003 	add	r2, r2, r3
   159cc:	e30e3ba1 	movw	r3, #60321	; 0xeba1
   159d0:	e3463ed9 	movt	r3, #28377	; 0x6ed9
   159d4:	e0823003 	add	r3, r2, r3
   159d8:	e51b2010 	ldr	r2, [fp, #-16]
   159dc:	e0823003 	add	r3, r2, r3
   159e0:	e50b3010 	str	r3, [fp, #-16]
   159e4:	e51b3018 	ldr	r3, [fp, #-24]	; 0xffffffe8
   159e8:	e1a03163 	ror	r3, r3, #2
   159ec:	e50b3018 	str	r3, [fp, #-24]	; 0xffffffe8
   159f0:	e51b2014 	ldr	r2, [fp, #-20]	; 0xffffffec
   159f4:	e51b3018 	ldr	r3, [fp, #-24]	; 0xffffffe8
   159f8:	e0222003 	eor	r2, r2, r3
   159fc:	e51b3008 	ldr	r3, [fp, #-8]
   15a00:	e0222003 	eor	r2, r2, r3
   15a04:	e51b1034 	ldr	r1, [fp, #-52]	; 0xffffffcc
   15a08:	e51b3048 	ldr	r3, [fp, #-72]	; 0xffffffb8
   15a0c:	e0211003 	eor	r1, r1, r3
   15a10:	e51b3020 	ldr	r3, [fp, #-32]	; 0xffffffe0
   15a14:	e0211003 	eor	r1, r1, r3
   15a18:	e51b3028 	ldr	r3, [fp, #-40]	; 0xffffffd8
   15a1c:	e0233001 	eor	r3, r3, r1
   15a20:	e1a03fe3 	ror	r3, r3, #31
   15a24:	e50b3028 	str	r3, [fp, #-40]	; 0xffffffd8
   15a28:	e51b3028 	ldr	r3, [fp, #-40]	; 0xffffffd8
   15a2c:	e0822003 	add	r2, r2, r3
   15a30:	e51b3010 	ldr	r3, [fp, #-16]
   15a34:	e1a03de3 	ror	r3, r3, #27
   15a38:	e0822003 	add	r2, r2, r3
   15a3c:	e30e3ba1 	movw	r3, #60321	; 0xeba1
   15a40:	e3463ed9 	movt	r3, #28377	; 0x6ed9
   15a44:	e0823003 	add	r3, r2, r3
   15a48:	e51b200c 	ldr	r2, [fp, #-12]
   15a4c:	e0823003 	add	r3, r2, r3
   15a50:	e50b300c 	str	r3, [fp, #-12]
   15a54:	e51b3014 	ldr	r3, [fp, #-20]	; 0xffffffec
   15a58:	e1a03163 	ror	r3, r3, #2
   15a5c:	e50b3014 	str	r3, [fp, #-20]	; 0xffffffec
   15a60:	e51b2010 	ldr	r2, [fp, #-16]
   15a64:	e51b3014 	ldr	r3, [fp, #-20]	; 0xffffffec
   15a68:	e0222003 	eor	r2, r2, r3
   15a6c:	e51b3018 	ldr	r3, [fp, #-24]	; 0xffffffe8
   15a70:	e0222003 	eor	r2, r2, r3
   15a74:	e51b1030 	ldr	r1, [fp, #-48]	; 0xffffffd0
   15a78:	e51b3044 	ldr	r3, [fp, #-68]	; 0xffffffbc
   15a7c:	e0211003 	eor	r1, r1, r3
   15a80:	e51b301c 	ldr	r3, [fp, #-28]	; 0xffffffe4
   15a84:	e0211003 	eor	r1, r1, r3
   15a88:	e51b3024 	ldr	r3, [fp, #-36]	; 0xffffffdc
   15a8c:	e0233001 	eor	r3, r3, r1
   15a90:	e1a03fe3 	ror	r3, r3, #31
   15a94:	e50b3024 	str	r3, [fp, #-36]	; 0xffffffdc
   15a98:	e51b3024 	ldr	r3, [fp, #-36]	; 0xffffffdc
   15a9c:	e0822003 	add	r2, r2, r3
   15aa0:	e51b300c 	ldr	r3, [fp, #-12]
   15aa4:	e1a03de3 	ror	r3, r3, #27
   15aa8:	e0822003 	add	r2, r2, r3
   15aac:	e30e3ba1 	movw	r3, #60321	; 0xeba1
   15ab0:	e3463ed9 	movt	r3, #28377	; 0x6ed9
   15ab4:	e0823003 	add	r3, r2, r3
   15ab8:	e51b2008 	ldr	r2, [fp, #-8]
   15abc:	e0823003 	add	r3, r2, r3
   15ac0:	e50b3008 	str	r3, [fp, #-8]
   15ac4:	e51b3010 	ldr	r3, [fp, #-16]
   15ac8:	e1a03163 	ror	r3, r3, #2
   15acc:	e50b3010 	str	r3, [fp, #-16]
   15ad0:	e51b200c 	ldr	r2, [fp, #-12]
   15ad4:	e51b3010 	ldr	r3, [fp, #-16]
   15ad8:	e0222003 	eor	r2, r2, r3
   15adc:	e51b3014 	ldr	r3, [fp, #-20]	; 0xffffffec
   15ae0:	e0222003 	eor	r2, r2, r3
   15ae4:	e51b102c 	ldr	r1, [fp, #-44]	; 0xffffffd4
   15ae8:	e51b3040 	ldr	r3, [fp, #-64]	; 0xffffffc0
   15aec:	e0211003 	eor	r1, r1, r3
   15af0:	e51b3058 	ldr	r3, [fp, #-88]	; 0xffffffa8
   15af4:	e0211003 	eor	r1, r1, r3
   15af8:	e51b3020 	ldr	r3, [fp, #-32]	; 0xffffffe0
   15afc:	e0233001 	eor	r3, r3, r1
   15b00:	e1a03fe3 	ror	r3, r3, #31
   15b04:	e50b3020 	str	r3, [fp, #-32]	; 0xffffffe0
   15b08:	e51b3020 	ldr	r3, [fp, #-32]	; 0xffffffe0
   15b0c:	e0822003 	add	r2, r2, r3
   15b10:	e51b3008 	ldr	r3, [fp, #-8]
   15b14:	e1a03de3 	ror	r3, r3, #27
   15b18:	e0822003 	add	r2, r2, r3
   15b1c:	e30e3ba1 	movw	r3, #60321	; 0xeba1
   15b20:	e3463ed9 	movt	r3, #28377	; 0x6ed9
   15b24:	e0823003 	add	r3, r2, r3
   15b28:	e51b2018 	ldr	r2, [fp, #-24]	; 0xffffffe8
   15b2c:	e0823003 	add	r3, r2, r3
   15b30:	e50b3018 	str	r3, [fp, #-24]	; 0xffffffe8
   15b34:	e51b300c 	ldr	r3, [fp, #-12]
   15b38:	e1a03163 	ror	r3, r3, #2
   15b3c:	e50b300c 	str	r3, [fp, #-12]
   15b40:	e51b2008 	ldr	r2, [fp, #-8]
   15b44:	e51b300c 	ldr	r3, [fp, #-12]
   15b48:	e0222003 	eor	r2, r2, r3
   15b4c:	e51b3010 	ldr	r3, [fp, #-16]
   15b50:	e0222003 	eor	r2, r2, r3
   15b54:	e51b1028 	ldr	r1, [fp, #-40]	; 0xffffffd8
   15b58:	e51b303c 	ldr	r3, [fp, #-60]	; 0xffffffc4
   15b5c:	e0211003 	eor	r1, r1, r3
   15b60:	e51b3054 	ldr	r3, [fp, #-84]	; 0xffffffac
   15b64:	e0211003 	eor	r1, r1, r3
   15b68:	e51b301c 	ldr	r3, [fp, #-28]	; 0xffffffe4
   15b6c:	e0233001 	eor	r3, r3, r1
   15b70:	e1a03fe3 	ror	r3, r3, #31
   15b74:	e50b301c 	str	r3, [fp, #-28]	; 0xffffffe4
   15b78:	e51b301c 	ldr	r3, [fp, #-28]	; 0xffffffe4
   15b7c:	e0822003 	add	r2, r2, r3
   15b80:	e51b3018 	ldr	r3, [fp, #-24]	; 0xffffffe8
   15b84:	e1a03de3 	ror	r3, r3, #27
   15b88:	e0822003 	add	r2, r2, r3
   15b8c:	e30e3ba1 	movw	r3, #60321	; 0xeba1
   15b90:	e3463ed9 	movt	r3, #28377	; 0x6ed9
   15b94:	e0823003 	add	r3, r2, r3
   15b98:	e51b2014 	ldr	r2, [fp, #-20]	; 0xffffffec
   15b9c:	e0823003 	add	r3, r2, r3
   15ba0:	e50b3014 	str	r3, [fp, #-20]	; 0xffffffec
   15ba4:	e51b3008 	ldr	r3, [fp, #-8]
   15ba8:	e1a03163 	ror	r3, r3, #2
   15bac:	e50b3008 	str	r3, [fp, #-8]
   15bb0:	e51b2018 	ldr	r2, [fp, #-24]	; 0xffffffe8
   15bb4:	e51b3008 	ldr	r3, [fp, #-8]
   15bb8:	e0222003 	eor	r2, r2, r3
   15bbc:	e51b300c 	ldr	r3, [fp, #-12]
   15bc0:	e0222003 	eor	r2, r2, r3
   15bc4:	e51b1024 	ldr	r1, [fp, #-36]	; 0xffffffdc
   15bc8:	e51b3038 	ldr	r3, [fp, #-56]	; 0xffffffc8
   15bcc:	e0211003 	eor	r1, r1, r3
   15bd0:	e51b3050 	ldr	r3, [fp, #-80]	; 0xffffffb0
   15bd4:	e0211003 	eor	r1, r1, r3
   15bd8:	e51b3058 	ldr	r3, [fp, #-88]	; 0xffffffa8
   15bdc:	e0233001 	eor	r3, r3, r1
   15be0:	e1a03fe3 	ror	r3, r3, #31
   15be4:	e50b3058 	str	r3, [fp, #-88]	; 0xffffffa8
   15be8:	e51b3058 	ldr	r3, [fp, #-88]	; 0xffffffa8
   15bec:	e0822003 	add	r2, r2, r3
   15bf0:	e51b3014 	ldr	r3, [fp, #-20]	; 0xffffffec
   15bf4:	e1a03de3 	ror	r3, r3, #27
   15bf8:	e0822003 	add	r2, r2, r3
   15bfc:	e30e3ba1 	movw	r3, #60321	; 0xeba1
   15c00:	e3463ed9 	movt	r3, #28377	; 0x6ed9
   15c04:	e0823003 	add	r3, r2, r3
   15c08:	e51b2010 	ldr	r2, [fp, #-16]
   15c0c:	e0823003 	add	r3, r2, r3
   15c10:	e50b3010 	str	r3, [fp, #-16]
   15c14:	e51b3018 	ldr	r3, [fp, #-24]	; 0xffffffe8
   15c18:	e1a03163 	ror	r3, r3, #2
   15c1c:	e50b3018 	str	r3, [fp, #-24]	; 0xffffffe8
   15c20:	e51b2014 	ldr	r2, [fp, #-20]	; 0xffffffec
   15c24:	e51b3018 	ldr	r3, [fp, #-24]	; 0xffffffe8
   15c28:	e0222003 	eor	r2, r2, r3
   15c2c:	e51b3008 	ldr	r3, [fp, #-8]
   15c30:	e0222003 	eor	r2, r2, r3
   15c34:	e51b1020 	ldr	r1, [fp, #-32]	; 0xffffffe0
   15c38:	e51b3034 	ldr	r3, [fp, #-52]	; 0xffffffcc
   15c3c:	e0211003 	eor	r1, r1, r3
   15c40:	e51b304c 	ldr	r3, [fp, #-76]	; 0xffffffb4
   15c44:	e0211003 	eor	r1, r1, r3
   15c48:	e51b3054 	ldr	r3, [fp, #-84]	; 0xffffffac
   15c4c:	e0233001 	eor	r3, r3, r1
   15c50:	e1a03fe3 	ror	r3, r3, #31
   15c54:	e50b3054 	str	r3, [fp, #-84]	; 0xffffffac
   15c58:	e51b3054 	ldr	r3, [fp, #-84]	; 0xffffffac
   15c5c:	e0822003 	add	r2, r2, r3
   15c60:	e51b3010 	ldr	r3, [fp, #-16]
   15c64:	e1a03de3 	ror	r3, r3, #27
   15c68:	e0822003 	add	r2, r2, r3
   15c6c:	e30e3ba1 	movw	r3, #60321	; 0xeba1
   15c70:	e3463ed9 	movt	r3, #28377	; 0x6ed9
   15c74:	e0823003 	add	r3, r2, r3
   15c78:	e51b200c 	ldr	r2, [fp, #-12]
   15c7c:	e0823003 	add	r3, r2, r3
   15c80:	e50b300c 	str	r3, [fp, #-12]
   15c84:	e51b3014 	ldr	r3, [fp, #-20]	; 0xffffffec
   15c88:	e1a03163 	ror	r3, r3, #2
   15c8c:	e50b3014 	str	r3, [fp, #-20]	; 0xffffffec
   15c90:	e51b2010 	ldr	r2, [fp, #-16]
   15c94:	e51b3014 	ldr	r3, [fp, #-20]	; 0xffffffec
   15c98:	e0222003 	eor	r2, r2, r3
   15c9c:	e51b3018 	ldr	r3, [fp, #-24]	; 0xffffffe8
   15ca0:	e0222003 	eor	r2, r2, r3
   15ca4:	e51b101c 	ldr	r1, [fp, #-28]	; 0xffffffe4
   15ca8:	e51b3030 	ldr	r3, [fp, #-48]	; 0xffffffd0
   15cac:	e0211003 	eor	r1, r1, r3
   15cb0:	e51b3048 	ldr	r3, [fp, #-72]	; 0xffffffb8
   15cb4:	e0211003 	eor	r1, r1, r3
   15cb8:	e51b3050 	ldr	r3, [fp, #-80]	; 0xffffffb0
   15cbc:	e0233001 	eor	r3, r3, r1
   15cc0:	e1a03fe3 	ror	r3, r3, #31
   15cc4:	e50b3050 	str	r3, [fp, #-80]	; 0xffffffb0
   15cc8:	e51b3050 	ldr	r3, [fp, #-80]	; 0xffffffb0
   15ccc:	e0822003 	add	r2, r2, r3
   15cd0:	e51b300c 	ldr	r3, [fp, #-12]
   15cd4:	e1a03de3 	ror	r3, r3, #27
   15cd8:	e0822003 	add	r2, r2, r3
   15cdc:	e30e3ba1 	movw	r3, #60321	; 0xeba1
   15ce0:	e3463ed9 	movt	r3, #28377	; 0x6ed9
   15ce4:	e0823003 	add	r3, r2, r3
   15ce8:	e51b2008 	ldr	r2, [fp, #-8]
   15cec:	e0823003 	add	r3, r2, r3
   15cf0:	e50b3008 	str	r3, [fp, #-8]
   15cf4:	e51b3010 	ldr	r3, [fp, #-16]
   15cf8:	e1a03163 	ror	r3, r3, #2
   15cfc:	e50b3010 	str	r3, [fp, #-16]
   15d00:	e51b200c 	ldr	r2, [fp, #-12]
   15d04:	e51b3010 	ldr	r3, [fp, #-16]
   15d08:	e0222003 	eor	r2, r2, r3
   15d0c:	e51b3014 	ldr	r3, [fp, #-20]	; 0xffffffec
   15d10:	e0222003 	eor	r2, r2, r3
   15d14:	e51b1058 	ldr	r1, [fp, #-88]	; 0xffffffa8
   15d18:	e51b302c 	ldr	r3, [fp, #-44]	; 0xffffffd4
   15d1c:	e0211003 	eor	r1, r1, r3
   15d20:	e51b3044 	ldr	r3, [fp, #-68]	; 0xffffffbc
   15d24:	e0211003 	eor	r1, r1, r3
   15d28:	e51b304c 	ldr	r3, [fp, #-76]	; 0xffffffb4
   15d2c:	e0233001 	eor	r3, r3, r1
   15d30:	e1a03fe3 	ror	r3, r3, #31
   15d34:	e50b304c 	str	r3, [fp, #-76]	; 0xffffffb4
   15d38:	e51b304c 	ldr	r3, [fp, #-76]	; 0xffffffb4
   15d3c:	e0822003 	add	r2, r2, r3
   15d40:	e51b3008 	ldr	r3, [fp, #-8]
   15d44:	e1a03de3 	ror	r3, r3, #27
   15d48:	e0822003 	add	r2, r2, r3
   15d4c:	e30e3ba1 	movw	r3, #60321	; 0xeba1
   15d50:	e3463ed9 	movt	r3, #28377	; 0x6ed9
   15d54:	e0823003 	add	r3, r2, r3
   15d58:	e51b2018 	ldr	r2, [fp, #-24]	; 0xffffffe8
   15d5c:	e0823003 	add	r3, r2, r3
   15d60:	e50b3018 	str	r3, [fp, #-24]	; 0xffffffe8
   15d64:	e51b300c 	ldr	r3, [fp, #-12]
   15d68:	e1a03163 	ror	r3, r3, #2
   15d6c:	e50b300c 	str	r3, [fp, #-12]
   15d70:	e51b2008 	ldr	r2, [fp, #-8]
   15d74:	e51b300c 	ldr	r3, [fp, #-12]
   15d78:	e0222003 	eor	r2, r2, r3
   15d7c:	e51b3010 	ldr	r3, [fp, #-16]
   15d80:	e0222003 	eor	r2, r2, r3
   15d84:	e51b1054 	ldr	r1, [fp, #-84]	; 0xffffffac
   15d88:	e51b3028 	ldr	r3, [fp, #-40]	; 0xffffffd8
   15d8c:	e0211003 	eor	r1, r1, r3
   15d90:	e51b3040 	ldr	r3, [fp, #-64]	; 0xffffffc0
   15d94:	e0211003 	eor	r1, r1, r3
   15d98:	e51b3048 	ldr	r3, [fp, #-72]	; 0xffffffb8
   15d9c:	e0233001 	eor	r3, r3, r1
   15da0:	e1a03fe3 	ror	r3, r3, #31
   15da4:	e50b3048 	str	r3, [fp, #-72]	; 0xffffffb8
   15da8:	e51b3048 	ldr	r3, [fp, #-72]	; 0xffffffb8
   15dac:	e0822003 	add	r2, r2, r3
   15db0:	e51b3018 	ldr	r3, [fp, #-24]	; 0xffffffe8
   15db4:	e1a03de3 	ror	r3, r3, #27
   15db8:	e0822003 	add	r2, r2, r3
   15dbc:	e30e3ba1 	movw	r3, #60321	; 0xeba1
   15dc0:	e3463ed9 	movt	r3, #28377	; 0x6ed9
   15dc4:	e0823003 	add	r3, r2, r3
   15dc8:	e51b2014 	ldr	r2, [fp, #-20]	; 0xffffffec
   15dcc:	e0823003 	add	r3, r2, r3
   15dd0:	e50b3014 	str	r3, [fp, #-20]	; 0xffffffec
   15dd4:	e51b3008 	ldr	r3, [fp, #-8]
   15dd8:	e1a03163 	ror	r3, r3, #2
   15ddc:	e50b3008 	str	r3, [fp, #-8]
   15de0:	e51b2018 	ldr	r2, [fp, #-24]	; 0xffffffe8
   15de4:	e51b3008 	ldr	r3, [fp, #-8]
   15de8:	e0222003 	eor	r2, r2, r3
   15dec:	e51b300c 	ldr	r3, [fp, #-12]
   15df0:	e0222003 	eor	r2, r2, r3
   15df4:	e51b1050 	ldr	r1, [fp, #-80]	; 0xffffffb0
   15df8:	e51b3024 	ldr	r3, [fp, #-36]	; 0xffffffdc
   15dfc:	e0211003 	eor	r1, r1, r3
   15e00:	e51b303c 	ldr	r3, [fp, #-60]	; 0xffffffc4
   15e04:	e0211003 	eor	r1, r1, r3
   15e08:	e51b3044 	ldr	r3, [fp, #-68]	; 0xffffffbc
   15e0c:	e0233001 	eor	r3, r3, r1
   15e10:	e1a03fe3 	ror	r3, r3, #31
   15e14:	e50b3044 	str	r3, [fp, #-68]	; 0xffffffbc
   15e18:	e51b3044 	ldr	r3, [fp, #-68]	; 0xffffffbc
   15e1c:	e0822003 	add	r2, r2, r3
   15e20:	e51b3014 	ldr	r3, [fp, #-20]	; 0xffffffec
   15e24:	e1a03de3 	ror	r3, r3, #27
   15e28:	e0822003 	add	r2, r2, r3
   15e2c:	e30e3ba1 	movw	r3, #60321	; 0xeba1
   15e30:	e3463ed9 	movt	r3, #28377	; 0x6ed9
   15e34:	e0823003 	add	r3, r2, r3
   15e38:	e51b2010 	ldr	r2, [fp, #-16]
   15e3c:	e0823003 	add	r3, r2, r3
   15e40:	e50b3010 	str	r3, [fp, #-16]
   15e44:	e51b3018 	ldr	r3, [fp, #-24]	; 0xffffffe8
   15e48:	e1a03163 	ror	r3, r3, #2
   15e4c:	e50b3018 	str	r3, [fp, #-24]	; 0xffffffe8
   15e50:	e51b2014 	ldr	r2, [fp, #-20]	; 0xffffffec
   15e54:	e51b3018 	ldr	r3, [fp, #-24]	; 0xffffffe8
   15e58:	e0222003 	eor	r2, r2, r3
   15e5c:	e51b3008 	ldr	r3, [fp, #-8]
   15e60:	e0222003 	eor	r2, r2, r3
   15e64:	e51b104c 	ldr	r1, [fp, #-76]	; 0xffffffb4
   15e68:	e51b3020 	ldr	r3, [fp, #-32]	; 0xffffffe0
   15e6c:	e0211003 	eor	r1, r1, r3
   15e70:	e51b3038 	ldr	r3, [fp, #-56]	; 0xffffffc8
   15e74:	e0211003 	eor	r1, r1, r3
   15e78:	e51b3040 	ldr	r3, [fp, #-64]	; 0xffffffc0
   15e7c:	e0233001 	eor	r3, r3, r1
   15e80:	e1a03fe3 	ror	r3, r3, #31
   15e84:	e50b3040 	str	r3, [fp, #-64]	; 0xffffffc0
   15e88:	e51b3040 	ldr	r3, [fp, #-64]	; 0xffffffc0
   15e8c:	e0822003 	add	r2, r2, r3
   15e90:	e51b3010 	ldr	r3, [fp, #-16]
   15e94:	e1a03de3 	ror	r3, r3, #27
   15e98:	e0822003 	add	r2, r2, r3
   15e9c:	e30e3ba1 	movw	r3, #60321	; 0xeba1
   15ea0:	e3463ed9 	movt	r3, #28377	; 0x6ed9
   15ea4:	e0823003 	add	r3, r2, r3
   15ea8:	e51b200c 	ldr	r2, [fp, #-12]
   15eac:	e0823003 	add	r3, r2, r3
   15eb0:	e50b300c 	str	r3, [fp, #-12]
   15eb4:	e51b3014 	ldr	r3, [fp, #-20]	; 0xffffffec
   15eb8:	e1a03163 	ror	r3, r3, #2
   15ebc:	e50b3014 	str	r3, [fp, #-20]	; 0xffffffec
   15ec0:	e51b2010 	ldr	r2, [fp, #-16]
   15ec4:	e51b3014 	ldr	r3, [fp, #-20]	; 0xffffffec
   15ec8:	e0222003 	eor	r2, r2, r3
   15ecc:	e51b3018 	ldr	r3, [fp, #-24]	; 0xffffffe8
   15ed0:	e0222003 	eor	r2, r2, r3
   15ed4:	e51b1048 	ldr	r1, [fp, #-72]	; 0xffffffb8
   15ed8:	e51b301c 	ldr	r3, [fp, #-28]	; 0xffffffe4
   15edc:	e0211003 	eor	r1, r1, r3
   15ee0:	e51b3034 	ldr	r3, [fp, #-52]	; 0xffffffcc
   15ee4:	e0211003 	eor	r1, r1, r3
   15ee8:	e51b303c 	ldr	r3, [fp, #-60]	; 0xffffffc4
   15eec:	e0233001 	eor	r3, r3, r1
   15ef0:	e1a03fe3 	ror	r3, r3, #31
   15ef4:	e50b303c 	str	r3, [fp, #-60]	; 0xffffffc4
   15ef8:	e51b303c 	ldr	r3, [fp, #-60]	; 0xffffffc4
   15efc:	e0822003 	add	r2, r2, r3
   15f00:	e51b300c 	ldr	r3, [fp, #-12]
   15f04:	e1a03de3 	ror	r3, r3, #27
   15f08:	e0822003 	add	r2, r2, r3
   15f0c:	e30e3ba1 	movw	r3, #60321	; 0xeba1
   15f10:	e3463ed9 	movt	r3, #28377	; 0x6ed9
   15f14:	e0823003 	add	r3, r2, r3
   15f18:	e51b2008 	ldr	r2, [fp, #-8]
   15f1c:	e0823003 	add	r3, r2, r3
   15f20:	e50b3008 	str	r3, [fp, #-8]
   15f24:	e51b3010 	ldr	r3, [fp, #-16]
   15f28:	e1a03163 	ror	r3, r3, #2
   15f2c:	e50b3010 	str	r3, [fp, #-16]
   15f30:	e51b200c 	ldr	r2, [fp, #-12]
   15f34:	e51b3010 	ldr	r3, [fp, #-16]
   15f38:	e1822003 	orr	r2, r2, r3
   15f3c:	e51b3014 	ldr	r3, [fp, #-20]	; 0xffffffec
   15f40:	e0022003 	and	r2, r2, r3
   15f44:	e51b100c 	ldr	r1, [fp, #-12]
   15f48:	e51b3010 	ldr	r3, [fp, #-16]
   15f4c:	e0033001 	and	r3, r3, r1
   15f50:	e1822003 	orr	r2, r2, r3
   15f54:	e51b1044 	ldr	r1, [fp, #-68]	; 0xffffffbc
   15f58:	e51b3058 	ldr	r3, [fp, #-88]	; 0xffffffa8
   15f5c:	e0211003 	eor	r1, r1, r3
   15f60:	e51b3030 	ldr	r3, [fp, #-48]	; 0xffffffd0
   15f64:	e0211003 	eor	r1, r1, r3
   15f68:	e51b3038 	ldr	r3, [fp, #-56]	; 0xffffffc8
   15f6c:	e0233001 	eor	r3, r3, r1
   15f70:	e1a03fe3 	ror	r3, r3, #31
   15f74:	e50b3038 	str	r3, [fp, #-56]	; 0xffffffc8
   15f78:	e51b3038 	ldr	r3, [fp, #-56]	; 0xffffffc8
   15f7c:	e0822003 	add	r2, r2, r3
   15f80:	e51b3008 	ldr	r3, [fp, #-8]
   15f84:	e1a03de3 	ror	r3, r3, #27
   15f88:	e0822003 	add	r2, r2, r3
   15f8c:	e30b3cdc 	movw	r3, #48348	; 0xbcdc
   15f90:	e3483f1b 	movt	r3, #36635	; 0x8f1b
   15f94:	e0823003 	add	r3, r2, r3
   15f98:	e51b2018 	ldr	r2, [fp, #-24]	; 0xffffffe8
   15f9c:	e0823003 	add	r3, r2, r3
   15fa0:	e50b3018 	str	r3, [fp, #-24]	; 0xffffffe8
   15fa4:	e51b300c 	ldr	r3, [fp, #-12]
   15fa8:	e1a03163 	ror	r3, r3, #2
   15fac:	e50b300c 	str	r3, [fp, #-12]
   15fb0:	e51b2008 	ldr	r2, [fp, #-8]
   15fb4:	e51b300c 	ldr	r3, [fp, #-12]
   15fb8:	e1822003 	orr	r2, r2, r3
   15fbc:	e51b3010 	ldr	r3, [fp, #-16]
   15fc0:	e0022003 	and	r2, r2, r3
   15fc4:	e51b1008 	ldr	r1, [fp, #-8]
   15fc8:	e51b300c 	ldr	r3, [fp, #-12]
   15fcc:	e0033001 	and	r3, r3, r1
   15fd0:	e1822003 	orr	r2, r2, r3
   15fd4:	e51b1040 	ldr	r1, [fp, #-64]	; 0xffffffc0
   15fd8:	e51b3054 	ldr	r3, [fp, #-84]	; 0xffffffac
   15fdc:	e0211003 	eor	r1, r1, r3
   15fe0:	e51b302c 	ldr	r3, [fp, #-44]	; 0xffffffd4
   15fe4:	e0211003 	eor	r1, r1, r3
   15fe8:	e51b3034 	ldr	r3, [fp, #-52]	; 0xffffffcc
   15fec:	e0233001 	eor	r3, r3, r1
   15ff0:	e1a03fe3 	ror	r3, r3, #31
   15ff4:	e50b3034 	str	r3, [fp, #-52]	; 0xffffffcc
   15ff8:	e51b3034 	ldr	r3, [fp, #-52]	; 0xffffffcc
   15ffc:	e0822003 	add	r2, r2, r3
   16000:	e51b3018 	ldr	r3, [fp, #-24]	; 0xffffffe8
   16004:	e1a03de3 	ror	r3, r3, #27
   16008:	e0822003 	add	r2, r2, r3
   1600c:	e30b3cdc 	movw	r3, #48348	; 0xbcdc
   16010:	e3483f1b 	movt	r3, #36635	; 0x8f1b
   16014:	e0823003 	add	r3, r2, r3
   16018:	e51b2014 	ldr	r2, [fp, #-20]	; 0xffffffec
   1601c:	e0823003 	add	r3, r2, r3
   16020:	e50b3014 	str	r3, [fp, #-20]	; 0xffffffec
   16024:	e51b3008 	ldr	r3, [fp, #-8]
   16028:	e1a03163 	ror	r3, r3, #2
   1602c:	e50b3008 	str	r3, [fp, #-8]
   16030:	e51b2018 	ldr	r2, [fp, #-24]	; 0xffffffe8
   16034:	e51b3008 	ldr	r3, [fp, #-8]
   16038:	e1822003 	orr	r2, r2, r3
   1603c:	e51b300c 	ldr	r3, [fp, #-12]
   16040:	e0022003 	and	r2, r2, r3
   16044:	e51b1018 	ldr	r1, [fp, #-24]	; 0xffffffe8
   16048:	e51b3008 	ldr	r3, [fp, #-8]
   1604c:	e0033001 	and	r3, r3, r1
   16050:	e1822003 	orr	r2, r2, r3
   16054:	e51b103c 	ldr	r1, [fp, #-60]	; 0xffffffc4
   16058:	e51b3050 	ldr	r3, [fp, #-80]	; 0xffffffb0
   1605c:	e0211003 	eor	r1, r1, r3
   16060:	e51b3028 	ldr	r3, [fp, #-40]	; 0xffffffd8
   16064:	e0211003 	eor	r1, r1, r3
   16068:	e51b3030 	ldr	r3, [fp, #-48]	; 0xffffffd0
   1606c:	e0233001 	eor	r3, r3, r1
   16070:	e1a03fe3 	ror	r3, r3, #31
   16074:	e50b3030 	str	r3, [fp, #-48]	; 0xffffffd0
   16078:	e51b3030 	ldr	r3, [fp, #-48]	; 0xffffffd0
   1607c:	e0822003 	add	r2, r2, r3
   16080:	e51b3014 	ldr	r3, [fp, #-20]	; 0xffffffec
   16084:	e1a03de3 	ror	r3, r3, #27
   16088:	e0822003 	add	r2, r2, r3
   1608c:	e30b3cdc 	movw	r3, #48348	; 0xbcdc
   16090:	e3483f1b 	movt	r3, #36635	; 0x8f1b
   16094:	e0823003 	add	r3, r2, r3
   16098:	e51b2010 	ldr	r2, [fp, #-16]
   1609c:	e0823003 	add	r3, r2, r3
   160a0:	e50b3010 	str	r3, [fp, #-16]
   160a4:	e51b3018 	ldr	r3, [fp, #-24]	; 0xffffffe8
   160a8:	e1a03163 	ror	r3, r3, #2
   160ac:	e50b3018 	str	r3, [fp, #-24]	; 0xffffffe8
   160b0:	e51b2014 	ldr	r2, [fp, #-20]	; 0xffffffec
   160b4:	e51b3018 	ldr	r3, [fp, #-24]	; 0xffffffe8
   160b8:	e1822003 	orr	r2, r2, r3
   160bc:	e51b3008 	ldr	r3, [fp, #-8]
   160c0:	e0022003 	and	r2, r2, r3
   160c4:	e51b1014 	ldr	r1, [fp, #-20]	; 0xffffffec
   160c8:	e51b3018 	ldr	r3, [fp, #-24]	; 0xffffffe8
   160cc:	e0033001 	and	r3, r3, r1
   160d0:	e1822003 	orr	r2, r2, r3
   160d4:	e51b1038 	ldr	r1, [fp, #-56]	; 0xffffffc8
   160d8:	e51b304c 	ldr	r3, [fp, #-76]	; 0xffffffb4
   160dc:	e0211003 	eor	r1, r1, r3
   160e0:	e51b3024 	ldr	r3, [fp, #-36]	; 0xffffffdc
   160e4:	e0211003 	eor	r1, r1, r3
   160e8:	e51b302c 	ldr	r3, [fp, #-44]	; 0xffffffd4
   160ec:	e0233001 	eor	r3, r3, r1
   160f0:	e1a03fe3 	ror	r3, r3, #31
   160f4:	e50b302c 	str	r3, [fp, #-44]	; 0xffffffd4
   160f8:	e51b302c 	ldr	r3, [fp, #-44]	; 0xffffffd4
   160fc:	e0822003 	add	r2, r2, r3
   16100:	e51b3010 	ldr	r3, [fp, #-16]
   16104:	e1a03de3 	ror	r3, r3, #27
   16108:	e0822003 	add	r2, r2, r3
   1610c:	e30b3cdc 	movw	r3, #48348	; 0xbcdc
   16110:	e3483f1b 	movt	r3, #36635	; 0x8f1b
   16114:	e0823003 	add	r3, r2, r3
   16118:	e51b200c 	ldr	r2, [fp, #-12]
   1611c:	e0823003 	add	r3, r2, r3
   16120:	e50b300c 	str	r3, [fp, #-12]
   16124:	e51b3014 	ldr	r3, [fp, #-20]	; 0xffffffec
   16128:	e1a03163 	ror	r3, r3, #2
   1612c:	e50b3014 	str	r3, [fp, #-20]	; 0xffffffec
   16130:	e51b2010 	ldr	r2, [fp, #-16]
   16134:	e51b3014 	ldr	r3, [fp, #-20]	; 0xffffffec
   16138:	e1822003 	orr	r2, r2, r3
   1613c:	e51b3018 	ldr	r3, [fp, #-24]	; 0xffffffe8
   16140:	e0022003 	and	r2, r2, r3
   16144:	e51b1010 	ldr	r1, [fp, #-16]
   16148:	e51b3014 	ldr	r3, [fp, #-20]	; 0xffffffec
   1614c:	e0033001 	and	r3, r3, r1
   16150:	e1822003 	orr	r2, r2, r3
   16154:	e51b1034 	ldr	r1, [fp, #-52]	; 0xffffffcc
   16158:	e51b3048 	ldr	r3, [fp, #-72]	; 0xffffffb8
   1615c:	e0211003 	eor	r1, r1, r3
   16160:	e51b3020 	ldr	r3, [fp, #-32]	; 0xffffffe0
   16164:	e0211003 	eor	r1, r1, r3
   16168:	e51b3028 	ldr	r3, [fp, #-40]	; 0xffffffd8
   1616c:	e0233001 	eor	r3, r3, r1
   16170:	e1a03fe3 	ror	r3, r3, #31
   16174:	e50b3028 	str	r3, [fp, #-40]	; 0xffffffd8
   16178:	e51b3028 	ldr	r3, [fp, #-40]	; 0xffffffd8
   1617c:	e0822003 	add	r2, r2, r3
   16180:	e51b300c 	ldr	r3, [fp, #-12]
   16184:	e1a03de3 	ror	r3, r3, #27
   16188:	e0822003 	add	r2, r2, r3
   1618c:	e30b3cdc 	movw	r3, #48348	; 0xbcdc
   16190:	e3483f1b 	movt	r3, #36635	; 0x8f1b
   16194:	e0823003 	add	r3, r2, r3
   16198:	e51b2008 	ldr	r2, [fp, #-8]
   1619c:	e0823003 	add	r3, r2, r3
   161a0:	e50b3008 	str	r3, [fp, #-8]
   161a4:	e51b3010 	ldr	r3, [fp, #-16]
   161a8:	e1a03163 	ror	r3, r3, #2
   161ac:	e50b3010 	str	r3, [fp, #-16]
   161b0:	e51b200c 	ldr	r2, [fp, #-12]
   161b4:	e51b3010 	ldr	r3, [fp, #-16]
   161b8:	e1822003 	orr	r2, r2, r3
   161bc:	e51b3014 	ldr	r3, [fp, #-20]	; 0xffffffec
   161c0:	e0022003 	and	r2, r2, r3
   161c4:	e51b100c 	ldr	r1, [fp, #-12]
   161c8:	e51b3010 	ldr	r3, [fp, #-16]
   161cc:	e0033001 	and	r3, r3, r1
   161d0:	e1822003 	orr	r2, r2, r3
   161d4:	e51b1030 	ldr	r1, [fp, #-48]	; 0xffffffd0
   161d8:	e51b3044 	ldr	r3, [fp, #-68]	; 0xffffffbc
   161dc:	e0211003 	eor	r1, r1, r3
   161e0:	e51b301c 	ldr	r3, [fp, #-28]	; 0xffffffe4
   161e4:	e0211003 	eor	r1, r1, r3
   161e8:	e51b3024 	ldr	r3, [fp, #-36]	; 0xffffffdc
   161ec:	e0233001 	eor	r3, r3, r1
   161f0:	e1a03fe3 	ror	r3, r3, #31
   161f4:	e50b3024 	str	r3, [fp, #-36]	; 0xffffffdc
   161f8:	e51b3024 	ldr	r3, [fp, #-36]	; 0xffffffdc
   161fc:	e0822003 	add	r2, r2, r3
   16200:	e51b3008 	ldr	r3, [fp, #-8]
   16204:	e1a03de3 	ror	r3, r3, #27
   16208:	e0822003 	add	r2, r2, r3
   1620c:	e30b3cdc 	movw	r3, #48348	; 0xbcdc
   16210:	e3483f1b 	movt	r3, #36635	; 0x8f1b
   16214:	e0823003 	add	r3, r2, r3
   16218:	e51b2018 	ldr	r2, [fp, #-24]	; 0xffffffe8
   1621c:	e0823003 	add	r3, r2, r3
   16220:	e50b3018 	str	r3, [fp, #-24]	; 0xffffffe8
   16224:	e51b300c 	ldr	r3, [fp, #-12]
   16228:	e1a03163 	ror	r3, r3, #2
   1622c:	e50b300c 	str	r3, [fp, #-12]
   16230:	e51b2008 	ldr	r2, [fp, #-8]
   16234:	e51b300c 	ldr	r3, [fp, #-12]
   16238:	e1822003 	orr	r2, r2, r3
   1623c:	e51b3010 	ldr	r3, [fp, #-16]
   16240:	e0022003 	and	r2, r2, r3
   16244:	e51b1008 	ldr	r1, [fp, #-8]
   16248:	e51b300c 	ldr	r3, [fp, #-12]
   1624c:	e0033001 	and	r3, r3, r1
   16250:	e1822003 	orr	r2, r2, r3
   16254:	e51b102c 	ldr	r1, [fp, #-44]	; 0xffffffd4
   16258:	e51b3040 	ldr	r3, [fp, #-64]	; 0xffffffc0
   1625c:	e0211003 	eor	r1, r1, r3
   16260:	e51b3058 	ldr	r3, [fp, #-88]	; 0xffffffa8
   16264:	e0211003 	eor	r1, r1, r3
   16268:	e51b3020 	ldr	r3, [fp, #-32]	; 0xffffffe0
   1626c:	e0233001 	eor	r3, r3, r1
   16270:	e1a03fe3 	ror	r3, r3, #31
   16274:	e50b3020 	str	r3, [fp, #-32]	; 0xffffffe0
   16278:	e51b3020 	ldr	r3, [fp, #-32]	; 0xffffffe0
   1627c:	e0822003 	add	r2, r2, r3
   16280:	e51b3018 	ldr	r3, [fp, #-24]	; 0xffffffe8
   16284:	e1a03de3 	ror	r3, r3, #27
   16288:	e0822003 	add	r2, r2, r3
   1628c:	e30b3cdc 	movw	r3, #48348	; 0xbcdc
   16290:	e3483f1b 	movt	r3, #36635	; 0x8f1b
   16294:	e0823003 	add	r3, r2, r3
   16298:	e51b2014 	ldr	r2, [fp, #-20]	; 0xffffffec
   1629c:	e0823003 	add	r3, r2, r3
   162a0:	e50b3014 	str	r3, [fp, #-20]	; 0xffffffec
   162a4:	e51b3008 	ldr	r3, [fp, #-8]
   162a8:	e1a03163 	ror	r3, r3, #2
   162ac:	e50b3008 	str	r3, [fp, #-8]
   162b0:	e51b2018 	ldr	r2, [fp, #-24]	; 0xffffffe8
   162b4:	e51b3008 	ldr	r3, [fp, #-8]
   162b8:	e1822003 	orr	r2, r2, r3
   162bc:	e51b300c 	ldr	r3, [fp, #-12]
   162c0:	e0022003 	and	r2, r2, r3
   162c4:	e51b1018 	ldr	r1, [fp, #-24]	; 0xffffffe8
   162c8:	e51b3008 	ldr	r3, [fp, #-8]
   162cc:	e0033001 	and	r3, r3, r1
   162d0:	e1822003 	orr	r2, r2, r3
   162d4:	e51b1028 	ldr	r1, [fp, #-40]	; 0xffffffd8
   162d8:	e51b303c 	ldr	r3, [fp, #-60]	; 0xffffffc4
   162dc:	e0211003 	eor	r1, r1, r3
   162e0:	e51b3054 	ldr	r3, [fp, #-84]	; 0xffffffac
   162e4:	e0211003 	eor	r1, r1, r3
   162e8:	e51b301c 	ldr	r3, [fp, #-28]	; 0xffffffe4
   162ec:	e0233001 	eor	r3, r3, r1
   162f0:	e1a03fe3 	ror	r3, r3, #31
   162f4:	e50b301c 	str	r3, [fp, #-28]	; 0xffffffe4
   162f8:	e51b301c 	ldr	r3, [fp, #-28]	; 0xffffffe4
   162fc:	e0822003 	add	r2, r2, r3
   16300:	e51b3014 	ldr	r3, [fp, #-20]	; 0xffffffec
   16304:	e1a03de3 	ror	r3, r3, #27
   16308:	e0822003 	add	r2, r2, r3
   1630c:	e30b3cdc 	movw	r3, #48348	; 0xbcdc
   16310:	e3483f1b 	movt	r3, #36635	; 0x8f1b
   16314:	e0823003 	add	r3, r2, r3
   16318:	e51b2010 	ldr	r2, [fp, #-16]
   1631c:	e0823003 	add	r3, r2, r3
   16320:	e50b3010 	str	r3, [fp, #-16]
   16324:	e51b3018 	ldr	r3, [fp, #-24]	; 0xffffffe8
   16328:	e1a03163 	ror	r3, r3, #2
   1632c:	e50b3018 	str	r3, [fp, #-24]	; 0xffffffe8
   16330:	e51b2014 	ldr	r2, [fp, #-20]	; 0xffffffec
   16334:	e51b3018 	ldr	r3, [fp, #-24]	; 0xffffffe8
   16338:	e1822003 	orr	r2, r2, r3
   1633c:	e51b3008 	ldr	r3, [fp, #-8]
   16340:	e0022003 	and	r2, r2, r3
   16344:	e51b1014 	ldr	r1, [fp, #-20]	; 0xffffffec
   16348:	e51b3018 	ldr	r3, [fp, #-24]	; 0xffffffe8
   1634c:	e0033001 	and	r3, r3, r1
   16350:	e1822003 	orr	r2, r2, r3
   16354:	e51b1024 	ldr	r1, [fp, #-36]	; 0xffffffdc
   16358:	e51b3038 	ldr	r3, [fp, #-56]	; 0xffffffc8
   1635c:	e0211003 	eor	r1, r1, r3
   16360:	e51b3050 	ldr	r3, [fp, #-80]	; 0xffffffb0
   16364:	e0211003 	eor	r1, r1, r3
   16368:	e51b3058 	ldr	r3, [fp, #-88]	; 0xffffffa8
   1636c:	e0233001 	eor	r3, r3, r1
   16370:	e1a03fe3 	ror	r3, r3, #31
   16374:	e50b3058 	str	r3, [fp, #-88]	; 0xffffffa8
   16378:	e51b3058 	ldr	r3, [fp, #-88]	; 0xffffffa8
   1637c:	e0822003 	add	r2, r2, r3
   16380:	e51b3010 	ldr	r3, [fp, #-16]
   16384:	e1a03de3 	ror	r3, r3, #27
   16388:	e0822003 	add	r2, r2, r3
   1638c:	e30b3cdc 	movw	r3, #48348	; 0xbcdc
   16390:	e3483f1b 	movt	r3, #36635	; 0x8f1b
   16394:	e0823003 	add	r3, r2, r3
   16398:	e51b200c 	ldr	r2, [fp, #-12]
   1639c:	e0823003 	add	r3, r2, r3
   163a0:	e50b300c 	str	r3, [fp, #-12]
   163a4:	e51b3014 	ldr	r3, [fp, #-20]	; 0xffffffec
   163a8:	e1a03163 	ror	r3, r3, #2
   163ac:	e50b3014 	str	r3, [fp, #-20]	; 0xffffffec
   163b0:	e51b2010 	ldr	r2, [fp, #-16]
   163b4:	e51b3014 	ldr	r3, [fp, #-20]	; 0xffffffec
   163b8:	e1822003 	orr	r2, r2, r3
   163bc:	e51b3018 	ldr	r3, [fp, #-24]	; 0xffffffe8
   163c0:	e0022003 	and	r2, r2, r3
   163c4:	e51b1010 	ldr	r1, [fp, #-16]
   163c8:	e51b3014 	ldr	r3, [fp, #-20]	; 0xffffffec
   163cc:	e0033001 	and	r3, r3, r1
   163d0:	e1822003 	orr	r2, r2, r3
   163d4:	e51b1020 	ldr	r1, [fp, #-32]	; 0xffffffe0
   163d8:	e51b3034 	ldr	r3, [fp, #-52]	; 0xffffffcc
   163dc:	e0211003 	eor	r1, r1, r3
   163e0:	e51b304c 	ldr	r3, [fp, #-76]	; 0xffffffb4
   163e4:	e0211003 	eor	r1, r1, r3
   163e8:	e51b3054 	ldr	r3, [fp, #-84]	; 0xffffffac
   163ec:	e0233001 	eor	r3, r3, r1
   163f0:	e1a03fe3 	ror	r3, r3, #31
   163f4:	e50b3054 	str	r3, [fp, #-84]	; 0xffffffac
   163f8:	e51b3054 	ldr	r3, [fp, #-84]	; 0xffffffac
   163fc:	e0822003 	add	r2, r2, r3
   16400:	e51b300c 	ldr	r3, [fp, #-12]
   16404:	e1a03de3 	ror	r3, r3, #27
   16408:	e0822003 	add	r2, r2, r3
   1640c:	e30b3cdc 	movw	r3, #48348	; 0xbcdc
   16410:	e3483f1b 	movt	r3, #36635	; 0x8f1b
   16414:	e0823003 	add	r3, r2, r3
   16418:	e51b2008 	ldr	r2, [fp, #-8]
   1641c:	e0823003 	add	r3, r2, r3
   16420:	e50b3008 	str	r3, [fp, #-8]
   16424:	e51b3010 	ldr	r3, [fp, #-16]
   16428:	e1a03163 	ror	r3, r3, #2
   1642c:	e50b3010 	str	r3, [fp, #-16]
   16430:	e51b200c 	ldr	r2, [fp, #-12]
   16434:	e51b3010 	ldr	r3, [fp, #-16]
   16438:	e1822003 	orr	r2, r2, r3
   1643c:	e51b3014 	ldr	r3, [fp, #-20]	; 0xffffffec
   16440:	e0022003 	and	r2, r2, r3
   16444:	e51b100c 	ldr	r1, [fp, #-12]
   16448:	e51b3010 	ldr	r3, [fp, #-16]
   1644c:	e0033001 	and	r3, r3, r1
   16450:	e1822003 	orr	r2, r2, r3
   16454:	e51b101c 	ldr	r1, [fp, #-28]	; 0xffffffe4
   16458:	e51b3030 	ldr	r3, [fp, #-48]	; 0xffffffd0
   1645c:	e0211003 	eor	r1, r1, r3
   16460:	e51b3048 	ldr	r3, [fp, #-72]	; 0xffffffb8
   16464:	e0211003 	eor	r1, r1, r3
   16468:	e51b3050 	ldr	r3, [fp, #-80]	; 0xffffffb0
   1646c:	e0233001 	eor	r3, r3, r1
   16470:	e1a03fe3 	ror	r3, r3, #31
   16474:	e50b3050 	str	r3, [fp, #-80]	; 0xffffffb0
   16478:	e51b3050 	ldr	r3, [fp, #-80]	; 0xffffffb0
   1647c:	e0822003 	add	r2, r2, r3
   16480:	e51b3008 	ldr	r3, [fp, #-8]
   16484:	e1a03de3 	ror	r3, r3, #27
   16488:	e0822003 	add	r2, r2, r3
   1648c:	e30b3cdc 	movw	r3, #48348	; 0xbcdc
   16490:	e3483f1b 	movt	r3, #36635	; 0x8f1b
   16494:	e0823003 	add	r3, r2, r3
   16498:	e51b2018 	ldr	r2, [fp, #-24]	; 0xffffffe8
   1649c:	e0823003 	add	r3, r2, r3
   164a0:	e50b3018 	str	r3, [fp, #-24]	; 0xffffffe8
   164a4:	e51b300c 	ldr	r3, [fp, #-12]
   164a8:	e1a03163 	ror	r3, r3, #2
   164ac:	e50b300c 	str	r3, [fp, #-12]
   164b0:	e51b2008 	ldr	r2, [fp, #-8]
   164b4:	e51b300c 	ldr	r3, [fp, #-12]
   164b8:	e1822003 	orr	r2, r2, r3
   164bc:	e51b3010 	ldr	r3, [fp, #-16]
   164c0:	e0022003 	and	r2, r2, r3
   164c4:	e51b1008 	ldr	r1, [fp, #-8]
   164c8:	e51b300c 	ldr	r3, [fp, #-12]
   164cc:	e0033001 	and	r3, r3, r1
   164d0:	e1822003 	orr	r2, r2, r3
   164d4:	e51b1058 	ldr	r1, [fp, #-88]	; 0xffffffa8
   164d8:	e51b302c 	ldr	r3, [fp, #-44]	; 0xffffffd4
   164dc:	e0211003 	eor	r1, r1, r3
   164e0:	e51b3044 	ldr	r3, [fp, #-68]	; 0xffffffbc
   164e4:	e0211003 	eor	r1, r1, r3
   164e8:	e51b304c 	ldr	r3, [fp, #-76]	; 0xffffffb4
   164ec:	e0233001 	eor	r3, r3, r1
   164f0:	e1a03fe3 	ror	r3, r3, #31
   164f4:	e50b304c 	str	r3, [fp, #-76]	; 0xffffffb4
   164f8:	e51b304c 	ldr	r3, [fp, #-76]	; 0xffffffb4
   164fc:	e0822003 	add	r2, r2, r3
   16500:	e51b3018 	ldr	r3, [fp, #-24]	; 0xffffffe8
   16504:	e1a03de3 	ror	r3, r3, #27
   16508:	e0822003 	add	r2, r2, r3
   1650c:	e30b3cdc 	movw	r3, #48348	; 0xbcdc
   16510:	e3483f1b 	movt	r3, #36635	; 0x8f1b
   16514:	e0823003 	add	r3, r2, r3
   16518:	e51b2014 	ldr	r2, [fp, #-20]	; 0xffffffec
   1651c:	e0823003 	add	r3, r2, r3
   16520:	e50b3014 	str	r3, [fp, #-20]	; 0xffffffec
   16524:	e51b3008 	ldr	r3, [fp, #-8]
   16528:	e1a03163 	ror	r3, r3, #2
   1652c:	e50b3008 	str	r3, [fp, #-8]
   16530:	e51b2018 	ldr	r2, [fp, #-24]	; 0xffffffe8
   16534:	e51b3008 	ldr	r3, [fp, #-8]
   16538:	e1822003 	orr	r2, r2, r3
   1653c:	e51b300c 	ldr	r3, [fp, #-12]
   16540:	e0022003 	and	r2, r2, r3
   16544:	e51b1018 	ldr	r1, [fp, #-24]	; 0xffffffe8
   16548:	e51b3008 	ldr	r3, [fp, #-8]
   1654c:	e0033001 	and	r3, r3, r1
   16550:	e1822003 	orr	r2, r2, r3
   16554:	e51b1054 	ldr	r1, [fp, #-84]	; 0xffffffac
   16558:	e51b3028 	ldr	r3, [fp, #-40]	; 0xffffffd8
   1655c:	e0211003 	eor	r1, r1, r3
   16560:	e51b3040 	ldr	r3, [fp, #-64]	; 0xffffffc0
   16564:	e0211003 	eor	r1, r1, r3
   16568:	e51b3048 	ldr	r3, [fp, #-72]	; 0xffffffb8
   1656c:	e0233001 	eor	r3, r3, r1
   16570:	e1a03fe3 	ror	r3, r3, #31
   16574:	e50b3048 	str	r3, [fp, #-72]	; 0xffffffb8
   16578:	e51b3048 	ldr	r3, [fp, #-72]	; 0xffffffb8
   1657c:	e0822003 	add	r2, r2, r3
   16580:	e51b3014 	ldr	r3, [fp, #-20]	; 0xffffffec
   16584:	e1a03de3 	ror	r3, r3, #27
   16588:	e0822003 	add	r2, r2, r3
   1658c:	e30b3cdc 	movw	r3, #48348	; 0xbcdc
   16590:	e3483f1b 	movt	r3, #36635	; 0x8f1b
   16594:	e0823003 	add	r3, r2, r3
   16598:	e51b2010 	ldr	r2, [fp, #-16]
   1659c:	e0823003 	add	r3, r2, r3
   165a0:	e50b3010 	str	r3, [fp, #-16]
   165a4:	e51b3018 	ldr	r3, [fp, #-24]	; 0xffffffe8
   165a8:	e1a03163 	ror	r3, r3, #2
   165ac:	e50b3018 	str	r3, [fp, #-24]	; 0xffffffe8
   165b0:	e51b2014 	ldr	r2, [fp, #-20]	; 0xffffffec
   165b4:	e51b3018 	ldr	r3, [fp, #-24]	; 0xffffffe8
   165b8:	e1822003 	orr	r2, r2, r3
   165bc:	e51b3008 	ldr	r3, [fp, #-8]
   165c0:	e0022003 	and	r2, r2, r3
   165c4:	e51b1014 	ldr	r1, [fp, #-20]	; 0xffffffec
   165c8:	e51b3018 	ldr	r3, [fp, #-24]	; 0xffffffe8
   165cc:	e0033001 	and	r3, r3, r1
   165d0:	e1822003 	orr	r2, r2, r3
   165d4:	e51b1050 	ldr	r1, [fp, #-80]	; 0xffffffb0
   165d8:	e51b3024 	ldr	r3, [fp, #-36]	; 0xffffffdc
   165dc:	e0211003 	eor	r1, r1, r3
   165e0:	e51b303c 	ldr	r3, [fp, #-60]	; 0xffffffc4
   165e4:	e0211003 	eor	r1, r1, r3
   165e8:	e51b3044 	ldr	r3, [fp, #-68]	; 0xffffffbc
   165ec:	e0233001 	eor	r3, r3, r1
   165f0:	e1a03fe3 	ror	r3, r3, #31
   165f4:	e50b3044 	str	r3, [fp, #-68]	; 0xffffffbc
   165f8:	e51b3044 	ldr	r3, [fp, #-68]	; 0xffffffbc
   165fc:	e0822003 	add	r2, r2, r3
   16600:	e51b3010 	ldr	r3, [fp, #-16]
   16604:	e1a03de3 	ror	r3, r3, #27
   16608:	e0822003 	add	r2, r2, r3
   1660c:	e30b3cdc 	movw	r3, #48348	; 0xbcdc
   16610:	e3483f1b 	movt	r3, #36635	; 0x8f1b
   16614:	e0823003 	add	r3, r2, r3
   16618:	e51b200c 	ldr	r2, [fp, #-12]
   1661c:	e0823003 	add	r3, r2, r3
   16620:	e50b300c 	str	r3, [fp, #-12]
   16624:	e51b3014 	ldr	r3, [fp, #-20]	; 0xffffffec
   16628:	e1a03163 	ror	r3, r3, #2
   1662c:	e50b3014 	str	r3, [fp, #-20]	; 0xffffffec
   16630:	e51b2010 	ldr	r2, [fp, #-16]
   16634:	e51b3014 	ldr	r3, [fp, #-20]	; 0xffffffec
   16638:	e1822003 	orr	r2, r2, r3
   1663c:	e51b3018 	ldr	r3, [fp, #-24]	; 0xffffffe8
   16640:	e0022003 	and	r2, r2, r3
   16644:	e51b1010 	ldr	r1, [fp, #-16]
   16648:	e51b3014 	ldr	r3, [fp, #-20]	; 0xffffffec
   1664c:	e0033001 	and	r3, r3, r1
   16650:	e1822003 	orr	r2, r2, r3
   16654:	e51b104c 	ldr	r1, [fp, #-76]	; 0xffffffb4
   16658:	e51b3020 	ldr	r3, [fp, #-32]	; 0xffffffe0
   1665c:	e0211003 	eor	r1, r1, r3
   16660:	e51b3038 	ldr	r3, [fp, #-56]	; 0xffffffc8
   16664:	e0211003 	eor	r1, r1, r3
   16668:	e51b3040 	ldr	r3, [fp, #-64]	; 0xffffffc0
   1666c:	e0233001 	eor	r3, r3, r1
   16670:	e1a03fe3 	ror	r3, r3, #31
   16674:	e50b3040 	str	r3, [fp, #-64]	; 0xffffffc0
   16678:	e51b3040 	ldr	r3, [fp, #-64]	; 0xffffffc0
   1667c:	e0822003 	add	r2, r2, r3
   16680:	e51b300c 	ldr	r3, [fp, #-12]
   16684:	e1a03de3 	ror	r3, r3, #27
   16688:	e0822003 	add	r2, r2, r3
   1668c:	e30b3cdc 	movw	r3, #48348	; 0xbcdc
   16690:	e3483f1b 	movt	r3, #36635	; 0x8f1b
   16694:	e0823003 	add	r3, r2, r3
   16698:	e51b2008 	ldr	r2, [fp, #-8]
   1669c:	e0823003 	add	r3, r2, r3
   166a0:	e50b3008 	str	r3, [fp, #-8]
   166a4:	e51b3010 	ldr	r3, [fp, #-16]
   166a8:	e1a03163 	ror	r3, r3, #2
   166ac:	e50b3010 	str	r3, [fp, #-16]
   166b0:	e51b200c 	ldr	r2, [fp, #-12]
   166b4:	e51b3010 	ldr	r3, [fp, #-16]
   166b8:	e1822003 	orr	r2, r2, r3
   166bc:	e51b3014 	ldr	r3, [fp, #-20]	; 0xffffffec
   166c0:	e0022003 	and	r2, r2, r3
   166c4:	e51b100c 	ldr	r1, [fp, #-12]
   166c8:	e51b3010 	ldr	r3, [fp, #-16]
   166cc:	e0033001 	and	r3, r3, r1
   166d0:	e1822003 	orr	r2, r2, r3
   166d4:	e51b1048 	ldr	r1, [fp, #-72]	; 0xffffffb8
   166d8:	e51b301c 	ldr	r3, [fp, #-28]	; 0xffffffe4
   166dc:	e0211003 	eor	r1, r1, r3
   166e0:	e51b3034 	ldr	r3, [fp, #-52]	; 0xffffffcc
   166e4:	e0211003 	eor	r1, r1, r3
   166e8:	e51b303c 	ldr	r3, [fp, #-60]	; 0xffffffc4
   166ec:	e0233001 	eor	r3, r3, r1
   166f0:	e1a03fe3 	ror	r3, r3, #31
   166f4:	e50b303c 	str	r3, [fp, #-60]	; 0xffffffc4
   166f8:	e51b303c 	ldr	r3, [fp, #-60]	; 0xffffffc4
   166fc:	e0822003 	add	r2, r2, r3
   16700:	e51b3008 	ldr	r3, [fp, #-8]
   16704:	e1a03de3 	ror	r3, r3, #27
   16708:	e0822003 	add	r2, r2, r3
   1670c:	e30b3cdc 	movw	r3, #48348	; 0xbcdc
   16710:	e3483f1b 	movt	r3, #36635	; 0x8f1b
   16714:	e0823003 	add	r3, r2, r3
   16718:	e51b2018 	ldr	r2, [fp, #-24]	; 0xffffffe8
   1671c:	e0823003 	add	r3, r2, r3
   16720:	e50b3018 	str	r3, [fp, #-24]	; 0xffffffe8
   16724:	e51b300c 	ldr	r3, [fp, #-12]
   16728:	e1a03163 	ror	r3, r3, #2
   1672c:	e50b300c 	str	r3, [fp, #-12]
   16730:	e51b2008 	ldr	r2, [fp, #-8]
   16734:	e51b300c 	ldr	r3, [fp, #-12]
   16738:	e1822003 	orr	r2, r2, r3
   1673c:	e51b3010 	ldr	r3, [fp, #-16]
   16740:	e0022003 	and	r2, r2, r3
   16744:	e51b1008 	ldr	r1, [fp, #-8]
   16748:	e51b300c 	ldr	r3, [fp, #-12]
   1674c:	e0033001 	and	r3, r3, r1
   16750:	e1822003 	orr	r2, r2, r3
   16754:	e51b1044 	ldr	r1, [fp, #-68]	; 0xffffffbc
   16758:	e51b3058 	ldr	r3, [fp, #-88]	; 0xffffffa8
   1675c:	e0211003 	eor	r1, r1, r3
   16760:	e51b3030 	ldr	r3, [fp, #-48]	; 0xffffffd0
   16764:	e0211003 	eor	r1, r1, r3
   16768:	e51b3038 	ldr	r3, [fp, #-56]	; 0xffffffc8
   1676c:	e0233001 	eor	r3, r3, r1
   16770:	e1a03fe3 	ror	r3, r3, #31
   16774:	e50b3038 	str	r3, [fp, #-56]	; 0xffffffc8
   16778:	e51b3038 	ldr	r3, [fp, #-56]	; 0xffffffc8
   1677c:	e0822003 	add	r2, r2, r3
   16780:	e51b3018 	ldr	r3, [fp, #-24]	; 0xffffffe8
   16784:	e1a03de3 	ror	r3, r3, #27
   16788:	e0822003 	add	r2, r2, r3
   1678c:	e30b3cdc 	movw	r3, #48348	; 0xbcdc
   16790:	e3483f1b 	movt	r3, #36635	; 0x8f1b
   16794:	e0823003 	add	r3, r2, r3
   16798:	e51b2014 	ldr	r2, [fp, #-20]	; 0xffffffec
   1679c:	e0823003 	add	r3, r2, r3
   167a0:	e50b3014 	str	r3, [fp, #-20]	; 0xffffffec
   167a4:	e51b3008 	ldr	r3, [fp, #-8]
   167a8:	e1a03163 	ror	r3, r3, #2
   167ac:	e50b3008 	str	r3, [fp, #-8]
   167b0:	e51b2018 	ldr	r2, [fp, #-24]	; 0xffffffe8
   167b4:	e51b3008 	ldr	r3, [fp, #-8]
   167b8:	e1822003 	orr	r2, r2, r3
   167bc:	e51b300c 	ldr	r3, [fp, #-12]
   167c0:	e0022003 	and	r2, r2, r3
   167c4:	e51b1018 	ldr	r1, [fp, #-24]	; 0xffffffe8
   167c8:	e51b3008 	ldr	r3, [fp, #-8]
   167cc:	e0033001 	and	r3, r3, r1
   167d0:	e1822003 	orr	r2, r2, r3
   167d4:	e51b1040 	ldr	r1, [fp, #-64]	; 0xffffffc0
   167d8:	e51b3054 	ldr	r3, [fp, #-84]	; 0xffffffac
   167dc:	e0211003 	eor	r1, r1, r3
   167e0:	e51b302c 	ldr	r3, [fp, #-44]	; 0xffffffd4
   167e4:	e0211003 	eor	r1, r1, r3
   167e8:	e51b3034 	ldr	r3, [fp, #-52]	; 0xffffffcc
   167ec:	e0233001 	eor	r3, r3, r1
   167f0:	e1a03fe3 	ror	r3, r3, #31
   167f4:	e50b3034 	str	r3, [fp, #-52]	; 0xffffffcc
   167f8:	e51b3034 	ldr	r3, [fp, #-52]	; 0xffffffcc
   167fc:	e0822003 	add	r2, r2, r3
   16800:	e51b3014 	ldr	r3, [fp, #-20]	; 0xffffffec
   16804:	e1a03de3 	ror	r3, r3, #27
   16808:	e0822003 	add	r2, r2, r3
   1680c:	e30b3cdc 	movw	r3, #48348	; 0xbcdc
   16810:	e3483f1b 	movt	r3, #36635	; 0x8f1b
   16814:	e0823003 	add	r3, r2, r3
   16818:	e51b2010 	ldr	r2, [fp, #-16]
   1681c:	e0823003 	add	r3, r2, r3
   16820:	e50b3010 	str	r3, [fp, #-16]
   16824:	e51b3018 	ldr	r3, [fp, #-24]	; 0xffffffe8
   16828:	e1a03163 	ror	r3, r3, #2
   1682c:	e50b3018 	str	r3, [fp, #-24]	; 0xffffffe8
   16830:	e51b2014 	ldr	r2, [fp, #-20]	; 0xffffffec
   16834:	e51b3018 	ldr	r3, [fp, #-24]	; 0xffffffe8
   16838:	e1822003 	orr	r2, r2, r3
   1683c:	e51b3008 	ldr	r3, [fp, #-8]
   16840:	e0022003 	and	r2, r2, r3
   16844:	e51b1014 	ldr	r1, [fp, #-20]	; 0xffffffec
   16848:	e51b3018 	ldr	r3, [fp, #-24]	; 0xffffffe8
   1684c:	e0033001 	and	r3, r3, r1
   16850:	e1822003 	orr	r2, r2, r3
   16854:	e51b103c 	ldr	r1, [fp, #-60]	; 0xffffffc4
   16858:	e51b3050 	ldr	r3, [fp, #-80]	; 0xffffffb0
   1685c:	e0211003 	eor	r1, r1, r3
   16860:	e51b3028 	ldr	r3, [fp, #-40]	; 0xffffffd8
   16864:	e0211003 	eor	r1, r1, r3
   16868:	e51b3030 	ldr	r3, [fp, #-48]	; 0xffffffd0
   1686c:	e0233001 	eor	r3, r3, r1
   16870:	e1a03fe3 	ror	r3, r3, #31
   16874:	e50b3030 	str	r3, [fp, #-48]	; 0xffffffd0
   16878:	e51b3030 	ldr	r3, [fp, #-48]	; 0xffffffd0
   1687c:	e0822003 	add	r2, r2, r3
   16880:	e51b3010 	ldr	r3, [fp, #-16]
   16884:	e1a03de3 	ror	r3, r3, #27
   16888:	e0822003 	add	r2, r2, r3
   1688c:	e30b3cdc 	movw	r3, #48348	; 0xbcdc
   16890:	e3483f1b 	movt	r3, #36635	; 0x8f1b
   16894:	e0823003 	add	r3, r2, r3
   16898:	e51b200c 	ldr	r2, [fp, #-12]
   1689c:	e0823003 	add	r3, r2, r3
   168a0:	e50b300c 	str	r3, [fp, #-12]
   168a4:	e51b3014 	ldr	r3, [fp, #-20]	; 0xffffffec
   168a8:	e1a03163 	ror	r3, r3, #2
   168ac:	e50b3014 	str	r3, [fp, #-20]	; 0xffffffec
   168b0:	e51b2010 	ldr	r2, [fp, #-16]
   168b4:	e51b3014 	ldr	r3, [fp, #-20]	; 0xffffffec
   168b8:	e1822003 	orr	r2, r2, r3
   168bc:	e51b3018 	ldr	r3, [fp, #-24]	; 0xffffffe8
   168c0:	e0022003 	and	r2, r2, r3
   168c4:	e51b1010 	ldr	r1, [fp, #-16]
   168c8:	e51b3014 	ldr	r3, [fp, #-20]	; 0xffffffec
   168cc:	e0033001 	and	r3, r3, r1
   168d0:	e1822003 	orr	r2, r2, r3
   168d4:	e51b1038 	ldr	r1, [fp, #-56]	; 0xffffffc8
   168d8:	e51b304c 	ldr	r3, [fp, #-76]	; 0xffffffb4
   168dc:	e0211003 	eor	r1, r1, r3
   168e0:	e51b3024 	ldr	r3, [fp, #-36]	; 0xffffffdc
   168e4:	e0211003 	eor	r1, r1, r3
   168e8:	e51b302c 	ldr	r3, [fp, #-44]	; 0xffffffd4
   168ec:	e0233001 	eor	r3, r3, r1
   168f0:	e1a03fe3 	ror	r3, r3, #31
   168f4:	e50b302c 	str	r3, [fp, #-44]	; 0xffffffd4
   168f8:	e51b302c 	ldr	r3, [fp, #-44]	; 0xffffffd4
   168fc:	e0822003 	add	r2, r2, r3
   16900:	e51b300c 	ldr	r3, [fp, #-12]
   16904:	e1a03de3 	ror	r3, r3, #27
   16908:	e0822003 	add	r2, r2, r3
   1690c:	e30b3cdc 	movw	r3, #48348	; 0xbcdc
   16910:	e3483f1b 	movt	r3, #36635	; 0x8f1b
   16914:	e0823003 	add	r3, r2, r3
   16918:	e51b2008 	ldr	r2, [fp, #-8]
   1691c:	e0823003 	add	r3, r2, r3
   16920:	e50b3008 	str	r3, [fp, #-8]
   16924:	e51b3010 	ldr	r3, [fp, #-16]
   16928:	e1a03163 	ror	r3, r3, #2
   1692c:	e50b3010 	str	r3, [fp, #-16]
   16930:	e51b200c 	ldr	r2, [fp, #-12]
   16934:	e51b3010 	ldr	r3, [fp, #-16]
   16938:	e0222003 	eor	r2, r2, r3
   1693c:	e51b3014 	ldr	r3, [fp, #-20]	; 0xffffffec
   16940:	e0222003 	eor	r2, r2, r3
   16944:	e51b1034 	ldr	r1, [fp, #-52]	; 0xffffffcc
   16948:	e51b3048 	ldr	r3, [fp, #-72]	; 0xffffffb8
   1694c:	e0211003 	eor	r1, r1, r3
   16950:	e51b3020 	ldr	r3, [fp, #-32]	; 0xffffffe0
   16954:	e0211003 	eor	r1, r1, r3
   16958:	e51b3028 	ldr	r3, [fp, #-40]	; 0xffffffd8
   1695c:	e0233001 	eor	r3, r3, r1
   16960:	e1a03fe3 	ror	r3, r3, #31
   16964:	e50b3028 	str	r3, [fp, #-40]	; 0xffffffd8
   16968:	e51b3028 	ldr	r3, [fp, #-40]	; 0xffffffd8
   1696c:	e0822003 	add	r2, r2, r3
   16970:	e51b3008 	ldr	r3, [fp, #-8]
   16974:	e1a03de3 	ror	r3, r3, #27
   16978:	e0822003 	add	r2, r2, r3
   1697c:	e30c31d6 	movw	r3, #49622	; 0xc1d6
   16980:	e34c3a62 	movt	r3, #51810	; 0xca62
   16984:	e0823003 	add	r3, r2, r3
   16988:	e51b2018 	ldr	r2, [fp, #-24]	; 0xffffffe8
   1698c:	e0823003 	add	r3, r2, r3
   16990:	e50b3018 	str	r3, [fp, #-24]	; 0xffffffe8
   16994:	e51b300c 	ldr	r3, [fp, #-12]
   16998:	e1a03163 	ror	r3, r3, #2
   1699c:	e50b300c 	str	r3, [fp, #-12]
   169a0:	e51b2008 	ldr	r2, [fp, #-8]
   169a4:	e51b300c 	ldr	r3, [fp, #-12]
   169a8:	e0222003 	eor	r2, r2, r3
   169ac:	e51b3010 	ldr	r3, [fp, #-16]
   169b0:	e0222003 	eor	r2, r2, r3
   169b4:	e51b1030 	ldr	r1, [fp, #-48]	; 0xffffffd0
   169b8:	e51b3044 	ldr	r3, [fp, #-68]	; 0xffffffbc
   169bc:	e0211003 	eor	r1, r1, r3
   169c0:	e51b301c 	ldr	r3, [fp, #-28]	; 0xffffffe4
   169c4:	e0211003 	eor	r1, r1, r3
   169c8:	e51b3024 	ldr	r3, [fp, #-36]	; 0xffffffdc
   169cc:	e0233001 	eor	r3, r3, r1
   169d0:	e1a03fe3 	ror	r3, r3, #31
   169d4:	e50b3024 	str	r3, [fp, #-36]	; 0xffffffdc
   169d8:	e51b3024 	ldr	r3, [fp, #-36]	; 0xffffffdc
   169dc:	e0822003 	add	r2, r2, r3
   169e0:	e51b3018 	ldr	r3, [fp, #-24]	; 0xffffffe8
   169e4:	e1a03de3 	ror	r3, r3, #27
   169e8:	e0822003 	add	r2, r2, r3
   169ec:	e30c31d6 	movw	r3, #49622	; 0xc1d6
   169f0:	e34c3a62 	movt	r3, #51810	; 0xca62
   169f4:	e0823003 	add	r3, r2, r3
   169f8:	e51b2014 	ldr	r2, [fp, #-20]	; 0xffffffec
   169fc:	e0823003 	add	r3, r2, r3
   16a00:	e50b3014 	str	r3, [fp, #-20]	; 0xffffffec
   16a04:	e51b3008 	ldr	r3, [fp, #-8]
   16a08:	e1a03163 	ror	r3, r3, #2
   16a0c:	e50b3008 	str	r3, [fp, #-8]
   16a10:	e51b2018 	ldr	r2, [fp, #-24]	; 0xffffffe8
   16a14:	e51b3008 	ldr	r3, [fp, #-8]
   16a18:	e0222003 	eor	r2, r2, r3
   16a1c:	e51b300c 	ldr	r3, [fp, #-12]
   16a20:	e0222003 	eor	r2, r2, r3
   16a24:	e51b102c 	ldr	r1, [fp, #-44]	; 0xffffffd4
   16a28:	e51b3040 	ldr	r3, [fp, #-64]	; 0xffffffc0
   16a2c:	e0211003 	eor	r1, r1, r3
   16a30:	e51b3058 	ldr	r3, [fp, #-88]	; 0xffffffa8
   16a34:	e0211003 	eor	r1, r1, r3
   16a38:	e51b3020 	ldr	r3, [fp, #-32]	; 0xffffffe0
   16a3c:	e0233001 	eor	r3, r3, r1
   16a40:	e1a03fe3 	ror	r3, r3, #31
   16a44:	e50b3020 	str	r3, [fp, #-32]	; 0xffffffe0
   16a48:	e51b3020 	ldr	r3, [fp, #-32]	; 0xffffffe0
   16a4c:	e0822003 	add	r2, r2, r3
   16a50:	e51b3014 	ldr	r3, [fp, #-20]	; 0xffffffec
   16a54:	e1a03de3 	ror	r3, r3, #27
   16a58:	e0822003 	add	r2, r2, r3
   16a5c:	e30c31d6 	movw	r3, #49622	; 0xc1d6
   16a60:	e34c3a62 	movt	r3, #51810	; 0xca62
   16a64:	e0823003 	add	r3, r2, r3
   16a68:	e51b2010 	ldr	r2, [fp, #-16]
   16a6c:	e0823003 	add	r3, r2, r3
   16a70:	e50b3010 	str	r3, [fp, #-16]
   16a74:	e51b3018 	ldr	r3, [fp, #-24]	; 0xffffffe8
   16a78:	e1a03163 	ror	r3, r3, #2
   16a7c:	e50b3018 	str	r3, [fp, #-24]	; 0xffffffe8
   16a80:	e51b2014 	ldr	r2, [fp, #-20]	; 0xffffffec
   16a84:	e51b3018 	ldr	r3, [fp, #-24]	; 0xffffffe8
   16a88:	e0222003 	eor	r2, r2, r3
   16a8c:	e51b3008 	ldr	r3, [fp, #-8]
   16a90:	e0222003 	eor	r2, r2, r3
   16a94:	e51b1028 	ldr	r1, [fp, #-40]	; 0xffffffd8
   16a98:	e51b303c 	ldr	r3, [fp, #-60]	; 0xffffffc4
   16a9c:	e0211003 	eor	r1, r1, r3
   16aa0:	e51b3054 	ldr	r3, [fp, #-84]	; 0xffffffac
   16aa4:	e0211003 	eor	r1, r1, r3
   16aa8:	e51b301c 	ldr	r3, [fp, #-28]	; 0xffffffe4
   16aac:	e0233001 	eor	r3, r3, r1
   16ab0:	e1a03fe3 	ror	r3, r3, #31
   16ab4:	e50b301c 	str	r3, [fp, #-28]	; 0xffffffe4
   16ab8:	e51b301c 	ldr	r3, [fp, #-28]	; 0xffffffe4
   16abc:	e0822003 	add	r2, r2, r3
   16ac0:	e51b3010 	ldr	r3, [fp, #-16]
   16ac4:	e1a03de3 	ror	r3, r3, #27
   16ac8:	e0822003 	add	r2, r2, r3
   16acc:	e30c31d6 	movw	r3, #49622	; 0xc1d6
   16ad0:	e34c3a62 	movt	r3, #51810	; 0xca62
   16ad4:	e0823003 	add	r3, r2, r3
   16ad8:	e51b200c 	ldr	r2, [fp, #-12]
   16adc:	e0823003 	add	r3, r2, r3
   16ae0:	e50b300c 	str	r3, [fp, #-12]
   16ae4:	e51b3014 	ldr	r3, [fp, #-20]	; 0xffffffec
   16ae8:	e1a03163 	ror	r3, r3, #2
   16aec:	e50b3014 	str	r3, [fp, #-20]	; 0xffffffec
   16af0:	e51b2010 	ldr	r2, [fp, #-16]
   16af4:	e51b3014 	ldr	r3, [fp, #-20]	; 0xffffffec
   16af8:	e0222003 	eor	r2, r2, r3
   16afc:	e51b3018 	ldr	r3, [fp, #-24]	; 0xffffffe8
   16b00:	e0222003 	eor	r2, r2, r3
   16b04:	e51b1024 	ldr	r1, [fp, #-36]	; 0xffffffdc
   16b08:	e51b3038 	ldr	r3, [fp, #-56]	; 0xffffffc8
   16b0c:	e0211003 	eor	r1, r1, r3
   16b10:	e51b3050 	ldr	r3, [fp, #-80]	; 0xffffffb0
   16b14:	e0211003 	eor	r1, r1, r3
   16b18:	e51b3058 	ldr	r3, [fp, #-88]	; 0xffffffa8
   16b1c:	e0233001 	eor	r3, r3, r1
   16b20:	e1a03fe3 	ror	r3, r3, #31
   16b24:	e50b3058 	str	r3, [fp, #-88]	; 0xffffffa8
   16b28:	e51b3058 	ldr	r3, [fp, #-88]	; 0xffffffa8
   16b2c:	e0822003 	add	r2, r2, r3
   16b30:	e51b300c 	ldr	r3, [fp, #-12]
   16b34:	e1a03de3 	ror	r3, r3, #27
   16b38:	e0822003 	add	r2, r2, r3
   16b3c:	e30c31d6 	movw	r3, #49622	; 0xc1d6
   16b40:	e34c3a62 	movt	r3, #51810	; 0xca62
   16b44:	e0823003 	add	r3, r2, r3
   16b48:	e51b2008 	ldr	r2, [fp, #-8]
   16b4c:	e0823003 	add	r3, r2, r3
   16b50:	e50b3008 	str	r3, [fp, #-8]
   16b54:	e51b3010 	ldr	r3, [fp, #-16]
   16b58:	e1a03163 	ror	r3, r3, #2
   16b5c:	e50b3010 	str	r3, [fp, #-16]
   16b60:	e51b200c 	ldr	r2, [fp, #-12]
   16b64:	e51b3010 	ldr	r3, [fp, #-16]
   16b68:	e0222003 	eor	r2, r2, r3
   16b6c:	e51b3014 	ldr	r3, [fp, #-20]	; 0xffffffec
   16b70:	e0222003 	eor	r2, r2, r3
   16b74:	e51b1020 	ldr	r1, [fp, #-32]	; 0xffffffe0
   16b78:	e51b3034 	ldr	r3, [fp, #-52]	; 0xffffffcc
   16b7c:	e0211003 	eor	r1, r1, r3
   16b80:	e51b304c 	ldr	r3, [fp, #-76]	; 0xffffffb4
   16b84:	e0211003 	eor	r1, r1, r3
   16b88:	e51b3054 	ldr	r3, [fp, #-84]	; 0xffffffac
   16b8c:	e0233001 	eor	r3, r3, r1
   16b90:	e1a03fe3 	ror	r3, r3, #31
   16b94:	e50b3054 	str	r3, [fp, #-84]	; 0xffffffac
   16b98:	e51b3054 	ldr	r3, [fp, #-84]	; 0xffffffac
   16b9c:	e0822003 	add	r2, r2, r3
   16ba0:	e51b3008 	ldr	r3, [fp, #-8]
   16ba4:	e1a03de3 	ror	r3, r3, #27
   16ba8:	e0822003 	add	r2, r2, r3
   16bac:	e30c31d6 	movw	r3, #49622	; 0xc1d6
   16bb0:	e34c3a62 	movt	r3, #51810	; 0xca62
   16bb4:	e0823003 	add	r3, r2, r3
   16bb8:	e51b2018 	ldr	r2, [fp, #-24]	; 0xffffffe8
   16bbc:	e0823003 	add	r3, r2, r3
   16bc0:	e50b3018 	str	r3, [fp, #-24]	; 0xffffffe8
   16bc4:	e51b300c 	ldr	r3, [fp, #-12]
   16bc8:	e1a03163 	ror	r3, r3, #2
   16bcc:	e50b300c 	str	r3, [fp, #-12]
   16bd0:	e51b2008 	ldr	r2, [fp, #-8]
   16bd4:	e51b300c 	ldr	r3, [fp, #-12]
   16bd8:	e0222003 	eor	r2, r2, r3
   16bdc:	e51b3010 	ldr	r3, [fp, #-16]
   16be0:	e0222003 	eor	r2, r2, r3
   16be4:	e51b101c 	ldr	r1, [fp, #-28]	; 0xffffffe4
   16be8:	e51b3030 	ldr	r3, [fp, #-48]	; 0xffffffd0
   16bec:	e0211003 	eor	r1, r1, r3
   16bf0:	e51b3048 	ldr	r3, [fp, #-72]	; 0xffffffb8
   16bf4:	e0211003 	eor	r1, r1, r3
   16bf8:	e51b3050 	ldr	r3, [fp, #-80]	; 0xffffffb0
   16bfc:	e0233001 	eor	r3, r3, r1
   16c00:	e1a03fe3 	ror	r3, r3, #31
   16c04:	e50b3050 	str	r3, [fp, #-80]	; 0xffffffb0
   16c08:	e51b3050 	ldr	r3, [fp, #-80]	; 0xffffffb0
   16c0c:	e0822003 	add	r2, r2, r3
   16c10:	e51b3018 	ldr	r3, [fp, #-24]	; 0xffffffe8
   16c14:	e1a03de3 	ror	r3, r3, #27
   16c18:	e0822003 	add	r2, r2, r3
   16c1c:	e30c31d6 	movw	r3, #49622	; 0xc1d6
   16c20:	e34c3a62 	movt	r3, #51810	; 0xca62
   16c24:	e0823003 	add	r3, r2, r3
   16c28:	e51b2014 	ldr	r2, [fp, #-20]	; 0xffffffec
   16c2c:	e0823003 	add	r3, r2, r3
   16c30:	e50b3014 	str	r3, [fp, #-20]	; 0xffffffec
   16c34:	e51b3008 	ldr	r3, [fp, #-8]
   16c38:	e1a03163 	ror	r3, r3, #2
   16c3c:	e50b3008 	str	r3, [fp, #-8]
   16c40:	e51b2018 	ldr	r2, [fp, #-24]	; 0xffffffe8
   16c44:	e51b3008 	ldr	r3, [fp, #-8]
   16c48:	e0222003 	eor	r2, r2, r3
   16c4c:	e51b300c 	ldr	r3, [fp, #-12]
   16c50:	e0222003 	eor	r2, r2, r3
   16c54:	e51b1058 	ldr	r1, [fp, #-88]	; 0xffffffa8
   16c58:	e51b302c 	ldr	r3, [fp, #-44]	; 0xffffffd4
   16c5c:	e0211003 	eor	r1, r1, r3
   16c60:	e51b3044 	ldr	r3, [fp, #-68]	; 0xffffffbc
   16c64:	e0211003 	eor	r1, r1, r3
   16c68:	e51b304c 	ldr	r3, [fp, #-76]	; 0xffffffb4
   16c6c:	e0233001 	eor	r3, r3, r1
   16c70:	e1a03fe3 	ror	r3, r3, #31
   16c74:	e50b304c 	str	r3, [fp, #-76]	; 0xffffffb4
   16c78:	e51b304c 	ldr	r3, [fp, #-76]	; 0xffffffb4
   16c7c:	e0822003 	add	r2, r2, r3
   16c80:	e51b3014 	ldr	r3, [fp, #-20]	; 0xffffffec
   16c84:	e1a03de3 	ror	r3, r3, #27
   16c88:	e0822003 	add	r2, r2, r3
   16c8c:	e30c31d6 	movw	r3, #49622	; 0xc1d6
   16c90:	e34c3a62 	movt	r3, #51810	; 0xca62
   16c94:	e0823003 	add	r3, r2, r3
   16c98:	e51b2010 	ldr	r2, [fp, #-16]
   16c9c:	e0823003 	add	r3, r2, r3
   16ca0:	e50b3010 	str	r3, [fp, #-16]
   16ca4:	e51b3018 	ldr	r3, [fp, #-24]	; 0xffffffe8
   16ca8:	e1a03163 	ror	r3, r3, #2
   16cac:	e50b3018 	str	r3, [fp, #-24]	; 0xffffffe8
   16cb0:	e51b2014 	ldr	r2, [fp, #-20]	; 0xffffffec
   16cb4:	e51b3018 	ldr	r3, [fp, #-24]	; 0xffffffe8
   16cb8:	e0222003 	eor	r2, r2, r3
   16cbc:	e51b3008 	ldr	r3, [fp, #-8]
   16cc0:	e0222003 	eor	r2, r2, r3
   16cc4:	e51b1054 	ldr	r1, [fp, #-84]	; 0xffffffac
   16cc8:	e51b3028 	ldr	r3, [fp, #-40]	; 0xffffffd8
   16ccc:	e0211003 	eor	r1, r1, r3
   16cd0:	e51b3040 	ldr	r3, [fp, #-64]	; 0xffffffc0
   16cd4:	e0211003 	eor	r1, r1, r3
   16cd8:	e51b3048 	ldr	r3, [fp, #-72]	; 0xffffffb8
   16cdc:	e0233001 	eor	r3, r3, r1
   16ce0:	e1a03fe3 	ror	r3, r3, #31
   16ce4:	e50b3048 	str	r3, [fp, #-72]	; 0xffffffb8
   16ce8:	e51b3048 	ldr	r3, [fp, #-72]	; 0xffffffb8
   16cec:	e0822003 	add	r2, r2, r3
   16cf0:	e51b3010 	ldr	r3, [fp, #-16]
   16cf4:	e1a03de3 	ror	r3, r3, #27
   16cf8:	e0822003 	add	r2, r2, r3
   16cfc:	e30c31d6 	movw	r3, #49622	; 0xc1d6
   16d00:	e34c3a62 	movt	r3, #51810	; 0xca62
   16d04:	e0823003 	add	r3, r2, r3
   16d08:	e51b200c 	ldr	r2, [fp, #-12]
   16d0c:	e0823003 	add	r3, r2, r3
   16d10:	e50b300c 	str	r3, [fp, #-12]
   16d14:	e51b3014 	ldr	r3, [fp, #-20]	; 0xffffffec
   16d18:	e1a03163 	ror	r3, r3, #2
   16d1c:	e50b3014 	str	r3, [fp, #-20]	; 0xffffffec
   16d20:	e51b2010 	ldr	r2, [fp, #-16]
   16d24:	e51b3014 	ldr	r3, [fp, #-20]	; 0xffffffec
   16d28:	e0222003 	eor	r2, r2, r3
   16d2c:	e51b3018 	ldr	r3, [fp, #-24]	; 0xffffffe8
   16d30:	e0222003 	eor	r2, r2, r3
   16d34:	e51b1050 	ldr	r1, [fp, #-80]	; 0xffffffb0
   16d38:	e51b3024 	ldr	r3, [fp, #-36]	; 0xffffffdc
   16d3c:	e0211003 	eor	r1, r1, r3
   16d40:	e51b303c 	ldr	r3, [fp, #-60]	; 0xffffffc4
   16d44:	e0211003 	eor	r1, r1, r3
   16d48:	e51b3044 	ldr	r3, [fp, #-68]	; 0xffffffbc
   16d4c:	e0233001 	eor	r3, r3, r1
   16d50:	e1a03fe3 	ror	r3, r3, #31
   16d54:	e50b3044 	str	r3, [fp, #-68]	; 0xffffffbc
   16d58:	e51b3044 	ldr	r3, [fp, #-68]	; 0xffffffbc
   16d5c:	e0822003 	add	r2, r2, r3
   16d60:	e51b300c 	ldr	r3, [fp, #-12]
   16d64:	e1a03de3 	ror	r3, r3, #27
   16d68:	e0822003 	add	r2, r2, r3
   16d6c:	e30c31d6 	movw	r3, #49622	; 0xc1d6
   16d70:	e34c3a62 	movt	r3, #51810	; 0xca62
   16d74:	e0823003 	add	r3, r2, r3
   16d78:	e51b2008 	ldr	r2, [fp, #-8]
   16d7c:	e0823003 	add	r3, r2, r3
   16d80:	e50b3008 	str	r3, [fp, #-8]
   16d84:	e51b3010 	ldr	r3, [fp, #-16]
   16d88:	e1a03163 	ror	r3, r3, #2
   16d8c:	e50b3010 	str	r3, [fp, #-16]
   16d90:	e51b200c 	ldr	r2, [fp, #-12]
   16d94:	e51b3010 	ldr	r3, [fp, #-16]
   16d98:	e0222003 	eor	r2, r2, r3
   16d9c:	e51b3014 	ldr	r3, [fp, #-20]	; 0xffffffec
   16da0:	e0222003 	eor	r2, r2, r3
   16da4:	e51b104c 	ldr	r1, [fp, #-76]	; 0xffffffb4
   16da8:	e51b3020 	ldr	r3, [fp, #-32]	; 0xffffffe0
   16dac:	e0211003 	eor	r1, r1, r3
   16db0:	e51b3038 	ldr	r3, [fp, #-56]	; 0xffffffc8
   16db4:	e0211003 	eor	r1, r1, r3
   16db8:	e51b3040 	ldr	r3, [fp, #-64]	; 0xffffffc0
   16dbc:	e0233001 	eor	r3, r3, r1
   16dc0:	e1a03fe3 	ror	r3, r3, #31
   16dc4:	e50b3040 	str	r3, [fp, #-64]	; 0xffffffc0
   16dc8:	e51b3040 	ldr	r3, [fp, #-64]	; 0xffffffc0
   16dcc:	e0822003 	add	r2, r2, r3
   16dd0:	e51b3008 	ldr	r3, [fp, #-8]
   16dd4:	e1a03de3 	ror	r3, r3, #27
   16dd8:	e0822003 	add	r2, r2, r3
   16ddc:	e30c31d6 	movw	r3, #49622	; 0xc1d6
   16de0:	e34c3a62 	movt	r3, #51810	; 0xca62
   16de4:	e0823003 	add	r3, r2, r3
   16de8:	e51b2018 	ldr	r2, [fp, #-24]	; 0xffffffe8
   16dec:	e0823003 	add	r3, r2, r3
   16df0:	e50b3018 	str	r3, [fp, #-24]	; 0xffffffe8
   16df4:	e51b300c 	ldr	r3, [fp, #-12]
   16df8:	e1a03163 	ror	r3, r3, #2
   16dfc:	e50b300c 	str	r3, [fp, #-12]
   16e00:	e51b2008 	ldr	r2, [fp, #-8]
   16e04:	e51b300c 	ldr	r3, [fp, #-12]
   16e08:	e0222003 	eor	r2, r2, r3
   16e0c:	e51b3010 	ldr	r3, [fp, #-16]
   16e10:	e0222003 	eor	r2, r2, r3
   16e14:	e51b1048 	ldr	r1, [fp, #-72]	; 0xffffffb8
   16e18:	e51b301c 	ldr	r3, [fp, #-28]	; 0xffffffe4
   16e1c:	e0211003 	eor	r1, r1, r3
   16e20:	e51b3034 	ldr	r3, [fp, #-52]	; 0xffffffcc
   16e24:	e0211003 	eor	r1, r1, r3
   16e28:	e51b303c 	ldr	r3, [fp, #-60]	; 0xffffffc4
   16e2c:	e0233001 	eor	r3, r3, r1
   16e30:	e1a03fe3 	ror	r3, r3, #31
   16e34:	e50b303c 	str	r3, [fp, #-60]	; 0xffffffc4
   16e38:	e51b303c 	ldr	r3, [fp, #-60]	; 0xffffffc4
   16e3c:	e0822003 	add	r2, r2, r3
   16e40:	e51b3018 	ldr	r3, [fp, #-24]	; 0xffffffe8
   16e44:	e1a03de3 	ror	r3, r3, #27
   16e48:	e0822003 	add	r2, r2, r3
   16e4c:	e30c31d6 	movw	r3, #49622	; 0xc1d6
   16e50:	e34c3a62 	movt	r3, #51810	; 0xca62
   16e54:	e0823003 	add	r3, r2, r3
   16e58:	e51b2014 	ldr	r2, [fp, #-20]	; 0xffffffec
   16e5c:	e0823003 	add	r3, r2, r3
   16e60:	e50b3014 	str	r3, [fp, #-20]	; 0xffffffec
   16e64:	e51b3008 	ldr	r3, [fp, #-8]
   16e68:	e1a03163 	ror	r3, r3, #2
   16e6c:	e50b3008 	str	r3, [fp, #-8]
   16e70:	e51b2018 	ldr	r2, [fp, #-24]	; 0xffffffe8
   16e74:	e51b3008 	ldr	r3, [fp, #-8]
   16e78:	e0222003 	eor	r2, r2, r3
   16e7c:	e51b300c 	ldr	r3, [fp, #-12]
   16e80:	e0222003 	eor	r2, r2, r3
   16e84:	e51b1044 	ldr	r1, [fp, #-68]	; 0xffffffbc
   16e88:	e51b3058 	ldr	r3, [fp, #-88]	; 0xffffffa8
   16e8c:	e0211003 	eor	r1, r1, r3
   16e90:	e51b3030 	ldr	r3, [fp, #-48]	; 0xffffffd0
   16e94:	e0211003 	eor	r1, r1, r3
   16e98:	e51b3038 	ldr	r3, [fp, #-56]	; 0xffffffc8
   16e9c:	e0233001 	eor	r3, r3, r1
   16ea0:	e1a03fe3 	ror	r3, r3, #31
   16ea4:	e50b3038 	str	r3, [fp, #-56]	; 0xffffffc8
   16ea8:	e51b3038 	ldr	r3, [fp, #-56]	; 0xffffffc8
   16eac:	e0822003 	add	r2, r2, r3
   16eb0:	e51b3014 	ldr	r3, [fp, #-20]	; 0xffffffec
   16eb4:	e1a03de3 	ror	r3, r3, #27
   16eb8:	e0822003 	add	r2, r2, r3
   16ebc:	e30c31d6 	movw	r3, #49622	; 0xc1d6
   16ec0:	e34c3a62 	movt	r3, #51810	; 0xca62
   16ec4:	e0823003 	add	r3, r2, r3
   16ec8:	e51b2010 	ldr	r2, [fp, #-16]
   16ecc:	e0823003 	add	r3, r2, r3
   16ed0:	e50b3010 	str	r3, [fp, #-16]
   16ed4:	e51b3018 	ldr	r3, [fp, #-24]	; 0xffffffe8
   16ed8:	e1a03163 	ror	r3, r3, #2
   16edc:	e50b3018 	str	r3, [fp, #-24]	; 0xffffffe8
   16ee0:	e51b2014 	ldr	r2, [fp, #-20]	; 0xffffffec
   16ee4:	e51b3018 	ldr	r3, [fp, #-24]	; 0xffffffe8
   16ee8:	e0222003 	eor	r2, r2, r3
   16eec:	e51b3008 	ldr	r3, [fp, #-8]
   16ef0:	e0222003 	eor	r2, r2, r3
   16ef4:	e51b1040 	ldr	r1, [fp, #-64]	; 0xffffffc0
   16ef8:	e51b3054 	ldr	r3, [fp, #-84]	; 0xffffffac
   16efc:	e0211003 	eor	r1, r1, r3
   16f00:	e51b302c 	ldr	r3, [fp, #-44]	; 0xffffffd4
   16f04:	e0211003 	eor	r1, r1, r3
   16f08:	e51b3034 	ldr	r3, [fp, #-52]	; 0xffffffcc
   16f0c:	e0233001 	eor	r3, r3, r1
   16f10:	e1a03fe3 	ror	r3, r3, #31
   16f14:	e50b3034 	str	r3, [fp, #-52]	; 0xffffffcc
   16f18:	e51b3034 	ldr	r3, [fp, #-52]	; 0xffffffcc
   16f1c:	e0822003 	add	r2, r2, r3
   16f20:	e51b3010 	ldr	r3, [fp, #-16]
   16f24:	e1a03de3 	ror	r3, r3, #27
   16f28:	e0822003 	add	r2, r2, r3
   16f2c:	e30c31d6 	movw	r3, #49622	; 0xc1d6
   16f30:	e34c3a62 	movt	r3, #51810	; 0xca62
   16f34:	e0823003 	add	r3, r2, r3
   16f38:	e51b200c 	ldr	r2, [fp, #-12]
   16f3c:	e0823003 	add	r3, r2, r3
   16f40:	e50b300c 	str	r3, [fp, #-12]
   16f44:	e51b3014 	ldr	r3, [fp, #-20]	; 0xffffffec
   16f48:	e1a03163 	ror	r3, r3, #2
   16f4c:	e50b3014 	str	r3, [fp, #-20]	; 0xffffffec
   16f50:	e51b2010 	ldr	r2, [fp, #-16]
   16f54:	e51b3014 	ldr	r3, [fp, #-20]	; 0xffffffec
   16f58:	e0222003 	eor	r2, r2, r3
   16f5c:	e51b3018 	ldr	r3, [fp, #-24]	; 0xffffffe8
   16f60:	e0222003 	eor	r2, r2, r3
   16f64:	e51b103c 	ldr	r1, [fp, #-60]	; 0xffffffc4
   16f68:	e51b3050 	ldr	r3, [fp, #-80]	; 0xffffffb0
   16f6c:	e0211003 	eor	r1, r1, r3
   16f70:	e51b3028 	ldr	r3, [fp, #-40]	; 0xffffffd8
   16f74:	e0211003 	eor	r1, r1, r3
   16f78:	e51b3030 	ldr	r3, [fp, #-48]	; 0xffffffd0
   16f7c:	e0233001 	eor	r3, r3, r1
   16f80:	e1a03fe3 	ror	r3, r3, #31
   16f84:	e50b3030 	str	r3, [fp, #-48]	; 0xffffffd0
   16f88:	e51b3030 	ldr	r3, [fp, #-48]	; 0xffffffd0
   16f8c:	e0822003 	add	r2, r2, r3
   16f90:	e51b300c 	ldr	r3, [fp, #-12]
   16f94:	e1a03de3 	ror	r3, r3, #27
   16f98:	e0822003 	add	r2, r2, r3
   16f9c:	e30c31d6 	movw	r3, #49622	; 0xc1d6
   16fa0:	e34c3a62 	movt	r3, #51810	; 0xca62
   16fa4:	e0823003 	add	r3, r2, r3
   16fa8:	e51b2008 	ldr	r2, [fp, #-8]
   16fac:	e0823003 	add	r3, r2, r3
   16fb0:	e50b3008 	str	r3, [fp, #-8]
   16fb4:	e51b3010 	ldr	r3, [fp, #-16]
   16fb8:	e1a03163 	ror	r3, r3, #2
   16fbc:	e50b3010 	str	r3, [fp, #-16]
   16fc0:	e51b200c 	ldr	r2, [fp, #-12]
   16fc4:	e51b3010 	ldr	r3, [fp, #-16]
   16fc8:	e0222003 	eor	r2, r2, r3
   16fcc:	e51b3014 	ldr	r3, [fp, #-20]	; 0xffffffec
   16fd0:	e0222003 	eor	r2, r2, r3
   16fd4:	e51b1038 	ldr	r1, [fp, #-56]	; 0xffffffc8
   16fd8:	e51b304c 	ldr	r3, [fp, #-76]	; 0xffffffb4
   16fdc:	e0211003 	eor	r1, r1, r3
   16fe0:	e51b3024 	ldr	r3, [fp, #-36]	; 0xffffffdc
   16fe4:	e0211003 	eor	r1, r1, r3
   16fe8:	e51b302c 	ldr	r3, [fp, #-44]	; 0xffffffd4
   16fec:	e0233001 	eor	r3, r3, r1
   16ff0:	e1a03fe3 	ror	r3, r3, #31
   16ff4:	e50b302c 	str	r3, [fp, #-44]	; 0xffffffd4
   16ff8:	e51b302c 	ldr	r3, [fp, #-44]	; 0xffffffd4
   16ffc:	e0822003 	add	r2, r2, r3
   17000:	e51b3008 	ldr	r3, [fp, #-8]
   17004:	e1a03de3 	ror	r3, r3, #27
   17008:	e0822003 	add	r2, r2, r3
   1700c:	e30c31d6 	movw	r3, #49622	; 0xc1d6
   17010:	e34c3a62 	movt	r3, #51810	; 0xca62
   17014:	e0823003 	add	r3, r2, r3
   17018:	e51b2018 	ldr	r2, [fp, #-24]	; 0xffffffe8
   1701c:	e0823003 	add	r3, r2, r3
   17020:	e50b3018 	str	r3, [fp, #-24]	; 0xffffffe8
   17024:	e51b300c 	ldr	r3, [fp, #-12]
   17028:	e1a03163 	ror	r3, r3, #2
   1702c:	e50b300c 	str	r3, [fp, #-12]
   17030:	e51b2008 	ldr	r2, [fp, #-8]
   17034:	e51b300c 	ldr	r3, [fp, #-12]
   17038:	e0222003 	eor	r2, r2, r3
   1703c:	e51b3010 	ldr	r3, [fp, #-16]
   17040:	e0222003 	eor	r2, r2, r3
   17044:	e51b1034 	ldr	r1, [fp, #-52]	; 0xffffffcc
   17048:	e51b3048 	ldr	r3, [fp, #-72]	; 0xffffffb8
   1704c:	e0211003 	eor	r1, r1, r3
   17050:	e51b3020 	ldr	r3, [fp, #-32]	; 0xffffffe0
   17054:	e0211003 	eor	r1, r1, r3
   17058:	e51b3028 	ldr	r3, [fp, #-40]	; 0xffffffd8
   1705c:	e0233001 	eor	r3, r3, r1
   17060:	e1a03fe3 	ror	r3, r3, #31
   17064:	e50b3028 	str	r3, [fp, #-40]	; 0xffffffd8
   17068:	e51b3028 	ldr	r3, [fp, #-40]	; 0xffffffd8
   1706c:	e0822003 	add	r2, r2, r3
   17070:	e51b3018 	ldr	r3, [fp, #-24]	; 0xffffffe8
   17074:	e1a03de3 	ror	r3, r3, #27
   17078:	e0822003 	add	r2, r2, r3
   1707c:	e30c31d6 	movw	r3, #49622	; 0xc1d6
   17080:	e34c3a62 	movt	r3, #51810	; 0xca62
   17084:	e0823003 	add	r3, r2, r3
   17088:	e51b2014 	ldr	r2, [fp, #-20]	; 0xffffffec
   1708c:	e0823003 	add	r3, r2, r3
   17090:	e50b3014 	str	r3, [fp, #-20]	; 0xffffffec
   17094:	e51b3008 	ldr	r3, [fp, #-8]
   17098:	e1a03163 	ror	r3, r3, #2
   1709c:	e50b3008 	str	r3, [fp, #-8]
   170a0:	e51b2018 	ldr	r2, [fp, #-24]	; 0xffffffe8
   170a4:	e51b3008 	ldr	r3, [fp, #-8]
   170a8:	e0222003 	eor	r2, r2, r3
   170ac:	e51b300c 	ldr	r3, [fp, #-12]
   170b0:	e0222003 	eor	r2, r2, r3
   170b4:	e51b1030 	ldr	r1, [fp, #-48]	; 0xffffffd0
   170b8:	e51b3044 	ldr	r3, [fp, #-68]	; 0xffffffbc
   170bc:	e0211003 	eor	r1, r1, r3
   170c0:	e51b301c 	ldr	r3, [fp, #-28]	; 0xffffffe4
   170c4:	e0211003 	eor	r1, r1, r3
   170c8:	e51b3024 	ldr	r3, [fp, #-36]	; 0xffffffdc
   170cc:	e0233001 	eor	r3, r3, r1
   170d0:	e1a03fe3 	ror	r3, r3, #31
   170d4:	e50b3024 	str	r3, [fp, #-36]	; 0xffffffdc
   170d8:	e51b3024 	ldr	r3, [fp, #-36]	; 0xffffffdc
   170dc:	e0822003 	add	r2, r2, r3
   170e0:	e51b3014 	ldr	r3, [fp, #-20]	; 0xffffffec
   170e4:	e1a03de3 	ror	r3, r3, #27
   170e8:	e0822003 	add	r2, r2, r3
   170ec:	e30c31d6 	movw	r3, #49622	; 0xc1d6
   170f0:	e34c3a62 	movt	r3, #51810	; 0xca62
   170f4:	e0823003 	add	r3, r2, r3
   170f8:	e51b2010 	ldr	r2, [fp, #-16]
   170fc:	e0823003 	add	r3, r2, r3
   17100:	e50b3010 	str	r3, [fp, #-16]
   17104:	e51b3018 	ldr	r3, [fp, #-24]	; 0xffffffe8
   17108:	e1a03163 	ror	r3, r3, #2
   1710c:	e50b3018 	str	r3, [fp, #-24]	; 0xffffffe8
   17110:	e51b2014 	ldr	r2, [fp, #-20]	; 0xffffffec
   17114:	e51b3018 	ldr	r3, [fp, #-24]	; 0xffffffe8
   17118:	e0222003 	eor	r2, r2, r3
   1711c:	e51b3008 	ldr	r3, [fp, #-8]
   17120:	e0222003 	eor	r2, r2, r3
   17124:	e51b102c 	ldr	r1, [fp, #-44]	; 0xffffffd4
   17128:	e51b3040 	ldr	r3, [fp, #-64]	; 0xffffffc0
   1712c:	e0211003 	eor	r1, r1, r3
   17130:	e51b3058 	ldr	r3, [fp, #-88]	; 0xffffffa8
   17134:	e0211003 	eor	r1, r1, r3
   17138:	e51b3020 	ldr	r3, [fp, #-32]	; 0xffffffe0
   1713c:	e0233001 	eor	r3, r3, r1
   17140:	e1a03fe3 	ror	r3, r3, #31
   17144:	e50b3020 	str	r3, [fp, #-32]	; 0xffffffe0
   17148:	e51b3020 	ldr	r3, [fp, #-32]	; 0xffffffe0
   1714c:	e0822003 	add	r2, r2, r3
   17150:	e51b3010 	ldr	r3, [fp, #-16]
   17154:	e1a03de3 	ror	r3, r3, #27
   17158:	e0822003 	add	r2, r2, r3
   1715c:	e30c31d6 	movw	r3, #49622	; 0xc1d6
   17160:	e34c3a62 	movt	r3, #51810	; 0xca62
   17164:	e0823003 	add	r3, r2, r3
   17168:	e51b200c 	ldr	r2, [fp, #-12]
   1716c:	e0823003 	add	r3, r2, r3
   17170:	e50b300c 	str	r3, [fp, #-12]
   17174:	e51b3014 	ldr	r3, [fp, #-20]	; 0xffffffec
   17178:	e1a03163 	ror	r3, r3, #2
   1717c:	e50b3014 	str	r3, [fp, #-20]	; 0xffffffec
   17180:	e51b2010 	ldr	r2, [fp, #-16]
   17184:	e51b3014 	ldr	r3, [fp, #-20]	; 0xffffffec
   17188:	e0222003 	eor	r2, r2, r3
   1718c:	e51b3018 	ldr	r3, [fp, #-24]	; 0xffffffe8
   17190:	e0222003 	eor	r2, r2, r3
   17194:	e51b1028 	ldr	r1, [fp, #-40]	; 0xffffffd8
   17198:	e51b303c 	ldr	r3, [fp, #-60]	; 0xffffffc4
   1719c:	e0211003 	eor	r1, r1, r3
   171a0:	e51b3054 	ldr	r3, [fp, #-84]	; 0xffffffac
   171a4:	e0211003 	eor	r1, r1, r3
   171a8:	e51b301c 	ldr	r3, [fp, #-28]	; 0xffffffe4
   171ac:	e0233001 	eor	r3, r3, r1
   171b0:	e1a03fe3 	ror	r3, r3, #31
   171b4:	e50b301c 	str	r3, [fp, #-28]	; 0xffffffe4
   171b8:	e51b301c 	ldr	r3, [fp, #-28]	; 0xffffffe4
   171bc:	e0822003 	add	r2, r2, r3
   171c0:	e51b300c 	ldr	r3, [fp, #-12]
   171c4:	e1a03de3 	ror	r3, r3, #27
   171c8:	e0822003 	add	r2, r2, r3
   171cc:	e30c31d6 	movw	r3, #49622	; 0xc1d6
   171d0:	e34c3a62 	movt	r3, #51810	; 0xca62
   171d4:	e0823003 	add	r3, r2, r3
   171d8:	e51b2008 	ldr	r2, [fp, #-8]
   171dc:	e0823003 	add	r3, r2, r3
   171e0:	e50b3008 	str	r3, [fp, #-8]
   171e4:	e51b3010 	ldr	r3, [fp, #-16]
   171e8:	e1a03163 	ror	r3, r3, #2
   171ec:	e50b3010 	str	r3, [fp, #-16]
   171f0:	e51b3060 	ldr	r3, [fp, #-96]	; 0xffffffa0
   171f4:	e5932000 	ldr	r2, [r3]
   171f8:	e51b3008 	ldr	r3, [fp, #-8]
   171fc:	e0822003 	add	r2, r2, r3
   17200:	e51b3060 	ldr	r3, [fp, #-96]	; 0xffffffa0
   17204:	e5832000 	str	r2, [r3]
   17208:	e51b3060 	ldr	r3, [fp, #-96]	; 0xffffffa0
   1720c:	e2833004 	add	r3, r3, #4
   17210:	e5931000 	ldr	r1, [r3]
   17214:	e51b3060 	ldr	r3, [fp, #-96]	; 0xffffffa0
   17218:	e2833004 	add	r3, r3, #4
   1721c:	e51b200c 	ldr	r2, [fp, #-12]
   17220:	e0812002 	add	r2, r1, r2
   17224:	e5832000 	str	r2, [r3]
   17228:	e51b3060 	ldr	r3, [fp, #-96]	; 0xffffffa0
   1722c:	e2833008 	add	r3, r3, #8
   17230:	e5931000 	ldr	r1, [r3]
   17234:	e51b3060 	ldr	r3, [fp, #-96]	; 0xffffffa0
   17238:	e2833008 	add	r3, r3, #8
   1723c:	e51b2010 	ldr	r2, [fp, #-16]
   17240:	e0812002 	add	r2, r1, r2
   17244:	e5832000 	str	r2, [r3]
   17248:	e51b3060 	ldr	r3, [fp, #-96]	; 0xffffffa0
   1724c:	e283300c 	add	r3, r3, #12
   17250:	e5931000 	ldr	r1, [r3]
   17254:	e51b3060 	ldr	r3, [fp, #-96]	; 0xffffffa0
   17258:	e283300c 	add	r3, r3, #12
   1725c:	e51b2014 	ldr	r2, [fp, #-20]	; 0xffffffec
   17260:	e0812002 	add	r2, r1, r2
   17264:	e5832000 	str	r2, [r3]
   17268:	e51b3060 	ldr	r3, [fp, #-96]	; 0xffffffa0
   1726c:	e2833010 	add	r3, r3, #16
   17270:	e5931000 	ldr	r1, [r3]
   17274:	e51b3060 	ldr	r3, [fp, #-96]	; 0xffffffa0
   17278:	e2833010 	add	r3, r3, #16
   1727c:	e51b2018 	ldr	r2, [fp, #-24]	; 0xffffffe8
   17280:	e0812002 	add	r2, r1, r2
   17284:	e5832000 	str	r2, [r3]
   17288:	e3a03000 	mov	r3, #0
   1728c:	e50b3018 	str	r3, [fp, #-24]	; 0xffffffe8
   17290:	e51b3018 	ldr	r3, [fp, #-24]	; 0xffffffe8
   17294:	e50b3014 	str	r3, [fp, #-20]	; 0xffffffec
   17298:	e51b3014 	ldr	r3, [fp, #-20]	; 0xffffffec
   1729c:	e50b3010 	str	r3, [fp, #-16]
   172a0:	e51b3010 	ldr	r3, [fp, #-16]
   172a4:	e50b300c 	str	r3, [fp, #-12]
   172a8:	e51b300c 	ldr	r3, [fp, #-12]
   172ac:	e50b3008 	str	r3, [fp, #-8]
   172b0:	e24b3058 	sub	r3, fp, #88	; 0x58
   172b4:	e3a02040 	mov	r2, #64	; 0x40
   172b8:	e3a01000 	mov	r1, #0
   172bc:	e1a00003 	mov	r0, r3
   172c0:	ebffe763 	bl	11054 <memset>
   172c4:	e320f000 	nop	{0}
   172c8:	e24bd004 	sub	sp, fp, #4
   172cc:	e8bd8800 	pop	{fp, pc}

000172d0 <SHA1Init>:
   172d0:	e52db004 	push	{fp}		; (str fp, [sp, #-4]!)
   172d4:	e28db000 	add	fp, sp, #0
   172d8:	e24dd00c 	sub	sp, sp, #12
   172dc:	e50b0008 	str	r0, [fp, #-8]
   172e0:	e51b2008 	ldr	r2, [fp, #-8]
   172e4:	e3023301 	movw	r3, #8961	; 0x2301
   172e8:	e3463745 	movt	r3, #26437	; 0x6745
   172ec:	e5823000 	str	r3, [r2]
   172f0:	e51b2008 	ldr	r2, [fp, #-8]
   172f4:	e30a3b89 	movw	r3, #43913	; 0xab89
   172f8:	e34e3fcd 	movt	r3, #61389	; 0xefcd
   172fc:	e5823004 	str	r3, [r2, #4]
   17300:	e51b2008 	ldr	r2, [fp, #-8]
   17304:	e30d3cfe 	movw	r3, #56574	; 0xdcfe
   17308:	e34938ba 	movt	r3, #39098	; 0x98ba
   1730c:	e5823008 	str	r3, [r2, #8]
   17310:	e51b2008 	ldr	r2, [fp, #-8]
   17314:	e3053476 	movw	r3, #21622	; 0x5476
   17318:	e3413032 	movt	r3, #4146	; 0x1032
   1731c:	e582300c 	str	r3, [r2, #12]
   17320:	e51b2008 	ldr	r2, [fp, #-8]
   17324:	e30e31f0 	movw	r3, #57840	; 0xe1f0
   17328:	e34c33d2 	movt	r3, #50130	; 0xc3d2
   1732c:	e5823010 	str	r3, [r2, #16]
   17330:	e51b3008 	ldr	r3, [fp, #-8]
   17334:	e3a02000 	mov	r2, #0
   17338:	e5832018 	str	r2, [r3, #24]
   1733c:	e51b3008 	ldr	r3, [fp, #-8]
   17340:	e5932018 	ldr	r2, [r3, #24]
   17344:	e51b3008 	ldr	r3, [fp, #-8]
   17348:	e5832014 	str	r2, [r3, #20]
   1734c:	e320f000 	nop	{0}
   17350:	e28bd000 	add	sp, fp, #0
   17354:	e49db004 	pop	{fp}		; (ldr fp, [sp], #4)
   17358:	e12fff1e 	bx	lr

0001735c <SHA1Update>:
   1735c:	e92d4800 	push	{fp, lr}
   17360:	e28db004 	add	fp, sp, #4
   17364:	e24dd018 	sub	sp, sp, #24
   17368:	e50b0010 	str	r0, [fp, #-16]
   1736c:	e50b1014 	str	r1, [fp, #-20]	; 0xffffffec
   17370:	e50b2018 	str	r2, [fp, #-24]	; 0xffffffe8
   17374:	e51b3010 	ldr	r3, [fp, #-16]
   17378:	e5933014 	ldr	r3, [r3, #20]
   1737c:	e50b300c 	str	r3, [fp, #-12]
   17380:	e51b3010 	ldr	r3, [fp, #-16]
   17384:	e5932014 	ldr	r2, [r3, #20]
   17388:	e51b3018 	ldr	r3, [fp, #-24]	; 0xffffffe8
   1738c:	e1a03183 	lsl	r3, r3, #3
   17390:	e0822003 	add	r2, r2, r3
   17394:	e51b3010 	ldr	r3, [fp, #-16]
   17398:	e5832014 	str	r2, [r3, #20]
   1739c:	e51b3010 	ldr	r3, [fp, #-16]
   173a0:	e5933014 	ldr	r3, [r3, #20]
   173a4:	e51b200c 	ldr	r2, [fp, #-12]
   173a8:	e1520003 	cmp	r2, r3
   173ac:	9a000004 	bls	173c4 <SHA1Update+0x68>
   173b0:	e51b3010 	ldr	r3, [fp, #-16]
   173b4:	e5933018 	ldr	r3, [r3, #24]
   173b8:	e2832001 	add	r2, r3, #1
   173bc:	e51b3010 	ldr	r3, [fp, #-16]
   173c0:	e5832018 	str	r2, [r3, #24]
   173c4:	e51b3010 	ldr	r3, [fp, #-16]
   173c8:	e5932018 	ldr	r2, [r3, #24]
   173cc:	e51b3018 	ldr	r3, [fp, #-24]	; 0xffffffe8
   173d0:	e1a03ea3 	lsr	r3, r3, #29
   173d4:	e0822003 	add	r2, r2, r3
   173d8:	e51b3010 	ldr	r3, [fp, #-16]
   173dc:	e5832018 	str	r2, [r3, #24]
   173e0:	e51b300c 	ldr	r3, [fp, #-12]
   173e4:	e1a031a3 	lsr	r3, r3, #3
   173e8:	e203303f 	and	r3, r3, #63	; 0x3f
   173ec:	e50b300c 	str	r3, [fp, #-12]
   173f0:	e51b200c 	ldr	r2, [fp, #-12]
   173f4:	e51b3018 	ldr	r3, [fp, #-24]	; 0xffffffe8
   173f8:	e0823003 	add	r3, r2, r3
   173fc:	e353003f 	cmp	r3, #63	; 0x3f
   17400:	9a000022 	bls	17490 <SHA1Update+0x134>
   17404:	e51b300c 	ldr	r3, [fp, #-12]
   17408:	e2833018 	add	r3, r3, #24
   1740c:	e51b2010 	ldr	r2, [fp, #-16]
   17410:	e0823003 	add	r3, r2, r3
   17414:	e2830004 	add	r0, r3, #4
   17418:	e51b300c 	ldr	r3, [fp, #-12]
   1741c:	e2633040 	rsb	r3, r3, #64	; 0x40
   17420:	e50b3008 	str	r3, [fp, #-8]
   17424:	e51b2008 	ldr	r2, [fp, #-8]
   17428:	e51b1014 	ldr	r1, [fp, #-20]	; 0xffffffec
   1742c:	ebffe721 	bl	110b8 <memcpy>
   17430:	e51b2010 	ldr	r2, [fp, #-16]
   17434:	e51b3010 	ldr	r3, [fp, #-16]
   17438:	e283301c 	add	r3, r3, #28
   1743c:	e1a01003 	mov	r1, r3
   17440:	e1a00002 	mov	r0, r2
   17444:	ebfff608 	bl	14c6c <SHA1Transform>
   17448:	ea000008 	b	17470 <SHA1Update+0x114>
   1744c:	e51b0010 	ldr	r0, [fp, #-16]
   17450:	e51b2014 	ldr	r2, [fp, #-20]	; 0xffffffec
   17454:	e51b3008 	ldr	r3, [fp, #-8]
   17458:	e0823003 	add	r3, r2, r3
   1745c:	e1a01003 	mov	r1, r3
   17460:	ebfff601 	bl	14c6c <SHA1Transform>
   17464:	e51b3008 	ldr	r3, [fp, #-8]
   17468:	e2833040 	add	r3, r3, #64	; 0x40
   1746c:	e50b3008 	str	r3, [fp, #-8]
   17470:	e51b3008 	ldr	r3, [fp, #-8]
   17474:	e283303f 	add	r3, r3, #63	; 0x3f
   17478:	e51b2018 	ldr	r2, [fp, #-24]	; 0xffffffe8
   1747c:	e1520003 	cmp	r2, r3
   17480:	8afffff1 	bhi	1744c <SHA1Update+0xf0>
   17484:	e3a03000 	mov	r3, #0
   17488:	e50b300c 	str	r3, [fp, #-12]
   1748c:	ea000001 	b	17498 <SHA1Update+0x13c>
   17490:	e3a03000 	mov	r3, #0
   17494:	e50b3008 	str	r3, [fp, #-8]
   17498:	e51b300c 	ldr	r3, [fp, #-12]
   1749c:	e2833018 	add	r3, r3, #24
   174a0:	e51b2010 	ldr	r2, [fp, #-16]
   174a4:	e0823003 	add	r3, r2, r3
   174a8:	e2830004 	add	r0, r3, #4
   174ac:	e51b2014 	ldr	r2, [fp, #-20]	; 0xffffffec
   174b0:	e51b3008 	ldr	r3, [fp, #-8]
   174b4:	e0821003 	add	r1, r2, r3
   174b8:	e51b2018 	ldr	r2, [fp, #-24]	; 0xffffffe8
   174bc:	e51b3008 	ldr	r3, [fp, #-8]
   174c0:	e0423003 	sub	r3, r2, r3
   174c4:	e1a02003 	mov	r2, r3
   174c8:	ebffe6fa 	bl	110b8 <memcpy>
   174cc:	e320f000 	nop	{0}
   174d0:	e24bd004 	sub	sp, fp, #4
   174d4:	e8bd8800 	pop	{fp, pc}

000174d8 <SHA1Final>:
   174d8:	e92d4800 	push	{fp, lr}
   174dc:	e28db004 	add	fp, sp, #4
   174e0:	e24dd018 	sub	sp, sp, #24
   174e4:	e50b0018 	str	r0, [fp, #-24]	; 0xffffffe8
   174e8:	e50b101c 	str	r1, [fp, #-28]	; 0xffffffe4
   174ec:	e3a03000 	mov	r3, #0
   174f0:	e50b3008 	str	r3, [fp, #-8]
   174f4:	ea000017 	b	17558 <SHA1Final+0x80>
   174f8:	e51b3008 	ldr	r3, [fp, #-8]
   174fc:	e3530003 	cmp	r3, #3
   17500:	93a03001 	movls	r3, #1
   17504:	83a03000 	movhi	r3, #0
   17508:	e6ef3073 	uxtb	r3, r3
   1750c:	e51b201c 	ldr	r2, [fp, #-28]	; 0xffffffe4
   17510:	e2833004 	add	r3, r3, #4
   17514:	e1a03103 	lsl	r3, r3, #2
   17518:	e0823003 	add	r3, r2, r3
   1751c:	e5932004 	ldr	r2, [r3, #4]
   17520:	e51b3008 	ldr	r3, [fp, #-8]
   17524:	e1e03003 	mvn	r3, r3
   17528:	e2033003 	and	r3, r3, #3
   1752c:	e1a03183 	lsl	r3, r3, #3
   17530:	e1a03332 	lsr	r3, r2, r3
   17534:	e6ef1073 	uxtb	r1, r3
   17538:	e24b2010 	sub	r2, fp, #16
   1753c:	e51b3008 	ldr	r3, [fp, #-8]
   17540:	e0823003 	add	r3, r2, r3
   17544:	e1a02001 	mov	r2, r1
   17548:	e5c32000 	strb	r2, [r3]
   1754c:	e51b3008 	ldr	r3, [fp, #-8]
   17550:	e2833001 	add	r3, r3, #1
   17554:	e50b3008 	str	r3, [fp, #-8]
   17558:	e51b3008 	ldr	r3, [fp, #-8]
   1755c:	e3530007 	cmp	r3, #7
   17560:	9affffe4 	bls	174f8 <SHA1Final+0x20>
   17564:	e3e0307f 	mvn	r3, #127	; 0x7f
   17568:	e54b3011 	strb	r3, [fp, #-17]	; 0xffffffef
   1756c:	e24b3011 	sub	r3, fp, #17
   17570:	e3a02001 	mov	r2, #1
   17574:	e1a01003 	mov	r1, r3
   17578:	e51b001c 	ldr	r0, [fp, #-28]	; 0xffffffe4
   1757c:	ebffff76 	bl	1735c <SHA1Update>
   17580:	ea000006 	b	175a0 <SHA1Final+0xc8>
   17584:	e3a03000 	mov	r3, #0
   17588:	e54b3011 	strb	r3, [fp, #-17]	; 0xffffffef
   1758c:	e24b3011 	sub	r3, fp, #17
   17590:	e3a02001 	mov	r2, #1
   17594:	e1a01003 	mov	r1, r3
   17598:	e51b001c 	ldr	r0, [fp, #-28]	; 0xffffffe4
   1759c:	ebffff6e 	bl	1735c <SHA1Update>
   175a0:	e51b301c 	ldr	r3, [fp, #-28]	; 0xffffffe4
   175a4:	e5933014 	ldr	r3, [r3, #20]
   175a8:	e2033f7e 	and	r3, r3, #504	; 0x1f8
   175ac:	e3530d07 	cmp	r3, #448	; 0x1c0
   175b0:	1afffff3 	bne	17584 <SHA1Final+0xac>
   175b4:	e24b3010 	sub	r3, fp, #16
   175b8:	e3a02008 	mov	r2, #8
   175bc:	e1a01003 	mov	r1, r3
   175c0:	e51b001c 	ldr	r0, [fp, #-28]	; 0xffffffe4
   175c4:	ebffff64 	bl	1735c <SHA1Update>
   175c8:	e3a03000 	mov	r3, #0
   175cc:	e50b3008 	str	r3, [fp, #-8]
   175d0:	ea000010 	b	17618 <SHA1Final+0x140>
   175d4:	e51b3008 	ldr	r3, [fp, #-8]
   175d8:	e1a02123 	lsr	r2, r3, #2
   175dc:	e51b301c 	ldr	r3, [fp, #-28]	; 0xffffffe4
   175e0:	e7932102 	ldr	r2, [r3, r2, lsl #2]
   175e4:	e51b3008 	ldr	r3, [fp, #-8]
   175e8:	e1e03003 	mvn	r3, r3
   175ec:	e2033003 	and	r3, r3, #3
   175f0:	e1a03183 	lsl	r3, r3, #3
   175f4:	e1a01332 	lsr	r1, r2, r3
   175f8:	e51b2018 	ldr	r2, [fp, #-24]	; 0xffffffe8
   175fc:	e51b3008 	ldr	r3, [fp, #-8]
   17600:	e0823003 	add	r3, r2, r3
   17604:	e6ef2071 	uxtb	r2, r1
   17608:	e5c32000 	strb	r2, [r3]
   1760c:	e51b3008 	ldr	r3, [fp, #-8]
   17610:	e2833001 	add	r3, r3, #1
   17614:	e50b3008 	str	r3, [fp, #-8]
   17618:	e51b3008 	ldr	r3, [fp, #-8]
   1761c:	e3530013 	cmp	r3, #19
   17620:	9affffeb 	bls	175d4 <SHA1Final+0xfc>
   17624:	e3a0205c 	mov	r2, #92	; 0x5c
   17628:	e3a01000 	mov	r1, #0
   1762c:	e51b001c 	ldr	r0, [fp, #-28]	; 0xffffffe4
   17630:	ebffe687 	bl	11054 <memset>
   17634:	e24b3010 	sub	r3, fp, #16
   17638:	e3a02008 	mov	r2, #8
   1763c:	e3a01000 	mov	r1, #0
   17640:	e1a00003 	mov	r0, r3
   17644:	ebffe682 	bl	11054 <memset>
   17648:	e320f000 	nop	{0}
   1764c:	e24bd004 	sub	sp, fp, #4
   17650:	e8bd8800 	pop	{fp, pc}

00017654 <my_strcpy>:
   17654:	e52db004 	push	{fp}		; (str fp, [sp, #-4]!)
   17658:	e28db000 	add	fp, sp, #0
   1765c:	e24dd00c 	sub	sp, sp, #12
   17660:	e50b0008 	str	r0, [fp, #-8]
   17664:	e50b100c 	str	r1, [fp, #-12]
   17668:	e320f000 	nop	{0}
   1766c:	e51b200c 	ldr	r2, [fp, #-12]
   17670:	e2823001 	add	r3, r2, #1
   17674:	e50b300c 	str	r3, [fp, #-12]
   17678:	e51b3008 	ldr	r3, [fp, #-8]
   1767c:	e2831001 	add	r1, r3, #1
   17680:	e50b1008 	str	r1, [fp, #-8]
   17684:	e5d22000 	ldrb	r2, [r2]
   17688:	e5c32000 	strb	r2, [r3]
   1768c:	e5d33000 	ldrb	r3, [r3]
   17690:	e3530000 	cmp	r3, #0
   17694:	1afffff4 	bne	1766c <my_strcpy+0x18>
   17698:	e320f000 	nop	{0}
   1769c:	e320f000 	nop	{0}
   176a0:	e28bd000 	add	sp, fp, #0
   176a4:	e49db004 	pop	{fp}		; (ldr fp, [sp], #4)
   176a8:	e12fff1e 	bx	lr

000176ac <strlen>:
   176ac:	e52db004 	push	{fp}		; (str fp, [sp, #-4]!)
   176b0:	e28db000 	add	fp, sp, #0
   176b4:	e24dd014 	sub	sp, sp, #20
   176b8:	e50b0010 	str	r0, [fp, #-16]
   176bc:	e51b3010 	ldr	r3, [fp, #-16]
   176c0:	e50b3008 	str	r3, [fp, #-8]
   176c4:	ea000002 	b	176d4 <strlen+0x28>
   176c8:	e51b3008 	ldr	r3, [fp, #-8]
   176cc:	e2833001 	add	r3, r3, #1
   176d0:	e50b3008 	str	r3, [fp, #-8]
   176d4:	e51b3008 	ldr	r3, [fp, #-8]
   176d8:	e5d33000 	ldrb	r3, [r3]
   176dc:	e3530000 	cmp	r3, #0
   176e0:	1afffff8 	bne	176c8 <strlen+0x1c>
   176e4:	e51b2008 	ldr	r2, [fp, #-8]
   176e8:	e51b3010 	ldr	r3, [fp, #-16]
   176ec:	e0423003 	sub	r3, r2, r3
   176f0:	e1a00003 	mov	r0, r3
   176f4:	e28bd000 	add	sp, fp, #0
   176f8:	e49db004 	pop	{fp}		; (ldr fp, [sp], #4)
   176fc:	e12fff1e 	bx	lr

00017700 <uart_putc>:
   17700:	e52db004 	push	{fp}		; (str fp, [sp, #-4]!)
   17704:	e28db000 	add	fp, sp, #0
   17708:	e24dd00c 	sub	sp, sp, #12
   1770c:	e1a03000 	mov	r3, r0
   17710:	e54b3005 	strb	r3, [fp, #-5]
   17714:	e3a03a01 	mov	r3, #4096	; 0x1000
   17718:	e341301f 	movt	r3, #4127	; 0x101f
   1771c:	e55b2005 	ldrb	r2, [fp, #-5]
   17720:	e5832000 	str	r2, [r3]
   17724:	e320f000 	nop	{0}
   17728:	e28bd000 	add	sp, fp, #0
   1772c:	e49db004 	pop	{fp}		; (ldr fp, [sp], #4)
   17730:	e12fff1e 	bx	lr

00017734 <putc_uart>:
   17734:	e92d4800 	push	{fp, lr}
   17738:	e28db004 	add	fp, sp, #4
   1773c:	e24dd008 	sub	sp, sp, #8
   17740:	e50b0008 	str	r0, [fp, #-8]
   17744:	e1a03001 	mov	r3, r1
   17748:	e54b3009 	strb	r3, [fp, #-9]
   1774c:	e55b3009 	ldrb	r3, [fp, #-9]
   17750:	e1a00003 	mov	r0, r3
   17754:	ebffffe9 	bl	17700 <uart_putc>
   17758:	e320f000 	nop	{0}
   1775c:	e24bd004 	sub	sp, fp, #4
   17760:	e8bd8800 	pop	{fp, pc}

00017764 <unified_decrypt>:
   17764:	e92d4810 	push	{r4, fp, lr}
   17768:	e28db008 	add	fp, sp, #8
   1776c:	e24dd024 	sub	sp, sp, #36	; 0x24
   17770:	e50b0020 	str	r0, [fp, #-32]	; 0xffffffe0
   17774:	e50b1024 	str	r1, [fp, #-36]	; 0xffffffdc
   17778:	e50b2028 	str	r2, [fp, #-40]	; 0xffffffd8
   1777c:	e50b302c 	str	r3, [fp, #-44]	; 0xffffffd4
   17780:	e51b3020 	ldr	r3, [fp, #-32]	; 0xffffffe0
   17784:	e3530000 	cmp	r3, #0
   17788:	0a000005 	beq	177a4 <unified_decrypt+0x40>
   1778c:	e59b3004 	ldr	r3, [fp, #4]
   17790:	e3530000 	cmp	r3, #0
   17794:	0a000002 	beq	177a4 <unified_decrypt+0x40>
   17798:	e59b3008 	ldr	r3, [fp, #8]
   1779c:	e3530000 	cmp	r3, #0
   177a0:	1a000005 	bne	177bc <unified_decrypt+0x58>
   177a4:	e59f3384 	ldr	r3, [pc, #900]	; 17b30 <unified_decrypt+0x3cc>
   177a8:	e08f3003 	add	r3, pc, r3
   177ac:	e1a00003 	mov	r0, r3
   177b0:	ebfff4ef 	bl	14b74 <tfp_printf>
   177b4:	e3e03000 	mvn	r3, #0
   177b8:	ea0000d9 	b	17b24 <unified_decrypt+0x3c0>
   177bc:	e51b3020 	ldr	r3, [fp, #-32]	; 0xffffffe0
   177c0:	e593301c 	ldr	r3, [r3, #28]
   177c4:	e3530000 	cmp	r3, #0
   177c8:	0a00000b 	beq	177fc <unified_decrypt+0x98>
   177cc:	e51b3020 	ldr	r3, [fp, #-32]	; 0xffffffe0
   177d0:	e593301c 	ldr	r3, [r3, #28]
   177d4:	e3a01020 	mov	r1, #32
   177d8:	e1a00003 	mov	r0, r3
   177dc:	ebffe691 	bl	11228 <wipememory>
   177e0:	e51b3020 	ldr	r3, [fp, #-32]	; 0xffffffe0
   177e4:	e593301c 	ldr	r3, [r3, #28]
   177e8:	e1a00003 	mov	r0, r3
   177ec:	ebffe504 	bl	10c04 <free>
   177f0:	e51b3020 	ldr	r3, [fp, #-32]	; 0xffffffe0
   177f4:	e3a02000 	mov	r2, #0
   177f8:	e583201c 	str	r2, [r3, #28]
   177fc:	e51b3020 	ldr	r3, [fp, #-32]	; 0xffffffe0
   17800:	e5933018 	ldr	r3, [r3, #24]
   17804:	e3530000 	cmp	r3, #0
   17808:	0a000010 	beq	17850 <unified_decrypt+0xec>
   1780c:	e51b3020 	ldr	r3, [fp, #-32]	; 0xffffffe0
   17810:	e5934018 	ldr	r4, [r3, #24]
   17814:	e51b3020 	ldr	r3, [fp, #-32]	; 0xffffffe0
   17818:	e5933018 	ldr	r3, [r3, #24]
   1781c:	e1a00003 	mov	r0, r3
   17820:	ebffffa1 	bl	176ac <strlen>
   17824:	e1a03000 	mov	r3, r0
   17828:	e1a01003 	mov	r1, r3
   1782c:	e1a00004 	mov	r0, r4
   17830:	ebffe67c 	bl	11228 <wipememory>
   17834:	e51b3020 	ldr	r3, [fp, #-32]	; 0xffffffe0
   17838:	e5933018 	ldr	r3, [r3, #24]
   1783c:	e1a00003 	mov	r0, r3
   17840:	ebffe4ef 	bl	10c04 <free>
   17844:	e51b3020 	ldr	r3, [fp, #-32]	; 0xffffffe0
   17848:	e3a02000 	mov	r2, #0
   1784c:	e5832018 	str	r2, [r3, #24]
   17850:	e51b3024 	ldr	r3, [fp, #-36]	; 0xffffffdc
   17854:	e3530000 	cmp	r3, #0
   17858:	0a000022 	beq	178e8 <unified_decrypt+0x184>
   1785c:	e51b3028 	ldr	r3, [fp, #-40]	; 0xffffffd8
   17860:	e3530000 	cmp	r3, #0
   17864:	0a00001f 	beq	178e8 <unified_decrypt+0x184>
   17868:	e59f32c4 	ldr	r3, [pc, #708]	; 17b34 <unified_decrypt+0x3d0>
   1786c:	e08f3003 	add	r3, pc, r3
   17870:	e1a00003 	mov	r0, r3
   17874:	ebfff4be 	bl	14b74 <tfp_printf>
   17878:	e51b0028 	ldr	r0, [fp, #-40]	; 0xffffffd8
   1787c:	ebffe48d 	bl	10ab8 <malloc>
   17880:	e1a03000 	mov	r3, r0
   17884:	e1a02003 	mov	r2, r3
   17888:	e51b3020 	ldr	r3, [fp, #-32]	; 0xffffffe0
   1788c:	e583201c 	str	r2, [r3, #28]
   17890:	e51b3020 	ldr	r3, [fp, #-32]	; 0xffffffe0
   17894:	e593301c 	ldr	r3, [r3, #28]
   17898:	e3530000 	cmp	r3, #0
   1789c:	1a000005 	bne	178b8 <unified_decrypt+0x154>
   178a0:	e59f3290 	ldr	r3, [pc, #656]	; 17b38 <unified_decrypt+0x3d4>
   178a4:	e08f3003 	add	r3, pc, r3
   178a8:	e1a00003 	mov	r0, r3
   178ac:	ebfff4b0 	bl	14b74 <tfp_printf>
   178b0:	e3e03000 	mvn	r3, #0
   178b4:	ea00009a 	b	17b24 <unified_decrypt+0x3c0>
   178b8:	e51b3020 	ldr	r3, [fp, #-32]	; 0xffffffe0
   178bc:	e593301c 	ldr	r3, [r3, #28]
   178c0:	e51b2028 	ldr	r2, [fp, #-40]	; 0xffffffd8
   178c4:	e51b1024 	ldr	r1, [fp, #-36]	; 0xffffffdc
   178c8:	e1a00003 	mov	r0, r3
   178cc:	ebffe5f9 	bl	110b8 <memcpy>
   178d0:	e51b1028 	ldr	r1, [fp, #-40]	; 0xffffffd8
   178d4:	e59f3260 	ldr	r3, [pc, #608]	; 17b3c <unified_decrypt+0x3d8>
   178d8:	e08f3003 	add	r3, pc, r3
   178dc:	e1a00003 	mov	r0, r3
   178e0:	ebfff4a3 	bl	14b74 <tfp_printf>
   178e4:	ea00003f 	b	179e8 <unified_decrypt+0x284>
   178e8:	e51b302c 	ldr	r3, [fp, #-44]	; 0xffffffd4
   178ec:	e3530000 	cmp	r3, #0
   178f0:	0a000036 	beq	179d0 <unified_decrypt+0x26c>
   178f4:	e59f3244 	ldr	r3, [pc, #580]	; 17b40 <unified_decrypt+0x3dc>
   178f8:	e08f3003 	add	r3, pc, r3
   178fc:	e1a00003 	mov	r0, r3
   17900:	ebfff49b 	bl	14b74 <tfp_printf>
   17904:	e51b002c 	ldr	r0, [fp, #-44]	; 0xffffffd4
   17908:	ebffff67 	bl	176ac <strlen>
   1790c:	e50b0010 	str	r0, [fp, #-16]
   17910:	e51b3010 	ldr	r3, [fp, #-16]
   17914:	e2833001 	add	r3, r3, #1
   17918:	e1a00003 	mov	r0, r3
   1791c:	ebffe465 	bl	10ab8 <malloc>
   17920:	e1a03000 	mov	r3, r0
   17924:	e1a02003 	mov	r2, r3
   17928:	e51b3020 	ldr	r3, [fp, #-32]	; 0xffffffe0
   1792c:	e5832018 	str	r2, [r3, #24]
   17930:	e51b3020 	ldr	r3, [fp, #-32]	; 0xffffffe0
   17934:	e5933018 	ldr	r3, [r3, #24]
   17938:	e3530000 	cmp	r3, #0
   1793c:	1a000005 	bne	17958 <unified_decrypt+0x1f4>
   17940:	e59f31fc 	ldr	r3, [pc, #508]	; 17b44 <unified_decrypt+0x3e0>
   17944:	e08f3003 	add	r3, pc, r3
   17948:	e1a00003 	mov	r0, r3
   1794c:	ebfff488 	bl	14b74 <tfp_printf>
   17950:	e3e03000 	mvn	r3, #0
   17954:	ea000072 	b	17b24 <unified_decrypt+0x3c0>
   17958:	e51b3020 	ldr	r3, [fp, #-32]	; 0xffffffe0
   1795c:	e5933018 	ldr	r3, [r3, #24]
   17960:	e51b102c 	ldr	r1, [fp, #-44]	; 0xffffffd4
   17964:	e1a00003 	mov	r0, r3
   17968:	ebffff39 	bl	17654 <my_strcpy>
   1796c:	e51b3020 	ldr	r3, [fp, #-32]	; 0xffffffe0
   17970:	e5934018 	ldr	r4, [r3, #24]
   17974:	e51b3020 	ldr	r3, [fp, #-32]	; 0xffffffe0
   17978:	e5933018 	ldr	r3, [r3, #24]
   1797c:	e1a00003 	mov	r0, r3
   17980:	ebffff49 	bl	176ac <strlen>
   17984:	e1a03000 	mov	r3, r0
   17988:	e1a02003 	mov	r2, r3
   1798c:	e1a01004 	mov	r1, r4
   17990:	e59f31b0 	ldr	r3, [pc, #432]	; 17b48 <unified_decrypt+0x3e4>
   17994:	e08f3003 	add	r3, pc, r3
   17998:	e1a00003 	mov	r0, r3
   1799c:	ebfff474 	bl	14b74 <tfp_printf>
   179a0:	e51b3020 	ldr	r3, [fp, #-32]	; 0xffffffe0
   179a4:	e5933018 	ldr	r3, [r3, #24]
   179a8:	e1a01003 	mov	r1, r3
   179ac:	e59f3198 	ldr	r3, [pc, #408]	; 17b4c <unified_decrypt+0x3e8>
   179b0:	e08f3003 	add	r3, pc, r3
   179b4:	e1a00003 	mov	r0, r3
   179b8:	ebfff46d 	bl	14b74 <tfp_printf>
   179bc:	e59f318c 	ldr	r3, [pc, #396]	; 17b50 <unified_decrypt+0x3ec>
   179c0:	e08f3003 	add	r3, pc, r3
   179c4:	e1a00003 	mov	r0, r3
   179c8:	ebfff469 	bl	14b74 <tfp_printf>
   179cc:	ea000005 	b	179e8 <unified_decrypt+0x284>
   179d0:	e59f317c 	ldr	r3, [pc, #380]	; 17b54 <unified_decrypt+0x3f0>
   179d4:	e08f3003 	add	r3, pc, r3
   179d8:	e1a00003 	mov	r0, r3
   179dc:	ebfff464 	bl	14b74 <tfp_printf>
   179e0:	e3e03000 	mvn	r3, #0
   179e4:	ea00004e 	b	17b24 <unified_decrypt+0x3c0>
   179e8:	e30b3eef 	movw	r3, #48879	; 0xbeef
   179ec:	e34d3ead 	movt	r3, #57005	; 0xdead
   179f0:	e50b3014 	str	r3, [fp, #-20]	; 0xffffffec
   179f4:	e30c3afe 	movw	r3, #51966	; 0xcafe
   179f8:	e34b3abe 	movt	r3, #47806	; 0xbabe
   179fc:	e50b3018 	str	r3, [fp, #-24]	; 0xffffffe8
   17a00:	e51b2018 	ldr	r2, [fp, #-24]	; 0xffffffe8
   17a04:	e51b1014 	ldr	r1, [fp, #-20]	; 0xffffffec
   17a08:	e59f3148 	ldr	r3, [pc, #328]	; 17b58 <unified_decrypt+0x3f4>
   17a0c:	e08f3003 	add	r3, pc, r3
   17a10:	e1a00003 	mov	r0, r3
   17a14:	ebfff456 	bl	14b74 <tfp_printf>
   17a18:	e59f313c 	ldr	r3, [pc, #316]	; 17b5c <unified_decrypt+0x3f8>
   17a1c:	e08f3003 	add	r3, pc, r3
   17a20:	e1a00003 	mov	r0, r3
   17a24:	ebfff452 	bl	14b74 <tfp_printf>
   17a28:	e59b2008 	ldr	r2, [fp, #8]
   17a2c:	e59b1004 	ldr	r1, [fp, #4]
   17a30:	e51b0020 	ldr	r0, [fp, #-32]	; 0xffffffe0
   17a34:	ebffcf7c 	bl	b82c <decrypt_memory>
   17a38:	e50b001c 	str	r0, [fp, #-28]	; 0xffffffe4
   17a3c:	e51b2018 	ldr	r2, [fp, #-24]	; 0xffffffe8
   17a40:	e51b1014 	ldr	r1, [fp, #-20]	; 0xffffffec
   17a44:	e59f3114 	ldr	r3, [pc, #276]	; 17b60 <unified_decrypt+0x3fc>
   17a48:	e08f3003 	add	r3, pc, r3
   17a4c:	e1a00003 	mov	r0, r3
   17a50:	ebfff447 	bl	14b74 <tfp_printf>
   17a54:	e51b3020 	ldr	r3, [fp, #-32]	; 0xffffffe0
   17a58:	e593301c 	ldr	r3, [r3, #28]
   17a5c:	e3530000 	cmp	r3, #0
   17a60:	0a00000b 	beq	17a94 <unified_decrypt+0x330>
   17a64:	e51b3020 	ldr	r3, [fp, #-32]	; 0xffffffe0
   17a68:	e593301c 	ldr	r3, [r3, #28]
   17a6c:	e51b1028 	ldr	r1, [fp, #-40]	; 0xffffffd8
   17a70:	e1a00003 	mov	r0, r3
   17a74:	ebffe5eb 	bl	11228 <wipememory>
   17a78:	e51b3020 	ldr	r3, [fp, #-32]	; 0xffffffe0
   17a7c:	e593301c 	ldr	r3, [r3, #28]
   17a80:	e1a00003 	mov	r0, r3
   17a84:	ebffe45e 	bl	10c04 <free>
   17a88:	e51b3020 	ldr	r3, [fp, #-32]	; 0xffffffe0
   17a8c:	e3a02000 	mov	r2, #0
   17a90:	e583201c 	str	r2, [r3, #28]
   17a94:	e51b3020 	ldr	r3, [fp, #-32]	; 0xffffffe0
   17a98:	e5933018 	ldr	r3, [r3, #24]
   17a9c:	e3530000 	cmp	r3, #0
   17aa0:	0a000010 	beq	17ae8 <unified_decrypt+0x384>
   17aa4:	e51b3020 	ldr	r3, [fp, #-32]	; 0xffffffe0
   17aa8:	e5934018 	ldr	r4, [r3, #24]
   17aac:	e51b3020 	ldr	r3, [fp, #-32]	; 0xffffffe0
   17ab0:	e5933018 	ldr	r3, [r3, #24]
   17ab4:	e1a00003 	mov	r0, r3
   17ab8:	ebfffefb 	bl	176ac <strlen>
   17abc:	e1a03000 	mov	r3, r0
   17ac0:	e1a01003 	mov	r1, r3
   17ac4:	e1a00004 	mov	r0, r4
   17ac8:	ebffe5d6 	bl	11228 <wipememory>
   17acc:	e51b3020 	ldr	r3, [fp, #-32]	; 0xffffffe0
   17ad0:	e5933018 	ldr	r3, [r3, #24]
   17ad4:	e1a00003 	mov	r0, r3
   17ad8:	ebffe449 	bl	10c04 <free>
   17adc:	e51b3020 	ldr	r3, [fp, #-32]	; 0xffffffe0
   17ae0:	e3a02000 	mov	r2, #0
   17ae4:	e5832018 	str	r2, [r3, #24]
   17ae8:	e51b301c 	ldr	r3, [fp, #-28]	; 0xffffffe4
   17aec:	e3530002 	cmp	r3, #2
   17af0:	1a000006 	bne	17b10 <unified_decrypt+0x3ac>
   17af4:	e51b101c 	ldr	r1, [fp, #-28]	; 0xffffffe4
   17af8:	e59f3064 	ldr	r3, [pc, #100]	; 17b64 <unified_decrypt+0x400>
   17afc:	e08f3003 	add	r3, pc, r3
   17b00:	e1a00003 	mov	r0, r3
   17b04:	ebfff41a 	bl	14b74 <tfp_printf>
   17b08:	e51b301c 	ldr	r3, [fp, #-28]	; 0xffffffe4
   17b0c:	ea000004 	b	17b24 <unified_decrypt+0x3c0>
   17b10:	e59f3050 	ldr	r3, [pc, #80]	; 17b68 <unified_decrypt+0x404>
   17b14:	e08f3003 	add	r3, pc, r3
   17b18:	e1a00003 	mov	r0, r3
   17b1c:	ebfff414 	bl	14b74 <tfp_printf>
   17b20:	e3a03000 	mov	r3, #0
   17b24:	e1a00003 	mov	r0, r3
   17b28:	e24bd008 	sub	sp, fp, #8
   17b2c:	e8bd8810 	pop	{r4, fp, pc}
   17b30:	0000393c 	.word	0x0000393c
   17b34:	0000389c 	.word	0x0000389c
   17b38:	000038a0 	.word	0x000038a0
   17b3c:	0000388c 	.word	0x0000388c
   17b40:	00003890 	.word	0x00003890
   17b44:	00003878 	.word	0x00003878
   17b48:	00003848 	.word	0x00003848
   17b4c:	00003854 	.word	0x00003854
   17b50:	00003864 	.word	0x00003864
   17b54:	0000386c 	.word	0x0000386c
   17b58:	00003870 	.word	0x00003870
   17b5c:	0000388c 	.word	0x0000388c
   17b60:	00003890 	.word	0x00003890
   17b64:	00003808 	.word	0x00003808
   17b68:	00003814 	.word	0x00003814

00017b6c <main>:
   17b6c:	e92d4810 	push	{r4, fp, lr}
   17b70:	e28db008 	add	fp, sp, #8
   17b74:	e24dd044 	sub	sp, sp, #68	; 0x44
   17b78:	e59f42fc 	ldr	r4, [pc, #764]	; 17e7c <main+0x310>
   17b7c:	e08f4004 	add	r4, pc, r4
   17b80:	e59f32f8 	ldr	r3, [pc, #760]	; 17e80 <main+0x314>
   17b84:	e7943003 	ldr	r3, [r4, r3]
   17b88:	e1a01003 	mov	r1, r3
   17b8c:	e3a00000 	mov	r0, #0
   17b90:	ebffc153 	bl	80e4 <init_printf>
   17b94:	e59f32e8 	ldr	r3, [pc, #744]	; 17e84 <main+0x318>
   17b98:	e08f3003 	add	r3, pc, r3
   17b9c:	e1a00003 	mov	r0, r3
   17ba0:	ebfff3f3 	bl	14b74 <tfp_printf>
   17ba4:	e3a00024 	mov	r0, #36	; 0x24
   17ba8:	ebffe3c2 	bl	10ab8 <malloc>
   17bac:	e1a03000 	mov	r3, r0
   17bb0:	e50b3018 	str	r3, [fp, #-24]	; 0xffffffe8
   17bb4:	e3a00024 	mov	r0, #36	; 0x24
   17bb8:	ebffe3be 	bl	10ab8 <malloc>
   17bbc:	e1a03000 	mov	r3, r0
   17bc0:	e50b301c 	str	r3, [fp, #-28]	; 0xffffffe4
   17bc4:	e51b3018 	ldr	r3, [fp, #-24]	; 0xffffffe8
   17bc8:	e3530000 	cmp	r3, #0
   17bcc:	0a000002 	beq	17bdc <main+0x70>
   17bd0:	e51b301c 	ldr	r3, [fp, #-28]	; 0xffffffe4
   17bd4:	e3530000 	cmp	r3, #0
   17bd8:	1a000004 	bne	17bf0 <main+0x84>
   17bdc:	e59f32a4 	ldr	r3, [pc, #676]	; 17e88 <main+0x31c>
   17be0:	e08f3003 	add	r3, pc, r3
   17be4:	e1a00003 	mov	r0, r3
   17be8:	ebfff3e1 	bl	14b74 <tfp_printf>
   17bec:	ea000078 	b	17dd4 <main+0x268>
   17bf0:	e3a02024 	mov	r2, #36	; 0x24
   17bf4:	e3a01000 	mov	r1, #0
   17bf8:	e51b0018 	ldr	r0, [fp, #-24]	; 0xffffffe8
   17bfc:	ebffe514 	bl	11054 <memset>
   17c00:	e3a02024 	mov	r2, #36	; 0x24
   17c04:	e3a01000 	mov	r1, #0
   17c08:	e51b001c 	ldr	r0, [fp, #-28]	; 0xffffffe4
   17c0c:	ebffe510 	bl	11054 <memset>
   17c10:	e51b1018 	ldr	r1, [fp, #-24]	; 0xffffffe8
   17c14:	e59f3270 	ldr	r3, [pc, #624]	; 17e8c <main+0x320>
   17c18:	e08f3003 	add	r3, pc, r3
   17c1c:	e1a00003 	mov	r0, r3
   17c20:	ebfff3d3 	bl	14b74 <tfp_printf>
   17c24:	e51b101c 	ldr	r1, [fp, #-28]	; 0xffffffe4
   17c28:	e59f3260 	ldr	r3, [pc, #608]	; 17e90 <main+0x324>
   17c2c:	e08f3003 	add	r3, pc, r3
   17c30:	e1a00003 	mov	r0, r3
   17c34:	ebfff3ce 	bl	14b74 <tfp_printf>
   17c38:	e51b201c 	ldr	r2, [fp, #-28]	; 0xffffffe4
   17c3c:	e51b3018 	ldr	r3, [fp, #-24]	; 0xffffffe8
   17c40:	e0423003 	sub	r3, r2, r3
   17c44:	e1a01003 	mov	r1, r3
   17c48:	e59f3244 	ldr	r3, [pc, #580]	; 17e94 <main+0x328>
   17c4c:	e08f3003 	add	r3, pc, r3
   17c50:	e1a00003 	mov	r0, r3
   17c54:	ebfff3c6 	bl	14b74 <tfp_printf>
   17c58:	e3a00020 	mov	r0, #32
   17c5c:	ebffe395 	bl	10ab8 <malloc>
   17c60:	e1a03000 	mov	r3, r0
   17c64:	e50b3010 	str	r3, [fp, #-16]
   17c68:	e3a00020 	mov	r0, #32
   17c6c:	ebffe391 	bl	10ab8 <malloc>
   17c70:	e1a03000 	mov	r3, r0
   17c74:	e50b3014 	str	r3, [fp, #-20]	; 0xffffffec
   17c78:	e51b3010 	ldr	r3, [fp, #-16]
   17c7c:	e3530000 	cmp	r3, #0
   17c80:	0a000002 	beq	17c90 <main+0x124>
   17c84:	e51b3014 	ldr	r3, [fp, #-20]	; 0xffffffec
   17c88:	e3530000 	cmp	r3, #0
   17c8c:	1a000004 	bne	17ca4 <main+0x138>
   17c90:	e59f3200 	ldr	r3, [pc, #512]	; 17e98 <main+0x32c>
   17c94:	e08f3003 	add	r3, pc, r3
   17c98:	e1a00003 	mov	r0, r3
   17c9c:	ebfff3b4 	bl	14b74 <tfp_printf>
   17ca0:	ea00004b 	b	17dd4 <main+0x268>
   17ca4:	e59f31f0 	ldr	r3, [pc, #496]	; 17e9c <main+0x330>
   17ca8:	e08f3003 	add	r3, pc, r3
   17cac:	e1a00003 	mov	r0, r3
   17cb0:	ebfff3af 	bl	14b74 <tfp_printf>
   17cb4:	e59f31e4 	ldr	r3, [pc, #484]	; 17ea0 <main+0x334>
   17cb8:	e08f3003 	add	r3, pc, r3
   17cbc:	e24bc034 	sub	ip, fp, #52	; 0x34
   17cc0:	e893000f 	ldm	r3, {r0, r1, r2, r3}
   17cc4:	e88c000f 	stm	ip, {r0, r1, r2, r3}
   17cc8:	e24b3034 	sub	r3, fp, #52	; 0x34
   17ccc:	e3a02010 	mov	r2, #16
   17cd0:	e1a01003 	mov	r1, r3
   17cd4:	e51b0010 	ldr	r0, [fp, #-16]
   17cd8:	ebffe4f6 	bl	110b8 <memcpy>
   17cdc:	e59f31c0 	ldr	r3, [pc, #448]	; 17ea4 <main+0x338>
   17ce0:	e7943003 	ldr	r3, [r4, r3]
   17ce4:	e5933000 	ldr	r3, [r3]
   17ce8:	e58d3004 	str	r3, [sp, #4]
   17cec:	e59f31b4 	ldr	r3, [pc, #436]	; 17ea8 <main+0x33c>
   17cf0:	e7943003 	ldr	r3, [r4, r3]
   17cf4:	e58d3000 	str	r3, [sp]
   17cf8:	e3a03000 	mov	r3, #0
   17cfc:	e3a02010 	mov	r2, #16
   17d00:	e51b1010 	ldr	r1, [fp, #-16]
   17d04:	e51b0018 	ldr	r0, [fp, #-24]	; 0xffffffe8
   17d08:	ebfffe95 	bl	17764 <unified_decrypt>
   17d0c:	e50b0020 	str	r0, [fp, #-32]	; 0xffffffe0
   17d10:	e51b1020 	ldr	r1, [fp, #-32]	; 0xffffffe0
   17d14:	e59f3190 	ldr	r3, [pc, #400]	; 17eac <main+0x340>
   17d18:	e08f3003 	add	r3, pc, r3
   17d1c:	e1a00003 	mov	r0, r3
   17d20:	ebfff393 	bl	14b74 <tfp_printf>
   17d24:	e59f3184 	ldr	r3, [pc, #388]	; 17eb0 <main+0x344>
   17d28:	e08f3003 	add	r3, pc, r3
   17d2c:	e1a00003 	mov	r0, r3
   17d30:	ebfff38f 	bl	14b74 <tfp_printf>
   17d34:	e59f3178 	ldr	r3, [pc, #376]	; 17eb4 <main+0x348>
   17d38:	e08f3003 	add	r3, pc, r3
   17d3c:	e24bc044 	sub	ip, fp, #68	; 0x44
   17d40:	e893000f 	ldm	r3, {r0, r1, r2, r3}
   17d44:	e88c000f 	stm	ip, {r0, r1, r2, r3}
   17d48:	e24b3044 	sub	r3, fp, #68	; 0x44
   17d4c:	e3a02010 	mov	r2, #16
   17d50:	e1a01003 	mov	r1, r3
   17d54:	e51b0014 	ldr	r0, [fp, #-20]	; 0xffffffec
   17d58:	ebffe4d6 	bl	110b8 <memcpy>
   17d5c:	e59f3154 	ldr	r3, [pc, #340]	; 17eb8 <main+0x34c>
   17d60:	e7943003 	ldr	r3, [r4, r3]
   17d64:	e5933000 	ldr	r3, [r3]
   17d68:	e58d3004 	str	r3, [sp, #4]
   17d6c:	e59f3148 	ldr	r3, [pc, #328]	; 17ebc <main+0x350>
   17d70:	e7943003 	ldr	r3, [r4, r3]
   17d74:	e58d3000 	str	r3, [sp]
   17d78:	e3a03000 	mov	r3, #0
   17d7c:	e3a02010 	mov	r2, #16
   17d80:	e51b1014 	ldr	r1, [fp, #-20]	; 0xffffffec
   17d84:	e51b001c 	ldr	r0, [fp, #-28]	; 0xffffffe4
   17d88:	ebfffe75 	bl	17764 <unified_decrypt>
   17d8c:	e50b0024 	str	r0, [fp, #-36]	; 0xffffffdc
   17d90:	e51b1024 	ldr	r1, [fp, #-36]	; 0xffffffdc
   17d94:	e59f3124 	ldr	r3, [pc, #292]	; 17ec0 <main+0x354>
   17d98:	e08f3003 	add	r3, pc, r3
   17d9c:	e1a00003 	mov	r0, r3
   17da0:	ebfff373 	bl	14b74 <tfp_printf>
   17da4:	e59f3118 	ldr	r3, [pc, #280]	; 17ec4 <main+0x358>
   17da8:	e08f3003 	add	r3, pc, r3
   17dac:	e1a00003 	mov	r0, r3
   17db0:	ebfff36f 	bl	14b74 <tfp_printf>
   17db4:	e59f310c 	ldr	r3, [pc, #268]	; 17ec8 <main+0x35c>
   17db8:	e08f3003 	add	r3, pc, r3
   17dbc:	e1a00003 	mov	r0, r3
   17dc0:	ebfff36b 	bl	14b74 <tfp_printf>
   17dc4:	e59f3100 	ldr	r3, [pc, #256]	; 17ecc <main+0x360>
   17dc8:	e08f3003 	add	r3, pc, r3
   17dcc:	e1a00003 	mov	r0, r3
   17dd0:	ebfff367 	bl	14b74 <tfp_printf>
   17dd4:	e51b3018 	ldr	r3, [fp, #-24]	; 0xffffffe8
   17dd8:	e3530000 	cmp	r3, #0
   17ddc:	0a000008 	beq	17e04 <main+0x298>
   17de0:	e59f30e8 	ldr	r3, [pc, #232]	; 17ed0 <main+0x364>
   17de4:	e08f3003 	add	r3, pc, r3
   17de8:	e1a00003 	mov	r0, r3
   17dec:	ebfff360 	bl	14b74 <tfp_printf>
   17df0:	e3a01024 	mov	r1, #36	; 0x24
   17df4:	e51b0018 	ldr	r0, [fp, #-24]	; 0xffffffe8
   17df8:	ebffe50a 	bl	11228 <wipememory>
   17dfc:	e51b0018 	ldr	r0, [fp, #-24]	; 0xffffffe8
   17e00:	ebffe37f 	bl	10c04 <free>
   17e04:	e51b301c 	ldr	r3, [fp, #-28]	; 0xffffffe4
   17e08:	e3530000 	cmp	r3, #0
   17e0c:	0a000008 	beq	17e34 <main+0x2c8>
   17e10:	e59f30bc 	ldr	r3, [pc, #188]	; 17ed4 <main+0x368>
   17e14:	e08f3003 	add	r3, pc, r3
   17e18:	e1a00003 	mov	r0, r3
   17e1c:	ebfff354 	bl	14b74 <tfp_printf>
   17e20:	e3a01024 	mov	r1, #36	; 0x24
   17e24:	e51b001c 	ldr	r0, [fp, #-28]	; 0xffffffe4
   17e28:	ebffe4fe 	bl	11228 <wipememory>
   17e2c:	e51b001c 	ldr	r0, [fp, #-28]	; 0xffffffe4
   17e30:	ebffe373 	bl	10c04 <free>
   17e34:	e51b3010 	ldr	r3, [fp, #-16]
   17e38:	e3530000 	cmp	r3, #0
   17e3c:	0a000004 	beq	17e54 <main+0x2e8>
   17e40:	e3a01020 	mov	r1, #32
   17e44:	e51b0010 	ldr	r0, [fp, #-16]
   17e48:	ebffe4f6 	bl	11228 <wipememory>
   17e4c:	e51b0010 	ldr	r0, [fp, #-16]
   17e50:	ebffe36b 	bl	10c04 <free>
   17e54:	e51b3014 	ldr	r3, [fp, #-20]	; 0xffffffec
   17e58:	e3530000 	cmp	r3, #0
   17e5c:	0a000004 	beq	17e74 <main+0x308>
   17e60:	e3a01020 	mov	r1, #32
   17e64:	e51b0014 	ldr	r0, [fp, #-20]	; 0xffffffec
   17e68:	ebffe4ee 	bl	11228 <wipememory>
   17e6c:	e51b0014 	ldr	r0, [fp, #-20]	; 0xffffffec
   17e70:	ebffe363 	bl	10c04 <free>
   17e74:	e320f003 	wfi
   17e78:	eafffffd 	b	17e74 <main+0x308>
   17e7c:	00005d1c 	.word	0x00005d1c
   17e80:	0002ab30 	.word	0x0002ab30
   17e84:	000037a8 	.word	0x000037a8
   17e88:	000037ac 	.word	0x000037ac
   17e8c:	0000379c 	.word	0x0000379c
   17e90:	000037a0 	.word	0x000037a0
   17e94:	00003798 	.word	0x00003798
   17e98:	00003780 	.word	0x00003780
   17e9c:	0000378c 	.word	0x0000378c
   17ea0:	000038dc 	.word	0x000038dc
   17ea4:	0002ab14 	.word	0x0002ab14
   17ea8:	0002aafc 	.word	0x0002aafc
   17eac:	0000375c 	.word	0x0000375c
   17eb0:	0000376c 	.word	0x0000376c
   17eb4:	0000386c 	.word	0x0000386c
   17eb8:	0002ab00 	.word	0x0002ab00
   17ebc:	0002ab34 	.word	0x0002ab34
   17ec0:	00003738 	.word	0x00003738
   17ec4:	00003748 	.word	0x00003748
   17ec8:	00003764 	.word	0x00003764
   17ecc:	00003794 	.word	0x00003794
   17ed0:	00003790 	.word	0x00003790
   17ed4:	00003770 	.word	0x00003770

00017ed8 <gpg_err_make>:
   17ed8:	e52db004 	push	{fp}		; (str fp, [sp, #-4]!)
   17edc:	e28db000 	add	fp, sp, #0
   17ee0:	e24dd00c 	sub	sp, sp, #12
   17ee4:	e1a03000 	mov	r3, r0
   17ee8:	e50b100c 	str	r1, [fp, #-12]
   17eec:	e54b3005 	strb	r3, [fp, #-5]
   17ef0:	e51b300c 	ldr	r3, [fp, #-12]
   17ef4:	e3530000 	cmp	r3, #0
   17ef8:	0a000006 	beq	17f18 <gpg_err_make+0x40>
   17efc:	e55b3005 	ldrb	r3, [fp, #-5]
   17f00:	e1a03c03 	lsl	r3, r3, #24
   17f04:	e203247f 	and	r2, r3, #2130706432	; 0x7f000000
   17f08:	e51b300c 	ldr	r3, [fp, #-12]
   17f0c:	e6ff3073 	uxth	r3, r3
   17f10:	e1823003 	orr	r3, r2, r3
   17f14:	ea000000 	b	17f1c <gpg_err_make+0x44>
   17f18:	e3a03000 	mov	r3, #0
   17f1c:	e1a00003 	mov	r0, r3
   17f20:	e28bd000 	add	sp, fp, #0
   17f24:	e49db004 	pop	{fp}		; (ldr fp, [sp], #4)
   17f28:	e12fff1e 	bx	lr

00017f2c <gpg_error>:
   17f2c:	e92d4800 	push	{fp, lr}
   17f30:	e28db004 	add	fp, sp, #4
   17f34:	e24dd008 	sub	sp, sp, #8
   17f38:	e50b0008 	str	r0, [fp, #-8]
   17f3c:	e51b1008 	ldr	r1, [fp, #-8]
   17f40:	e3a00002 	mov	r0, #2
   17f44:	ebffffe3 	bl	17ed8 <gpg_err_make>
   17f48:	e1a03000 	mov	r3, r0
   17f4c:	e1a00003 	mov	r0, r3
   17f50:	e24bd004 	sub	sp, fp, #4
   17f54:	e8bd8800 	pop	{fp, pc}

00017f58 <gpg_err_code>:
   17f58:	e52db004 	push	{fp}		; (str fp, [sp, #-4]!)
   17f5c:	e28db000 	add	fp, sp, #0
   17f60:	e24dd00c 	sub	sp, sp, #12
   17f64:	e50b0008 	str	r0, [fp, #-8]
   17f68:	e51b3008 	ldr	r3, [fp, #-8]
   17f6c:	e6ff3073 	uxth	r3, r3
   17f70:	e1a00003 	mov	r0, r3
   17f74:	e28bd000 	add	sp, fp, #0
   17f78:	e49db004 	pop	{fp}		; (ldr fp, [sp], #4)
   17f7c:	e12fff1e 	bx	lr

00017f80 <my_strcpy>:
   17f80:	e52db004 	push	{fp}		; (str fp, [sp, #-4]!)
   17f84:	e28db000 	add	fp, sp, #0
   17f88:	e24dd00c 	sub	sp, sp, #12
   17f8c:	e50b0008 	str	r0, [fp, #-8]
   17f90:	e50b100c 	str	r1, [fp, #-12]
   17f94:	e320f000 	nop	{0}
   17f98:	e51b200c 	ldr	r2, [fp, #-12]
   17f9c:	e2823001 	add	r3, r2, #1
   17fa0:	e50b300c 	str	r3, [fp, #-12]
   17fa4:	e51b3008 	ldr	r3, [fp, #-8]
   17fa8:	e2831001 	add	r1, r3, #1
   17fac:	e50b1008 	str	r1, [fp, #-8]
   17fb0:	e5d22000 	ldrb	r2, [r2]
   17fb4:	e5c32000 	strb	r2, [r3]
   17fb8:	e5d33000 	ldrb	r3, [r3]
   17fbc:	e3530000 	cmp	r3, #0
   17fc0:	1afffff4 	bne	17f98 <my_strcpy+0x18>
   17fc4:	e320f000 	nop	{0}
   17fc8:	e320f000 	nop	{0}
   17fcc:	e28bd000 	add	sp, fp, #0
   17fd0:	e49db004 	pop	{fp}		; (ldr fp, [sp], #4)
   17fd4:	e12fff1e 	bx	lr

00017fd8 <derive_key>:
   17fd8:	e92d4800 	push	{fp, lr}
   17fdc:	e28db004 	add	fp, sp, #4
   17fe0:	e24dd088 	sub	sp, sp, #136	; 0x88
   17fe4:	e50b0080 	str	r0, [fp, #-128]	; 0xffffff80
   17fe8:	e50b1084 	str	r1, [fp, #-132]	; 0xffffff7c
   17fec:	e50b2088 	str	r2, [fp, #-136]	; 0xffffff78
   17ff0:	e50b308c 	str	r3, [fp, #-140]	; 0xffffff74
   17ff4:	e59f3188 	ldr	r3, [pc, #392]	; 18184 <derive_key+0x1ac>
   17ff8:	e08f3003 	add	r3, pc, r3
   17ffc:	e1a00003 	mov	r0, r3
   18000:	ebfff2db 	bl	14b74 <tfp_printf>
   18004:	e24b3074 	sub	r3, fp, #116	; 0x74
   18008:	e1a00003 	mov	r0, r3
   1800c:	ebfffcaf 	bl	172d0 <SHA1Init>
   18010:	e3a03000 	mov	r3, #0
   18014:	e50b3008 	str	r3, [fp, #-8]
   18018:	e3a03000 	mov	r3, #0
   1801c:	e50b300c 	str	r3, [fp, #-12]
   18020:	e51b208c 	ldr	r2, [fp, #-140]	; 0xffffff74
   18024:	e30c3ccd 	movw	r3, #52429	; 0xcccd
   18028:	e34c3ccc 	movt	r3, #52428	; 0xcccc
   1802c:	e0832293 	umull	r2, r3, r3, r2
   18030:	e1a031a3 	lsr	r3, r3, #3
   18034:	e50b3014 	str	r3, [fp, #-20]	; 0xffffffec
   18038:	e51b3014 	ldr	r3, [fp, #-20]	; 0xffffffec
   1803c:	e50b3018 	str	r3, [fp, #-24]	; 0xffffffe8
   18040:	ea000025 	b	180dc <derive_key+0x104>
   18044:	e51b300c 	ldr	r3, [fp, #-12]
   18048:	e3530007 	cmp	r3, #7
   1804c:	8a000005 	bhi	18068 <derive_key+0x90>
   18050:	e51b2080 	ldr	r2, [fp, #-128]	; 0xffffff80
   18054:	e51b300c 	ldr	r3, [fp, #-12]
   18058:	e0823003 	add	r3, r2, r3
   1805c:	e5d33000 	ldrb	r3, [r3]
   18060:	e54b3075 	strb	r3, [fp, #-117]	; 0xffffff8b
   18064:	ea00000a 	b	18094 <derive_key+0xbc>
   18068:	e51b300c 	ldr	r3, [fp, #-12]
   1806c:	e2433008 	sub	r3, r3, #8
   18070:	e51b2088 	ldr	r2, [fp, #-136]	; 0xffffff78
   18074:	e732f213 	udiv	r2, r3, r2
   18078:	e51b1088 	ldr	r1, [fp, #-136]	; 0xffffff78
   1807c:	e0020291 	mul	r2, r1, r2
   18080:	e0433002 	sub	r3, r3, r2
   18084:	e51b2084 	ldr	r2, [fp, #-132]	; 0xffffff7c
   18088:	e0823003 	add	r3, r2, r3
   1808c:	e5d33000 	ldrb	r3, [r3]
   18090:	e54b3075 	strb	r3, [fp, #-117]	; 0xffffff8b
   18094:	e24b1075 	sub	r1, fp, #117	; 0x75
   18098:	e24b3074 	sub	r3, fp, #116	; 0x74
   1809c:	e3a02001 	mov	r2, #1
   180a0:	e1a00003 	mov	r0, r3
   180a4:	ebfffcac 	bl	1735c <SHA1Update>
   180a8:	e51b3008 	ldr	r3, [fp, #-8]
   180ac:	e2833001 	add	r3, r3, #1
   180b0:	e50b3008 	str	r3, [fp, #-8]
   180b4:	e51b300c 	ldr	r3, [fp, #-12]
   180b8:	e2833001 	add	r3, r3, #1
   180bc:	e50b300c 	str	r3, [fp, #-12]
   180c0:	e51b3088 	ldr	r3, [fp, #-136]	; 0xffffff78
   180c4:	e2833008 	add	r3, r3, #8
   180c8:	e51b200c 	ldr	r2, [fp, #-12]
   180cc:	e1520003 	cmp	r2, r3
   180d0:	3a000001 	bcc	180dc <derive_key+0x104>
   180d4:	e3a03000 	mov	r3, #0
   180d8:	e50b300c 	str	r3, [fp, #-12]
   180dc:	e51b2008 	ldr	r2, [fp, #-8]
   180e0:	e51b308c 	ldr	r3, [fp, #-140]	; 0xffffff74
   180e4:	e1520003 	cmp	r2, r3
   180e8:	3affffd5 	bcc	18044 <derive_key+0x6c>
   180ec:	e51b1008 	ldr	r1, [fp, #-8]
   180f0:	e59f3090 	ldr	r3, [pc, #144]	; 18188 <derive_key+0x1b0>
   180f4:	e08f3003 	add	r3, pc, r3
   180f8:	e1a00003 	mov	r0, r3
   180fc:	ebfff29c 	bl	14b74 <tfp_printf>
   18100:	e24b3074 	sub	r3, fp, #116	; 0x74
   18104:	e1a01003 	mov	r1, r3
   18108:	e59b0004 	ldr	r0, [fp, #4]
   1810c:	ebfffcf1 	bl	174d8 <SHA1Final>
   18110:	e59f3074 	ldr	r3, [pc, #116]	; 1818c <derive_key+0x1b4>
   18114:	e08f3003 	add	r3, pc, r3
   18118:	e1a00003 	mov	r0, r3
   1811c:	ebfff294 	bl	14b74 <tfp_printf>
   18120:	e3a03000 	mov	r3, #0
   18124:	e50b3010 	str	r3, [fp, #-16]
   18128:	ea00000b 	b	1815c <derive_key+0x184>
   1812c:	e51b3010 	ldr	r3, [fp, #-16]
   18130:	e59b2004 	ldr	r2, [fp, #4]
   18134:	e0823003 	add	r3, r2, r3
   18138:	e5d33000 	ldrb	r3, [r3]
   1813c:	e1a01003 	mov	r1, r3
   18140:	e59f3048 	ldr	r3, [pc, #72]	; 18190 <derive_key+0x1b8>
   18144:	e08f3003 	add	r3, pc, r3
   18148:	e1a00003 	mov	r0, r3
   1814c:	ebfff288 	bl	14b74 <tfp_printf>
   18150:	e51b3010 	ldr	r3, [fp, #-16]
   18154:	e2833001 	add	r3, r3, #1
   18158:	e50b3010 	str	r3, [fp, #-16]
   1815c:	e51b3010 	ldr	r3, [fp, #-16]
   18160:	e3530013 	cmp	r3, #19
   18164:	dafffff0 	ble	1812c <derive_key+0x154>
   18168:	e59f3024 	ldr	r3, [pc, #36]	; 18194 <derive_key+0x1bc>
   1816c:	e08f3003 	add	r3, pc, r3
   18170:	e1a00003 	mov	r0, r3
   18174:	ebfff27e 	bl	14b74 <tfp_printf>
   18178:	e320f000 	nop	{0}
   1817c:	e24bd004 	sub	sp, fp, #4
   18180:	e8bd8800 	pop	{fp, pc}
   18184:	000035bc 	.word	0x000035bc
   18188:	000034d4 	.word	0x000034d4
   1818c:	000034e4 	.word	0x000034e4
   18190:	000034c4 	.word	0x000034c4
   18194:	000034a4 	.word	0x000034a4

00018198 <passphrase_to_dek>:
   18198:	e92d4810 	push	{r4, fp, lr}
   1819c:	e28db008 	add	fp, sp, #8
   181a0:	e24dd064 	sub	sp, sp, #100	; 0x64
   181a4:	e50b0058 	str	r0, [fp, #-88]	; 0xffffffa8
   181a8:	e50b105c 	str	r1, [fp, #-92]	; 0xffffffa4
   181ac:	e50b2060 	str	r2, [fp, #-96]	; 0xffffffa0
   181b0:	e50b3064 	str	r3, [fp, #-100]	; 0xffffff9c
   181b4:	e59f3324 	ldr	r3, [pc, #804]	; 184e0 <passphrase_to_dek+0x348>
   181b8:	e08f3003 	add	r3, pc, r3
   181bc:	e1a00003 	mov	r0, r3
   181c0:	ebfff26b 	bl	14b74 <tfp_printf>
   181c4:	e3a03000 	mov	r3, #0
   181c8:	e50b3018 	str	r3, [fp, #-24]	; 0xffffffe8
   181cc:	e3a03000 	mov	r3, #0
   181d0:	e50b301c 	str	r3, [fp, #-28]	; 0xffffffe4
   181d4:	e59b300c 	ldr	r3, [fp, #12]
   181d8:	e3530000 	cmp	r3, #0
   181dc:	1a000001 	bne	181e8 <passphrase_to_dek+0x50>
   181e0:	e24b3040 	sub	r3, fp, #64	; 0x40
   181e4:	e58b300c 	str	r3, [fp, #12]
   181e8:	e59b300c 	ldr	r3, [fp, #12]
   181ec:	e3a02000 	mov	r2, #0
   181f0:	e5832000 	str	r2, [r3]
   181f4:	e51b3060 	ldr	r3, [fp, #-96]	; 0xffffffa0
   181f8:	e3530000 	cmp	r3, #0
   181fc:	0a00002a 	beq	182ac <passphrase_to_dek+0x114>
   18200:	e51b305c 	ldr	r3, [fp, #-92]	; 0xffffffa4
   18204:	e5933000 	ldr	r3, [r3]
   18208:	e3530001 	cmp	r3, #1
   1820c:	0a000003 	beq	18220 <passphrase_to_dek+0x88>
   18210:	e51b305c 	ldr	r3, [fp, #-92]	; 0xffffffa4
   18214:	e5933000 	ldr	r3, [r3]
   18218:	e3530003 	cmp	r3, #3
   1821c:	1a000022 	bne	182ac <passphrase_to_dek+0x114>
   18220:	e59f32bc 	ldr	r3, [pc, #700]	; 184e4 <passphrase_to_dek+0x34c>
   18224:	e08f3003 	add	r3, pc, r3
   18228:	e1a00003 	mov	r0, r3
   1822c:	ebfff250 	bl	14b74 <tfp_printf>
   18230:	e51b305c 	ldr	r3, [fp, #-92]	; 0xffffffa4
   18234:	e3a0200a 	mov	r2, #10
   18238:	e5c32005 	strb	r2, [r3, #5]
   1823c:	e51b305c 	ldr	r3, [fp, #-92]	; 0xffffffa4
   18240:	e3a0200b 	mov	r2, #11
   18244:	e5c32006 	strb	r2, [r3, #6]
   18248:	e51b305c 	ldr	r3, [fp, #-92]	; 0xffffffa4
   1824c:	e3a0200c 	mov	r2, #12
   18250:	e5c32007 	strb	r2, [r3, #7]
   18254:	e51b305c 	ldr	r3, [fp, #-92]	; 0xffffffa4
   18258:	e3a0200d 	mov	r2, #13
   1825c:	e5c32008 	strb	r2, [r3, #8]
   18260:	e51b305c 	ldr	r3, [fp, #-92]	; 0xffffffa4
   18264:	e3a0200e 	mov	r2, #14
   18268:	e5c32009 	strb	r2, [r3, #9]
   1826c:	e51b305c 	ldr	r3, [fp, #-92]	; 0xffffffa4
   18270:	e3a0200f 	mov	r2, #15
   18274:	e5c3200a 	strb	r2, [r3, #10]
   18278:	e51b305c 	ldr	r3, [fp, #-92]	; 0xffffffa4
   1827c:	e3a02010 	mov	r2, #16
   18280:	e5c3200b 	strb	r2, [r3, #11]
   18284:	e51b305c 	ldr	r3, [fp, #-92]	; 0xffffffa4
   18288:	e3a02011 	mov	r2, #17
   1828c:	e5c3200c 	strb	r2, [r3, #12]
   18290:	e51b305c 	ldr	r3, [fp, #-92]	; 0xffffffa4
   18294:	e5933000 	ldr	r3, [r3]
   18298:	e3530003 	cmp	r3, #3
   1829c:	1a000002 	bne	182ac <passphrase_to_dek+0x114>
   182a0:	e51b305c 	ldr	r3, [fp, #-92]	; 0xffffffa4
   182a4:	e3a020ff 	mov	r2, #255	; 0xff
   182a8:	e5832010 	str	r2, [r3, #16]
   182ac:	e3a00024 	mov	r0, #36	; 0x24
   182b0:	ebffe2ea 	bl	10e60 <xmalloc_clear>
   182b4:	e1a03000 	mov	r3, r0
   182b8:	e50b3020 	str	r3, [fp, #-32]	; 0xffffffe0
   182bc:	e51b3020 	ldr	r3, [fp, #-32]	; 0xffffffe0
   182c0:	e51b2058 	ldr	r2, [fp, #-88]	; 0xffffffa8
   182c4:	e5832000 	str	r2, [r3]
   182c8:	e51b3020 	ldr	r3, [fp, #-32]	; 0xffffffe0
   182cc:	e3a02010 	mov	r2, #16
   182d0:	e5832004 	str	r2, [r3, #4]
   182d4:	e51b305c 	ldr	r3, [fp, #-92]	; 0xffffffa4
   182d8:	e5933010 	ldr	r3, [r3, #16]
   182dc:	e203300f 	and	r3, r3, #15
   182e0:	e2832010 	add	r2, r3, #16
   182e4:	e51b305c 	ldr	r3, [fp, #-92]	; 0xffffffa4
   182e8:	e5933010 	ldr	r3, [r3, #16]
   182ec:	e1a03223 	lsr	r3, r3, #4
   182f0:	e2833006 	add	r3, r3, #6
   182f4:	e1a03312 	lsl	r3, r2, r3
   182f8:	e50b3024 	str	r3, [fp, #-36]	; 0xffffffdc
   182fc:	e59b3014 	ldr	r3, [fp, #20]
   18300:	e3530000 	cmp	r3, #0
   18304:	0a000016 	beq	18364 <passphrase_to_dek+0x1cc>
   18308:	e59b1014 	ldr	r1, [fp, #20]
   1830c:	e59f31d4 	ldr	r3, [pc, #468]	; 184e8 <passphrase_to_dek+0x350>
   18310:	e08f3003 	add	r3, pc, r3
   18314:	e1a00003 	mov	r0, r3
   18318:	ebfff215 	bl	14b74 <tfp_printf>
   1831c:	e59b0014 	ldr	r0, [fp, #20]
   18320:	ebfffce1 	bl	176ac <strlen>
   18324:	e1a03000 	mov	r3, r0
   18328:	e2833001 	add	r3, r3, #1
   1832c:	e50b3028 	str	r3, [fp, #-40]	; 0xffffffd8
   18330:	e51b0028 	ldr	r0, [fp, #-40]	; 0xffffffd8
   18334:	ebffe1df 	bl	10ab8 <malloc>
   18338:	e1a03000 	mov	r3, r0
   1833c:	e1a02003 	mov	r2, r3
   18340:	e51b3020 	ldr	r3, [fp, #-32]	; 0xffffffe0
   18344:	e583200c 	str	r2, [r3, #12]
   18348:	e51b3020 	ldr	r3, [fp, #-32]	; 0xffffffe0
   1834c:	e593300c 	ldr	r3, [r3, #12]
   18350:	e51b2028 	ldr	r2, [fp, #-40]	; 0xffffffd8
   18354:	e59b1014 	ldr	r1, [fp, #20]
   18358:	e1a00003 	mov	r0, r3
   1835c:	ebffe355 	bl	110b8 <memcpy>
   18360:	ea00000b 	b	18394 <passphrase_to_dek+0x1fc>
   18364:	e51b305c 	ldr	r3, [fp, #-92]	; 0xffffffa4
   18368:	e2834005 	add	r4, r3, #5
   1836c:	e59b0010 	ldr	r0, [fp, #16]
   18370:	ebfffccd 	bl	176ac <strlen>
   18374:	e1a02000 	mov	r2, r0
   18378:	e51b3020 	ldr	r3, [fp, #-32]	; 0xffffffe0
   1837c:	e593300c 	ldr	r3, [r3, #12]
   18380:	e58d3000 	str	r3, [sp]
   18384:	e51b3024 	ldr	r3, [fp, #-36]	; 0xffffffdc
   18388:	e59b1010 	ldr	r1, [fp, #16]
   1838c:	e1a00004 	mov	r0, r4
   18390:	ebffff10 	bl	17fd8 <derive_key>
   18394:	e59f3150 	ldr	r3, [pc, #336]	; 184ec <passphrase_to_dek+0x354>
   18398:	e08f3003 	add	r3, pc, r3
   1839c:	e1a00003 	mov	r0, r3
   183a0:	ebfff1f3 	bl	14b74 <tfp_printf>
   183a4:	e51b3020 	ldr	r3, [fp, #-32]	; 0xffffffe0
   183a8:	e5933000 	ldr	r3, [r3]
   183ac:	e1a01003 	mov	r1, r3
   183b0:	e59f3138 	ldr	r3, [pc, #312]	; 184f0 <passphrase_to_dek+0x358>
   183b4:	e08f3003 	add	r3, pc, r3
   183b8:	e1a00003 	mov	r0, r3
   183bc:	ebfff1ec 	bl	14b74 <tfp_printf>
   183c0:	e51b3020 	ldr	r3, [fp, #-32]	; 0xffffffe0
   183c4:	e5933004 	ldr	r3, [r3, #4]
   183c8:	e1a01003 	mov	r1, r3
   183cc:	e59f3120 	ldr	r3, [pc, #288]	; 184f4 <passphrase_to_dek+0x35c>
   183d0:	e08f3003 	add	r3, pc, r3
   183d4:	e1a00003 	mov	r0, r3
   183d8:	ebfff1e5 	bl	14b74 <tfp_printf>
   183dc:	e51b1024 	ldr	r1, [fp, #-36]	; 0xffffffdc
   183e0:	e59f3110 	ldr	r3, [pc, #272]	; 184f8 <passphrase_to_dek+0x360>
   183e4:	e08f3003 	add	r3, pc, r3
   183e8:	e1a00003 	mov	r0, r3
   183ec:	ebfff1e0 	bl	14b74 <tfp_printf>
   183f0:	e59f3104 	ldr	r3, [pc, #260]	; 184fc <passphrase_to_dek+0x364>
   183f4:	e08f3003 	add	r3, pc, r3
   183f8:	e1a00003 	mov	r0, r3
   183fc:	ebfff1dc 	bl	14b74 <tfp_printf>
   18400:	e3a03000 	mov	r3, #0
   18404:	e50b3010 	str	r3, [fp, #-16]
   18408:	ea00000c 	b	18440 <passphrase_to_dek+0x2a8>
   1840c:	e51b3020 	ldr	r3, [fp, #-32]	; 0xffffffe0
   18410:	e593200c 	ldr	r2, [r3, #12]
   18414:	e51b3010 	ldr	r3, [fp, #-16]
   18418:	e0823003 	add	r3, r2, r3
   1841c:	e5d33000 	ldrb	r3, [r3]
   18420:	e1a01003 	mov	r1, r3
   18424:	e59f30d4 	ldr	r3, [pc, #212]	; 18500 <passphrase_to_dek+0x368>
   18428:	e08f3003 	add	r3, pc, r3
   1842c:	e1a00003 	mov	r0, r3
   18430:	ebfff1cf 	bl	14b74 <tfp_printf>
   18434:	e51b3010 	ldr	r3, [fp, #-16]
   18438:	e2833001 	add	r3, r3, #1
   1843c:	e50b3010 	str	r3, [fp, #-16]
   18440:	e51b3020 	ldr	r3, [fp, #-32]	; 0xffffffe0
   18444:	e5933004 	ldr	r3, [r3, #4]
   18448:	e51b2010 	ldr	r2, [fp, #-16]
   1844c:	e1520003 	cmp	r2, r3
   18450:	baffffed 	blt	1840c <passphrase_to_dek+0x274>
   18454:	e59f30a8 	ldr	r3, [pc, #168]	; 18504 <passphrase_to_dek+0x36c>
   18458:	e08f3003 	add	r3, pc, r3
   1845c:	e1a00003 	mov	r0, r3
   18460:	ebfff1c3 	bl	14b74 <tfp_printf>
   18464:	e59f309c 	ldr	r3, [pc, #156]	; 18508 <passphrase_to_dek+0x370>
   18468:	e08f3003 	add	r3, pc, r3
   1846c:	e1a00003 	mov	r0, r3
   18470:	ebfff1bf 	bl	14b74 <tfp_printf>
   18474:	e3a03000 	mov	r3, #0
   18478:	e50b3014 	str	r3, [fp, #-20]	; 0xffffffec
   1847c:	ea00000c 	b	184b4 <passphrase_to_dek+0x31c>
   18480:	e51b205c 	ldr	r2, [fp, #-92]	; 0xffffffa4
   18484:	e51b3014 	ldr	r3, [fp, #-20]	; 0xffffffec
   18488:	e0823003 	add	r3, r2, r3
   1848c:	e2833005 	add	r3, r3, #5
   18490:	e5d33000 	ldrb	r3, [r3]
   18494:	e1a01003 	mov	r1, r3
   18498:	e59f306c 	ldr	r3, [pc, #108]	; 1850c <passphrase_to_dek+0x374>
   1849c:	e08f3003 	add	r3, pc, r3
   184a0:	e1a00003 	mov	r0, r3
   184a4:	ebfff1b2 	bl	14b74 <tfp_printf>
   184a8:	e51b3014 	ldr	r3, [fp, #-20]	; 0xffffffec
   184ac:	e2833001 	add	r3, r3, #1
   184b0:	e50b3014 	str	r3, [fp, #-20]	; 0xffffffec
   184b4:	e51b3014 	ldr	r3, [fp, #-20]	; 0xffffffec
   184b8:	e3530007 	cmp	r3, #7
   184bc:	daffffef 	ble	18480 <passphrase_to_dek+0x2e8>
   184c0:	e59f3048 	ldr	r3, [pc, #72]	; 18510 <passphrase_to_dek+0x378>
   184c4:	e08f3003 	add	r3, pc, r3
   184c8:	e1a00003 	mov	r0, r3
   184cc:	ebfff1a8 	bl	14b74 <tfp_printf>
   184d0:	e51b3020 	ldr	r3, [fp, #-32]	; 0xffffffe0
   184d4:	e1a00003 	mov	r0, r3
   184d8:	e24bd008 	sub	sp, fp, #8
   184dc:	e8bd8810 	pop	{r4, fp, pc}
   184e0:	0000345c 	.word	0x0000345c
   184e4:	00003404 	.word	0x00003404
   184e8:	0000332c 	.word	0x0000332c
   184ec:	000032b4 	.word	0x000032b4
   184f0:	000032ac 	.word	0x000032ac
   184f4:	000032a0 	.word	0x000032a0
   184f8:	000032a4 	.word	0x000032a4
   184fc:	000032a4 	.word	0x000032a4
   18500:	000031e0 	.word	0x000031e0
   18504:	000031b8 	.word	0x000031b8
   18508:	00003238 	.word	0x00003238
   1850c:	0000316c 	.word	0x0000316c
   18510:	0000314c 	.word	0x0000314c

00018514 <proc_symkey_enc>:
   18514:	e92d4800 	push	{fp, lr}
   18518:	e28db004 	add	fp, sp, #4
   1851c:	e24dd038 	sub	sp, sp, #56	; 0x38
   18520:	e50b0020 	str	r0, [fp, #-32]	; 0xffffffe0
   18524:	e50b1024 	str	r1, [fp, #-36]	; 0xffffffdc
   18528:	e51b3024 	ldr	r3, [fp, #-36]	; 0xffffffdc
   1852c:	e5933004 	ldr	r3, [r3, #4]
   18530:	e50b3008 	str	r3, [fp, #-8]
   18534:	e51b3008 	ldr	r3, [fp, #-8]
   18538:	e3530000 	cmp	r3, #0
   1853c:	1a000004 	bne	18554 <proc_symkey_enc+0x40>
   18540:	e59f31e0 	ldr	r3, [pc, #480]	; 18728 <proc_symkey_enc+0x214>
   18544:	e08f3003 	add	r3, pc, r3
   18548:	e1a00003 	mov	r0, r3
   1854c:	ebfff188 	bl	14b74 <tfp_printf>
   18550:	ea00004b 	b	18684 <proc_symkey_enc+0x170>
   18554:	e51b3020 	ldr	r3, [fp, #-32]	; 0xffffffe0
   18558:	e593302c 	ldr	r3, [r3, #44]	; 0x2c
   1855c:	e3530000 	cmp	r3, #0
   18560:	1a000044 	bne	18678 <proc_symkey_enc+0x164>
   18564:	e51b3008 	ldr	r3, [fp, #-8]
   18568:	e5d33001 	ldrb	r3, [r3, #1]
   1856c:	e50b300c 	str	r3, [fp, #-12]
   18570:	e59f31b4 	ldr	r3, [pc, #436]	; 1872c <proc_symkey_enc+0x218>
   18574:	e08f3003 	add	r3, pc, r3
   18578:	e50b3010 	str	r3, [fp, #-16]
   1857c:	e59f31ac 	ldr	r3, [pc, #428]	; 18730 <proc_symkey_enc+0x21c>
   18580:	e08f3003 	add	r3, pc, r3
   18584:	e50b3014 	str	r3, [fp, #-20]	; 0xffffffec
   18588:	e51b2014 	ldr	r2, [fp, #-20]	; 0xffffffec
   1858c:	e51b1010 	ldr	r1, [fp, #-16]
   18590:	e59f319c 	ldr	r3, [pc, #412]	; 18734 <proc_symkey_enc+0x220>
   18594:	e08f3003 	add	r3, pc, r3
   18598:	e1a00003 	mov	r0, r3
   1859c:	ebfff174 	bl	14b74 <tfp_printf>
   185a0:	e51b3020 	ldr	r3, [fp, #-32]	; 0xffffffe0
   185a4:	e3a02002 	mov	r2, #2
   185a8:	e5832038 	str	r2, [r3, #56]	; 0x38
   185ac:	e51b3010 	ldr	r3, [fp, #-16]
   185b0:	e3530000 	cmp	r3, #0
   185b4:	0a000031 	beq	18680 <proc_symkey_enc+0x16c>
   185b8:	e51b3008 	ldr	r3, [fp, #-8]
   185bc:	e2831004 	add	r1, r3, #4
   185c0:	e51b3020 	ldr	r3, [fp, #-32]	; 0xffffffe0
   185c4:	e5933030 	ldr	r3, [r3, #48]	; 0x30
   185c8:	e51b2020 	ldr	r2, [fp, #-32]	; 0xffffffe0
   185cc:	e5922034 	ldr	r2, [r2, #52]	; 0x34
   185d0:	e58d2010 	str	r2, [sp, #16]
   185d4:	e58d300c 	str	r3, [sp, #12]
   185d8:	e3a03000 	mov	r3, #0
   185dc:	e58d3008 	str	r3, [sp, #8]
   185e0:	e3a03000 	mov	r3, #0
   185e4:	e58d3004 	str	r3, [sp, #4]
   185e8:	e3a03000 	mov	r3, #0
   185ec:	e58d3000 	str	r3, [sp]
   185f0:	e3a03001 	mov	r3, #1
   185f4:	e3a02000 	mov	r2, #0
   185f8:	e51b000c 	ldr	r0, [fp, #-12]
   185fc:	ebfffee5 	bl	18198 <passphrase_to_dek>
   18600:	e1a02000 	mov	r2, r0
   18604:	e51b3020 	ldr	r3, [fp, #-32]	; 0xffffffe0
   18608:	e583202c 	str	r2, [r3, #44]	; 0x2c
   1860c:	e51b3020 	ldr	r3, [fp, #-32]	; 0xffffffe0
   18610:	e593302c 	ldr	r3, [r3, #44]	; 0x2c
   18614:	e3530000 	cmp	r3, #0
   18618:	0a000016 	beq	18678 <proc_symkey_enc+0x164>
   1861c:	e51b3020 	ldr	r3, [fp, #-32]	; 0xffffffe0
   18620:	e593202c 	ldr	r2, [r3, #44]	; 0x2c
   18624:	e5d23008 	ldrb	r3, [r2, #8]
   18628:	e3833040 	orr	r3, r3, #64	; 0x40
   1862c:	e5c23008 	strb	r3, [r2, #8]
   18630:	e51b3008 	ldr	r3, [fp, #-8]
   18634:	e5d31002 	ldrb	r1, [r3, #2]
   18638:	e51b3020 	ldr	r3, [fp, #-32]	; 0xffffffe0
   1863c:	e593202c 	ldr	r2, [r3, #44]	; 0x2c
   18640:	e1a03001 	mov	r3, r1
   18644:	e1a03203 	lsl	r3, r3, #4
   18648:	e6af3073 	sxtb	r3, r3
   1864c:	e1a03243 	asr	r3, r3, #4
   18650:	e6af1073 	sxtb	r1, r3
   18654:	e5d23008 	ldrb	r3, [r2, #8]
   18658:	e7c43091 	bfi	r3, r1, #1, #4
   1865c:	e5c23008 	strb	r3, [r2, #8]
   18660:	e51b3020 	ldr	r3, [fp, #-32]	; 0xffffffe0
   18664:	e593202c 	ldr	r2, [r3, #44]	; 0x2c
   18668:	e5d23008 	ldrb	r3, [r2, #8]
   1866c:	e3833001 	orr	r3, r3, #1
   18670:	e5c23008 	strb	r3, [r2, #8]
   18674:	ea000002 	b	18684 <proc_symkey_enc+0x170>
   18678:	e320f000 	nop	{0}
   1867c:	ea000000 	b	18684 <proc_symkey_enc+0x170>
   18680:	e320f000 	nop	{0}
   18684:	e3a01010 	mov	r1, #16
   18688:	e3a00001 	mov	r0, #1
   1868c:	ebffe210 	bl	10ed4 <xcalloc>
   18690:	e1a03000 	mov	r3, r0
   18694:	e50b3018 	str	r3, [fp, #-24]	; 0xffffffe8
   18698:	e51b3008 	ldr	r3, [fp, #-8]
   1869c:	e3530000 	cmp	r3, #0
   186a0:	0a00000e 	beq	186e0 <proc_symkey_enc+0x1cc>
   186a4:	e51b3008 	ldr	r3, [fp, #-8]
   186a8:	e5d33001 	ldrb	r3, [r3, #1]
   186ac:	e1a02003 	mov	r2, r3
   186b0:	e51b3018 	ldr	r3, [fp, #-24]	; 0xffffffe8
   186b4:	e5832004 	str	r2, [r3, #4]
   186b8:	e51b3008 	ldr	r3, [fp, #-8]
   186bc:	e5d33002 	ldrb	r3, [r3, #2]
   186c0:	e3530000 	cmp	r3, #0
   186c4:	03a03001 	moveq	r3, #1
   186c8:	13a03000 	movne	r3, #0
   186cc:	e6ef3073 	uxtb	r3, r3
   186d0:	e1a02003 	mov	r2, r3
   186d4:	e51b3018 	ldr	r3, [fp, #-24]	; 0xffffffe8
   186d8:	e5832008 	str	r2, [r3, #8]
   186dc:	ea000002 	b	186ec <proc_symkey_enc+0x1d8>
   186e0:	e51b3018 	ldr	r3, [fp, #-24]	; 0xffffffe8
   186e4:	e3a02001 	mov	r2, #1
   186e8:	e583200c 	str	r2, [r3, #12]
   186ec:	e51b3020 	ldr	r3, [fp, #-32]	; 0xffffffe0
   186f0:	e5932050 	ldr	r2, [r3, #80]	; 0x50
   186f4:	e51b3018 	ldr	r3, [fp, #-24]	; 0xffffffe8
   186f8:	e5832000 	str	r2, [r3]
   186fc:	e51b3020 	ldr	r3, [fp, #-32]	; 0xffffffe0
   18700:	e51b2018 	ldr	r2, [fp, #-24]	; 0xffffffe8
   18704:	e5832050 	str	r2, [r3, #80]	; 0x50
   18708:	e51b3020 	ldr	r3, [fp, #-32]	; 0xffffffe0
   1870c:	e5933048 	ldr	r3, [r3, #72]	; 0x48
   18710:	e2832001 	add	r2, r3, #1
   18714:	e51b3020 	ldr	r3, [fp, #-32]	; 0xffffffe0
   18718:	e5832048 	str	r2, [r3, #72]	; 0x48
   1871c:	e320f000 	nop	{0}
   18720:	e24bd004 	sub	sp, fp, #4
   18724:	e8bd8800 	pop	{fp, pc}
   18728:	00003164 	.word	0x00003164
   1872c:	00003158 	.word	0x00003158
   18730:	00003154 	.word	0x00003154
   18734:	00003144 	.word	0x00003144

00018738 <proc_encrypted>:
   18738:	e92d4800 	push	{fp, lr}
   1873c:	e28db004 	add	fp, sp, #4
   18740:	e24dd020 	sub	sp, sp, #32
   18744:	e50b0018 	str	r0, [fp, #-24]	; 0xffffffe8
   18748:	e50b101c 	str	r1, [fp, #-28]	; 0xffffffe4
   1874c:	e59f32cc 	ldr	r3, [pc, #716]	; 18a20 <proc_encrypted+0x2e8>
   18750:	e08f3003 	add	r3, pc, r3
   18754:	e1a00003 	mov	r0, r3
   18758:	ebfff105 	bl	14b74 <tfp_printf>
   1875c:	e3a03000 	mov	r3, #0
   18760:	e50b3008 	str	r3, [fp, #-8]
   18764:	e59f32b8 	ldr	r3, [pc, #696]	; 18a24 <proc_encrypted+0x2ec>
   18768:	e08f3003 	add	r3, pc, r3
   1876c:	e5933000 	ldr	r3, [r3]
   18770:	e50b3010 	str	r3, [fp, #-16]
   18774:	e3a03000 	mov	r3, #0
   18778:	e50b300c 	str	r3, [fp, #-12]
   1877c:	e51b301c 	ldr	r3, [fp, #-28]	; 0xffffffe4
   18780:	e5d33000 	ldrb	r3, [r3]
   18784:	e3530014 	cmp	r3, #20
   18788:	1a000002 	bne	18798 <proc_encrypted+0x60>
   1878c:	e51b3018 	ldr	r3, [fp, #-24]	; 0xffffffe8
   18790:	e3a02001 	mov	r2, #1
   18794:	e5832054 	str	r2, [r3, #84]	; 0x54
   18798:	e51b301c 	ldr	r3, [fp, #-28]	; 0xffffffe4
   1879c:	e5d33000 	ldrb	r3, [r3]
   187a0:	e3530012 	cmp	r3, #18
   187a4:	1a000002 	bne	187b4 <proc_encrypted+0x7c>
   187a8:	e51b3018 	ldr	r3, [fp, #-24]	; 0xffffffe8
   187ac:	e3a02001 	mov	r2, #1
   187b0:	e5832058 	str	r2, [r3, #88]	; 0x58
   187b4:	e51b3010 	ldr	r3, [fp, #-16]
   187b8:	e3530000 	cmp	r3, #0
   187bc:	0a000003 	beq	187d0 <proc_encrypted+0x98>
   187c0:	e59f3260 	ldr	r3, [pc, #608]	; 18a28 <proc_encrypted+0x2f0>
   187c4:	e08f3003 	add	r3, pc, r3
   187c8:	e1a00003 	mov	r0, r3
   187cc:	ebfff0e8 	bl	14b74 <tfp_printf>
   187d0:	e51b3008 	ldr	r3, [fp, #-8]
   187d4:	e3530000 	cmp	r3, #0
   187d8:	1a000014 	bne	18830 <proc_encrypted+0xf8>
   187dc:	e51b3018 	ldr	r3, [fp, #-24]	; 0xffffffe8
   187e0:	e5930000 	ldr	r0, [r3]
   187e4:	e51b301c 	ldr	r3, [fp, #-28]	; 0xffffffe4
   187e8:	e5932004 	ldr	r2, [r3, #4]
   187ec:	e51b3018 	ldr	r3, [fp, #-24]	; 0xffffffe8
   187f0:	e593102c 	ldr	r1, [r3, #44]	; 0x2c
   187f4:	e24b3014 	sub	r3, fp, #20
   187f8:	e58d3000 	str	r3, [sp]
   187fc:	e1a03001 	mov	r3, r1
   18800:	e51b1018 	ldr	r1, [fp, #-24]	; 0xffffffe8
   18804:	ebffccc6 	bl	bb24 <decrypt_data>
   18808:	e50b0008 	str	r0, [fp, #-8]
   1880c:	e51b3008 	ldr	r3, [fp, #-8]
   18810:	e3530000 	cmp	r3, #0
   18814:	1a000005 	bne	18830 <proc_encrypted+0xf8>
   18818:	e51b3014 	ldr	r3, [fp, #-20]	; 0xffffffec
   1881c:	e3530000 	cmp	r3, #0
   18820:	1a000002 	bne	18830 <proc_encrypted+0xf8>
   18824:	e51b300c 	ldr	r3, [fp, #-12]
   18828:	e3833002 	orr	r3, r3, #2
   1882c:	e50b300c 	str	r3, [fp, #-12]
   18830:	e51b3008 	ldr	r3, [fp, #-8]
   18834:	e3530000 	cmp	r3, #0
   18838:	1a000006 	bne	18858 <proc_encrypted+0x120>
   1883c:	e51b3010 	ldr	r3, [fp, #-16]
   18840:	e3530000 	cmp	r3, #0
   18844:	0a000003 	beq	18858 <proc_encrypted+0x120>
   18848:	e3a00059 	mov	r0, #89	; 0x59
   1884c:	ebfffdb6 	bl	17f2c <gpg_error>
   18850:	e1a03000 	mov	r3, r0
   18854:	e50b3008 	str	r3, [fp, #-8]
   18858:	e51b3008 	ldr	r3, [fp, #-8]
   1885c:	e3730001 	cmn	r3, #1
   18860:	0a00004e 	beq	189a0 <proc_encrypted+0x268>
   18864:	e51b3008 	ldr	r3, [fp, #-8]
   18868:	e3530000 	cmp	r3, #0
   1886c:	0a00000a 	beq	1889c <proc_encrypted+0x164>
   18870:	e51b3008 	ldr	r3, [fp, #-8]
   18874:	e1a00003 	mov	r0, r3
   18878:	ebfffdb6 	bl	17f58 <gpg_err_code>
   1887c:	e1a03000 	mov	r3, r0
   18880:	e3530008 	cmp	r3, #8
   18884:	1a00000f 	bne	188c8 <proc_encrypted+0x190>
   18888:	e51b301c 	ldr	r3, [fp, #-28]	; 0xffffffe4
   1888c:	e5933004 	ldr	r3, [r3, #4]
   18890:	e5d3300b 	ldrb	r3, [r3, #11]
   18894:	e3530000 	cmp	r3, #0
   18898:	1a00000a 	bne	188c8 <proc_encrypted+0x190>
   1889c:	e3a00019 	mov	r0, #25
   188a0:	ebfff0b3 	bl	14b74 <tfp_printf>
   188a4:	e59f3180 	ldr	r3, [pc, #384]	; 18a2c <proc_encrypted+0x2f4>
   188a8:	e08f3003 	add	r3, pc, r3
   188ac:	e1a00003 	mov	r0, r3
   188b0:	ebfff0af 	bl	14b74 <tfp_printf>
   188b4:	e59f3174 	ldr	r3, [pc, #372]	; 18a30 <proc_encrypted+0x2f8>
   188b8:	e08f3003 	add	r3, pc, r3
   188bc:	e1a00003 	mov	r0, r3
   188c0:	ebfff0ab 	bl	14b74 <tfp_printf>
   188c4:	ea000035 	b	189a0 <proc_encrypted+0x268>
   188c8:	e51b3008 	ldr	r3, [fp, #-8]
   188cc:	e1a00003 	mov	r0, r3
   188d0:	ebfffda0 	bl	17f58 <gpg_err_code>
   188d4:	e1a03000 	mov	r3, r0
   188d8:	e3530008 	cmp	r3, #8
   188dc:	0a000005 	beq	188f8 <proc_encrypted+0x1c0>
   188e0:	e51b3008 	ldr	r3, [fp, #-8]
   188e4:	e1a00003 	mov	r0, r3
   188e8:	ebfffd9a 	bl	17f58 <gpg_err_code>
   188ec:	e1a03000 	mov	r3, r0
   188f0:	e353004a 	cmp	r3, #74	; 0x4a
   188f4:	1a000008 	bne	1891c <proc_encrypted+0x1e4>
   188f8:	e59f3134 	ldr	r3, [pc, #308]	; 18a34 <proc_encrypted+0x2fc>
   188fc:	e08f3003 	add	r3, pc, r3
   18900:	e1a00003 	mov	r0, r3
   18904:	ebfff09a 	bl	14b74 <tfp_printf>
   18908:	e3a0001d 	mov	r0, #29
   1890c:	ebfff098 	bl	14b74 <tfp_printf>
   18910:	e3a00018 	mov	r0, #24
   18914:	ebfff096 	bl	14b74 <tfp_printf>
   18918:	ea000020 	b	189a0 <proc_encrypted+0x268>
   1891c:	e51b3008 	ldr	r3, [fp, #-8]
   18920:	e1a00003 	mov	r0, r3
   18924:	ebfffd8b 	bl	17f58 <gpg_err_code>
   18928:	e1a03000 	mov	r3, r0
   1892c:	e3530013 	cmp	r3, #19
   18930:	0a00000b 	beq	18964 <proc_encrypted+0x22c>
   18934:	e51b3008 	ldr	r3, [fp, #-8]
   18938:	e1a00003 	mov	r0, r3
   1893c:	ebfffd85 	bl	17f58 <gpg_err_code>
   18940:	e1a03000 	mov	r3, r0
   18944:	e353000a 	cmp	r3, #10
   18948:	0a000005 	beq	18964 <proc_encrypted+0x22c>
   1894c:	e51b3008 	ldr	r3, [fp, #-8]
   18950:	e1a00003 	mov	r0, r3
   18954:	ebfffd7f 	bl	17f58 <gpg_err_code>
   18958:	e1a03000 	mov	r3, r0
   1895c:	e353000c 	cmp	r3, #12
   18960:	1a000008 	bne	18988 <proc_encrypted+0x250>
   18964:	e51b3018 	ldr	r3, [fp, #-24]	; 0xffffffe8
   18968:	e5933048 	ldr	r3, [r3, #72]	; 0x48
   1896c:	e3530000 	cmp	r3, #0
   18970:	0a000004 	beq	18988 <proc_encrypted+0x250>
   18974:	e59f30bc 	ldr	r3, [pc, #188]	; 18a38 <proc_encrypted+0x300>
   18978:	e08f3003 	add	r3, pc, r3
   1897c:	e1a01003 	mov	r1, r3
   18980:	e3a00061 	mov	r0, #97	; 0x61
   18984:	ebfff07a 	bl	14b74 <tfp_printf>
   18988:	e3a00018 	mov	r0, #24
   1898c:	ebfff078 	bl	14b74 <tfp_printf>
   18990:	e59f30a4 	ldr	r3, [pc, #164]	; 18a3c <proc_encrypted+0x304>
   18994:	e08f3003 	add	r3, pc, r3
   18998:	e1a00003 	mov	r0, r3
   1899c:	ebfff074 	bl	14b74 <tfp_printf>
   189a0:	e51b300c 	ldr	r3, [fp, #-12]
   189a4:	e3530007 	cmp	r3, #7
   189a8:	1a000003 	bne	189bc <proc_encrypted+0x284>
   189ac:	e59f308c 	ldr	r3, [pc, #140]	; 18a40 <proc_encrypted+0x308>
   189b0:	e08f3003 	add	r3, pc, r3
   189b4:	e1a00003 	mov	r0, r3
   189b8:	ebfff06d 	bl	14b74 <tfp_printf>
   189bc:	e51b3018 	ldr	r3, [fp, #-24]	; 0xffffffe8
   189c0:	e593302c 	ldr	r3, [r3, #44]	; 0x2c
   189c4:	e1a00003 	mov	r0, r3
   189c8:	ebffe163 	bl	10f5c <xfree>
   189cc:	e51b3018 	ldr	r3, [fp, #-24]	; 0xffffffe8
   189d0:	e3a02000 	mov	r2, #0
   189d4:	e583202c 	str	r2, [r3, #44]	; 0x2c
   189d8:	e3a01000 	mov	r1, #0
   189dc:	e51b001c 	ldr	r0, [fp, #-28]	; 0xffffffe4
   189e0:	ebffceb9 	bl	c4cc <free_packet>
   189e4:	e51b3018 	ldr	r3, [fp, #-24]	; 0xffffffe8
   189e8:	e3a02000 	mov	r2, #0
   189ec:	e5832038 	str	r2, [r3, #56]	; 0x38
   189f0:	e3a0002a 	mov	r0, #42	; 0x2a
   189f4:	ebfff05e 	bl	14b74 <tfp_printf>
   189f8:	e59f3044 	ldr	r3, [pc, #68]	; 18a44 <proc_encrypted+0x30c>
   189fc:	e08f3003 	add	r3, pc, r3
   18a00:	e5933000 	ldr	r3, [r3]
   18a04:	e2832001 	add	r2, r3, #1
   18a08:	e59f3038 	ldr	r3, [pc, #56]	; 18a48 <proc_encrypted+0x310>
   18a0c:	e08f3003 	add	r3, pc, r3
   18a10:	e5832000 	str	r2, [r3]
   18a14:	e320f000 	nop	{0}
   18a18:	e24bd004 	sub	sp, fp, #4
   18a1c:	e8bd8800 	pop	{fp, pc}
   18a20:	00002fa0 	.word	0x00002fa0
   18a24:	000308b0 	.word	0x000308b0
   18a28:	00002f3c 	.word	0x00002f3c
   18a2c:	00002e7c 	.word	0x00002e7c
   18a30:	00002e80 	.word	0x00002e80
   18a34:	00002e6c 	.word	0x00002e6c
   18a38:	00002e24 	.word	0x00002e24
   18a3c:	00002e38 	.word	0x00002e38
   18a40:	00002e34 	.word	0x00002e34
   18a44:	0003061c 	.word	0x0003061c
   18a48:	0003060c 	.word	0x0003060c

00018a4c <proc_packets>:
   18a4c:	e92d4800 	push	{fp, lr}
   18a50:	e28db004 	add	fp, sp, #4
   18a54:	e24dd018 	sub	sp, sp, #24
   18a58:	e50b0010 	str	r0, [fp, #-16]
   18a5c:	e50b1014 	str	r1, [fp, #-20]	; 0xffffffec
   18a60:	e50b2018 	str	r2, [fp, #-24]	; 0xffffffe8
   18a64:	e59f305c 	ldr	r3, [pc, #92]	; 18ac8 <proc_packets+0x7c>
   18a68:	e08f3003 	add	r3, pc, r3
   18a6c:	e1a00003 	mov	r0, r3
   18a70:	ebfff03f 	bl	14b74 <tfp_printf>
   18a74:	e3a00060 	mov	r0, #96	; 0x60
   18a78:	ebffe0f8 	bl	10e60 <xmalloc_clear>
   18a7c:	e1a03000 	mov	r3, r0
   18a80:	e50b3008 	str	r3, [fp, #-8]
   18a84:	e51b3008 	ldr	r3, [fp, #-8]
   18a88:	e51b2010 	ldr	r2, [fp, #-16]
   18a8c:	e5832000 	str	r2, [r3]
   18a90:	e51b3008 	ldr	r3, [fp, #-8]
   18a94:	e51b2014 	ldr	r2, [fp, #-20]	; 0xffffffec
   18a98:	e5832004 	str	r2, [r3, #4]
   18a9c:	e51b2018 	ldr	r2, [fp, #-24]	; 0xffffffe8
   18aa0:	e51b1008 	ldr	r1, [fp, #-8]
   18aa4:	e51b0010 	ldr	r0, [fp, #-16]
   18aa8:	eb000049 	bl	18bd4 <do_proc_packets>
   18aac:	e50b000c 	str	r0, [fp, #-12]
   18ab0:	e51b0008 	ldr	r0, [fp, #-8]
   18ab4:	ebffe128 	bl	10f5c <xfree>
   18ab8:	e51b300c 	ldr	r3, [fp, #-12]
   18abc:	e1a00003 	mov	r0, r3
   18ac0:	e24bd004 	sub	sp, fp, #4
   18ac4:	e8bd8800 	pop	{fp, pc}
   18ac8:	00002d8c 	.word	0x00002d8c

00018acc <proc_encryption_packets>:
   18acc:	e92d4800 	push	{fp, lr}
   18ad0:	e28db004 	add	fp, sp, #4
   18ad4:	e24dd018 	sub	sp, sp, #24
   18ad8:	e50b0010 	str	r0, [fp, #-16]
   18adc:	e50b1014 	str	r1, [fp, #-20]	; 0xffffffec
   18ae0:	e50b2018 	str	r2, [fp, #-24]	; 0xffffffe8
   18ae4:	e3a00060 	mov	r0, #96	; 0x60
   18ae8:	ebffe0dc 	bl	10e60 <xmalloc_clear>
   18aec:	e1a03000 	mov	r3, r0
   18af0:	e50b3008 	str	r3, [fp, #-8]
   18af4:	e51b3008 	ldr	r3, [fp, #-8]
   18af8:	e51b2010 	ldr	r2, [fp, #-16]
   18afc:	e5832000 	str	r2, [r3]
   18b00:	e51b3008 	ldr	r3, [fp, #-8]
   18b04:	e51b2014 	ldr	r2, [fp, #-20]	; 0xffffffec
   18b08:	e5832004 	str	r2, [r3, #4]
   18b0c:	e51b3008 	ldr	r3, [fp, #-8]
   18b10:	e3a02001 	mov	r2, #1
   18b14:	e5832014 	str	r2, [r3, #20]
   18b18:	e51b2018 	ldr	r2, [fp, #-24]	; 0xffffffe8
   18b1c:	e51b1008 	ldr	r1, [fp, #-8]
   18b20:	e51b0010 	ldr	r0, [fp, #-16]
   18b24:	eb00002a 	bl	18bd4 <do_proc_packets>
   18b28:	e50b000c 	str	r0, [fp, #-12]
   18b2c:	e51b0008 	ldr	r0, [fp, #-8]
   18b30:	ebffe109 	bl	10f5c <xfree>
   18b34:	e51b300c 	ldr	r3, [fp, #-12]
   18b38:	e1a00003 	mov	r0, r3
   18b3c:	e24bd004 	sub	sp, fp, #4
   18b40:	e8bd8800 	pop	{fp, pc}

00018b44 <check_nesting>:
   18b44:	e92d4800 	push	{fp, lr}
   18b48:	e28db004 	add	fp, sp, #4
   18b4c:	e24dd010 	sub	sp, sp, #16
   18b50:	e50b0010 	str	r0, [fp, #-16]
   18b54:	e3a03000 	mov	r3, #0
   18b58:	e50b3008 	str	r3, [fp, #-8]
   18b5c:	ea000005 	b	18b78 <check_nesting+0x34>
   18b60:	e51b3008 	ldr	r3, [fp, #-8]
   18b64:	e2833001 	add	r3, r3, #1
   18b68:	e50b3008 	str	r3, [fp, #-8]
   18b6c:	e51b3010 	ldr	r3, [fp, #-16]
   18b70:	e5933004 	ldr	r3, [r3, #4]
   18b74:	e50b3010 	str	r3, [fp, #-16]
   18b78:	e51b3010 	ldr	r3, [fp, #-16]
   18b7c:	e3530000 	cmp	r3, #0
   18b80:	1afffff6 	bne	18b60 <check_nesting+0x1c>
   18b84:	e51b3008 	ldr	r3, [fp, #-8]
   18b88:	e3530020 	cmp	r3, #32
   18b8c:	da00000a 	ble	18bbc <check_nesting+0x78>
   18b90:	e59f3034 	ldr	r3, [pc, #52]	; 18bcc <check_nesting+0x88>
   18b94:	e08f3003 	add	r3, pc, r3
   18b98:	e1a00003 	mov	r0, r3
   18b9c:	ebffeff4 	bl	14b74 <tfp_printf>
   18ba0:	e59f3028 	ldr	r3, [pc, #40]	; 18bd0 <check_nesting+0x8c>
   18ba4:	e08f3003 	add	r3, pc, r3
   18ba8:	e1a01003 	mov	r1, r3
   18bac:	e3a0003c 	mov	r0, #60	; 0x3c
   18bb0:	ebffefef 	bl	14b74 <tfp_printf>
   18bb4:	e3a03059 	mov	r3, #89	; 0x59
   18bb8:	ea000000 	b	18bc0 <check_nesting+0x7c>
   18bbc:	e3a03000 	mov	r3, #0
   18bc0:	e1a00003 	mov	r0, r3
   18bc4:	e24bd004 	sub	sp, fp, #4
   18bc8:	e8bd8800 	pop	{fp, pc}
   18bcc:	00002c70 	.word	0x00002c70
   18bd0:	00002c8c 	.word	0x00002c8c

00018bd4 <do_proc_packets>:
   18bd4:	e92d4800 	push	{fp, lr}
   18bd8:	e28db004 	add	fp, sp, #4
   18bdc:	e24dd040 	sub	sp, sp, #64	; 0x40
   18be0:	e50b0038 	str	r0, [fp, #-56]	; 0xffffffc8
   18be4:	e50b103c 	str	r1, [fp, #-60]	; 0xffffffc4
   18be8:	e50b2040 	str	r2, [fp, #-64]	; 0xffffffc0
   18bec:	e51b3038 	ldr	r3, [fp, #-56]	; 0xffffffc8
   18bf0:	e5933018 	ldr	r3, [r3, #24]
   18bf4:	e3530000 	cmp	r3, #0
   18bf8:	0a000019 	beq	18c64 <do_proc_packets+0x90>
   18bfc:	e51b3038 	ldr	r3, [fp, #-56]	; 0xffffffc8
   18c00:	e5933018 	ldr	r3, [r3, #24]
   18c04:	e1a00003 	mov	r0, r3
   18c08:	ebfffaa7 	bl	176ac <strlen>
   18c0c:	e1a03000 	mov	r3, r0
   18c10:	e2833001 	add	r3, r3, #1
   18c14:	e1a00003 	mov	r0, r3
   18c18:	ebffdfa6 	bl	10ab8 <malloc>
   18c1c:	e1a03000 	mov	r3, r0
   18c20:	e1a02003 	mov	r2, r3
   18c24:	e51b303c 	ldr	r3, [fp, #-60]	; 0xffffffc4
   18c28:	e5832030 	str	r2, [r3, #48]	; 0x30
   18c2c:	e51b303c 	ldr	r3, [fp, #-60]	; 0xffffffc4
   18c30:	e5932030 	ldr	r2, [r3, #48]	; 0x30
   18c34:	e51b3038 	ldr	r3, [fp, #-56]	; 0xffffffc8
   18c38:	e5933018 	ldr	r3, [r3, #24]
   18c3c:	e1a01003 	mov	r1, r3
   18c40:	e1a00002 	mov	r0, r2
   18c44:	ebfffccd 	bl	17f80 <my_strcpy>
   18c48:	e51b303c 	ldr	r3, [fp, #-60]	; 0xffffffc4
   18c4c:	e5933030 	ldr	r3, [r3, #48]	; 0x30
   18c50:	e1a01003 	mov	r1, r3
   18c54:	e59f339c 	ldr	r3, [pc, #924]	; 18ff8 <do_proc_packets+0x424>
   18c58:	e08f3003 	add	r3, pc, r3
   18c5c:	e1a00003 	mov	r0, r3
   18c60:	ebffefc3 	bl	14b74 <tfp_printf>
   18c64:	e51b3038 	ldr	r3, [fp, #-56]	; 0xffffffc8
   18c68:	e593301c 	ldr	r3, [r3, #28]
   18c6c:	e3530000 	cmp	r3, #0
   18c70:	0a000018 	beq	18cd8 <do_proc_packets+0x104>
   18c74:	e51b3038 	ldr	r3, [fp, #-56]	; 0xffffffc8
   18c78:	e593301c 	ldr	r3, [r3, #28]
   18c7c:	e1a00003 	mov	r0, r3
   18c80:	ebfffa89 	bl	176ac <strlen>
   18c84:	e1a03000 	mov	r3, r0
   18c88:	e2833001 	add	r3, r3, #1
   18c8c:	e50b3018 	str	r3, [fp, #-24]	; 0xffffffe8
   18c90:	e51b0018 	ldr	r0, [fp, #-24]	; 0xffffffe8
   18c94:	ebffdf87 	bl	10ab8 <malloc>
   18c98:	e1a03000 	mov	r3, r0
   18c9c:	e1a02003 	mov	r2, r3
   18ca0:	e51b303c 	ldr	r3, [fp, #-60]	; 0xffffffc4
   18ca4:	e5832034 	str	r2, [r3, #52]	; 0x34
   18ca8:	e51b303c 	ldr	r3, [fp, #-60]	; 0xffffffc4
   18cac:	e5933034 	ldr	r3, [r3, #52]	; 0x34
   18cb0:	e3530000 	cmp	r3, #0
   18cb4:	0a00000b 	beq	18ce8 <do_proc_packets+0x114>
   18cb8:	e51b303c 	ldr	r3, [fp, #-60]	; 0xffffffc4
   18cbc:	e5930034 	ldr	r0, [r3, #52]	; 0x34
   18cc0:	e51b3038 	ldr	r3, [fp, #-56]	; 0xffffffc8
   18cc4:	e593301c 	ldr	r3, [r3, #28]
   18cc8:	e51b2018 	ldr	r2, [fp, #-24]	; 0xffffffe8
   18ccc:	e1a01003 	mov	r1, r3
   18cd0:	ebffe0f8 	bl	110b8 <memcpy>
   18cd4:	ea000003 	b	18ce8 <do_proc_packets+0x114>
   18cd8:	e59f331c 	ldr	r3, [pc, #796]	; 18ffc <do_proc_packets+0x428>
   18cdc:	e08f3003 	add	r3, pc, r3
   18ce0:	e1a00003 	mov	r0, r3
   18ce4:	ebffefa2 	bl	14b74 <tfp_printf>
   18ce8:	e51b3038 	ldr	r3, [fp, #-56]	; 0xffffffc8
   18cec:	e5932020 	ldr	r2, [r3, #32]
   18cf0:	e51b303c 	ldr	r3, [fp, #-60]	; 0xffffffc4
   18cf4:	e583201c 	str	r2, [r3, #28]
   18cf8:	e3a03000 	mov	r3, #0
   18cfc:	e50b300c 	str	r3, [fp, #-12]
   18d00:	e3a03000 	mov	r3, #0
   18d04:	e50b3010 	str	r3, [fp, #-16]
   18d08:	e51b003c 	ldr	r0, [fp, #-60]	; 0xffffffc4
   18d0c:	ebffff8c 	bl	18b44 <check_nesting>
   18d10:	e50b000c 	str	r0, [fp, #-12]
   18d14:	e51b300c 	ldr	r3, [fp, #-12]
   18d18:	e3530000 	cmp	r3, #0
   18d1c:	0a000001 	beq	18d28 <do_proc_packets+0x154>
   18d20:	e51b300c 	ldr	r3, [fp, #-12]
   18d24:	ea0000b0 	b	18fec <do_proc_packets+0x418>
   18d28:	e3a00008 	mov	r0, #8
   18d2c:	ebffe02b 	bl	10de0 <xmalloc>
   18d30:	e1a03000 	mov	r3, r0
   18d34:	e50b3008 	str	r3, [fp, #-8]
   18d38:	e51b303c 	ldr	r3, [fp, #-60]	; 0xffffffc4
   18d3c:	e51b2040 	ldr	r2, [fp, #-64]	; 0xffffffc0
   18d40:	e5832040 	str	r2, [r3, #64]	; 0x40
   18d44:	e51b3008 	ldr	r3, [fp, #-8]
   18d48:	e3a02000 	mov	r2, #0
   18d4c:	e5c32000 	strb	r2, [r3]
   18d50:	e51b3008 	ldr	r3, [fp, #-8]
   18d54:	e3a02000 	mov	r2, #0
   18d58:	e5832004 	str	r2, [r3, #4]
   18d5c:	e51b3040 	ldr	r3, [fp, #-64]	; 0xffffffc0
   18d60:	e50b3030 	str	r3, [fp, #-48]	; 0xffffffd0
   18d64:	e3a03000 	mov	r3, #0
   18d68:	e54b302c 	strb	r3, [fp, #-44]	; 0xffffffd4
   18d6c:	e3a03000 	mov	r3, #0
   18d70:	e50b3028 	str	r3, [fp, #-40]	; 0xffffffd8
   18d74:	e3a03000 	mov	r3, #0
   18d78:	e50b3024 	str	r3, [fp, #-36]	; 0xffffffdc
   18d7c:	e3a03000 	mov	r3, #0
   18d80:	e50b3020 	str	r3, [fp, #-32]	; 0xffffffe0
   18d84:	e3a03000 	mov	r3, #0
   18d88:	e50b301c 	str	r3, [fp, #-28]	; 0xffffffe4
   18d8c:	ea000060 	b	18f14 <do_proc_packets+0x340>
   18d90:	e3a03001 	mov	r3, #1
   18d94:	e50b3010 	str	r3, [fp, #-16]
   18d98:	e51b300c 	ldr	r3, [fp, #-12]
   18d9c:	e3530000 	cmp	r3, #0
   18da0:	0a000004 	beq	18db8 <do_proc_packets+0x1e4>
   18da4:	e24b3030 	sub	r3, fp, #48	; 0x30
   18da8:	e1a01003 	mov	r1, r3
   18dac:	e51b0008 	ldr	r0, [fp, #-8]
   18db0:	ebffcdc5 	bl	c4cc <free_packet>
   18db4:	ea00007a 	b	18fa4 <do_proc_packets+0x3d0>
   18db8:	e3e03000 	mvn	r3, #0
   18dbc:	e50b3014 	str	r3, [fp, #-20]	; 0xffffffec
   18dc0:	e51b303c 	ldr	r3, [fp, #-60]	; 0xffffffc4
   18dc4:	e5933014 	ldr	r3, [r3, #20]
   18dc8:	e3530000 	cmp	r3, #0
   18dcc:	0a000025 	beq	18e68 <do_proc_packets+0x294>
   18dd0:	e51b3008 	ldr	r3, [fp, #-8]
   18dd4:	e5d33000 	ldrb	r3, [r3]
   18dd8:	e2433003 	sub	r3, r3, #3
   18ddc:	e3530011 	cmp	r3, #17
   18de0:	908ff103 	addls	pc, pc, r3, lsl #2
   18de4:	ea00001c 	b	18e5c <do_proc_packets+0x288>
   18de8:	ea000013 	b	18e3c <do_proc_packets+0x268>
   18dec:	ea00001a 	b	18e5c <do_proc_packets+0x288>
   18df0:	ea00000e 	b	18e30 <do_proc_packets+0x25c>
   18df4:	ea00000d 	b	18e30 <do_proc_packets+0x25c>
   18df8:	ea000017 	b	18e5c <do_proc_packets+0x288>
   18dfc:	ea000016 	b	18e5c <do_proc_packets+0x288>
   18e00:	ea000011 	b	18e4c <do_proc_packets+0x278>
   18e04:	ea000014 	b	18e5c <do_proc_packets+0x288>
   18e08:	ea000013 	b	18e5c <do_proc_packets+0x288>
   18e0c:	ea000012 	b	18e5c <do_proc_packets+0x288>
   18e10:	ea000006 	b	18e30 <do_proc_packets+0x25c>
   18e14:	ea000010 	b	18e5c <do_proc_packets+0x288>
   18e18:	ea00000f 	b	18e5c <do_proc_packets+0x288>
   18e1c:	ea00000e 	b	18e5c <do_proc_packets+0x288>
   18e20:	ea00000d 	b	18e5c <do_proc_packets+0x288>
   18e24:	ea000008 	b	18e4c <do_proc_packets+0x278>
   18e28:	ea00000b 	b	18e5c <do_proc_packets+0x288>
   18e2c:	ea000006 	b	18e4c <do_proc_packets+0x278>
   18e30:	e3a03026 	mov	r3, #38	; 0x26
   18e34:	e50b300c 	str	r3, [fp, #-12]
   18e38:	ea000059 	b	18fa4 <do_proc_packets+0x3d0>
   18e3c:	e51b1008 	ldr	r1, [fp, #-8]
   18e40:	e51b003c 	ldr	r0, [fp, #-60]	; 0xffffffc4
   18e44:	ebfffdb2 	bl	18514 <proc_symkey_enc>
   18e48:	ea000007 	b	18e6c <do_proc_packets+0x298>
   18e4c:	e51b1008 	ldr	r1, [fp, #-8]
   18e50:	e51b003c 	ldr	r0, [fp, #-60]	; 0xffffffc4
   18e54:	ebfffe37 	bl	18738 <proc_encrypted>
   18e58:	ea000003 	b	18e6c <do_proc_packets+0x298>
   18e5c:	e3a03000 	mov	r3, #0
   18e60:	e50b3014 	str	r3, [fp, #-20]	; 0xffffffec
   18e64:	ea000000 	b	18e6c <do_proc_packets+0x298>
   18e68:	e320f000 	nop	{0}
   18e6c:	e51b300c 	ldr	r3, [fp, #-12]
   18e70:	e3530000 	cmp	r3, #0
   18e74:	1a000047 	bne	18f98 <do_proc_packets+0x3c4>
   18e78:	e51b3008 	ldr	r3, [fp, #-8]
   18e7c:	e5d33000 	ldrb	r3, [r3]
   18e80:	e3530002 	cmp	r3, #2
   18e84:	0a00000d 	beq	18ec0 <do_proc_packets+0x2ec>
   18e88:	e51b3008 	ldr	r3, [fp, #-8]
   18e8c:	e5d33000 	ldrb	r3, [r3]
   18e90:	e3530013 	cmp	r3, #19
   18e94:	0a000009 	beq	18ec0 <do_proc_packets+0x2ec>
   18e98:	e51b3008 	ldr	r3, [fp, #-8]
   18e9c:	e5d33000 	ldrb	r3, [r3]
   18ea0:	e353000b 	cmp	r3, #11
   18ea4:	03a03001 	moveq	r3, #1
   18ea8:	13a03000 	movne	r3, #0
   18eac:	e6ef1073 	uxtb	r1, r3
   18eb0:	e51b203c 	ldr	r2, [fp, #-60]	; 0xffffffc4
   18eb4:	e5d2305c 	ldrb	r3, [r2, #92]	; 0x5c
   18eb8:	e7c13091 	bfi	r3, r1, #1, #1
   18ebc:	e5c2305c 	strb	r3, [r2, #92]	; 0x5c
   18ec0:	e51b3014 	ldr	r3, [fp, #-20]	; 0xffffffec
   18ec4:	e3730001 	cmn	r3, #1
   18ec8:	0a000011 	beq	18f14 <do_proc_packets+0x340>
   18ecc:	e51b3014 	ldr	r3, [fp, #-20]	; 0xffffffec
   18ed0:	e3530000 	cmp	r3, #0
   18ed4:	0a00000a 	beq	18f04 <do_proc_packets+0x330>
   18ed8:	e3a00008 	mov	r0, #8
   18edc:	ebffdfbf 	bl	10de0 <xmalloc>
   18ee0:	e1a03000 	mov	r3, r0
   18ee4:	e50b3008 	str	r3, [fp, #-8]
   18ee8:	e51b3008 	ldr	r3, [fp, #-8]
   18eec:	e3a02000 	mov	r2, #0
   18ef0:	e5c32000 	strb	r2, [r3]
   18ef4:	e51b3008 	ldr	r3, [fp, #-8]
   18ef8:	e3a02000 	mov	r2, #0
   18efc:	e5832004 	str	r2, [r3, #4]
   18f00:	ea000003 	b	18f14 <do_proc_packets+0x340>
   18f04:	e24b3030 	sub	r3, fp, #48	; 0x30
   18f08:	e1a01003 	mov	r1, r3
   18f0c:	e51b0008 	ldr	r0, [fp, #-8]
   18f10:	ebffcd6d 	bl	c4cc <free_packet>
   18f14:	e24b0030 	sub	r0, fp, #48	; 0x30
   18f18:	e30037a1 	movw	r3, #1953	; 0x7a1
   18f1c:	e59f20dc 	ldr	r2, [pc, #220]	; 19000 <do_proc_packets+0x42c>
   18f20:	e08f2002 	add	r2, pc, r2
   18f24:	e51b1008 	ldr	r1, [fp, #-8]
   18f28:	ebffe265 	bl	118c4 <dbg_parse_packet>
   18f2c:	e50b000c 	str	r0, [fp, #-12]
   18f30:	e51b300c 	ldr	r3, [fp, #-12]
   18f34:	e3730001 	cmn	r3, #1
   18f38:	1affff94 	bne	18d90 <do_proc_packets+0x1bc>
   18f3c:	e51b300c 	ldr	r3, [fp, #-12]
   18f40:	e353000e 	cmp	r3, #14
   18f44:	1a000004 	bne	18f5c <do_proc_packets+0x388>
   18f48:	e59f30b4 	ldr	r3, [pc, #180]	; 19004 <do_proc_packets+0x430>
   18f4c:	e08f3003 	add	r3, pc, r3
   18f50:	e1a01003 	mov	r1, r3
   18f54:	e3a00011 	mov	r0, #17
   18f58:	ebffef05 	bl	14b74 <tfp_printf>
   18f5c:	e51b3010 	ldr	r3, [fp, #-16]
   18f60:	e3530000 	cmp	r3, #0
   18f64:	0a000002 	beq	18f74 <do_proc_packets+0x3a0>
   18f68:	e3a03000 	mov	r3, #0
   18f6c:	e50b300c 	str	r3, [fp, #-12]
   18f70:	ea00000b 	b	18fa4 <do_proc_packets+0x3d0>
   18f74:	e51b300c 	ldr	r3, [fp, #-12]
   18f78:	e3730001 	cmn	r3, #1
   18f7c:	1a000007 	bne	18fa0 <do_proc_packets+0x3cc>
   18f80:	e59f3080 	ldr	r3, [pc, #128]	; 19008 <do_proc_packets+0x434>
   18f84:	e08f3003 	add	r3, pc, r3
   18f88:	e1a01003 	mov	r1, r3
   18f8c:	e3a00011 	mov	r0, #17
   18f90:	ebffeef7 	bl	14b74 <tfp_printf>
   18f94:	ea000002 	b	18fa4 <do_proc_packets+0x3d0>
   18f98:	e320f000 	nop	{0}
   18f9c:	ea000000 	b	18fa4 <do_proc_packets+0x3d0>
   18fa0:	e320f000 	nop	{0}
   18fa4:	e51b303c 	ldr	r3, [fp, #-60]	; 0xffffffc4
   18fa8:	e593302c 	ldr	r3, [r3, #44]	; 0x2c
   18fac:	e1a00003 	mov	r0, r3
   18fb0:	ebffdfe9 	bl	10f5c <xfree>
   18fb4:	e24b3030 	sub	r3, fp, #48	; 0x30
   18fb8:	e1a01003 	mov	r1, r3
   18fbc:	e51b0008 	ldr	r0, [fp, #-8]
   18fc0:	ebffcd41 	bl	c4cc <free_packet>
   18fc4:	e51b3024 	ldr	r3, [fp, #-36]	; 0xffffffdc
   18fc8:	e3530000 	cmp	r3, #0
   18fcc:	0a000003 	beq	18fe0 <do_proc_packets+0x40c>
   18fd0:	e24b3030 	sub	r3, fp, #48	; 0x30
   18fd4:	e1a01003 	mov	r1, r3
   18fd8:	e3a00000 	mov	r0, #0
   18fdc:	ebffcd3a 	bl	c4cc <free_packet>
   18fe0:	e51b0008 	ldr	r0, [fp, #-8]
   18fe4:	ebffdfdc 	bl	10f5c <xfree>
   18fe8:	e51b300c 	ldr	r3, [fp, #-12]
   18fec:	e1a00003 	mov	r0, r3
   18ff0:	e24bd004 	sub	sp, fp, #4
   18ff4:	e8bd8800 	pop	{fp, pc}
   18ff8:	00002bdc 	.word	0x00002bdc
   18ffc:	00002b70 	.word	0x00002b70
   19000:	00002950 	.word	0x00002950
   19004:	00002934 	.word	0x00002934
   19008:	00002900 	.word	0x00002900
